

HI-TECH Software PIC LITE Macro Assembler V9.71a build 6446 
                                                                                               Thu Nov 17 16:58:55 2022

HI-TECH Software Omniscient Code Generator (Lite mode) build 6446
     1  0000                     opt subtitle "HI-TECH Software Omniscient Code Generator (Lite mode) build 6446"
     2                           
     3                           opt pagewidth 120
     4                           
     5                           	opt lm
     6                           
     7                           	processor	16F877A
     8                           clrc	macro
     9                           	bcf	3,0
    10  0000                     	endm
    11                           clrz	macro
    12                           	bcf	3,2
    13  0000                     	endm
    14                           setc	macro
    15                           	bsf	3,0
    16  0000                     	endm
    17                           setz	macro
    18                           	bsf	3,2
    19  0000                     	endm
    20                           skipc	macro
    21                           	btfss	3,0
    22  0000                     	endm
    23                           skipz	macro
    24                           	btfss	3,2
    25  0000                     	endm
    26                           skipnc	macro
    27                           	btfsc	3,0
    28  0000                     	endm
    29                           skipnz	macro
    30                           	btfsc	3,2
    31  0000                     	endm
    32  0000                     indf	equ	0
    33  0000                     indf0	equ	0
    34  0002                     pc	equ	2
    35  0002                     pcl	equ	2
    36  0003                     status	equ	3
    37  0004                     fsr	equ	4
    38  0004                     fsr0	equ	4
    39  0001                     c	equ	1
    40  0000                     z	equ	0
    41  000A                     pclath	equ	10
    42                           # 2 "C:\Users\TECH\Desktop\madhu pic folder\gps&gsm\women safety concept.sensor abnormal
                                  gps on gsm\women safety concept sensor abnormal gps on gsm.c"
    43                           	psect config,class=CONFIG,delta=2 ;#
    44                           # 2 "C:\Users\TECH\Desktop\madhu pic folder\gps&gsm\women safety concept.sensor abnormal
                                  gps on gsm\women safety concept sensor abnormal gps on gsm.c"
    45  2007  3F72               	dw 0X3F72 ;#
    46                           	FNCALL	_main,_lcd_init
    47                           	FNCALL	_main,_delay
    48                           	FNCALL	_main,_gps_init
    49                           	FNCALL	_main,_lcd_cmd
    50                           	FNCALL	_main,_lcd_display
    51                           	FNCALL	_main,___lwdiv
    52                           	FNCALL	_main,___lwmod
    53                           	FNCALL	_main,_lcd_data
    54                           	FNCALL	_main,_serial
    55                           	FNCALL	_main,_txs
    56                           	FNCALL	_main,_gps_send
    57                           	FNCALL	_main,_sms1
    58                           	FNCALL	_gps_send,_lcd_cmd
    59                           	FNCALL	_gps_send,_delay
    60                           	FNCALL	_gps_send,_lcd_display
    61                           	FNCALL	_gps_send,_lcd_data
    62                           	FNCALL	_sms1,_txs
    63                           	FNCALL	_sms1,_delay
    64                           	FNCALL	_sms1,_gsm_command
    65                           	FNCALL	_sms1,_lcd_cmd
    66                           	FNCALL	_lcd_init,_lcd_cmd
    67                           	FNCALL	_lcd_display,_lcd_data
    68                           	FNCALL	_serial,_delay
    69                           	FNCALL	_lcd_data,_delay
    70                           	FNCALL	_lcd_cmd,_delay
    71                           	FNROOT	_main
    72                           	FNCALL	intlevel1,_rcx
    73                           	global	intlevel1
    74                           	FNROOT	intlevel1
    75                           	global	_ser
    76                           	global	_st
    77                           psect	idataBANK0,class=CODE,space=0,delta=2
    78                           global __pidataBANK0
    79  07FC                     __pidataBANK0:
    80                           	file	"C:\Users\TECH\Desktop\madhu pic folder\gps&gsm\women safety concept.sensor abnorm
                                 al gps on gsm\women safety concept sensor abnormal gps on gsm.c"
    81                           	line	9
    82                           
    83                           ;initializer for _ser
    84  07FC  3437               	retlw	037h
    85                           
    86                           ;initializer for _st
    87  07FD  3401               	retlw	01h
    88                           	global	_a
    89                           	global	_b
    90                           	global	_c
    91                           	global	_d
    92                           	global	_e
    93                           	global	_f
    94                           	global	_i
    95                           	global	_j
    96                           	global	_temp1
    97                           	global	_y
    98                           	global	_z
    99                           	global	_data_cap
   100                           	global	_temp
   101                           	global	_gpsdata
   102                           	global	_ADCON0
   103  001F                     _ADCON0	set	31
   104                           	global	_ADRESH
   105  001E                     _ADRESH	set	30
   106                           	global	_PORTA
   107  0005                     _PORTA	set	5
   108                           	global	_PORTB
   109  0006                     _PORTB	set	6
   110                           	global	_PORTC
   111  0007                     _PORTC	set	7
   112                           	global	_PORTD
   113  0008                     _PORTD	set	8
   114                           	global	_RCREG
   115  001A                     _RCREG	set	26
   116                           	global	_RCSTA
   117  0018                     _RCSTA	set	24
   118                           	global	_TXREG
   119  0019                     _TXREG	set	25
   120                           	global	_ADON
   121  00F8                     _ADON	set	248
   122                           	global	_CHS0
   123  00FB                     _CHS0	set	251
   124                           	global	_CHS1
   125  00FC                     _CHS1	set	252
   126                           	global	_CHS2
   127  00FD                     _CHS2	set	253
   128                           	global	_GIE
   129  005F                     _GIE	set	95
   130                           	global	_OERR
   131  00C1                     _OERR	set	193
   132                           	global	_PEIE
   133  005E                     _PEIE	set	94
   134                           	global	_RCIF
   135  0065                     _RCIF	set	101
   136                           	global	_RD1
   137  0041                     _RD1	set	65
   138                           	global	_RD2
   139  0042                     _RD2	set	66
   140                           	global	_RD3
   141  0043                     _RD3	set	67
   142                           	global	_TXIF
   143  0064                     _TXIF	set	100
   144                           	global	_ADCON1
   145  009F                     _ADCON1	set	159
   146                           	global	_ADRESL
   147  009E                     _ADRESL	set	158
   148                           	global	_SPBRG
   149  0099                     _SPBRG	set	153
   150                           	global	_TRISA
   151  0085                     _TRISA	set	133
   152                           	global	_TRISB
   153  0086                     _TRISB	set	134
   154                           	global	_TRISC
   155  0087                     _TRISC	set	135
   156                           	global	_TRISD
   157  0088                     _TRISD	set	136
   158                           	global	_TXSTA
   159  0098                     _TXSTA	set	152
   160                           	global	_BRGH
   161  04C2                     _BRGH	set	1218
   162                           	global	_RCIE
   163  0465                     _RCIE	set	1125
   164                           psect	strings,class=STRING,delta=2
   165                           global __pstrings
   166  0013                     __pstrings:
   167                           ;	global	stringdir,stringtab,__stringbase
   168  0013                     stringtab:
   169                           ;	String table - string pointers are 1 byte each
   170  0013                     stringcode:stringdir:
      + 0013                     stringdir:	
   171  0013  3000               movlw high(stringdir)
   172  0014  008A               movwf pclath
   173  0015  0804               movf fsr,w
   174  0016  0A84               incf fsr
   175  0017  0782               	addwf pc
   176  0018                     __stringbase:
   177  0018  3400               	retlw	0
   178                           psect	strings
   179                           	
   180  0019                     STR_2:	
   181  0019  3467               	retlw	103	;'g'
   182  001A  3470               	retlw	112	;'p'
   183  001B  3473               	retlw	115	;'s'
   184  001C  3420               	retlw	32	;' '
   185  001D  346C               	retlw	108	;'l'
   186  001E  346F               	retlw	111	;'o'
   187  001F  3463               	retlw	99	;'c'
   188  0020  3461               	retlw	97	;'a'
   189  0021  3474               	retlw	116	;'t'
   190  0022  3469               	retlw	105	;'i'
   191  0023  346F               	retlw	111	;'o'
   192  0024  346E               	retlw	110	;'n'
   193  0025  3400               	retlw	0
   194                           psect	strings
   195                           	
   196  0026                     STR_4:	
   197  0026  344D               	retlw	77	;'M'
   198  0027  3473               	retlw	115	;'s'
   199  0028  3467               	retlw	103	;'g'
   200  0029  3420               	retlw	32	;' '
   201  002A  3473               	retlw	115	;'s'
   202  002B  3465               	retlw	101	;'e'
   203  002C  346E               	retlw	110	;'n'
   204  002D  3464               	retlw	100	;'d'
   205  002E  3469               	retlw	105	;'i'
   206  002F  346E               	retlw	110	;'n'
   207  0030  3467               	retlw	103	;'g'
   208  0031  3400               	retlw	0
   209                           psect	strings
   210                           	
   211  0032                     STR_6:	
   212  0032  3441               	retlw	65	;'A'
   213  0033  3454               	retlw	84	;'T'
   214  0034  342B               	retlw	43	;'+'
   215  0035  3443               	retlw	67	;'C'
   216  0036  344D               	retlw	77	;'M'
   217  0037  3447               	retlw	71	;'G'
   218  0038  3446               	retlw	70	;'F'
   219  0039  343D               	retlw	61	;'='
   220  003A  3431               	retlw	49	;'1'
   221  003B  3400               	retlw	0
   222                           psect	strings
   223                           	
   224  003C                     STR_3:	
   225  003C  3457               	retlw	87	;'W'
   226  003D  3445               	retlw	69	;'E'
   227  003E  344C               	retlw	76	;'L'
   228  003F  3443               	retlw	67	;'C'
   229  0040  344F               	retlw	79	;'O'
   230  0041  344D               	retlw	77	;'M'
   231  0042  3445               	retlw	69	;'E'
   232  0043  3400               	retlw	0
   233                           psect	strings
   234                           	
   235  0044                     STR_1:	
   236  0044  3467               	retlw	103	;'g'
   237  0045  3470               	retlw	112	;'p'
   238  0046  3473               	retlw	115	;'s'
   239  0047  3400               	retlw	0
   240                           psect	strings
   241                           	
   242  0048                     STR_5:	
   243  0048  3441               	retlw	65	;'A'
   244  0049  3454               	retlw	84	;'T'
   245  004A  3400               	retlw	0
   246                           psect	strings
   247                           	file	"women safety concept sensor abnormal gps on gsm.as"
   248                           	line	#
   249                           psect cinit,class=CODE,delta=2
   250                           global start_initialization
   251  07A2                     start_initialization:
   252                           
   253                           psect	bssCOMMON,class=COMMON,space=1
   254                           global __pbssCOMMON
   255  0077                     __pbssCOMMON:
   256  0077                     _temp:
   257  0077                            ds      2
   258                           
   259                           psect	bssBANK0,class=BANK0,space=1
   260                           global __pbssBANK0
   261  0020                     __pbssBANK0:
   262  0020                     _a:
   263  0020                            ds      2
   264                           
   265  0022                     _b:
   266  0022                            ds      2
   267                           
   268  0024                     _c:
   269  0024                            ds      2
   270                           
   271  0026                     _d:
   272  0026                            ds      2
   273                           
   274  0028                     _e:
   275  0028                            ds      2
   276                           
   277  002A                     _f:
   278  002A                            ds      2
   279                           
   280  002C                     _i:
   281  002C                            ds      2
   282                           
   283  002E                     _j:
   284  002E                            ds      2
   285                           
   286  0030                     _temp1:
   287  0030                            ds      2
   288                           
   289  0032                     _y:
   290  0032                            ds      2
   291                           
   292  0034                     _z:
   293  0034                            ds      2
   294                           
   295  0036                     _data_cap:
   296  0036                            ds      1
   297                           
   298                           psect	dataBANK0,class=BANK0,space=1
   299                           global __pdataBANK0
   300  0040                     __pdataBANK0:
   301                           	file	"C:\Users\TECH\Desktop\madhu pic folder\gps&gsm\women safety concept.sensor abnorm
                                 al gps on gsm\women safety concept sensor abnormal gps on gsm.c"
   302  0040                     _ser:
   303  0040                            ds      1
   304                           
   305                           psect	dataBANK0
   306                           	file	"C:\Users\TECH\Desktop\madhu pic folder\gps&gsm\women safety concept.sensor abnorm
                                 al gps on gsm\women safety concept sensor abnormal gps on gsm.c"
   307  0041                     _st:
   308  0041                            ds      1
   309                           
   310                           psect	bssBANK1,class=BANK1,space=1
   311                           global __pbssBANK1
   312  00A0                     __pbssBANK1:
   313  00A0                     _gpsdata:
   314  00A0                            ds      50
   315                           
   316                           psect clrtext,class=CODE,delta=2
   317                           global clear_ram
   318                           ;	Called with FSR containing the base address, and
   319                           ;	W with the last address+1
   320  07F4                     clear_ram:
   321  07F4  0064               	clrwdt			;clear the watchdog before getting into this loop
   322  07F5                     clrloop:
   323  07F5  0180               	clrf	indf		;clear RAM location pointed to by FSR
   324  07F6  0A84               	incf	fsr,f		;increment pointer
   325  07F7  0604               	xorwf	fsr,w		;XOR with final address
   326  07F8  1903               	btfsc	status,2	;have we reached the end yet?
   327  07F9  3400               	retlw	0		;all done for this memory range, return
   328  07FA  0604               	xorwf	fsr,w		;XOR again to restore value
   329  07FB  2FF5               	goto	clrloop		;do the next byte
   330                           
   331                           ; Clear objects allocated to COMMON
   332                           psect cinit,class=CODE,delta=2
   333  07A2  01F7               	clrf	((__pbssCOMMON)+0)&07Fh
   334  07A3  01F8               	clrf	((__pbssCOMMON)+1)&07Fh
   335                           ; Clear objects allocated to BANK0
   336                           psect cinit,class=CODE,delta=2
   337  07A4  1383               	bcf	status, 7	;select IRP bank0
   338  07A5  3020               	movlw	low(__pbssBANK0)
   339  07A6  0084               	movwf	fsr
   340  07A7  3037               	movlw	low((__pbssBANK0)+017h)
   341  07A8  120A  118A  27F4   	fcall	clear_ram
              120A  118A         
   342                           ; Clear objects allocated to BANK1
   343                           psect cinit,class=CODE,delta=2
   344  07AD  30A0               	movlw	low(__pbssBANK1)
   345  07AE  0084               	movwf	fsr
   346  07AF  30D2               	movlw	low((__pbssBANK1)+032h)
   347  07B0  120A  118A  27F4   	fcall	clear_ram
              120A  118A         
   348                           ; Initialize objects allocated to BANK0
   349                           	global __pidataBANK0
   350                           psect cinit,class=CODE,delta=2
   351  07B5  120A  118A  27FC   	fcall	__pidataBANK0+0		;fetch initializer
              120A  118A         
   352  07BA  00C0               	movwf	__pdataBANK0+0&07fh		
   353  07BB  120A  118A  27FD   	fcall	__pidataBANK0+1		;fetch initializer
              120A  118A         
   354  07C0  00C1               	movwf	__pdataBANK0+1&07fh		
   355                           psect cinit,class=CODE,delta=2
   356                           global end_of_initialization
   357                           
   358                           ;End of C runtime variable initialization code
   359                           
   360  07C1                     end_of_initialization:
   361  07C1  0183               clrf status
   362  07C2  120A  118A  284B   ljmp _main	;jump to C main() function
   363                           psect	cstackCOMMON,class=COMMON,space=1
   364                           global __pcstackCOMMON
   365  0070                     __pcstackCOMMON:
   366                           	global	?_gps_init
   367  0070                     ?_gps_init:	; 0 bytes @ 0x0
   368                           	global	?_lcd_cmd
   369  0070                     ?_lcd_cmd:	; 0 bytes @ 0x0
   370                           	global	?_lcd_data
   371  0070                     ?_lcd_data:	; 0 bytes @ 0x0
   372                           	global	?_lcd_display
   373  0070                     ?_lcd_display:	; 0 bytes @ 0x0
   374                           	global	?_lcd_init
   375  0070                     ?_lcd_init:	; 0 bytes @ 0x0
   376                           	global	?_rcx
   377  0070                     ?_rcx:	; 0 bytes @ 0x0
   378                           	global	??_rcx
   379  0070                     ??_rcx:	; 0 bytes @ 0x0
   380                           	global	?_gps_send
   381  0070                     ?_gps_send:	; 0 bytes @ 0x0
   382                           	global	?_gsm_command
   383  0070                     ?_gsm_command:	; 0 bytes @ 0x0
   384                           	global	?_txs
   385  0070                     ?_txs:	; 0 bytes @ 0x0
   386                           	global	?_sms1
   387  0070                     ?_sms1:	; 0 bytes @ 0x0
   388                           	global	?_serial
   389  0070                     ?_serial:	; 0 bytes @ 0x0
   390                           	global	?_main
   391  0070                     ?_main:	; 0 bytes @ 0x0
   392  0070                     	ds	5
   393                           	global	?_delay
   394  0075                     ?_delay:	; 0 bytes @ 0x5
   395                           	global	??_gps_init
   396  0075                     ??_gps_init:	; 0 bytes @ 0x5
   397                           	global	??_gsm_command
   398  0075                     ??_gsm_command:	; 0 bytes @ 0x5
   399                           	global	??_txs
   400  0075                     ??_txs:	; 0 bytes @ 0x5
   401                           	global	??___lwdiv
   402  0075                     ??___lwdiv:	; 0 bytes @ 0x5
   403                           	global	??___lwmod
   404  0075                     ??___lwmod:	; 0 bytes @ 0x5
   405                           	global	txs@val
   406  0075                     txs@val:	; 1 bytes @ 0x5
   407                           	global	delay@x
   408  0075                     delay@x:	; 2 bytes @ 0x5
   409  0075                     	ds	1
   410                           	global	___lwmod@counter
   411  0076                     ___lwmod@counter:	; 1 bytes @ 0x6
   412  0076                     	ds	1
   413                           	global	??_delay
   414  0077                     ??_delay:	; 0 bytes @ 0x7
   415                           	global	??_lcd_display
   416  0077                     ??_lcd_display:	; 0 bytes @ 0x7
   417                           	global	??_lcd_init
   418  0077                     ??_lcd_init:	; 0 bytes @ 0x7
   419                           psect	cstackBANK0,class=BANK0,space=1
   420                           global __pcstackBANK0
   421  0037                     __pcstackBANK0:
   422                           	global	??_lcd_cmd
   423  0037                     ??_lcd_cmd:	; 0 bytes @ 0x0
   424                           	global	??_lcd_data
   425  0037                     ??_lcd_data:	; 0 bytes @ 0x0
   426                           	global	??_serial
   427  0037                     ??_serial:	; 0 bytes @ 0x0
   428                           	global	?___lwdiv
   429  0037                     ?___lwdiv:	; 2 bytes @ 0x0
   430                           	global	?___lwmod
   431  0037                     ?___lwmod:	; 2 bytes @ 0x0
   432                           	global	gsm_command@da
   433  0037                     gsm_command@da:	; 1 bytes @ 0x0
   434                           	global	___lwdiv@divisor
   435  0037                     ___lwdiv@divisor:	; 2 bytes @ 0x0
   436                           	global	___lwmod@divisor
   437  0037                     ___lwmod@divisor:	; 2 bytes @ 0x0
   438  0037                     	ds	1
   439                           	global	serial@a
   440  0038                     serial@a:	; 1 bytes @ 0x1
   441                           	global	gsm_command@s
   442  0038                     gsm_command@s:	; 2 bytes @ 0x1
   443  0038                     	ds	1
   444                           	global	lcd_cmd@com
   445  0039                     lcd_cmd@com:	; 1 bytes @ 0x2
   446                           	global	lcd_data@dat
   447  0039                     lcd_data@dat:	; 1 bytes @ 0x2
   448                           	global	serial@B
   449  0039                     serial@B:	; 1 bytes @ 0x2
   450                           	global	___lwdiv@dividend
   451  0039                     ___lwdiv@dividend:	; 2 bytes @ 0x2
   452                           	global	___lwmod@dividend
   453  0039                     ___lwmod@dividend:	; 2 bytes @ 0x2
   454  0039                     	ds	1
   455                           	global	??_sms1
   456  003A                     ??_sms1:	; 0 bytes @ 0x3
   457                           	global	lcd_display@m
   458  003A                     lcd_display@m:	; 1 bytes @ 0x3
   459  003A                     	ds	1
   460                           	global	___lwdiv@counter
   461  003B                     ___lwdiv@counter:	; 1 bytes @ 0x4
   462                           	global	lcd_display@k
   463  003B                     lcd_display@k:	; 2 bytes @ 0x4
   464  003B                     	ds	1
   465                           	global	___lwdiv@quotient
   466  003C                     ___lwdiv@quotient:	; 2 bytes @ 0x5
   467  003C                     	ds	1
   468                           	global	??_gps_send
   469  003D                     ??_gps_send:	; 0 bytes @ 0x6
   470  003D                     	ds	1
   471                           	global	??_main
   472  003E                     ??_main:	; 0 bytes @ 0x7
   473  003E                     	ds	2
   474 ;;Data sizes: Strings 50, constant 0, data 2, bss 75, persistent 0 stack 0
   475 ;;Auto spaces:   Size  Autos    Used
   476 ;; COMMON          14      7       9
   477 ;; BANK0           80      9      34
   478 ;; BANK1           80      0      50
   479 ;; BANK3           96      0       0
   480 ;; BANK2           96      0       0
   481                           
   482 ;;
   483 ;; Pointer list with targets:
   484                           
   485 ;; ?___lwmod	unsigned int  size(1) Largest target is 0
   486 ;;
   487 ;; ?___lwdiv	unsigned int  size(1) Largest target is 0
   488 ;;
   489 ;; serial@a	PTR const unsigned char  size(1) Largest target is 10
   490 ;;		 -> STR_6(CODE[10]), STR_5(CODE[3]), 
   491 ;;
   492 ;; gsm_command@da	PTR const unsigned char  size(1) Largest target is 13
   493 ;;		 -> STR_2(CODE[13]), 
   494 ;;
   495 ;; lcd_display@m	PTR const unsigned char  size(1) Largest target is 12
   496 ;;		 -> STR_4(CODE[12]), STR_3(CODE[8]), STR_1(CODE[4]), 
   497 ;;
   498                           
   499                           
   500 ;;
   501 ;; Critical Paths under _main in COMMON
   502 ;;
   503 ;;   _main->_delay
   504 ;;   _main->___lwmod
   505 ;;   _gps_send->_delay
   506 ;;   _sms1->_delay
   507 ;;   _serial->_delay
   508 ;;   _lcd_data->_delay
   509 ;;   _lcd_cmd->_delay
   510 ;;
   511 ;; Critical Paths under _rcx in COMMON
   512 ;;
   513 ;;   None.
   514 ;;
   515 ;; Critical Paths under _main in BANK0
   516 ;;
   517 ;;   _main->___lwdiv
   518 ;;   _main->_gps_send
   519 ;;   _gps_send->_lcd_display
   520 ;;   _sms1->_gsm_command
   521 ;;   _sms1->_lcd_cmd
   522 ;;   _lcd_init->_lcd_cmd
   523 ;;   _lcd_display->_lcd_data
   524 ;;
   525 ;; Critical Paths under _rcx in BANK0
   526 ;;
   527 ;;   None.
   528 ;;
   529 ;; Critical Paths under _main in BANK1
   530 ;;
   531 ;;   None.
   532 ;;
   533 ;; Critical Paths under _rcx in BANK1
   534 ;;
   535 ;;   None.
   536 ;;
   537 ;; Critical Paths under _main in BANK3
   538 ;;
   539 ;;   None.
   540 ;;
   541 ;; Critical Paths under _rcx in BANK3
   542 ;;
   543 ;;   None.
   544 ;;
   545 ;; Critical Paths under _main in BANK2
   546 ;;
   547 ;;   None.
   548 ;;
   549 ;; Critical Paths under _rcx in BANK2
   550 ;;
   551 ;;   None.
   552                           
   553 ;;
   554 ;;Main: autosize = 0, tempsize = 2, incstack = 0, save=0
   555 ;;
   556                           
   557 ;;
   558 ;;Call Graph Tables:
   559 ;;
   560 ;; ---------------------------------------------------------------------------------
   561 ;; (Depth) Function   	        Calls       Base Space   Used Autos Params    Refs
   562 ;; ---------------------------------------------------------------------------------
   563 ;; (0) _main                                                 2     2      0    1797
   564 ;;                                              7 BANK0      2     2      0
   565 ;;                           _lcd_init
   566 ;;                              _delay
   567 ;;                           _gps_init
   568 ;;                            _lcd_cmd
   569 ;;                        _lcd_display
   570 ;;                            ___lwdiv
   571 ;;                            ___lwmod
   572 ;;                           _lcd_data
   573 ;;                             _serial
   574 ;;                                _txs
   575 ;;                           _gps_send
   576 ;;                               _sms1
   577 ;; ---------------------------------------------------------------------------------
   578 ;; (1) _gps_send                                             1     1      0     404
   579 ;;                                              6 BANK0      1     1      0
   580 ;;                            _lcd_cmd
   581 ;;                              _delay
   582 ;;                        _lcd_display
   583 ;;                           _lcd_data
   584 ;; ---------------------------------------------------------------------------------
   585 ;; (1) _sms1                                                 1     1      0     258
   586 ;;                                              3 BANK0      1     1      0
   587 ;;                                _txs
   588 ;;                              _delay
   589 ;;                        _gsm_command
   590 ;;                            _lcd_cmd
   591 ;; ---------------------------------------------------------------------------------
   592 ;; (1) _lcd_init                                             0     0      0      84
   593 ;;                            _lcd_cmd
   594 ;; ---------------------------------------------------------------------------------
   595 ;; (2) _lcd_display                                          3     3      0     214
   596 ;;                                              3 BANK0      3     3      0
   597 ;;                           _lcd_data
   598 ;; ---------------------------------------------------------------------------------
   599 ;; (1) _serial                                               3     3      0     152
   600 ;;                                              0 BANK0      3     3      0
   601 ;;                              _delay
   602 ;; ---------------------------------------------------------------------------------
   603 ;; (2) _lcd_data                                             3     3      0      84
   604 ;;                                              0 BANK0      3     3      0
   605 ;;                              _delay
   606 ;; ---------------------------------------------------------------------------------
   607 ;; (2) _lcd_cmd                                              3     3      0      84
   608 ;;                                              0 BANK0      3     3      0
   609 ;;                              _delay
   610 ;; ---------------------------------------------------------------------------------
   611 ;; (1) ___lwmod                                              6     2      4     232
   612 ;;                                              5 COMMON     2     2      0
   613 ;;                                              0 BANK0      4     0      4
   614 ;; ---------------------------------------------------------------------------------
   615 ;; (1) ___lwdiv                                              8     4      4     241
   616 ;;                                              5 COMMON     1     1      0
   617 ;;                                              0 BANK0      7     3      4
   618 ;; ---------------------------------------------------------------------------------
   619 ;; (2) _txs                                                  1     1      0      22
   620 ;;                                              5 COMMON     1     1      0
   621 ;; ---------------------------------------------------------------------------------
   622 ;; (3) _gsm_command                                          3     3      0     130
   623 ;;                                              0 BANK0      3     3      0
   624 ;; ---------------------------------------------------------------------------------
   625 ;; (1) _gps_init                                             0     0      0       0
   626 ;; ---------------------------------------------------------------------------------
   627 ;; (3) _delay                                                2     0      2      22
   628 ;;                                              5 COMMON     2     0      2
   629 ;; ---------------------------------------------------------------------------------
   630 ;; Estimated maximum stack depth 3
   631 ;; ---------------------------------------------------------------------------------
   632 ;; (Depth) Function   	        Calls       Base Space   Used Autos Params    Refs
   633 ;; ---------------------------------------------------------------------------------
   634 ;; (5) _rcx                                                  5     5      0       0
   635 ;;                                              0 COMMON     5     5      0
   636 ;; ---------------------------------------------------------------------------------
   637 ;; Estimated maximum stack depth 5
   638 ;; ---------------------------------------------------------------------------------
   639                           
   640 ;; Call Graph Graphs:
   641                           
   642 ;; _main (ROOT)
   643 ;;   _lcd_init
   644 ;;     _lcd_cmd
   645 ;;       _delay
   646 ;;   _delay
   647 ;;   _gps_init
   648 ;;   _lcd_cmd
   649 ;;     _delay
   650 ;;   _lcd_display
   651 ;;     _lcd_data
   652 ;;       _delay
   653 ;;   ___lwdiv
   654 ;;   ___lwmod
   655 ;;   _lcd_data
   656 ;;     _delay
   657 ;;   _serial
   658 ;;     _delay
   659 ;;   _txs
   660 ;;   _gps_send
   661 ;;     _lcd_cmd
   662 ;;       _delay
   663 ;;     _delay
   664 ;;     _lcd_display
   665 ;;       _lcd_data
   666 ;;         _delay
   667 ;;     _lcd_data
   668 ;;       _delay
   669 ;;   _sms1
   670 ;;     _txs
   671 ;;     _delay
   672 ;;     _gsm_command
   673 ;;     _lcd_cmd
   674 ;;       _delay
   675 ;;
   676 ;; _rcx (ROOT)
   677 ;;
   678                           
   679 ;; Address spaces:
   680                           
   681 ;;Name               Size   Autos  Total    Cost      Usage
   682 ;;BANK3               60      0       0       9        0.0%
   683 ;;BITBANK3            60      0       0       8        0.0%
   684 ;;SFR3                 0      0       0       4        0.0%
   685 ;;BITSFR3              0      0       0       4        0.0%
   686 ;;BANK2               60      0       0      11        0.0%
   687 ;;BITBANK2            60      0       0      10        0.0%
   688 ;;SFR2                 0      0       0       5        0.0%
   689 ;;BITSFR2              0      0       0       5        0.0%
   690 ;;SFR1                 0      0       0       2        0.0%
   691 ;;BITSFR1              0      0       0       2        0.0%
   692 ;;BANK1               50      0      32       7       62.5%
   693 ;;BITBANK1            50      0       0       6        0.0%
   694 ;;CODE                 0      0       0       0        0.0%
   695 ;;DATA                 0      0      61      12        0.0%
   696 ;;ABS                  0      0      5D       3        0.0%
   697 ;;NULL                 0      0       0       0        0.0%
   698 ;;STACK                0      0       4       2        0.0%
   699 ;;BANK0               50      9      22       5       42.5%
   700 ;;BITBANK0            50      0       0       4        0.0%
   701 ;;SFR0                 0      0       0       1        0.0%
   702 ;;BITSFR0              0      0       0       1        0.0%
   703 ;;COMMON               E      7       9       1       64.3%
   704 ;;BITCOMMON            E      0       0       0        0.0%
   705 ;;EEDATA             100      0       0       0        0.0%
   706                           
   707                           	global	_main
   708                           psect	maintext,global,class=CODE,delta=2
   709                           global __pmaintext
   710  004B                     __pmaintext:
   711                           
   712 ;; *************** function _main *****************
   713 ;; Defined at:
   714 ;;		line 262 in file "C:\Users\TECH\Desktop\madhu pic folder\gps&gsm\women safety concept.sensor abnormal gps on gsm\wom
       en safety concept sensor abnormal gps on gsm.c"
   715 ;; Parameters:    Size  Location     Type
   716 ;;		None
   717 ;; Auto vars:     Size  Location     Type
   718 ;;		None
   719 ;; Return value:  Size  Location     Type
   720 ;;		None               void
   721 ;; Registers used:
   722 ;;		wreg, fsr0l, fsr0h, status,2, status,0, btemp+0, pclath, cstack
   723 ;; Tracked objects:
   724 ;;		On entry : 17F/0
   725 ;;		On exit  : 0/0
   726 ;;		Unchanged: 0/0
   727 ;; Data sizes:     COMMON   BANK0   BANK1   BANK3   BANK2
   728 ;;      Params:         0       0       0       0       0
   729 ;;      Locals:         0       0       0       0       0
   730 ;;      Temps:          0       2       0       0       0
   731 ;;      Totals:         0       2       0       0       0
   732 ;;Total ram usage:        2 bytes
   733 ;; Hardware stack levels required when called:    5
   734 ;; This function calls:
   735 ;;		_lcd_init
   736 ;;		_delay
   737 ;;		_gps_init
   738 ;;		_lcd_cmd
   739 ;;		_lcd_display
   740 ;;		___lwdiv
   741 ;;		___lwmod
   742 ;;		_lcd_data
   743 ;;		_serial
   744 ;;		_txs
   745 ;;		_gps_send
   746 ;;		_sms1
   747 ;; This function is called by:
   748 ;;		Startup code after reset
   749 ;; This function uses a non-reentrant model
   750 ;;
   751                           psect	maintext
   752                           	file	"C:\Users\TECH\Desktop\madhu pic folder\gps&gsm\women safety concept.sensor abnorm
                                 al gps on gsm\women safety concept sensor abnormal gps on gsm.c"
   753                           	line	262
   754                           	global	__size_of_main
   755  02F2                     	__size_of_main	equ	__end_of_main-_main
   756                           	
   757  004B                     _main:	
   758                           	opt	stack 8
   759                           ; Regs used in _main: [wreg-fsr0h+status,2-btemp+0+pclath+cstack]
   760                           	line	263
   761                           	
   762  004B                     l2997:	
   763                           ;women safety concept sensor abnormal gps on gsm.c: 263: ADCON1=0X80;
   764  004B  3080               	movlw	(080h)
   765  004C  1683               	bsf	status, 5	;RP0=1, select bank1
   766  004D  1303               	bcf	status, 6	;RP1=0, select bank1
   767  004E  009F               	movwf	(159)^080h	;volatile
   768                           	line	264
   769                           ;women safety concept sensor abnormal gps on gsm.c: 264: ADCON0=0X40;
   770  004F  3040               	movlw	(040h)
   771  0050  1283               	bcf	status, 5	;RP0=0, select bank0
   772  0051  1303               	bcf	status, 6	;RP1=0, select bank0
   773  0052  009F               	movwf	(31)	;volatile
   774                           	line	266
   775                           ;women safety concept sensor abnormal gps on gsm.c: 266: TRISA=0x0F;
   776  0053  300F               	movlw	(0Fh)
   777  0054  1683               	bsf	status, 5	;RP0=1, select bank1
   778  0055  1303               	bcf	status, 6	;RP1=0, select bank1
   779  0056  0085               	movwf	(133)^080h	;volatile
   780                           	line	267
   781                           	
   782  0057                     l2999:	
   783                           ;women safety concept sensor abnormal gps on gsm.c: 267: PORTA=0x00;
   784  0057  1283               	bcf	status, 5	;RP0=0, select bank0
   785  0058  1303               	bcf	status, 6	;RP1=0, select bank0
   786  0059  0185               	clrf	(5)	;volatile
   787                           	line	269
   788                           	
   789  005A                     l3001:	
   790                           ;women safety concept sensor abnormal gps on gsm.c: 269: TRISB=0x00;
   791  005A  1683               	bsf	status, 5	;RP0=1, select bank1
   792  005B  1303               	bcf	status, 6	;RP1=0, select bank1
   793  005C  0186               	clrf	(134)^080h	;volatile
   794                           	line	270
   795                           	
   796  005D                     l3003:	
   797                           ;women safety concept sensor abnormal gps on gsm.c: 270: PORTB=0x00;
   798  005D  1283               	bcf	status, 5	;RP0=0, select bank0
   799  005E  1303               	bcf	status, 6	;RP1=0, select bank0
   800  005F  0186               	clrf	(6)	;volatile
   801                           	line	272
   802                           	
   803  0060                     l3005:	
   804                           ;women safety concept sensor abnormal gps on gsm.c: 272: TRISD=0x00;
   805  0060  1683               	bsf	status, 5	;RP0=1, select bank1
   806  0061  1303               	bcf	status, 6	;RP1=0, select bank1
   807  0062  0188               	clrf	(136)^080h	;volatile
   808                           	line	273
   809                           	
   810  0063                     l3007:	
   811                           ;women safety concept sensor abnormal gps on gsm.c: 273: PORTD=0x00;
   812  0063  1283               	bcf	status, 5	;RP0=0, select bank0
   813  0064  1303               	bcf	status, 6	;RP1=0, select bank0
   814  0065  0188               	clrf	(8)	;volatile
   815                           	line	275
   816                           	
   817  0066                     l3009:	
   818                           ;women safety concept sensor abnormal gps on gsm.c: 275: TRISC=0x80;
   819  0066  3080               	movlw	(080h)
   820  0067  1683               	bsf	status, 5	;RP0=1, select bank1
   821  0068  1303               	bcf	status, 6	;RP1=0, select bank1
   822  0069  0087               	movwf	(135)^080h	;volatile
   823                           	line	276
   824                           ;women safety concept sensor abnormal gps on gsm.c: 276: PORTC=0x00;
   825  006A  1283               	bcf	status, 5	;RP0=0, select bank0
   826  006B  1303               	bcf	status, 6	;RP1=0, select bank0
   827  006C  0187               	clrf	(7)	;volatile
   828                           	line	278
   829                           	
   830  006D                     l3011:	
   831                           ;women safety concept sensor abnormal gps on gsm.c: 278: lcd_init();
   832  006D  120A  118A  277D   	fcall	_lcd_init
              120A  118A         
   833                           	line	279
   834                           	
   835  0072                     l3013:	
   836                           ;women safety concept sensor abnormal gps on gsm.c: 279: delay(500);
   837  0072  30F4               	movlw	low(01F4h)
   838  0073  00F5               	movwf	(?_delay)
   839  0074  3001               	movlw	high(01F4h)
   840  0075  00F6               	movwf	((?_delay))+1
   841  0076  120A  118A  27C5   	fcall	_delay
              120A  118A         
   842                           	line	281
   843                           	
   844  007B                     l3015:	
   845                           ;women safety concept sensor abnormal gps on gsm.c: 281: gps_init();
   846  007B  120A  118A  27D7   	fcall	_gps_init
              120A  118A         
   847                           	line	282
   848                           	
   849  0080                     l3017:	
   850                           ;women safety concept sensor abnormal gps on gsm.c: 282: delay(50000);
   851  0080  3050               	movlw	low(0C350h)
   852  0081  00F5               	movwf	(?_delay)
   853  0082  30C3               	movlw	high(0C350h)
   854  0083  00F6               	movwf	((?_delay))+1
   855  0084  120A  118A  27C5   	fcall	_delay
              120A  118A         
   856                           	line	284
   857                           	
   858  0089                     l3019:	
   859                           ;women safety concept sensor abnormal gps on gsm.c: 284: delay(100);
   860  0089  3064               	movlw	low(064h)
   861  008A  00F5               	movwf	(?_delay)
   862  008B  3000               	movlw	high(064h)
   863  008C  00F6               	movwf	((?_delay))+1
   864  008D  120A  118A  27C5   	fcall	_delay
              120A  118A         
   865                           	line	285
   866                           	
   867  0092                     l3021:	
   868                           ;women safety concept sensor abnormal gps on gsm.c: 285: lcd_cmd(0x80);
   869  0092  3080               	movlw	(080h)
   870  0093  120A  118A  26C2   	fcall	_lcd_cmd
              120A  118A         
   871                           	line	286
   872                           	
   873  0098                     l3023:	
   874                           ;women safety concept sensor abnormal gps on gsm.c: 286: lcd_cmd(0x01);
   875  0098  3001               	movlw	(01h)
   876  0099  120A  118A  26C2   	fcall	_lcd_cmd
              120A  118A         
   877                           	line	287
   878                           	
   879  009E                     l3025:	
   880                           ;women safety concept sensor abnormal gps on gsm.c: 287: lcd_display("WELCOME");
   881  009E  3024               	movlw	((STR_3-__stringbase))&0ffh
   882  009F  120A  118A  2727   	fcall	_lcd_display
              120A  118A         
   883                           	line	288
   884                           	
   885  00A4                     l3027:	
   886                           ;women safety concept sensor abnormal gps on gsm.c: 288: delay(50000);delay(50000);delay
                                 (50000);
   887  00A4  3050               	movlw	low(0C350h)
   888  00A5  00F5               	movwf	(?_delay)
   889  00A6  30C3               	movlw	high(0C350h)
   890  00A7  00F6               	movwf	((?_delay))+1
   891  00A8  120A  118A  27C5   	fcall	_delay
              120A  118A         
   892                           	
   893  00AD                     l3029:	
   894  00AD  3050               	movlw	low(0C350h)
   895  00AE  00F5               	movwf	(?_delay)
   896  00AF  30C3               	movlw	high(0C350h)
   897  00B0  00F6               	movwf	((?_delay))+1
   898  00B1  120A  118A  27C5   	fcall	_delay
              120A  118A         
   899                           	
   900  00B6                     l3031:	
   901  00B6  3050               	movlw	low(0C350h)
   902  00B7  00F5               	movwf	(?_delay)
   903  00B8  30C3               	movlw	high(0C350h)
   904  00B9  00F6               	movwf	((?_delay))+1
   905  00BA  120A  118A  27C5   	fcall	_delay
              120A  118A         
   906                           	line	291
   907                           ;women safety concept sensor abnormal gps on gsm.c: 291: while(1)
   908                           	
   909  00BF                     l657:	
   910                           	line	294
   911                           	
   912  00BF                     l3033:	
   913                           ;women safety concept sensor abnormal gps on gsm.c: 292: {
   914                           ;women safety concept sensor abnormal gps on gsm.c: 294: CHS2=0;
   915  00BF  1283               	bcf	status, 5	;RP0=0, select bank0
   916  00C0  1303               	bcf	status, 6	;RP1=0, select bank0
   917  00C1  129F               	bcf	(253/8),(253)&7
   918                           	line	295
   919                           	
   920  00C2                     l3035:	
   921                           ;women safety concept sensor abnormal gps on gsm.c: 295: CHS1=0;
   922  00C2  121F               	bcf	(252/8),(252)&7
   923                           	line	296
   924                           	
   925  00C3                     l3037:	
   926                           ;women safety concept sensor abnormal gps on gsm.c: 296: CHS0=0;
   927  00C3  119F               	bcf	(251/8),(251)&7
   928                           	line	297
   929                           	
   930  00C4                     l3039:	
   931                           ;women safety concept sensor abnormal gps on gsm.c: 297: ADON=1;
   932  00C4  141F               	bsf	(248/8),(248)&7
   933                           	line	298
   934                           	
   935  00C5                     l3041:	
   936                           ;women safety concept sensor abnormal gps on gsm.c: 298: delay(600);
   937  00C5  3058               	movlw	low(0258h)
   938  00C6  00F5               	movwf	(?_delay)
   939  00C7  3002               	movlw	high(0258h)
   940  00C8  00F6               	movwf	((?_delay))+1
   941  00C9  120A  118A  27C5   	fcall	_delay
              120A  118A         
   942                           	line	299
   943                           	
   944  00CE                     l3043:	
   945                           ;women safety concept sensor abnormal gps on gsm.c: 299: ADCON0=(ADCON0|0X04);
   946  00CE  1283               	bcf	status, 5	;RP0=0, select bank0
   947  00CF  1303               	bcf	status, 6	;RP1=0, select bank0
   948  00D0  081F               	movf	(31),w	;volatile
   949  00D1  3804               	iorlw	04h
   950  00D2  009F               	movwf	(31)	;volatile
   951                           	line	300
   952                           	
   953  00D3                     l3045:	
   954                           ;women safety concept sensor abnormal gps on gsm.c: 300: delay(600);
   955  00D3  3058               	movlw	low(0258h)
   956  00D4  00F5               	movwf	(?_delay)
   957  00D5  3002               	movlw	high(0258h)
   958  00D6  00F6               	movwf	((?_delay))+1
   959  00D7  120A  118A  27C5   	fcall	_delay
              120A  118A         
   960                           	line	301
   961                           	
   962  00DC                     l3047:	
   963                           ;women safety concept sensor abnormal gps on gsm.c: 301: temp1=ADRESH<<8;
   964  00DC  1283               	bcf	status, 5	;RP0=0, select bank0
   965  00DD  1303               	bcf	status, 6	;RP1=0, select bank0
   966  00DE  081E               	movf	(30),w	;volatile
   967  00DF  00BE               	movwf	(??_main+0)+0
   968  00E0  01BF               	clrf	(??_main+0)+0+1
   969  00E1  3008               	movlw	08h
   970  00E2  00FE               	movwf	btemp+0
   971  00E3                     u3095:
   972  00E3  1003               	clrc
   973  00E4  0DBE               	rlf	(??_main+0)+0,f
   974  00E5  0DBF               	rlf	(??_main+0)+1,f
   975  00E6  0BFE               	decfsz	btemp+0,f
   976  00E7  28E3               	goto	u3095
   977  00E8  083E               	movf	0+(??_main+0)+0,w
   978  00E9  00B0               	movwf	(_temp1)
   979  00EA  083F               	movf	1+(??_main+0)+0,w
   980  00EB  00B1               	movwf	(_temp1+1)
   981                           	line	302
   982                           	
   983  00EC                     l3049:	
   984                           ;women safety concept sensor abnormal gps on gsm.c: 302: delay(600);
   985  00EC  3058               	movlw	low(0258h)
   986  00ED  00F5               	movwf	(?_delay)
   987  00EE  3002               	movlw	high(0258h)
   988  00EF  00F6               	movwf	((?_delay))+1
   989  00F0  120A  118A  27C5   	fcall	_delay
              120A  118A         
   990                           	line	303
   991                           	
   992  00F5                     l3051:	
   993                           ;women safety concept sensor abnormal gps on gsm.c: 303: temp1=temp1+ADRESL;
   994  00F5  1683               	bsf	status, 5	;RP0=1, select bank1
   995  00F6  1303               	bcf	status, 6	;RP1=0, select bank1
   996  00F7  081E               	movf	(158)^080h,w	;volatile
   997  00F8  1283               	bcf	status, 5	;RP0=0, select bank0
   998  00F9  1303               	bcf	status, 6	;RP1=0, select bank0
   999  00FA  0730               	addwf	(_temp1),w
  1000  00FB  00B0               	movwf	(_temp1)
  1001  00FC  0831               	movf	(_temp1+1),w
  1002  00FD  1803               	skipnc
  1003  00FE  0A31               	incf	(_temp1+1),w
  1004  00FF  00B1               	movwf	((_temp1))+1
  1005                           	line	304
  1006                           	
  1007  0100                     l3053:	
  1008                           ;women safety concept sensor abnormal gps on gsm.c: 304: delay(600);
  1009  0100  3058               	movlw	low(0258h)
  1010  0101  00F5               	movwf	(?_delay)
  1011  0102  3002               	movlw	high(0258h)
  1012  0103  00F6               	movwf	((?_delay))+1
  1013  0104  120A  118A  27C5   	fcall	_delay
              120A  118A         
  1014                           	line	305
  1015                           	
  1016  0109                     l3055:	
  1017                           ;women safety concept sensor abnormal gps on gsm.c: 305: delay(600);
  1018  0109  3058               	movlw	low(0258h)
  1019  010A  00F5               	movwf	(?_delay)
  1020  010B  3002               	movlw	high(0258h)
  1021  010C  00F6               	movwf	((?_delay))+1
  1022  010D  120A  118A  27C5   	fcall	_delay
              120A  118A         
  1023                           	line	306
  1024                           	
  1025  0112                     l3057:	
  1026                           ;women safety concept sensor abnormal gps on gsm.c: 306: a=temp1/1000;
  1027  0112  30E8               	movlw	low(03E8h)
  1028  0113  1283               	bcf	status, 5	;RP0=0, select bank0
  1029  0114  1303               	bcf	status, 6	;RP1=0, select bank0
  1030  0115  00B7               	movwf	(?___lwdiv)
  1031  0116  3003               	movlw	high(03E8h)
  1032  0117  00B8               	movwf	((?___lwdiv))+1
  1033  0118  0831               	movf	(_temp1+1),w
  1034  0119  01BA               	clrf	1+(?___lwdiv)+02h
  1035  011A  07BA               	addwf	1+(?___lwdiv)+02h
  1036  011B  0830               	movf	(_temp1),w
  1037  011C  01B9               	clrf	0+(?___lwdiv)+02h
  1038  011D  07B9               	addwf	0+(?___lwdiv)+02h
  1039                           
  1040  011E  120A  118A  25B9   	fcall	___lwdiv
              120A  118A         
  1041  0123  1283               	bcf	status, 5	;RP0=0, select bank0
  1042  0124  1303               	bcf	status, 6	;RP1=0, select bank0
  1043  0125  0838               	movf	(1+(?___lwdiv)),w
  1044  0126  01A1               	clrf	(_a+1)
  1045  0127  07A1               	addwf	(_a+1)
  1046  0128  0837               	movf	(0+(?___lwdiv)),w
  1047  0129  01A0               	clrf	(_a)
  1048  012A  07A0               	addwf	(_a)
  1049                           
  1050                           	line	307
  1051                           	
  1052  012B                     l3059:	
  1053                           ;women safety concept sensor abnormal gps on gsm.c: 307: b=temp1%1000;
  1054  012B  30E8               	movlw	low(03E8h)
  1055  012C  00B7               	movwf	(?___lwmod)
  1056  012D  3003               	movlw	high(03E8h)
  1057  012E  00B8               	movwf	((?___lwmod))+1
  1058  012F  0831               	movf	(_temp1+1),w
  1059  0130  01BA               	clrf	1+(?___lwmod)+02h
  1060  0131  07BA               	addwf	1+(?___lwmod)+02h
  1061  0132  0830               	movf	(_temp1),w
  1062  0133  01B9               	clrf	0+(?___lwmod)+02h
  1063  0134  07B9               	addwf	0+(?___lwmod)+02h
  1064                           
  1065  0135  120A  118A  264D   	fcall	___lwmod
              120A  118A         
  1066  013A  1283               	bcf	status, 5	;RP0=0, select bank0
  1067  013B  1303               	bcf	status, 6	;RP1=0, select bank0
  1068  013C  0838               	movf	(1+(?___lwmod)),w
  1069  013D  01A3               	clrf	(_b+1)
  1070  013E  07A3               	addwf	(_b+1)
  1071  013F  0837               	movf	(0+(?___lwmod)),w
  1072  0140  01A2               	clrf	(_b)
  1073  0141  07A2               	addwf	(_b)
  1074                           
  1075                           	line	308
  1076                           	
  1077  0142                     l3061:	
  1078                           ;women safety concept sensor abnormal gps on gsm.c: 308: c=b/100;
  1079  0142  3064               	movlw	low(064h)
  1080  0143  00B7               	movwf	(?___lwdiv)
  1081  0144  3000               	movlw	high(064h)
  1082  0145  00B8               	movwf	((?___lwdiv))+1
  1083  0146  0823               	movf	(_b+1),w
  1084  0147  01BA               	clrf	1+(?___lwdiv)+02h
  1085  0148  07BA               	addwf	1+(?___lwdiv)+02h
  1086  0149  0822               	movf	(_b),w
  1087  014A  01B9               	clrf	0+(?___lwdiv)+02h
  1088  014B  07B9               	addwf	0+(?___lwdiv)+02h
  1089                           
  1090  014C  120A  118A  25B9   	fcall	___lwdiv
              120A  118A         
  1091  0151  1283               	bcf	status, 5	;RP0=0, select bank0
  1092  0152  1303               	bcf	status, 6	;RP1=0, select bank0
  1093  0153  0838               	movf	(1+(?___lwdiv)),w
  1094  0154  01A5               	clrf	(_c+1)
  1095  0155  07A5               	addwf	(_c+1)
  1096  0156  0837               	movf	(0+(?___lwdiv)),w
  1097  0157  01A4               	clrf	(_c)
  1098  0158  07A4               	addwf	(_c)
  1099                           
  1100                           	line	309
  1101                           	
  1102  0159                     l3063:	
  1103                           ;women safety concept sensor abnormal gps on gsm.c: 309: d=b%100;
  1104  0159  3064               	movlw	low(064h)
  1105  015A  00B7               	movwf	(?___lwmod)
  1106  015B  3000               	movlw	high(064h)
  1107  015C  00B8               	movwf	((?___lwmod))+1
  1108  015D  0823               	movf	(_b+1),w
  1109  015E  01BA               	clrf	1+(?___lwmod)+02h
  1110  015F  07BA               	addwf	1+(?___lwmod)+02h
  1111  0160  0822               	movf	(_b),w
  1112  0161  01B9               	clrf	0+(?___lwmod)+02h
  1113  0162  07B9               	addwf	0+(?___lwmod)+02h
  1114                           
  1115  0163  120A  118A  264D   	fcall	___lwmod
              120A  118A         
  1116  0168  1283               	bcf	status, 5	;RP0=0, select bank0
  1117  0169  1303               	bcf	status, 6	;RP1=0, select bank0
  1118  016A  0838               	movf	(1+(?___lwmod)),w
  1119  016B  01A7               	clrf	(_d+1)
  1120  016C  07A7               	addwf	(_d+1)
  1121  016D  0837               	movf	(0+(?___lwmod)),w
  1122  016E  01A6               	clrf	(_d)
  1123  016F  07A6               	addwf	(_d)
  1124                           
  1125                           	line	310
  1126                           	
  1127  0170                     l3065:	
  1128                           ;women safety concept sensor abnormal gps on gsm.c: 310: e=d/10;
  1129  0170  300A               	movlw	low(0Ah)
  1130  0171  00B7               	movwf	(?___lwdiv)
  1131  0172  3000               	movlw	high(0Ah)
  1132  0173  00B8               	movwf	((?___lwdiv))+1
  1133  0174  0827               	movf	(_d+1),w
  1134  0175  01BA               	clrf	1+(?___lwdiv)+02h
  1135  0176  07BA               	addwf	1+(?___lwdiv)+02h
  1136  0177  0826               	movf	(_d),w
  1137  0178  01B9               	clrf	0+(?___lwdiv)+02h
  1138  0179  07B9               	addwf	0+(?___lwdiv)+02h
  1139                           
  1140  017A  120A  118A  25B9   	fcall	___lwdiv
              120A  118A         
  1141  017F  1283               	bcf	status, 5	;RP0=0, select bank0
  1142  0180  1303               	bcf	status, 6	;RP1=0, select bank0
  1143  0181  0838               	movf	(1+(?___lwdiv)),w
  1144  0182  01A9               	clrf	(_e+1)
  1145  0183  07A9               	addwf	(_e+1)
  1146  0184  0837               	movf	(0+(?___lwdiv)),w
  1147  0185  01A8               	clrf	(_e)
  1148  0186  07A8               	addwf	(_e)
  1149                           
  1150                           	line	311
  1151                           	
  1152  0187                     l3067:	
  1153                           ;women safety concept sensor abnormal gps on gsm.c: 311: f=d%10;
  1154  0187  300A               	movlw	low(0Ah)
  1155  0188  00B7               	movwf	(?___lwmod)
  1156  0189  3000               	movlw	high(0Ah)
  1157  018A  00B8               	movwf	((?___lwmod))+1
  1158  018B  0827               	movf	(_d+1),w
  1159  018C  01BA               	clrf	1+(?___lwmod)+02h
  1160  018D  07BA               	addwf	1+(?___lwmod)+02h
  1161  018E  0826               	movf	(_d),w
  1162  018F  01B9               	clrf	0+(?___lwmod)+02h
  1163  0190  07B9               	addwf	0+(?___lwmod)+02h
  1164                           
  1165  0191  120A  118A  264D   	fcall	___lwmod
              120A  118A         
  1166  0196  1283               	bcf	status, 5	;RP0=0, select bank0
  1167  0197  1303               	bcf	status, 6	;RP1=0, select bank0
  1168  0198  0838               	movf	(1+(?___lwmod)),w
  1169  0199  01AB               	clrf	(_f+1)
  1170  019A  07AB               	addwf	(_f+1)
  1171  019B  0837               	movf	(0+(?___lwmod)),w
  1172  019C  01AA               	clrf	(_f)
  1173  019D  07AA               	addwf	(_f)
  1174                           
  1175                           	line	313
  1176                           	
  1177  019E                     l3069:	
  1178                           ;women safety concept sensor abnormal gps on gsm.c: 313: lcd_cmd(0x80);
  1179  019E  3080               	movlw	(080h)
  1180  019F  120A  118A  26C2   	fcall	_lcd_cmd
              120A  118A         
  1181                           	line	314
  1182                           	
  1183  01A4                     l3071:	
  1184                           ;women safety concept sensor abnormal gps on gsm.c: 314: lcd_data(a+0x30);
  1185  01A4  1283               	bcf	status, 5	;RP0=0, select bank0
  1186  01A5  1303               	bcf	status, 6	;RP1=0, select bank0
  1187  01A6  0820               	movf	(_a),w
  1188  01A7  3E30               	addlw	030h
  1189  01A8  120A  118A  268C   	fcall	_lcd_data
              120A  118A         
  1190                           	line	315
  1191                           	
  1192  01AD                     l3073:	
  1193                           ;women safety concept sensor abnormal gps on gsm.c: 315: delay(5000);
  1194  01AD  3088               	movlw	low(01388h)
  1195  01AE  00F5               	movwf	(?_delay)
  1196  01AF  3013               	movlw	high(01388h)
  1197  01B0  00F6               	movwf	((?_delay))+1
  1198  01B1  120A  118A  27C5   	fcall	_delay
              120A  118A         
  1199                           	line	316
  1200                           	
  1201  01B6                     l3075:	
  1202                           ;women safety concept sensor abnormal gps on gsm.c: 316: lcd_data(c+0x30);
  1203  01B6  1283               	bcf	status, 5	;RP0=0, select bank0
  1204  01B7  1303               	bcf	status, 6	;RP1=0, select bank0
  1205  01B8  0824               	movf	(_c),w
  1206  01B9  3E30               	addlw	030h
  1207  01BA  120A  118A  268C   	fcall	_lcd_data
              120A  118A         
  1208                           	line	317
  1209                           	
  1210  01BF                     l3077:	
  1211                           ;women safety concept sensor abnormal gps on gsm.c: 317: delay(5000);
  1212  01BF  3088               	movlw	low(01388h)
  1213  01C0  00F5               	movwf	(?_delay)
  1214  01C1  3013               	movlw	high(01388h)
  1215  01C2  00F6               	movwf	((?_delay))+1
  1216  01C3  120A  118A  27C5   	fcall	_delay
              120A  118A         
  1217                           	line	318
  1218                           	
  1219  01C8                     l3079:	
  1220                           ;women safety concept sensor abnormal gps on gsm.c: 318: lcd_data(e+0x30);
  1221  01C8  1283               	bcf	status, 5	;RP0=0, select bank0
  1222  01C9  1303               	bcf	status, 6	;RP1=0, select bank0
  1223  01CA  0828               	movf	(_e),w
  1224  01CB  3E30               	addlw	030h
  1225  01CC  120A  118A  268C   	fcall	_lcd_data
              120A  118A         
  1226                           	line	319
  1227                           	
  1228  01D1                     l3081:	
  1229                           ;women safety concept sensor abnormal gps on gsm.c: 319: delay(5000);
  1230  01D1  3088               	movlw	low(01388h)
  1231  01D2  00F5               	movwf	(?_delay)
  1232  01D3  3013               	movlw	high(01388h)
  1233  01D4  00F6               	movwf	((?_delay))+1
  1234  01D5  120A  118A  27C5   	fcall	_delay
              120A  118A         
  1235                           	line	320
  1236                           	
  1237  01DA                     l3083:	
  1238                           ;women safety concept sensor abnormal gps on gsm.c: 320: lcd_data(f+0x30);
  1239  01DA  1283               	bcf	status, 5	;RP0=0, select bank0
  1240  01DB  1303               	bcf	status, 6	;RP1=0, select bank0
  1241  01DC  082A               	movf	(_f),w
  1242  01DD  3E30               	addlw	030h
  1243  01DE  120A  118A  268C   	fcall	_lcd_data
              120A  118A         
  1244                           	line	321
  1245                           	
  1246  01E3                     l3085:	
  1247                           ;women safety concept sensor abnormal gps on gsm.c: 321: delay(5000);
  1248  01E3  3088               	movlw	low(01388h)
  1249  01E4  00F5               	movwf	(?_delay)
  1250  01E5  3013               	movlw	high(01388h)
  1251  01E6  00F6               	movwf	((?_delay))+1
  1252  01E7  120A  118A  27C5   	fcall	_delay
              120A  118A         
  1253                           	line	322
  1254                           	
  1255  01EC                     l3087:	
  1256                           ;women safety concept sensor abnormal gps on gsm.c: 322: if(y==0)
  1257  01EC  1283               	bcf	status, 5	;RP0=0, select bank0
  1258  01ED  1303               	bcf	status, 6	;RP1=0, select bank0
  1259  01EE  0833               	movf	((_y+1)),w
  1260  01EF  0432               	iorwf	((_y)),w
  1261  01F0  1D03               	skipz
  1262  01F1  29F3               	goto	u3101
  1263  01F2  29F4               	goto	u3100
  1264  01F3                     u3101:
  1265  01F3  2A33               	goto	l658
  1266  01F4                     u3100:
  1267                           	line	324
  1268                           	
  1269  01F4                     l3089:	
  1270                           ;women safety concept sensor abnormal gps on gsm.c: 323: {
  1271                           ;women safety concept sensor abnormal gps on gsm.c: 324: if(temp1>=500)
  1272  01F4  3001               	movlw	high(01F4h)
  1273  01F5  0231               	subwf	(_temp1+1),w
  1274  01F6  30F4               	movlw	low(01F4h)
  1275  01F7  1903               	skipnz
  1276  01F8  0230               	subwf	(_temp1),w
  1277  01F9  1C03               	skipc
  1278  01FA  29FC               	goto	u3111
  1279  01FB  29FD               	goto	u3110
  1280  01FC                     u3111:
  1281  01FC  2A33               	goto	l659
  1282  01FD                     u3110:
  1283                           	line	326
  1284                           	
  1285  01FD                     l3091:	
  1286                           ;women safety concept sensor abnormal gps on gsm.c: 325: {
  1287                           ;women safety concept sensor abnormal gps on gsm.c: 326: y=1;
  1288  01FD  3001               	movlw	low(01h)
  1289  01FE  00B2               	movwf	(_y)
  1290  01FF  3000               	movlw	high(01h)
  1291  0200  00B3               	movwf	((_y))+1
  1292                           	line	327
  1293                           	
  1294  0201                     l3093:	
  1295                           ;women safety concept sensor abnormal gps on gsm.c: 327: z=z+1;
  1296  0201  0834               	movf	(_z),w
  1297  0202  3E01               	addlw	low(01h)
  1298  0203  00B4               	movwf	(_z)
  1299  0204  0835               	movf	(_z+1),w
  1300  0205  1803               	skipnc
  1301  0206  3E01               	addlw	1
  1302  0207  3E00               	addlw	high(01h)
  1303  0208  00B5               	movwf	1+(_z)
  1304                           	line	328
  1305                           	
  1306  0209                     l3095:	
  1307                           ;women safety concept sensor abnormal gps on gsm.c: 328: lcd_cmd(0xC0);
  1308  0209  30C0               	movlw	(0C0h)
  1309  020A  120A  118A  26C2   	fcall	_lcd_cmd
              120A  118A         
  1310                           	line	329
  1311                           	
  1312  020F                     l3097:	
  1313                           ;women safety concept sensor abnormal gps on gsm.c: 329: lcd_data(z+0x30);
  1314  020F  1283               	bcf	status, 5	;RP0=0, select bank0
  1315  0210  1303               	bcf	status, 6	;RP1=0, select bank0
  1316  0211  0834               	movf	(_z),w
  1317  0212  3E30               	addlw	030h
  1318  0213  120A  118A  268C   	fcall	_lcd_data
              120A  118A         
  1319                           	line	330
  1320                           	
  1321  0218                     l3099:	
  1322                           ;women safety concept sensor abnormal gps on gsm.c: 330: delay(50000);delay(50000);delay
                                 (50000);
  1323  0218  3050               	movlw	low(0C350h)
  1324  0219  00F5               	movwf	(?_delay)
  1325  021A  30C3               	movlw	high(0C350h)
  1326  021B  00F6               	movwf	((?_delay))+1
  1327  021C  120A  118A  27C5   	fcall	_delay
              120A  118A         
  1328                           	
  1329  0221                     l3101:	
  1330  0221  3050               	movlw	low(0C350h)
  1331  0222  00F5               	movwf	(?_delay)
  1332  0223  30C3               	movlw	high(0C350h)
  1333  0224  00F6               	movwf	((?_delay))+1
  1334  0225  120A  118A  27C5   	fcall	_delay
              120A  118A         
  1335                           	
  1336  022A                     l3103:	
  1337  022A  3050               	movlw	low(0C350h)
  1338  022B  00F5               	movwf	(?_delay)
  1339  022C  30C3               	movlw	high(0C350h)
  1340  022D  00F6               	movwf	((?_delay))+1
  1341  022E  120A  118A  27C5   	fcall	_delay
              120A  118A         
  1342                           	line	331
  1343                           	
  1344  0233                     l659:	
  1345                           	line	333
  1346                           	
  1347  0233                     l658:	
  1348                           	line	334
  1349                           	
  1350  0233                     l3105:	
  1351                           ;women safety concept sensor abnormal gps on gsm.c: 331: }
  1352                           ;women safety concept sensor abnormal gps on gsm.c: 333: }
  1353                           ;women safety concept sensor abnormal gps on gsm.c: 334: if(temp1<=500)
  1354  0233  3001               	movlw	high(01F5h)
  1355  0234  1283               	bcf	status, 5	;RP0=0, select bank0
  1356  0235  1303               	bcf	status, 6	;RP1=0, select bank0
  1357  0236  0231               	subwf	(_temp1+1),w
  1358  0237  30F5               	movlw	low(01F5h)
  1359  0238  1903               	skipnz
  1360  0239  0230               	subwf	(_temp1),w
  1361  023A  1803               	skipnc
  1362  023B  2A3D               	goto	u3121
  1363  023C  2A3E               	goto	u3120
  1364  023D                     u3121:
  1365  023D  2A42               	goto	l660
  1366  023E                     u3120:
  1367                           	line	336
  1368                           	
  1369  023E                     l3107:	
  1370                           ;women safety concept sensor abnormal gps on gsm.c: 335: {
  1371                           ;women safety concept sensor abnormal gps on gsm.c: 336: y=0;
  1372  023E  3000               	movlw	low(0)
  1373  023F  00B2               	movwf	(_y)
  1374  0240  3000               	movlw	high(0)
  1375  0241  00B3               	movwf	((_y))+1
  1376                           	line	337
  1377                           	
  1378  0242                     l660:	
  1379                           	line	339
  1380                           ;women safety concept sensor abnormal gps on gsm.c: 337: }
  1381                           ;women safety concept sensor abnormal gps on gsm.c: 339: if(z>=3)
  1382  0242  3000               	movlw	high(03h)
  1383  0243  0235               	subwf	(_z+1),w
  1384  0244  3003               	movlw	low(03h)
  1385  0245  1903               	skipnz
  1386  0246  0234               	subwf	(_z),w
  1387  0247  1C03               	skipc
  1388  0248  2A4A               	goto	u3131
  1389  0249  2A4B               	goto	u3130
  1390  024A                     u3131:
  1391  024A  2B21               	goto	l661
  1392  024B                     u3130:
  1393                           	line	341
  1394                           	
  1395  024B                     l3109:	
  1396                           ;women safety concept sensor abnormal gps on gsm.c: 340: {
  1397                           ;women safety concept sensor abnormal gps on gsm.c: 341: delay(50000);delay(50000);delay
                                 (50000);delay(50000);
  1398  024B  3050               	movlw	low(0C350h)
  1399  024C  00F5               	movwf	(?_delay)
  1400  024D  30C3               	movlw	high(0C350h)
  1401  024E  00F6               	movwf	((?_delay))+1
  1402  024F  120A  118A  27C5   	fcall	_delay
              120A  118A         
  1403  0254  3050               	movlw	low(0C350h)
  1404  0255  00F5               	movwf	(?_delay)
  1405  0256  30C3               	movlw	high(0C350h)
  1406  0257  00F6               	movwf	((?_delay))+1
  1407  0258  120A  118A  27C5   	fcall	_delay
              120A  118A         
  1408  025D  3050               	movlw	low(0C350h)
  1409  025E  00F5               	movwf	(?_delay)
  1410  025F  30C3               	movlw	high(0C350h)
  1411  0260  00F6               	movwf	((?_delay))+1
  1412  0261  120A  118A  27C5   	fcall	_delay
              120A  118A         
  1413  0266  3050               	movlw	low(0C350h)
  1414  0267  00F5               	movwf	(?_delay)
  1415  0268  30C3               	movlw	high(0C350h)
  1416  0269  00F6               	movwf	((?_delay))+1
  1417  026A  120A  118A  27C5   	fcall	_delay
              120A  118A         
  1418                           	line	342
  1419                           	
  1420  026F                     l3111:	
  1421                           ;women safety concept sensor abnormal gps on gsm.c: 342: z=0;
  1422  026F  3000               	movlw	low(0)
  1423  0270  1283               	bcf	status, 5	;RP0=0, select bank0
  1424  0271  1303               	bcf	status, 6	;RP1=0, select bank0
  1425  0272  00B4               	movwf	(_z)
  1426  0273  3000               	movlw	high(0)
  1427  0274  00B5               	movwf	((_z))+1
  1428                           	line	343
  1429                           	
  1430  0275                     l3113:	
  1431                           ;women safety concept sensor abnormal gps on gsm.c: 343: lcd_cmd(0x01);
  1432  0275  3001               	movlw	(01h)
  1433  0276  120A  118A  26C2   	fcall	_lcd_cmd
              120A  118A         
  1434                           	line	344
  1435                           	
  1436  027B                     l3115:	
  1437                           ;women safety concept sensor abnormal gps on gsm.c: 344: lcd_cmd(0x80);
  1438  027B  3080               	movlw	(080h)
  1439  027C  120A  118A  26C2   	fcall	_lcd_cmd
              120A  118A         
  1440                           	line	345
  1441                           	
  1442  0281                     l3117:	
  1443                           ;women safety concept sensor abnormal gps on gsm.c: 345: lcd_display("Msg sending");
  1444  0281  300E               	movlw	((STR_4-__stringbase))&0ffh
  1445  0282  120A  118A  2727   	fcall	_lcd_display
              120A  118A         
  1446                           	line	346
  1447                           	
  1448  0287                     l3119:	
  1449                           ;women safety concept sensor abnormal gps on gsm.c: 346: delay(50000);delay(50000);
  1450  0287  3050               	movlw	low(0C350h)
  1451  0288  00F5               	movwf	(?_delay)
  1452  0289  30C3               	movlw	high(0C350h)
  1453  028A  00F6               	movwf	((?_delay))+1
  1454  028B  120A  118A  27C5   	fcall	_delay
              120A  118A         
  1455                           	
  1456  0290                     l3121:	
  1457  0290  3050               	movlw	low(0C350h)
  1458  0291  00F5               	movwf	(?_delay)
  1459  0292  30C3               	movlw	high(0C350h)
  1460  0293  00F6               	movwf	((?_delay))+1
  1461  0294  120A  118A  27C5   	fcall	_delay
              120A  118A         
  1462                           	line	348
  1463                           	
  1464  0299                     l3123:	
  1465                           ;women safety concept sensor abnormal gps on gsm.c: 348: serial("AT");
  1466  0299  3030               	movlw	((STR_5-__stringbase))&0ffh
  1467  029A  120A  118A  26F8   	fcall	_serial
              120A  118A         
  1468                           	line	349
  1469                           	
  1470  029F                     l3125:	
  1471                           ;women safety concept sensor abnormal gps on gsm.c: 349: txs(13);delay(60000);delay(6000
                                 0);
  1472  029F  300D               	movlw	(0Dh)
  1473  02A0  120A  118A  27E8   	fcall	_txs
              120A  118A         
  1474                           	
  1475  02A5                     l3127:	
  1476  02A5  3060               	movlw	low(0EA60h)
  1477  02A6  00F5               	movwf	(?_delay)
  1478  02A7  30EA               	movlw	high(0EA60h)
  1479  02A8  00F6               	movwf	((?_delay))+1
  1480  02A9  120A  118A  27C5   	fcall	_delay
              120A  118A         
  1481                           	
  1482  02AE                     l3129:	
  1483  02AE  3060               	movlw	low(0EA60h)
  1484  02AF  00F5               	movwf	(?_delay)
  1485  02B0  30EA               	movlw	high(0EA60h)
  1486  02B1  00F6               	movwf	((?_delay))+1
  1487  02B2  120A  118A  27C5   	fcall	_delay
              120A  118A         
  1488                           	line	350
  1489                           	
  1490  02B7                     l3131:	
  1491                           ;women safety concept sensor abnormal gps on gsm.c: 350: txs(10);
  1492  02B7  300A               	movlw	(0Ah)
  1493  02B8  120A  118A  27E8   	fcall	_txs
              120A  118A         
  1494                           	line	351
  1495                           	
  1496  02BD                     l3133:	
  1497                           ;women safety concept sensor abnormal gps on gsm.c: 351: delay(10000);
  1498  02BD  3010               	movlw	low(02710h)
  1499  02BE  00F5               	movwf	(?_delay)
  1500  02BF  3027               	movlw	high(02710h)
  1501  02C0  00F6               	movwf	((?_delay))+1
  1502  02C1  120A  118A  27C5   	fcall	_delay
              120A  118A         
  1503                           	line	352
  1504                           	
  1505  02C6                     l3135:	
  1506                           ;women safety concept sensor abnormal gps on gsm.c: 352: delay(10000);
  1507  02C6  3010               	movlw	low(02710h)
  1508  02C7  00F5               	movwf	(?_delay)
  1509  02C8  3027               	movlw	high(02710h)
  1510  02C9  00F6               	movwf	((?_delay))+1
  1511  02CA  120A  118A  27C5   	fcall	_delay
              120A  118A         
  1512                           	line	353
  1513                           	
  1514  02CF                     l3137:	
  1515                           ;women safety concept sensor abnormal gps on gsm.c: 353: serial("AT+CMGF=1");
  1516  02CF  301A               	movlw	((STR_6-__stringbase))&0ffh
  1517  02D0  120A  118A  26F8   	fcall	_serial
              120A  118A         
  1518                           	line	354
  1519                           	
  1520  02D5                     l3139:	
  1521                           ;women safety concept sensor abnormal gps on gsm.c: 354: txs(13);delay(60000);delay(6000
                                 0);
  1522  02D5  300D               	movlw	(0Dh)
  1523  02D6  120A  118A  27E8   	fcall	_txs
              120A  118A         
  1524                           	
  1525  02DB                     l3141:	
  1526  02DB  3060               	movlw	low(0EA60h)
  1527  02DC  00F5               	movwf	(?_delay)
  1528  02DD  30EA               	movlw	high(0EA60h)
  1529  02DE  00F6               	movwf	((?_delay))+1
  1530  02DF  120A  118A  27C5   	fcall	_delay
              120A  118A         
  1531                           	
  1532  02E4                     l3143:	
  1533  02E4  3060               	movlw	low(0EA60h)
  1534  02E5  00F5               	movwf	(?_delay)
  1535  02E6  30EA               	movlw	high(0EA60h)
  1536  02E7  00F6               	movwf	((?_delay))+1
  1537  02E8  120A  118A  27C5   	fcall	_delay
              120A  118A         
  1538                           	line	355
  1539                           	
  1540  02ED                     l3145:	
  1541                           ;women safety concept sensor abnormal gps on gsm.c: 355: txs(10);
  1542  02ED  300A               	movlw	(0Ah)
  1543  02EE  120A  118A  27E8   	fcall	_txs
              120A  118A         
  1544                           	line	356
  1545                           	
  1546  02F3                     l3147:	
  1547                           ;women safety concept sensor abnormal gps on gsm.c: 356: delay(10000);delay(50000);gps_s
                                 end();
  1548  02F3  3010               	movlw	low(02710h)
  1549  02F4  00F5               	movwf	(?_delay)
  1550  02F5  3027               	movlw	high(02710h)
  1551  02F6  00F6               	movwf	((?_delay))+1
  1552  02F7  120A  118A  27C5   	fcall	_delay
              120A  118A         
  1553                           	
  1554  02FC                     l3149:	
  1555  02FC  3050               	movlw	low(0C350h)
  1556  02FD  00F5               	movwf	(?_delay)
  1557  02FE  30C3               	movlw	high(0C350h)
  1558  02FF  00F6               	movwf	((?_delay))+1
  1559  0300  120A  118A  27C5   	fcall	_delay
              120A  118A         
  1560                           	
  1561  0305                     l3151:	
  1562  0305  120A  118A  24B1   	fcall	_gps_send
              120A  118A         
  1563                           	line	357
  1564                           	
  1565  030A                     l3153:	
  1566                           ;women safety concept sensor abnormal gps on gsm.c: 357: delay(50000);delay(50000);
  1567  030A  3050               	movlw	low(0C350h)
  1568  030B  00F5               	movwf	(?_delay)
  1569  030C  30C3               	movlw	high(0C350h)
  1570  030D  00F6               	movwf	((?_delay))+1
  1571  030E  120A  118A  27C5   	fcall	_delay
              120A  118A         
  1572                           	
  1573  0313                     l3155:	
  1574  0313  3050               	movlw	low(0C350h)
  1575  0314  00F5               	movwf	(?_delay)
  1576  0315  30C3               	movlw	high(0C350h)
  1577  0316  00F6               	movwf	((?_delay))+1
  1578  0317  120A  118A  27C5   	fcall	_delay
              120A  118A         
  1579                           	line	358
  1580                           	
  1581  031C                     l3157:	
  1582                           ;women safety concept sensor abnormal gps on gsm.c: 358: sms1();
  1583  031C  120A  118A  233D   	fcall	_sms1
              120A  118A         
  1584                           	line	359
  1585                           	
  1586  0321                     l661:	
  1587                           	line	360
  1588                           	
  1589  0321                     l3159:	
  1590                           ;women safety concept sensor abnormal gps on gsm.c: 359: }
  1591                           ;women safety concept sensor abnormal gps on gsm.c: 360: lcd_cmd(0x01);
  1592  0321  3001               	movlw	(01h)
  1593  0322  120A  118A  26C2   	fcall	_lcd_cmd
              120A  118A         
  1594                           	line	361
  1595                           	
  1596  0327                     l3161:	
  1597                           ;women safety concept sensor abnormal gps on gsm.c: 361: delay(50000);delay(50000);
  1598  0327  3050               	movlw	low(0C350h)
  1599  0328  00F5               	movwf	(?_delay)
  1600  0329  30C3               	movlw	high(0C350h)
  1601  032A  00F6               	movwf	((?_delay))+1
  1602  032B  120A  118A  27C5   	fcall	_delay
              120A  118A         
  1603                           	
  1604  0330                     l3163:	
  1605  0330  3050               	movlw	low(0C350h)
  1606  0331  00F5               	movwf	(?_delay)
  1607  0332  30C3               	movlw	high(0C350h)
  1608  0333  00F6               	movwf	((?_delay))+1
  1609  0334  120A  118A  27C5   	fcall	_delay
              120A  118A         
  1610                           	line	362
  1611                           	
  1612  0339                     l662:	
  1613                           	line	291
  1614  0339  28BF               	goto	l657
  1615                           	
  1616  033A                     l663:	
  1617                           	line	363
  1618                           	
  1619  033A                     l664:	
  1620                           	global	start
  1621  033A  120A  118A  2810   	ljmp	start
  1622                           	opt stack 0
  1623                           GLOBAL	__end_of_main
  1624  033D                     	__end_of_main:
  1625 ;; =============== function _main ends ============
  1626                           
  1627                           	signat	_main,88
  1628                           	global	_gps_send
  1629                           psect	text508,local,class=CODE,delta=2
  1630                           global __ptext508
  1631  04B1                     __ptext508:
  1632                           
  1633 ;; *************** function _gps_send *****************
  1634 ;; Defined at:
  1635 ;;		line 117 in file "C:\Users\TECH\Desktop\madhu pic folder\gps&gsm\women safety concept.sensor abnormal gps on gsm\wom
       en safety concept sensor abnormal gps on gsm.c"
  1636 ;; Parameters:    Size  Location     Type
  1637 ;;		None
  1638 ;; Auto vars:     Size  Location     Type
  1639 ;;		None
  1640 ;; Return value:  Size  Location     Type
  1641 ;;		None               void
  1642 ;; Registers used:
  1643 ;;		wreg, fsr0l, fsr0h, status,2, status,0, btemp+0, pclath, cstack
  1644 ;; Tracked objects:
  1645 ;;		On entry : 0/0
  1646 ;;		On exit  : 0/0
  1647 ;;		Unchanged: 0/0
  1648 ;; Data sizes:     COMMON   BANK0   BANK1   BANK3   BANK2
  1649 ;;      Params:         0       0       0       0       0
  1650 ;;      Locals:         0       0       0       0       0
  1651 ;;      Temps:          0       1       0       0       0
  1652 ;;      Totals:         0       1       0       0       0
  1653 ;;Total ram usage:        1 bytes
  1654 ;; Hardware stack levels used:    1
  1655 ;; Hardware stack levels required when called:    4
  1656 ;; This function calls:
  1657 ;;		_lcd_cmd
  1658 ;;		_delay
  1659 ;;		_lcd_display
  1660 ;;		_lcd_data
  1661 ;; This function is called by:
  1662 ;;		_main
  1663 ;; This function uses a non-reentrant model
  1664 ;;
  1665                           psect	text508
  1666                           	file	"C:\Users\TECH\Desktop\madhu pic folder\gps&gsm\women safety concept.sensor abnorm
                                 al gps on gsm\women safety concept sensor abnormal gps on gsm.c"
  1667                           	line	117
  1668                           	global	__size_of_gps_send
  1669  0108                     	__size_of_gps_send	equ	__end_of_gps_send-_gps_send
  1670                           	
  1671  04B1                     _gps_send:	
  1672                           	opt	stack 7
  1673                           ; Regs used in _gps_send: [wreg-fsr0h+status,2-btemp+0+pclath+cstack]
  1674                           	line	118
  1675                           	
  1676  04B1                     l2935:	
  1677                           ;women safety concept sensor abnormal gps on gsm.c: 118: lcd_cmd(0x01);
  1678  04B1  3001               	movlw	(01h)
  1679  04B2  120A  118A  26C2   	fcall	_lcd_cmd
              120A  118A         
  1680                           	line	119
  1681                           ;women safety concept sensor abnormal gps on gsm.c: 119: lcd_cmd(0x87);
  1682  04B7  3087               	movlw	(087h)
  1683  04B8  120A  118A  26C2   	fcall	_lcd_cmd
              120A  118A         
  1684                           	line	120
  1685                           	
  1686  04BD                     l2937:	
  1687                           ;women safety concept sensor abnormal gps on gsm.c: 120: delay(100);
  1688  04BD  3064               	movlw	low(064h)
  1689  04BE  00F5               	movwf	(?_delay)
  1690  04BF  3000               	movlw	high(064h)
  1691  04C0  00F6               	movwf	((?_delay))+1
  1692  04C1  120A  118A  27C5   	fcall	_delay
              120A  118A         
  1693                           	line	121
  1694                           	
  1695  04C6                     l2939:	
  1696                           ;women safety concept sensor abnormal gps on gsm.c: 121: lcd_display("gps");
  1697  04C6  302C               	movlw	((STR_1-__stringbase))&0ffh
  1698  04C7  120A  118A  2727   	fcall	_lcd_display
              120A  118A         
  1699                           	line	123
  1700                           	
  1701  04CC                     l2941:	
  1702                           ;women safety concept sensor abnormal gps on gsm.c: 123: delay(50000);delay(50000);
  1703  04CC  3050               	movlw	low(0C350h)
  1704  04CD  00F5               	movwf	(?_delay)
  1705  04CE  30C3               	movlw	high(0C350h)
  1706  04CF  00F6               	movwf	((?_delay))+1
  1707  04D0  120A  118A  27C5   	fcall	_delay
              120A  118A         
  1708                           	
  1709  04D5                     l2943:	
  1710  04D5  3050               	movlw	low(0C350h)
  1711  04D6  00F5               	movwf	(?_delay)
  1712  04D7  30C3               	movlw	high(0C350h)
  1713  04D8  00F6               	movwf	((?_delay))+1
  1714  04D9  120A  118A  27C5   	fcall	_delay
              120A  118A         
  1715                           	line	124
  1716                           	
  1717  04DE                     l2945:	
  1718                           ;women safety concept sensor abnormal gps on gsm.c: 124: lcd_cmd(0x01);
  1719  04DE  3001               	movlw	(01h)
  1720  04DF  120A  118A  26C2   	fcall	_lcd_cmd
              120A  118A         
  1721                           	line	125
  1722                           	
  1723  04E4                     l2947:	
  1724                           ;women safety concept sensor abnormal gps on gsm.c: 125: delay(100);
  1725  04E4  3064               	movlw	low(064h)
  1726  04E5  00F5               	movwf	(?_delay)
  1727  04E6  3000               	movlw	high(064h)
  1728  04E7  00F6               	movwf	((?_delay))+1
  1729  04E8  120A  118A  27C5   	fcall	_delay
              120A  118A         
  1730                           	line	133
  1731                           	
  1732  04ED                     l2949:	
  1733                           ;women safety concept sensor abnormal gps on gsm.c: 133: if(i>43)
  1734  04ED  3000               	movlw	high(02Ch)
  1735  04EE  1283               	bcf	status, 5	;RP0=0, select bank0
  1736  04EF  1303               	bcf	status, 6	;RP1=0, select bank0
  1737  04F0  022D               	subwf	(_i+1),w
  1738  04F1  302C               	movlw	low(02Ch)
  1739  04F2  1903               	skipnz
  1740  04F3  022C               	subwf	(_i),w
  1741  04F4  1C03               	skipc
  1742  04F5  2CF7               	goto	u3041
  1743  04F6  2CF8               	goto	u3040
  1744  04F7                     u3041:
  1745  04F7  2DB8               	goto	l621
  1746  04F8                     u3040:
  1747                           	line	136
  1748                           	
  1749  04F8                     l2951:	
  1750                           ;women safety concept sensor abnormal gps on gsm.c: 134: {
  1751                           ;women safety concept sensor abnormal gps on gsm.c: 136: lcd_cmd(0x80);
  1752  04F8  3080               	movlw	(080h)
  1753  04F9  120A  118A  26C2   	fcall	_lcd_cmd
              120A  118A         
  1754                           	line	137
  1755                           	
  1756  04FE                     l2953:	
  1757                           ;women safety concept sensor abnormal gps on gsm.c: 137: delay(1000);
  1758  04FE  30E8               	movlw	low(03E8h)
  1759  04FF  00F5               	movwf	(?_delay)
  1760  0500  3003               	movlw	high(03E8h)
  1761  0501  00F6               	movwf	((?_delay))+1
  1762  0502  120A  118A  27C5   	fcall	_delay
              120A  118A         
  1763                           	line	139
  1764                           	
  1765  0507                     l2955:	
  1766                           ;women safety concept sensor abnormal gps on gsm.c: 139: for(j=16;j<28;j++)
  1767  0507  3010               	movlw	low(010h)
  1768  0508  1283               	bcf	status, 5	;RP0=0, select bank0
  1769  0509  1303               	bcf	status, 6	;RP1=0, select bank0
  1770  050A  00AE               	movwf	(_j)
  1771  050B  3000               	movlw	high(010h)
  1772  050C  00AF               	movwf	((_j))+1
  1773                           	
  1774  050D                     l2957:	
  1775  050D  3000               	movlw	high(01Ch)
  1776  050E  022F               	subwf	(_j+1),w
  1777  050F  301C               	movlw	low(01Ch)
  1778  0510  1903               	skipnz
  1779  0511  022E               	subwf	(_j),w
  1780  0512  1C03               	skipc
  1781  0513  2D15               	goto	u3051
  1782  0514  2D16               	goto	u3050
  1783  0515                     u3051:
  1784  0515  2D17               	goto	l622
  1785  0516                     u3050:
  1786                           	
  1787  0516                     l2959:	
  1788  0516  2D3F               	goto	l623
  1789                           	line	140
  1790                           	
  1791  0517                     l622:	
  1792                           	line	142
  1793                           	
  1794  0517                     l2961:	
  1795                           ;women safety concept sensor abnormal gps on gsm.c: 140: {
  1796                           ;women safety concept sensor abnormal gps on gsm.c: 142: ser=(gpsdata[j]);
  1797  0517  082E               	movf	(_j),w
  1798  0518  3EA0               	addlw	_gpsdata&0ffh
  1799  0519  0084               	movwf	fsr0
  1800  051A  1383               	bcf	status, 7	;select IRP bank1
  1801  051B  0800               	movf	indf,w
  1802  051C  00BD               	movwf	(??_gps_send+0)+0
  1803  051D  083D               	movf	(??_gps_send+0)+0,w
  1804  051E  00C0               	movwf	(_ser)
  1805                           	line	143
  1806                           	
  1807  051F                     l2963:	
  1808                           ;women safety concept sensor abnormal gps on gsm.c: 143: lcd_data(ser);
  1809  051F  0840               	movf	(_ser),w
  1810  0520  120A  118A  268C   	fcall	_lcd_data
              120A  118A         
  1811                           	line	145
  1812                           	
  1813  0525                     l2965:	
  1814                           ;women safety concept sensor abnormal gps on gsm.c: 145: delay(600);
  1815  0525  3058               	movlw	low(0258h)
  1816  0526  00F5               	movwf	(?_delay)
  1817  0527  3002               	movlw	high(0258h)
  1818  0528  00F6               	movwf	((?_delay))+1
  1819  0529  120A  118A  27C5   	fcall	_delay
              120A  118A         
  1820                           	line	139
  1821                           	
  1822  052E                     l2967:	
  1823  052E  3001               	movlw	low(01h)
  1824  052F  1283               	bcf	status, 5	;RP0=0, select bank0
  1825  0530  1303               	bcf	status, 6	;RP1=0, select bank0
  1826  0531  07AE               	addwf	(_j),f
  1827  0532  1803               	skipnc
  1828  0533  0AAF               	incf	(_j+1),f
  1829  0534  3000               	movlw	high(01h)
  1830  0535  07AF               	addwf	(_j+1),f
  1831                           	
  1832  0536                     l2969:	
  1833  0536  3000               	movlw	high(01Ch)
  1834  0537  022F               	subwf	(_j+1),w
  1835  0538  301C               	movlw	low(01Ch)
  1836  0539  1903               	skipnz
  1837  053A  022E               	subwf	(_j),w
  1838  053B  1C03               	skipc
  1839  053C  2D3E               	goto	u3061
  1840  053D  2D3F               	goto	u3060
  1841  053E                     u3061:
  1842  053E  2D17               	goto	l622
  1843  053F                     u3060:
  1844                           	
  1845  053F                     l623:	
  1846                           	line	147
  1847                           	
  1848  053F                     l2971:	
  1849                           ;women safety concept sensor abnormal gps on gsm.c: 146: }
  1850                           ;women safety concept sensor abnormal gps on gsm.c: 147: lcd_cmd(0xc0);
  1851  053F  30C0               	movlw	(0C0h)
  1852  0540  120A  118A  26C2   	fcall	_lcd_cmd
              120A  118A         
  1853                           	line	149
  1854                           	
  1855  0545                     l2973:	
  1856                           ;women safety concept sensor abnormal gps on gsm.c: 149: for(j=30;j<41;j++)
  1857  0545  301E               	movlw	low(01Eh)
  1858  0546  1283               	bcf	status, 5	;RP0=0, select bank0
  1859  0547  1303               	bcf	status, 6	;RP1=0, select bank0
  1860  0548  00AE               	movwf	(_j)
  1861  0549  3000               	movlw	high(01Eh)
  1862  054A  00AF               	movwf	((_j))+1
  1863                           	
  1864  054B                     l2975:	
  1865  054B  3000               	movlw	high(029h)
  1866  054C  022F               	subwf	(_j+1),w
  1867  054D  3029               	movlw	low(029h)
  1868  054E  1903               	skipnz
  1869  054F  022E               	subwf	(_j),w
  1870  0550  1C03               	skipc
  1871  0551  2D53               	goto	u3071
  1872  0552  2D54               	goto	u3070
  1873  0553                     u3071:
  1874  0553  2D55               	goto	l624
  1875  0554                     u3070:
  1876                           	
  1877  0554                     l2977:	
  1878  0554  2D7D               	goto	l625
  1879                           	line	150
  1880                           	
  1881  0555                     l624:	
  1882                           	line	152
  1883                           	
  1884  0555                     l2979:	
  1885                           ;women safety concept sensor abnormal gps on gsm.c: 150: {
  1886                           ;women safety concept sensor abnormal gps on gsm.c: 152: ser=(gpsdata[j]);
  1887  0555  082E               	movf	(_j),w
  1888  0556  3EA0               	addlw	_gpsdata&0ffh
  1889  0557  0084               	movwf	fsr0
  1890  0558  1383               	bcf	status, 7	;select IRP bank1
  1891  0559  0800               	movf	indf,w
  1892  055A  00BD               	movwf	(??_gps_send+0)+0
  1893  055B  083D               	movf	(??_gps_send+0)+0,w
  1894  055C  00C0               	movwf	(_ser)
  1895                           	line	153
  1896                           	
  1897  055D                     l2981:	
  1898                           ;women safety concept sensor abnormal gps on gsm.c: 153: lcd_data(ser);
  1899  055D  0840               	movf	(_ser),w
  1900  055E  120A  118A  268C   	fcall	_lcd_data
              120A  118A         
  1901                           	line	155
  1902                           	
  1903  0563                     l2983:	
  1904                           ;women safety concept sensor abnormal gps on gsm.c: 155: delay(600);
  1905  0563  3058               	movlw	low(0258h)
  1906  0564  00F5               	movwf	(?_delay)
  1907  0565  3002               	movlw	high(0258h)
  1908  0566  00F6               	movwf	((?_delay))+1
  1909  0567  120A  118A  27C5   	fcall	_delay
              120A  118A         
  1910                           	line	149
  1911                           	
  1912  056C                     l2985:	
  1913  056C  3001               	movlw	low(01h)
  1914  056D  1283               	bcf	status, 5	;RP0=0, select bank0
  1915  056E  1303               	bcf	status, 6	;RP1=0, select bank0
  1916  056F  07AE               	addwf	(_j),f
  1917  0570  1803               	skipnc
  1918  0571  0AAF               	incf	(_j+1),f
  1919  0572  3000               	movlw	high(01h)
  1920  0573  07AF               	addwf	(_j+1),f
  1921                           	
  1922  0574                     l2987:	
  1923  0574  3000               	movlw	high(029h)
  1924  0575  022F               	subwf	(_j+1),w
  1925  0576  3029               	movlw	low(029h)
  1926  0577  1903               	skipnz
  1927  0578  022E               	subwf	(_j),w
  1928  0579  1C03               	skipc
  1929  057A  2D7C               	goto	u3081
  1930  057B  2D7D               	goto	u3080
  1931  057C                     u3081:
  1932  057C  2D55               	goto	l624
  1933  057D                     u3080:
  1934                           	
  1935  057D                     l625:	
  1936                           	line	158
  1937                           	
  1938  057D                     l2989:	
  1939                           ;women safety concept sensor abnormal gps on gsm.c: 156: }
  1940                           ;women safety concept sensor abnormal gps on gsm.c: 158: delay(50000);delay(50000);
  1941  057D  3050               	movlw	low(0C350h)
  1942  057E  00F5               	movwf	(?_delay)
  1943  057F  30C3               	movlw	high(0C350h)
  1944  0580  00F6               	movwf	((?_delay))+1
  1945  0581  120A  118A  27C5   	fcall	_delay
              120A  118A         
  1946  0586  3050               	movlw	low(0C350h)
  1947  0587  00F5               	movwf	(?_delay)
  1948  0588  30C3               	movlw	high(0C350h)
  1949  0589  00F6               	movwf	((?_delay))+1
  1950  058A  120A  118A  27C5   	fcall	_delay
              120A  118A         
  1951                           	line	159
  1952                           ;women safety concept sensor abnormal gps on gsm.c: 159: delay(50000);delay(50000);
  1953  058F  3050               	movlw	low(0C350h)
  1954  0590  00F5               	movwf	(?_delay)
  1955  0591  30C3               	movlw	high(0C350h)
  1956  0592  00F6               	movwf	((?_delay))+1
  1957  0593  120A  118A  27C5   	fcall	_delay
              120A  118A         
  1958  0598  3050               	movlw	low(0C350h)
  1959  0599  00F5               	movwf	(?_delay)
  1960  059A  30C3               	movlw	high(0C350h)
  1961  059B  00F6               	movwf	((?_delay))+1
  1962  059C  120A  118A  27C5   	fcall	_delay
              120A  118A         
  1963                           	line	161
  1964                           	
  1965  05A1                     l2991:	
  1966                           ;women safety concept sensor abnormal gps on gsm.c: 161: data_cap=0x00;
  1967  05A1  1003               	clrc
  1968  05A2  3000               	movlw	0
  1969  05A3  1803               	btfsc	status,0
  1970  05A4  3001               	movlw	1
  1971  05A5  1283               	bcf	status, 5	;RP0=0, select bank0
  1972  05A6  1303               	bcf	status, 6	;RP1=0, select bank0
  1973  05A7  00B6               	movwf	(_data_cap)
  1974                           	line	162
  1975                           	
  1976  05A8                     l2993:	
  1977                           ;women safety concept sensor abnormal gps on gsm.c: 162: st=0x01;
  1978  05A8  01C1               	clrf	(_st)
  1979  05A9  1403               	bsf	status,0
  1980  05AA  0DC1               	rlf	(_st),f
  1981                           	line	163
  1982                           	
  1983  05AB                     l2995:	
  1984                           ;women safety concept sensor abnormal gps on gsm.c: 163: i=0x00;
  1985  05AB  3000               	movlw	low(0)
  1986  05AC  00AC               	movwf	(_i)
  1987  05AD  3000               	movlw	high(0)
  1988  05AE  00AD               	movwf	((_i))+1
  1989                           	line	165
  1990                           ;women safety concept sensor abnormal gps on gsm.c: 165: delay(35000);
  1991  05AF  30B8               	movlw	low(088B8h)
  1992  05B0  00F5               	movwf	(?_delay)
  1993  05B1  3088               	movlw	high(088B8h)
  1994  05B2  00F6               	movwf	((?_delay))+1
  1995  05B3  120A  118A  27C5   	fcall	_delay
              120A  118A         
  1996                           	line	167
  1997                           	
  1998  05B8                     l621:	
  1999                           	line	168
  2000                           	
  2001  05B8                     l626:	
  2002  05B8  0008               	return
  2003                           	opt stack 0
  2004                           GLOBAL	__end_of_gps_send
  2005  05B9                     	__end_of_gps_send:
  2006 ;; =============== function _gps_send ends ============
  2007                           
  2008                           	signat	_gps_send,88
  2009                           	global	_sms1
  2010                           psect	text509,local,class=CODE,delta=2
  2011                           global __ptext509
  2012  033D                     __ptext509:
  2013                           
  2014 ;; *************** function _sms1 *****************
  2015 ;; Defined at:
  2016 ;;		line 195 in file "C:\Users\TECH\Desktop\madhu pic folder\gps&gsm\women safety concept.sensor abnormal gps on gsm\wom
       en safety concept sensor abnormal gps on gsm.c"
  2017 ;; Parameters:    Size  Location     Type
  2018 ;;		None
  2019 ;; Auto vars:     Size  Location     Type
  2020 ;;		None
  2021 ;; Return value:  Size  Location     Type
  2022 ;;		None               void
  2023 ;; Registers used:
  2024 ;;		wreg, fsr0l, fsr0h, status,2, status,0, btemp+0, pclath, cstack
  2025 ;; Tracked objects:
  2026 ;;		On entry : 0/0
  2027 ;;		On exit  : 0/0
  2028 ;;		Unchanged: 0/0
  2029 ;; Data sizes:     COMMON   BANK0   BANK1   BANK3   BANK2
  2030 ;;      Params:         0       0       0       0       0
  2031 ;;      Locals:         0       0       0       0       0
  2032 ;;      Temps:          0       1       0       0       0
  2033 ;;      Totals:         0       1       0       0       0
  2034 ;;Total ram usage:        1 bytes
  2035 ;; Hardware stack levels used:    1
  2036 ;; Hardware stack levels required when called:    3
  2037 ;; This function calls:
  2038 ;;		_txs
  2039 ;;		_delay
  2040 ;;		_gsm_command
  2041 ;;		_lcd_cmd
  2042 ;; This function is called by:
  2043 ;;		_main
  2044 ;; This function uses a non-reentrant model
  2045 ;;
  2046                           psect	text509
  2047                           	file	"C:\Users\TECH\Desktop\madhu pic folder\gps&gsm\women safety concept.sensor abnorm
                                 al gps on gsm\women safety concept sensor abnormal gps on gsm.c"
  2048                           	line	195
  2049                           	global	__size_of_sms1
  2050  0174                     	__size_of_sms1	equ	__end_of_sms1-_sms1
  2051                           	
  2052  033D                     _sms1:	
  2053                           	opt	stack 7
  2054                           ; Regs used in _sms1: [wreg-fsr0h+status,2-btemp+0+pclath+cstack]
  2055                           	line	196
  2056                           	
  2057  033D                     l2891:	
  2058                           ;women safety concept sensor abnormal gps on gsm.c: 196: txs('A');txs('T');txs('+');txs(
                                 'C');txs('M');txs('G');
  2059  033D  3041               	movlw	(041h)
  2060  033E  120A  118A  27E8   	fcall	_txs
              120A  118A         
  2061  0343  3054               	movlw	(054h)
  2062  0344  120A  118A  27E8   	fcall	_txs
              120A  118A         
  2063  0349  302B               	movlw	(02Bh)
  2064  034A  120A  118A  27E8   	fcall	_txs
              120A  118A         
  2065  034F  3043               	movlw	(043h)
  2066  0350  120A  118A  27E8   	fcall	_txs
              120A  118A         
  2067  0355  304D               	movlw	(04Dh)
  2068  0356  120A  118A  27E8   	fcall	_txs
              120A  118A         
  2069  035B  3047               	movlw	(047h)
  2070  035C  120A  118A  27E8   	fcall	_txs
              120A  118A         
  2071                           	line	197
  2072                           ;women safety concept sensor abnormal gps on gsm.c: 197: txs('S');txs('=');
  2073  0361  3053               	movlw	(053h)
  2074  0362  120A  118A  27E8   	fcall	_txs
              120A  118A         
  2075  0367  303D               	movlw	(03Dh)
  2076  0368  120A  118A  27E8   	fcall	_txs
              120A  118A         
  2077                           	line	198
  2078                           ;women safety concept sensor abnormal gps on gsm.c: 198: txs('"');
  2079  036D  3022               	movlw	(022h)
  2080  036E  120A  118A  27E8   	fcall	_txs
              120A  118A         
  2081                           	line	199
  2082                           ;women safety concept sensor abnormal gps on gsm.c: 199: txs('9');txs('7');txs('5');txs(
                                 '1');txs('5');
  2083  0373  3039               	movlw	(039h)
  2084  0374  120A  118A  27E8   	fcall	_txs
              120A  118A         
  2085  0379  3037               	movlw	(037h)
  2086  037A  120A  118A  27E8   	fcall	_txs
              120A  118A         
  2087  037F  3035               	movlw	(035h)
  2088  0380  120A  118A  27E8   	fcall	_txs
              120A  118A         
  2089  0385  3031               	movlw	(031h)
  2090  0386  120A  118A  27E8   	fcall	_txs
              120A  118A         
  2091  038B  3035               	movlw	(035h)
  2092  038C  120A  118A  27E8   	fcall	_txs
              120A  118A         
  2093                           	line	200
  2094                           ;women safety concept sensor abnormal gps on gsm.c: 200: txs('0');txs('5');txs('7');txs(
                                 '0');txs('6');
  2095  0391  3030               	movlw	(030h)
  2096  0392  120A  118A  27E8   	fcall	_txs
              120A  118A         
  2097  0397  3035               	movlw	(035h)
  2098  0398  120A  118A  27E8   	fcall	_txs
              120A  118A         
  2099  039D  3037               	movlw	(037h)
  2100  039E  120A  118A  27E8   	fcall	_txs
              120A  118A         
  2101  03A3  3030               	movlw	(030h)
  2102  03A4  120A  118A  27E8   	fcall	_txs
              120A  118A         
  2103  03A9  3036               	movlw	(036h)
  2104  03AA  120A  118A  27E8   	fcall	_txs
              120A  118A         
  2105                           	line	201
  2106                           ;women safety concept sensor abnormal gps on gsm.c: 201: txs('"');
  2107  03AF  3022               	movlw	(022h)
  2108  03B0  120A  118A  27E8   	fcall	_txs
              120A  118A         
  2109                           	line	202
  2110                           ;women safety concept sensor abnormal gps on gsm.c: 202: txs(13); delay(10000);txs(10);
  2111  03B5  300D               	movlw	(0Dh)
  2112  03B6  120A  118A  27E8   	fcall	_txs
              120A  118A         
  2113  03BB  3010               	movlw	low(02710h)
  2114  03BC  00F5               	movwf	(?_delay)
  2115  03BD  3027               	movlw	high(02710h)
  2116  03BE  00F6               	movwf	((?_delay))+1
  2117  03BF  120A  118A  27C5   	fcall	_delay
              120A  118A         
  2118  03C4  300A               	movlw	(0Ah)
  2119  03C5  120A  118A  27E8   	fcall	_txs
              120A  118A         
  2120                           	line	204
  2121                           ;women safety concept sensor abnormal gps on gsm.c: 204: delay(600);
  2122  03CA  3058               	movlw	low(0258h)
  2123  03CB  00F5               	movwf	(?_delay)
  2124  03CC  3002               	movlw	high(0258h)
  2125  03CD  00F6               	movwf	((?_delay))+1
  2126  03CE  120A  118A  27C5   	fcall	_delay
              120A  118A         
  2127                           	line	205
  2128                           ;women safety concept sensor abnormal gps on gsm.c: 205: delay(600);
  2129  03D3  3058               	movlw	low(0258h)
  2130  03D4  00F5               	movwf	(?_delay)
  2131  03D5  3002               	movlw	high(0258h)
  2132  03D6  00F6               	movwf	((?_delay))+1
  2133  03D7  120A  118A  27C5   	fcall	_delay
              120A  118A         
  2134                           	line	208
  2135                           	
  2136  03DC                     l2893:	
  2137                           ;women safety concept sensor abnormal gps on gsm.c: 208: gsm_command("gps location");
  2138  03DC  3001               	movlw	((STR_2-__stringbase))&0ffh
  2139  03DD  120A  118A  2752   	fcall	_gsm_command
              120A  118A         
  2140                           	line	211
  2141                           	
  2142  03E2                     l2895:	
  2143                           ;women safety concept sensor abnormal gps on gsm.c: 211: lcd_cmd(0x80);
  2144  03E2  3080               	movlw	(080h)
  2145  03E3  120A  118A  26C2   	fcall	_lcd_cmd
              120A  118A         
  2146                           	line	212
  2147                           	
  2148  03E8                     l2897:	
  2149                           ;women safety concept sensor abnormal gps on gsm.c: 212: delay(1000);
  2150  03E8  30E8               	movlw	low(03E8h)
  2151  03E9  00F5               	movwf	(?_delay)
  2152  03EA  3003               	movlw	high(03E8h)
  2153  03EB  00F6               	movwf	((?_delay))+1
  2154  03EC  120A  118A  27C5   	fcall	_delay
              120A  118A         
  2155                           	line	214
  2156                           	
  2157  03F1                     l2899:	
  2158                           ;women safety concept sensor abnormal gps on gsm.c: 214: for(j=16;j<28;j++)
  2159  03F1  3010               	movlw	low(010h)
  2160  03F2  1283               	bcf	status, 5	;RP0=0, select bank0
  2161  03F3  1303               	bcf	status, 6	;RP1=0, select bank0
  2162  03F4  00AE               	movwf	(_j)
  2163  03F5  3000               	movlw	high(010h)
  2164  03F6  00AF               	movwf	((_j))+1
  2165                           	
  2166  03F7                     l2901:	
  2167  03F7  3000               	movlw	high(01Ch)
  2168  03F8  022F               	subwf	(_j+1),w
  2169  03F9  301C               	movlw	low(01Ch)
  2170  03FA  1903               	skipnz
  2171  03FB  022E               	subwf	(_j),w
  2172  03FC  1C03               	skipc
  2173  03FD  2BFF               	goto	u3001
  2174  03FE  2C00               	goto	u3000
  2175  03FF                     u3001:
  2176  03FF  2C01               	goto	l644
  2177  0400                     u3000:
  2178                           	
  2179  0400                     l2903:	
  2180  0400  2C25               	goto	l645
  2181                           	line	215
  2182                           	
  2183  0401                     l644:	
  2184                           	line	217
  2185                           	
  2186  0401                     l2905:	
  2187                           ;women safety concept sensor abnormal gps on gsm.c: 215: {
  2188                           ;women safety concept sensor abnormal gps on gsm.c: 217: ser=(gpsdata[j]);
  2189  0401  082E               	movf	(_j),w
  2190  0402  3EA0               	addlw	_gpsdata&0ffh
  2191  0403  0084               	movwf	fsr0
  2192  0404  1383               	bcf	status, 7	;select IRP bank1
  2193  0405  0800               	movf	indf,w
  2194  0406  00BA               	movwf	(??_sms1+0)+0
  2195  0407  083A               	movf	(??_sms1+0)+0,w
  2196  0408  00C0               	movwf	(_ser)
  2197                           	line	219
  2198                           	
  2199  0409                     l2907:	
  2200                           ;women safety concept sensor abnormal gps on gsm.c: 219: TXREG=ser;
  2201  0409  0840               	movf	(_ser),w
  2202  040A  0099               	movwf	(25)	;volatile
  2203                           	line	221
  2204                           	
  2205  040B                     l2909:	
  2206                           ;women safety concept sensor abnormal gps on gsm.c: 221: delay(10000);
  2207  040B  3010               	movlw	low(02710h)
  2208  040C  00F5               	movwf	(?_delay)
  2209  040D  3027               	movlw	high(02710h)
  2210  040E  00F6               	movwf	((?_delay))+1
  2211  040F  120A  118A  27C5   	fcall	_delay
              120A  118A         
  2212                           	line	214
  2213                           	
  2214  0414                     l2911:	
  2215  0414  3001               	movlw	low(01h)
  2216  0415  1283               	bcf	status, 5	;RP0=0, select bank0
  2217  0416  1303               	bcf	status, 6	;RP1=0, select bank0
  2218  0417  07AE               	addwf	(_j),f
  2219  0418  1803               	skipnc
  2220  0419  0AAF               	incf	(_j+1),f
  2221  041A  3000               	movlw	high(01h)
  2222  041B  07AF               	addwf	(_j+1),f
  2223                           	
  2224  041C                     l2913:	
  2225  041C  3000               	movlw	high(01Ch)
  2226  041D  022F               	subwf	(_j+1),w
  2227  041E  301C               	movlw	low(01Ch)
  2228  041F  1903               	skipnz
  2229  0420  022E               	subwf	(_j),w
  2230  0421  1C03               	skipc
  2231  0422  2C24               	goto	u3011
  2232  0423  2C25               	goto	u3010
  2233  0424                     u3011:
  2234  0424  2C01               	goto	l644
  2235  0425                     u3010:
  2236                           	
  2237  0425                     l645:	
  2238                           	line	223
  2239                           	
  2240  0425                     l2915:	
  2241                           ;women safety concept sensor abnormal gps on gsm.c: 222: }
  2242                           ;women safety concept sensor abnormal gps on gsm.c: 223: lcd_cmd(0xc0);
  2243  0425  30C0               	movlw	(0C0h)
  2244  0426  120A  118A  26C2   	fcall	_lcd_cmd
              120A  118A         
  2245                           	line	225
  2246                           	
  2247  042B                     l2917:	
  2248                           ;women safety concept sensor abnormal gps on gsm.c: 225: for(j=30;j<41;j++)
  2249  042B  301E               	movlw	low(01Eh)
  2250  042C  1283               	bcf	status, 5	;RP0=0, select bank0
  2251  042D  1303               	bcf	status, 6	;RP1=0, select bank0
  2252  042E  00AE               	movwf	(_j)
  2253  042F  3000               	movlw	high(01Eh)
  2254  0430  00AF               	movwf	((_j))+1
  2255                           	
  2256  0431                     l2919:	
  2257  0431  3000               	movlw	high(029h)
  2258  0432  022F               	subwf	(_j+1),w
  2259  0433  3029               	movlw	low(029h)
  2260  0434  1903               	skipnz
  2261  0435  022E               	subwf	(_j),w
  2262  0436  1C03               	skipc
  2263  0437  2C39               	goto	u3021
  2264  0438  2C3A               	goto	u3020
  2265  0439                     u3021:
  2266  0439  2C3B               	goto	l646
  2267  043A                     u3020:
  2268                           	
  2269  043A                     l2921:	
  2270  043A  2C5F               	goto	l647
  2271                           	line	226
  2272                           	
  2273  043B                     l646:	
  2274                           	line	228
  2275                           	
  2276  043B                     l2923:	
  2277                           ;women safety concept sensor abnormal gps on gsm.c: 226: {
  2278                           ;women safety concept sensor abnormal gps on gsm.c: 228: ser=(gpsdata[j]);
  2279  043B  082E               	movf	(_j),w
  2280  043C  3EA0               	addlw	_gpsdata&0ffh
  2281  043D  0084               	movwf	fsr0
  2282  043E  1383               	bcf	status, 7	;select IRP bank1
  2283  043F  0800               	movf	indf,w
  2284  0440  00BA               	movwf	(??_sms1+0)+0
  2285  0441  083A               	movf	(??_sms1+0)+0,w
  2286  0442  00C0               	movwf	(_ser)
  2287                           	line	230
  2288                           	
  2289  0443                     l2925:	
  2290                           ;women safety concept sensor abnormal gps on gsm.c: 230: TXREG=ser;
  2291  0443  0840               	movf	(_ser),w
  2292  0444  0099               	movwf	(25)	;volatile
  2293                           	line	232
  2294                           	
  2295  0445                     l2927:	
  2296                           ;women safety concept sensor abnormal gps on gsm.c: 232: delay(10000);
  2297  0445  3010               	movlw	low(02710h)
  2298  0446  00F5               	movwf	(?_delay)
  2299  0447  3027               	movlw	high(02710h)
  2300  0448  00F6               	movwf	((?_delay))+1
  2301  0449  120A  118A  27C5   	fcall	_delay
              120A  118A         
  2302                           	line	225
  2303                           	
  2304  044E                     l2929:	
  2305  044E  3001               	movlw	low(01h)
  2306  044F  1283               	bcf	status, 5	;RP0=0, select bank0
  2307  0450  1303               	bcf	status, 6	;RP1=0, select bank0
  2308  0451  07AE               	addwf	(_j),f
  2309  0452  1803               	skipnc
  2310  0453  0AAF               	incf	(_j+1),f
  2311  0454  3000               	movlw	high(01h)
  2312  0455  07AF               	addwf	(_j+1),f
  2313                           	
  2314  0456                     l2931:	
  2315  0456  3000               	movlw	high(029h)
  2316  0457  022F               	subwf	(_j+1),w
  2317  0458  3029               	movlw	low(029h)
  2318  0459  1903               	skipnz
  2319  045A  022E               	subwf	(_j),w
  2320  045B  1C03               	skipc
  2321  045C  2C5E               	goto	u3031
  2322  045D  2C5F               	goto	u3030
  2323  045E                     u3031:
  2324  045E  2C3B               	goto	l646
  2325  045F                     u3030:
  2326                           	
  2327  045F                     l647:	
  2328                           	line	236
  2329                           	
  2330  045F                     l2933:	
  2331                           ;women safety concept sensor abnormal gps on gsm.c: 233: }
  2332                           ;women safety concept sensor abnormal gps on gsm.c: 236: delay(600);
  2333  045F  3058               	movlw	low(0258h)
  2334  0460  00F5               	movwf	(?_delay)
  2335  0461  3002               	movlw	high(0258h)
  2336  0462  00F6               	movwf	((?_delay))+1
  2337  0463  120A  118A  27C5   	fcall	_delay
              120A  118A         
  2338                           	line	237
  2339                           ;women safety concept sensor abnormal gps on gsm.c: 237: txs(13);delay(60000);
  2340  0468  300D               	movlw	(0Dh)
  2341  0469  120A  118A  27E8   	fcall	_txs
              120A  118A         
  2342  046E  3060               	movlw	low(0EA60h)
  2343  046F  00F5               	movwf	(?_delay)
  2344  0470  30EA               	movlw	high(0EA60h)
  2345  0471  00F6               	movwf	((?_delay))+1
  2346  0472  120A  118A  27C5   	fcall	_delay
              120A  118A         
  2347                           	line	238
  2348                           ;women safety concept sensor abnormal gps on gsm.c: 238: txs(10);
  2349  0477  300A               	movlw	(0Ah)
  2350  0478  120A  118A  27E8   	fcall	_txs
              120A  118A         
  2351                           	line	239
  2352                           ;women safety concept sensor abnormal gps on gsm.c: 239: delay(10000);
  2353  047D  3010               	movlw	low(02710h)
  2354  047E  00F5               	movwf	(?_delay)
  2355  047F  3027               	movlw	high(02710h)
  2356  0480  00F6               	movwf	((?_delay))+1
  2357  0481  120A  118A  27C5   	fcall	_delay
              120A  118A         
  2358                           	line	241
  2359                           ;women safety concept sensor abnormal gps on gsm.c: 241: txs(26);
  2360  0486  301A               	movlw	(01Ah)
  2361  0487  120A  118A  27E8   	fcall	_txs
              120A  118A         
  2362                           	line	242
  2363                           ;women safety concept sensor abnormal gps on gsm.c: 242: delay(50000);delay(50000);
  2364  048C  3050               	movlw	low(0C350h)
  2365  048D  00F5               	movwf	(?_delay)
  2366  048E  30C3               	movlw	high(0C350h)
  2367  048F  00F6               	movwf	((?_delay))+1
  2368  0490  120A  118A  27C5   	fcall	_delay
              120A  118A         
  2369  0495  3050               	movlw	low(0C350h)
  2370  0496  00F5               	movwf	(?_delay)
  2371  0497  30C3               	movlw	high(0C350h)
  2372  0498  00F6               	movwf	((?_delay))+1
  2373  0499  120A  118A  27C5   	fcall	_delay
              120A  118A         
  2374                           	line	243
  2375                           ;women safety concept sensor abnormal gps on gsm.c: 243: delay(50000);delay(50000);
  2376  049E  3050               	movlw	low(0C350h)
  2377  049F  00F5               	movwf	(?_delay)
  2378  04A0  30C3               	movlw	high(0C350h)
  2379  04A1  00F6               	movwf	((?_delay))+1
  2380  04A2  120A  118A  27C5   	fcall	_delay
              120A  118A         
  2381  04A7  3050               	movlw	low(0C350h)
  2382  04A8  00F5               	movwf	(?_delay)
  2383  04A9  30C3               	movlw	high(0C350h)
  2384  04AA  00F6               	movwf	((?_delay))+1
  2385  04AB  120A  118A  27C5   	fcall	_delay
              120A  118A         
  2386                           	line	244
  2387                           	
  2388  04B0                     l648:	
  2389  04B0  0008               	return
  2390                           	opt stack 0
  2391                           GLOBAL	__end_of_sms1
  2392  04B1                     	__end_of_sms1:
  2393 ;; =============== function _sms1 ends ============
  2394                           
  2395                           	signat	_sms1,88
  2396                           	global	_lcd_init
  2397                           psect	text510,local,class=CODE,delta=2
  2398                           global __ptext510
  2399  077D                     __ptext510:
  2400                           
  2401 ;; *************** function _lcd_init *****************
  2402 ;; Defined at:
  2403 ;;		line 83 in file "C:\Users\TECH\Desktop\madhu pic folder\gps&gsm\women safety concept.sensor abnormal gps on gsm\wome
       n safety concept sensor abnormal gps on gsm.c"
  2404 ;; Parameters:    Size  Location     Type
  2405 ;;		None
  2406 ;; Auto vars:     Size  Location     Type
  2407 ;;		None
  2408 ;; Return value:  Size  Location     Type
  2409 ;;		None               void
  2410 ;; Registers used:
  2411 ;;		wreg, status,2, status,0, btemp+0, pclath, cstack
  2412 ;; Tracked objects:
  2413 ;;		On entry : 0/0
  2414 ;;		On exit  : 0/0
  2415 ;;		Unchanged: 0/0
  2416 ;; Data sizes:     COMMON   BANK0   BANK1   BANK3   BANK2
  2417 ;;      Params:         0       0       0       0       0
  2418 ;;      Locals:         0       0       0       0       0
  2419 ;;      Temps:          0       0       0       0       0
  2420 ;;      Totals:         0       0       0       0       0
  2421 ;;Total ram usage:        0 bytes
  2422 ;; Hardware stack levels used:    1
  2423 ;; Hardware stack levels required when called:    3
  2424 ;; This function calls:
  2425 ;;		_lcd_cmd
  2426 ;; This function is called by:
  2427 ;;		_main
  2428 ;; This function uses a non-reentrant model
  2429 ;;
  2430                           psect	text510
  2431                           	file	"C:\Users\TECH\Desktop\madhu pic folder\gps&gsm\women safety concept.sensor abnorm
                                 al gps on gsm\women safety concept sensor abnormal gps on gsm.c"
  2432                           	line	83
  2433                           	global	__size_of_lcd_init
  2434  0025                     	__size_of_lcd_init	equ	__end_of_lcd_init-_lcd_init
  2435                           	
  2436  077D                     _lcd_init:	
  2437                           	opt	stack 7
  2438                           ; Regs used in _lcd_init: [wreg+status,2-btemp+0+pclath+cstack]
  2439                           	line	84
  2440                           	
  2441  077D                     l2889:	
  2442                           ;women safety concept sensor abnormal gps on gsm.c: 84: lcd_cmd(0x02);
  2443  077D  3002               	movlw	(02h)
  2444  077E  120A  118A  26C2   	fcall	_lcd_cmd
              120A  118A         
  2445                           	line	85
  2446                           ;women safety concept sensor abnormal gps on gsm.c: 85: lcd_cmd(0x2c);
  2447  0783  302C               	movlw	(02Ch)
  2448  0784  120A  118A  26C2   	fcall	_lcd_cmd
              120A  118A         
  2449                           	line	86
  2450                           ;women safety concept sensor abnormal gps on gsm.c: 86: lcd_cmd(0x06);
  2451  0789  3006               	movlw	(06h)
  2452  078A  120A  118A  26C2   	fcall	_lcd_cmd
              120A  118A         
  2453                           	line	87
  2454                           ;women safety concept sensor abnormal gps on gsm.c: 87: lcd_cmd(0x01);
  2455  078F  3001               	movlw	(01h)
  2456  0790  120A  118A  26C2   	fcall	_lcd_cmd
              120A  118A         
  2457                           	line	88
  2458                           ;women safety concept sensor abnormal gps on gsm.c: 88: lcd_cmd(0x0c);
  2459  0795  300C               	movlw	(0Ch)
  2460  0796  120A  118A  26C2   	fcall	_lcd_cmd
              120A  118A         
  2461                           	line	89
  2462                           ;women safety concept sensor abnormal gps on gsm.c: 89: lcd_cmd(0x80);
  2463  079B  3080               	movlw	(080h)
  2464  079C  120A  118A  26C2   	fcall	_lcd_cmd
              120A  118A         
  2465                           	line	90
  2466                           	
  2467  07A1                     l612:	
  2468  07A1  0008               	return
  2469                           	opt stack 0
  2470                           GLOBAL	__end_of_lcd_init
  2471  07A2                     	__end_of_lcd_init:
  2472 ;; =============== function _lcd_init ends ============
  2473                           
  2474                           	signat	_lcd_init,88
  2475                           	global	_lcd_display
  2476                           psect	text511,local,class=CODE,delta=2
  2477                           global __ptext511
  2478  0727                     __ptext511:
  2479                           
  2480 ;; *************** function _lcd_display *****************
  2481 ;; Defined at:
  2482 ;;		line 73 in file "C:\Users\TECH\Desktop\madhu pic folder\gps&gsm\women safety concept.sensor abnormal gps on gsm\wome
       n safety concept sensor abnormal gps on gsm.c"
  2483 ;; Parameters:    Size  Location     Type
  2484 ;;  m               1    wreg     PTR const unsigned char 
  2485 ;;		 -> STR_4(12), STR_3(8), STR_1(4), 
  2486 ;; Auto vars:     Size  Location     Type
  2487 ;;  m               1    3[BANK0 ] PTR const unsigned char 
  2488 ;;		 -> STR_4(12), STR_3(8), STR_1(4), 
  2489 ;;  k               2    4[BANK0 ] int 
  2490 ;; Return value:  Size  Location     Type
  2491 ;;		None               void
  2492 ;; Registers used:
  2493 ;;		wreg, fsr0l, fsr0h, status,2, status,0, btemp+0, pclath, cstack
  2494 ;; Tracked objects:
  2495 ;;		On entry : 0/0
  2496 ;;		On exit  : 0/0
  2497 ;;		Unchanged: 0/0
  2498 ;; Data sizes:     COMMON   BANK0   BANK1   BANK3   BANK2
  2499 ;;      Params:         0       0       0       0       0
  2500 ;;      Locals:         0       3       0       0       0
  2501 ;;      Temps:          0       0       0       0       0
  2502 ;;      Totals:         0       3       0       0       0
  2503 ;;Total ram usage:        3 bytes
  2504 ;; Hardware stack levels used:    1
  2505 ;; Hardware stack levels required when called:    3
  2506 ;; This function calls:
  2507 ;;		_lcd_data
  2508 ;; This function is called by:
  2509 ;;		_gps_send
  2510 ;;		_main
  2511 ;; This function uses a non-reentrant model
  2512 ;;
  2513                           psect	text511
  2514                           	file	"C:\Users\TECH\Desktop\madhu pic folder\gps&gsm\women safety concept.sensor abnorm
                                 al gps on gsm\women safety concept sensor abnormal gps on gsm.c"
  2515                           	line	73
  2516                           	global	__size_of_lcd_display
  2517  002B                     	__size_of_lcd_display	equ	__end_of_lcd_display-_lcd_display
  2518                           	
  2519  0727                     _lcd_display:	
  2520                           	opt	stack 6
  2521                           ; Regs used in _lcd_display: [wreg-fsr0h+status,2-btemp+0+pclath+cstack]
  2522                           ;lcd_display@m stored from wreg
  2523  0727  1283               	bcf	status, 5	;RP0=0, select bank0
  2524  0728  1303               	bcf	status, 6	;RP1=0, select bank0
  2525  0729  00BA               	movwf	(lcd_display@m)
  2526                           	line	74
  2527                           	
  2528  072A                     l2881:	
  2529                           ;women safety concept sensor abnormal gps on gsm.c: 74: for(int k=0;m[k]!=0;k++)
  2530  072A  3000               	movlw	low(0)
  2531  072B  00BB               	movwf	(lcd_display@k)
  2532  072C  3000               	movlw	high(0)
  2533  072D  00BC               	movwf	((lcd_display@k))+1
  2534  072E  2F44               	goto	l606
  2535                           	line	75
  2536                           	
  2537  072F                     l607:	
  2538                           	line	76
  2539                           	
  2540  072F                     l2883:	
  2541                           ;women safety concept sensor abnormal gps on gsm.c: 75: {
  2542                           ;women safety concept sensor abnormal gps on gsm.c: 76: lcd_data(m[k]);
  2543  072F  083B               	movf	(lcd_display@k),w
  2544  0730  073A               	addwf	(lcd_display@m),w
  2545  0731  0084               	movwf	fsr0
  2546  0732  120A  118A  2013   	fcall	stringdir
              120A  118A         
  2547  0737  120A  118A  268C   	fcall	_lcd_data
              120A  118A         
  2548                           	line	74
  2549                           	
  2550  073C                     l2885:	
  2551  073C  3001               	movlw	low(01h)
  2552  073D  1283               	bcf	status, 5	;RP0=0, select bank0
  2553  073E  1303               	bcf	status, 6	;RP1=0, select bank0
  2554  073F  07BB               	addwf	(lcd_display@k),f
  2555  0740  1803               	skipnc
  2556  0741  0ABC               	incf	(lcd_display@k+1),f
  2557  0742  3000               	movlw	high(01h)
  2558  0743  07BC               	addwf	(lcd_display@k+1),f
  2559                           	
  2560  0744                     l606:	
  2561                           	
  2562  0744                     l2887:	
  2563  0744  083B               	movf	(lcd_display@k),w
  2564  0745  073A               	addwf	(lcd_display@m),w
  2565  0746  0084               	movwf	fsr0
  2566  0747  120A  118A  2013   	fcall	stringdir
              120A  118A         
  2567  074C  3800               	iorlw	0
  2568  074D  1D03               	skipz
  2569  074E  2F50               	goto	u2991
  2570  074F  2F51               	goto	u2990
  2571  0750                     u2991:
  2572  0750  2F2F               	goto	l607
  2573  0751                     u2990:
  2574                           	
  2575  0751                     l608:	
  2576                           	line	78
  2577                           	
  2578  0751                     l609:	
  2579  0751  0008               	return
  2580                           	opt stack 0
  2581                           GLOBAL	__end_of_lcd_display
  2582  0752                     	__end_of_lcd_display:
  2583 ;; =============== function _lcd_display ends ============
  2584                           
  2585                           	signat	_lcd_display,4216
  2586                           	global	_serial
  2587                           psect	text512,local,class=CODE,delta=2
  2588                           global __ptext512
  2589  06F8                     __ptext512:
  2590                           
  2591 ;; *************** function _serial *****************
  2592 ;; Defined at:
  2593 ;;		line 246 in file "C:\Users\TECH\Desktop\madhu pic folder\gps&gsm\women safety concept.sensor abnormal gps on gsm\wom
       en safety concept sensor abnormal gps on gsm.c"
  2594 ;; Parameters:    Size  Location     Type
  2595 ;;  a               1    wreg     PTR const unsigned char 
  2596 ;;		 -> STR_6(10), STR_5(3), 
  2597 ;; Auto vars:     Size  Location     Type
  2598 ;;  a               1    1[BANK0 ] PTR const unsigned char 
  2599 ;;		 -> STR_6(10), STR_5(3), 
  2600 ;;  B               1    2[BANK0 ] unsigned char 
  2601 ;; Return value:  Size  Location     Type
  2602 ;;		None               void
  2603 ;; Registers used:
  2604 ;;		wreg, fsr0l, fsr0h, status,2, status,0, pclath, cstack
  2605 ;; Tracked objects:
  2606 ;;		On entry : 0/0
  2607 ;;		On exit  : 0/0
  2608 ;;		Unchanged: 0/0
  2609 ;; Data sizes:     COMMON   BANK0   BANK1   BANK3   BANK2
  2610 ;;      Params:         0       0       0       0       0
  2611 ;;      Locals:         0       2       0       0       0
  2612 ;;      Temps:          0       1       0       0       0
  2613 ;;      Totals:         0       3       0       0       0
  2614 ;;Total ram usage:        3 bytes
  2615 ;; Hardware stack levels used:    1
  2616 ;; Hardware stack levels required when called:    2
  2617 ;; This function calls:
  2618 ;;		_delay
  2619 ;; This function is called by:
  2620 ;;		_main
  2621 ;; This function uses a non-reentrant model
  2622 ;;
  2623                           psect	text512
  2624                           	file	"C:\Users\TECH\Desktop\madhu pic folder\gps&gsm\women safety concept.sensor abnorm
                                 al gps on gsm\women safety concept sensor abnormal gps on gsm.c"
  2625                           	line	246
  2626                           	global	__size_of_serial
  2627  002F                     	__size_of_serial	equ	__end_of_serial-_serial
  2628                           	
  2629  06F8                     _serial:	
  2630                           	opt	stack 7
  2631                           ; Regs used in _serial: [wreg-fsr0h+status,2+status,0+pclath+cstack]
  2632                           ;serial@a stored from wreg
  2633                           	line	248
  2634  06F8  1283               	bcf	status, 5	;RP0=0, select bank0
  2635  06F9  1303               	bcf	status, 6	;RP1=0, select bank0
  2636  06FA  00B8               	movwf	(serial@a)
  2637                           	
  2638  06FB                     l2871:	
  2639                           ;women safety concept sensor abnormal gps on gsm.c: 247: unsigned char B;
  2640                           ;women safety concept sensor abnormal gps on gsm.c: 248: for(B=0;a[B]!=0;B++)
  2641  06FB  1003               	clrc
  2642  06FC  3000               	movlw	0
  2643  06FD  1803               	btfsc	status,0
  2644  06FE  3001               	movlw	1
  2645  06FF  00B9               	movwf	(serial@B)
  2646  0700  2F19               	goto	l651
  2647                           	line	249
  2648                           	
  2649  0701                     l652:	
  2650                           	line	250
  2651                           	
  2652  0701                     l2873:	
  2653                           ;women safety concept sensor abnormal gps on gsm.c: 249: {
  2654                           ;women safety concept sensor abnormal gps on gsm.c: 250: TXREG=a[B];
  2655  0701  0839               	movf	(serial@B),w
  2656  0702  0738               	addwf	(serial@a),w
  2657  0703  0084               	movwf	fsr0
  2658  0704  120A  118A  2013   	fcall	stringdir
              120A  118A         
  2659  0709  0099               	movwf	(25)	;volatile
  2660                           	line	251
  2661                           	
  2662  070A                     l2875:	
  2663                           ;women safety concept sensor abnormal gps on gsm.c: 251: delay(20000);
  2664  070A  3020               	movlw	low(04E20h)
  2665  070B  00F5               	movwf	(?_delay)
  2666  070C  304E               	movlw	high(04E20h)
  2667  070D  00F6               	movwf	((?_delay))+1
  2668  070E  120A  118A  27C5   	fcall	_delay
              120A  118A         
  2669                           	line	248
  2670                           	
  2671  0713                     l2877:	
  2672  0713  3001               	movlw	(01h)
  2673  0714  1283               	bcf	status, 5	;RP0=0, select bank0
  2674  0715  1303               	bcf	status, 6	;RP1=0, select bank0
  2675  0716  00B7               	movwf	(??_serial+0)+0
  2676  0717  0837               	movf	(??_serial+0)+0,w
  2677  0718  07B9               	addwf	(serial@B),f
  2678                           	
  2679  0719                     l651:	
  2680                           	
  2681  0719                     l2879:	
  2682  0719  0839               	movf	(serial@B),w
  2683  071A  0738               	addwf	(serial@a),w
  2684  071B  0084               	movwf	fsr0
  2685  071C  120A  118A  2013   	fcall	stringdir
              120A  118A         
  2686  0721  3800               	iorlw	0
  2687  0722  1D03               	skipz
  2688  0723  2F25               	goto	u2981
  2689  0724  2F26               	goto	u2980
  2690  0725                     u2981:
  2691  0725  2F01               	goto	l652
  2692  0726                     u2980:
  2693                           	
  2694  0726                     l653:	
  2695                           	line	254
  2696                           	
  2697  0726                     l654:	
  2698  0726  0008               	return
  2699                           	opt stack 0
  2700                           GLOBAL	__end_of_serial
  2701  0727                     	__end_of_serial:
  2702 ;; =============== function _serial ends ============
  2703                           
  2704                           	signat	_serial,4216
  2705                           	global	_lcd_data
  2706                           psect	text513,local,class=CODE,delta=2
  2707                           global __ptext513
  2708  068C                     __ptext513:
  2709                           
  2710 ;; *************** function _lcd_data *****************
  2711 ;; Defined at:
  2712 ;;		line 54 in file "C:\Users\TECH\Desktop\madhu pic folder\gps&gsm\women safety concept.sensor abnormal gps on gsm\wome
       n safety concept sensor abnormal gps on gsm.c"
  2713 ;; Parameters:    Size  Location     Type
  2714 ;;  dat             1    wreg     unsigned char 
  2715 ;; Auto vars:     Size  Location     Type
  2716 ;;  dat             1    2[BANK0 ] unsigned char 
  2717 ;; Return value:  Size  Location     Type
  2718 ;;		None               void
  2719 ;; Registers used:
  2720 ;;		wreg, status,2, status,0, btemp+0, pclath, cstack
  2721 ;; Tracked objects:
  2722 ;;		On entry : 0/0
  2723 ;;		On exit  : 0/0
  2724 ;;		Unchanged: 0/0
  2725 ;; Data sizes:     COMMON   BANK0   BANK1   BANK3   BANK2
  2726 ;;      Params:         0       0       0       0       0
  2727 ;;      Locals:         0       1       0       0       0
  2728 ;;      Temps:          0       2       0       0       0
  2729 ;;      Totals:         0       3       0       0       0
  2730 ;;Total ram usage:        3 bytes
  2731 ;; Hardware stack levels used:    1
  2732 ;; Hardware stack levels required when called:    2
  2733 ;; This function calls:
  2734 ;;		_delay
  2735 ;; This function is called by:
  2736 ;;		_lcd_display
  2737 ;;		_gps_send
  2738 ;;		_main
  2739 ;; This function uses a non-reentrant model
  2740 ;;
  2741                           psect	text513
  2742                           	file	"C:\Users\TECH\Desktop\madhu pic folder\gps&gsm\women safety concept.sensor abnorm
                                 al gps on gsm\women safety concept sensor abnormal gps on gsm.c"
  2743                           	line	54
  2744                           	global	__size_of_lcd_data
  2745  0036                     	__size_of_lcd_data	equ	__end_of_lcd_data-_lcd_data
  2746                           	
  2747  068C                     _lcd_data:	
  2748                           	opt	stack 6
  2749                           ; Regs used in _lcd_data: [wreg+status,2-btemp+0+pclath+cstack]
  2750                           ;lcd_data@dat stored from wreg
  2751  068C  1283               	bcf	status, 5	;RP0=0, select bank0
  2752  068D  1303               	bcf	status, 6	;RP1=0, select bank0
  2753  068E  00B9               	movwf	(lcd_data@dat)
  2754                           	line	55
  2755                           	
  2756  068F                     l2845:	
  2757                           ;women safety concept sensor abnormal gps on gsm.c: 55: PORTD=(dat&0xf0);
  2758  068F  0839               	movf	(lcd_data@dat),w
  2759  0690  39F0               	andlw	0F0h
  2760  0691  0088               	movwf	(8)	;volatile
  2761                           	line	56
  2762                           	
  2763  0692                     l2847:	
  2764                           ;women safety concept sensor abnormal gps on gsm.c: 56: RD1=1;
  2765  0692  1488               	bsf	(65/8),(65)&7
  2766                           	line	57
  2767                           	
  2768  0693                     l2849:	
  2769                           ;women safety concept sensor abnormal gps on gsm.c: 57: RD2=0;
  2770  0693  1108               	bcf	(66/8),(66)&7
  2771                           	line	58
  2772                           	
  2773  0694                     l2851:	
  2774                           ;women safety concept sensor abnormal gps on gsm.c: 58: RD3=1;
  2775  0694  1588               	bsf	(67/8),(67)&7
  2776                           	line	59
  2777                           	
  2778  0695                     l2853:	
  2779                           ;women safety concept sensor abnormal gps on gsm.c: 59: delay(200);
  2780  0695  30C8               	movlw	low(0C8h)
  2781  0696  00F5               	movwf	(?_delay)
  2782  0697  3000               	movlw	high(0C8h)
  2783  0698  00F6               	movwf	((?_delay))+1
  2784  0699  120A  118A  27C5   	fcall	_delay
              120A  118A         
  2785                           	line	60
  2786                           	
  2787  069E                     l2855:	
  2788                           ;women safety concept sensor abnormal gps on gsm.c: 60: RD3=0;
  2789  069E  1283               	bcf	status, 5	;RP0=0, select bank0
  2790  069F  1303               	bcf	status, 6	;RP1=0, select bank0
  2791  06A0  1188               	bcf	(67/8),(67)&7
  2792                           	line	61
  2793                           	
  2794  06A1                     l2857:	
  2795                           ;women safety concept sensor abnormal gps on gsm.c: 61: temp=dat<<4;
  2796  06A1  0839               	movf	(lcd_data@dat),w
  2797  06A2  00B7               	movwf	(??_lcd_data+0)+0
  2798  06A3  01B8               	clrf	(??_lcd_data+0)+0+1
  2799  06A4  3004               	movlw	04h
  2800  06A5  00FE               	movwf	btemp+0
  2801  06A6                     u2975:
  2802  06A6  1003               	clrc
  2803  06A7  0DB7               	rlf	(??_lcd_data+0)+0,f
  2804  06A8  0DB8               	rlf	(??_lcd_data+0)+1,f
  2805  06A9  0BFE               	decfsz	btemp+0,f
  2806  06AA  2EA6               	goto	u2975
  2807  06AB  0837               	movf	0+(??_lcd_data+0)+0,w
  2808  06AC  00F7               	movwf	(_temp)
  2809  06AD  0838               	movf	1+(??_lcd_data+0)+0,w
  2810  06AE  00F8               	movwf	(_temp+1)
  2811                           	line	62
  2812                           	
  2813  06AF                     l2859:	
  2814                           ;women safety concept sensor abnormal gps on gsm.c: 62: PORTD=(temp&0xf0);
  2815  06AF  0877               	movf	(_temp),w
  2816  06B0  39F0               	andlw	0F0h
  2817  06B1  0088               	movwf	(8)	;volatile
  2818                           	line	63
  2819                           	
  2820  06B2                     l2861:	
  2821                           ;women safety concept sensor abnormal gps on gsm.c: 63: RD1=1;
  2822  06B2  1488               	bsf	(65/8),(65)&7
  2823                           	line	64
  2824                           	
  2825  06B3                     l2863:	
  2826                           ;women safety concept sensor abnormal gps on gsm.c: 64: RD2=0;
  2827  06B3  1108               	bcf	(66/8),(66)&7
  2828                           	line	65
  2829                           	
  2830  06B4                     l2865:	
  2831                           ;women safety concept sensor abnormal gps on gsm.c: 65: RD3=1;
  2832  06B4  1588               	bsf	(67/8),(67)&7
  2833                           	line	66
  2834                           	
  2835  06B5                     l2867:	
  2836                           ;women safety concept sensor abnormal gps on gsm.c: 66: delay(200);
  2837  06B5  30C8               	movlw	low(0C8h)
  2838  06B6  00F5               	movwf	(?_delay)
  2839  06B7  3000               	movlw	high(0C8h)
  2840  06B8  00F6               	movwf	((?_delay))+1
  2841  06B9  120A  118A  27C5   	fcall	_delay
              120A  118A         
  2842                           	line	67
  2843                           	
  2844  06BE                     l2869:	
  2845                           ;women safety concept sensor abnormal gps on gsm.c: 67: RD3=0;
  2846  06BE  1283               	bcf	status, 5	;RP0=0, select bank0
  2847  06BF  1303               	bcf	status, 6	;RP1=0, select bank0
  2848  06C0  1188               	bcf	(67/8),(67)&7
  2849                           	line	68
  2850                           	
  2851  06C1                     l603:	
  2852  06C1  0008               	return
  2853                           	opt stack 0
  2854                           GLOBAL	__end_of_lcd_data
  2855  06C2                     	__end_of_lcd_data:
  2856 ;; =============== function _lcd_data ends ============
  2857                           
  2858                           	signat	_lcd_data,4216
  2859                           	global	_lcd_cmd
  2860                           psect	text514,local,class=CODE,delta=2
  2861                           global __ptext514
  2862  06C2                     __ptext514:
  2863                           
  2864 ;; *************** function _lcd_cmd *****************
  2865 ;; Defined at:
  2866 ;;		line 35 in file "C:\Users\TECH\Desktop\madhu pic folder\gps&gsm\women safety concept.sensor abnormal gps on gsm\wome
       n safety concept sensor abnormal gps on gsm.c"
  2867 ;; Parameters:    Size  Location     Type
  2868 ;;  com             1    wreg     unsigned char 
  2869 ;; Auto vars:     Size  Location     Type
  2870 ;;  com             1    2[BANK0 ] unsigned char 
  2871 ;; Return value:  Size  Location     Type
  2872 ;;		None               void
  2873 ;; Registers used:
  2874 ;;		wreg, status,2, status,0, btemp+0, pclath, cstack
  2875 ;; Tracked objects:
  2876 ;;		On entry : 0/0
  2877 ;;		On exit  : 0/0
  2878 ;;		Unchanged: 0/0
  2879 ;; Data sizes:     COMMON   BANK0   BANK1   BANK3   BANK2
  2880 ;;      Params:         0       0       0       0       0
  2881 ;;      Locals:         0       1       0       0       0
  2882 ;;      Temps:          0       2       0       0       0
  2883 ;;      Totals:         0       3       0       0       0
  2884 ;;Total ram usage:        3 bytes
  2885 ;; Hardware stack levels used:    1
  2886 ;; Hardware stack levels required when called:    2
  2887 ;; This function calls:
  2888 ;;		_delay
  2889 ;; This function is called by:
  2890 ;;		_lcd_init
  2891 ;;		_gps_send
  2892 ;;		_sms1
  2893 ;;		_main
  2894 ;; This function uses a non-reentrant model
  2895 ;;
  2896                           psect	text514
  2897                           	file	"C:\Users\TECH\Desktop\madhu pic folder\gps&gsm\women safety concept.sensor abnorm
                                 al gps on gsm\women safety concept sensor abnormal gps on gsm.c"
  2898                           	line	35
  2899                           	global	__size_of_lcd_cmd
  2900  0036                     	__size_of_lcd_cmd	equ	__end_of_lcd_cmd-_lcd_cmd
  2901                           	
  2902  06C2                     _lcd_cmd:	
  2903                           	opt	stack 6
  2904                           ; Regs used in _lcd_cmd: [wreg+status,2-btemp+0+pclath+cstack]
  2905                           ;lcd_cmd@com stored from wreg
  2906  06C2  1283               	bcf	status, 5	;RP0=0, select bank0
  2907  06C3  1303               	bcf	status, 6	;RP1=0, select bank0
  2908  06C4  00B9               	movwf	(lcd_cmd@com)
  2909                           	line	36
  2910                           	
  2911  06C5                     l2819:	
  2912                           ;women safety concept sensor abnormal gps on gsm.c: 36: PORTD=(com&0xf0);
  2913  06C5  0839               	movf	(lcd_cmd@com),w
  2914  06C6  39F0               	andlw	0F0h
  2915  06C7  0088               	movwf	(8)	;volatile
  2916                           	line	37
  2917                           	
  2918  06C8                     l2821:	
  2919                           ;women safety concept sensor abnormal gps on gsm.c: 37: RD1=0;
  2920  06C8  1088               	bcf	(65/8),(65)&7
  2921                           	line	38
  2922                           	
  2923  06C9                     l2823:	
  2924                           ;women safety concept sensor abnormal gps on gsm.c: 38: RD2=0;
  2925  06C9  1108               	bcf	(66/8),(66)&7
  2926                           	line	39
  2927                           	
  2928  06CA                     l2825:	
  2929                           ;women safety concept sensor abnormal gps on gsm.c: 39: RD3=1;
  2930  06CA  1588               	bsf	(67/8),(67)&7
  2931                           	line	40
  2932                           	
  2933  06CB                     l2827:	
  2934                           ;women safety concept sensor abnormal gps on gsm.c: 40: delay(200);
  2935  06CB  30C8               	movlw	low(0C8h)
  2936  06CC  00F5               	movwf	(?_delay)
  2937  06CD  3000               	movlw	high(0C8h)
  2938  06CE  00F6               	movwf	((?_delay))+1
  2939  06CF  120A  118A  27C5   	fcall	_delay
              120A  118A         
  2940                           	line	41
  2941                           	
  2942  06D4                     l2829:	
  2943                           ;women safety concept sensor abnormal gps on gsm.c: 41: RD3=0;
  2944  06D4  1283               	bcf	status, 5	;RP0=0, select bank0
  2945  06D5  1303               	bcf	status, 6	;RP1=0, select bank0
  2946  06D6  1188               	bcf	(67/8),(67)&7
  2947                           	line	42
  2948                           	
  2949  06D7                     l2831:	
  2950                           ;women safety concept sensor abnormal gps on gsm.c: 42: temp=com<<4;
  2951  06D7  0839               	movf	(lcd_cmd@com),w
  2952  06D8  00B7               	movwf	(??_lcd_cmd+0)+0
  2953  06D9  01B8               	clrf	(??_lcd_cmd+0)+0+1
  2954  06DA  3004               	movlw	04h
  2955  06DB  00FE               	movwf	btemp+0
  2956  06DC                     u2965:
  2957  06DC  1003               	clrc
  2958  06DD  0DB7               	rlf	(??_lcd_cmd+0)+0,f
  2959  06DE  0DB8               	rlf	(??_lcd_cmd+0)+1,f
  2960  06DF  0BFE               	decfsz	btemp+0,f
  2961  06E0  2EDC               	goto	u2965
  2962  06E1  0837               	movf	0+(??_lcd_cmd+0)+0,w
  2963  06E2  00F7               	movwf	(_temp)
  2964  06E3  0838               	movf	1+(??_lcd_cmd+0)+0,w
  2965  06E4  00F8               	movwf	(_temp+1)
  2966                           	line	43
  2967                           	
  2968  06E5                     l2833:	
  2969                           ;women safety concept sensor abnormal gps on gsm.c: 43: PORTD=(temp&0xf0);
  2970  06E5  0877               	movf	(_temp),w
  2971  06E6  39F0               	andlw	0F0h
  2972  06E7  0088               	movwf	(8)	;volatile
  2973                           	line	44
  2974                           	
  2975  06E8                     l2835:	
  2976                           ;women safety concept sensor abnormal gps on gsm.c: 44: RD1=0;
  2977  06E8  1088               	bcf	(65/8),(65)&7
  2978                           	line	45
  2979                           	
  2980  06E9                     l2837:	
  2981                           ;women safety concept sensor abnormal gps on gsm.c: 45: RD2=0;
  2982  06E9  1108               	bcf	(66/8),(66)&7
  2983                           	line	46
  2984                           	
  2985  06EA                     l2839:	
  2986                           ;women safety concept sensor abnormal gps on gsm.c: 46: RD3=1;
  2987  06EA  1588               	bsf	(67/8),(67)&7
  2988                           	line	47
  2989                           	
  2990  06EB                     l2841:	
  2991                           ;women safety concept sensor abnormal gps on gsm.c: 47: delay(200);
  2992  06EB  30C8               	movlw	low(0C8h)
  2993  06EC  00F5               	movwf	(?_delay)
  2994  06ED  3000               	movlw	high(0C8h)
  2995  06EE  00F6               	movwf	((?_delay))+1
  2996  06EF  120A  118A  27C5   	fcall	_delay
              120A  118A         
  2997                           	line	48
  2998                           	
  2999  06F4                     l2843:	
  3000                           ;women safety concept sensor abnormal gps on gsm.c: 48: RD3=0;
  3001  06F4  1283               	bcf	status, 5	;RP0=0, select bank0
  3002  06F5  1303               	bcf	status, 6	;RP1=0, select bank0
  3003  06F6  1188               	bcf	(67/8),(67)&7
  3004                           	line	49
  3005                           	
  3006  06F7                     l600:	
  3007  06F7  0008               	return
  3008                           	opt stack 0
  3009                           GLOBAL	__end_of_lcd_cmd
  3010  06F8                     	__end_of_lcd_cmd:
  3011 ;; =============== function _lcd_cmd ends ============
  3012                           
  3013                           	signat	_lcd_cmd,4216
  3014                           	global	___lwmod
  3015                           psect	text515,local,class=CODE,delta=2
  3016                           global __ptext515
  3017  064D                     __ptext515:
  3018                           
  3019 ;; *************** function ___lwmod *****************
  3020 ;; Defined at:
  3021 ;;		line 5 in file "C:\Program Files (x86)\HI-TECH Software\PICC\9.71a\sources\lwmod.c"
  3022 ;; Parameters:    Size  Location     Type
  3023 ;;  divisor         2    0[BANK0 ] unsigned int 
  3024 ;;  dividend        2    2[BANK0 ] unsigned int 
  3025 ;; Auto vars:     Size  Location     Type
  3026 ;;  counter         1    6[COMMON] unsigned char 
  3027 ;; Return value:  Size  Location     Type
  3028 ;;                  2    0[BANK0 ] unsigned int 
  3029 ;; Registers used:
  3030 ;;		wreg, status,2, status,0
  3031 ;; Tracked objects:
  3032 ;;		On entry : 0/0
  3033 ;;		On exit  : 0/0
  3034 ;;		Unchanged: 0/0
  3035 ;; Data sizes:     COMMON   BANK0   BANK1   BANK3   BANK2
  3036 ;;      Params:         0       4       0       0       0
  3037 ;;      Locals:         1       0       0       0       0
  3038 ;;      Temps:          1       0       0       0       0
  3039 ;;      Totals:         2       4       0       0       0
  3040 ;;Total ram usage:        6 bytes
  3041 ;; Hardware stack levels used:    1
  3042 ;; Hardware stack levels required when called:    1
  3043 ;; This function calls:
  3044 ;;		Nothing
  3045 ;; This function is called by:
  3046 ;;		_main
  3047 ;; This function uses a non-reentrant model
  3048 ;;
  3049                           psect	text515
  3050                           	file	"C:\Program Files (x86)\HI-TECH Software\PICC\9.71a\sources\lwmod.c"
  3051                           	line	5
  3052                           	global	__size_of___lwmod
  3053  003F                     	__size_of___lwmod	equ	__end_of___lwmod-___lwmod
  3054                           	
  3055  064D                     ___lwmod:	
  3056                           	opt	stack 7
  3057                           ; Regs used in ___lwmod: [wreg+status,2+status,0]
  3058                           	line	8
  3059                           	
  3060  064D                     l2797:	
  3061  064D  1283               	bcf	status, 5	;RP0=0, select bank0
  3062  064E  1303               	bcf	status, 6	;RP1=0, select bank0
  3063  064F  0838               	movf	(___lwmod@divisor+1),w
  3064  0650  0437               	iorwf	(___lwmod@divisor),w
  3065  0651  1903               	skipnz
  3066  0652  2E54               	goto	u2901
  3067  0653  2E55               	goto	u2900
  3068  0654                     u2901:
  3069  0654  2E85               	goto	l689
  3070  0655                     u2900:
  3071                           	line	9
  3072                           	
  3073  0655                     l2799:	
  3074  0655  01F6               	clrf	(___lwmod@counter)
  3075  0656  1403               	bsf	status,0
  3076  0657  0DF6               	rlf	(___lwmod@counter),f
  3077                           	line	10
  3078  0658  2E64               	goto	l690
  3079                           	
  3080  0659                     l691:	
  3081                           	line	11
  3082                           	
  3083  0659                     l2801:	
  3084  0659  3001               	movlw	01h
  3085                           	
  3086  065A                     u2915:
  3087  065A  1003               	clrc
  3088  065B  0DB7               	rlf	(___lwmod@divisor),f
  3089  065C  0DB8               	rlf	(___lwmod@divisor+1),f
  3090  065D  3EFF               	addlw	-1
  3091  065E  1D03               	skipz
  3092  065F  2E5A               	goto	u2915
  3093                           	line	12
  3094                           	
  3095  0660                     l2803:	
  3096  0660  3001               	movlw	(01h)
  3097  0661  00F5               	movwf	(??___lwmod+0)+0
  3098  0662  0875               	movf	(??___lwmod+0)+0,w
  3099  0663  07F6               	addwf	(___lwmod@counter),f
  3100                           	line	13
  3101                           	
  3102  0664                     l690:	
  3103                           	line	10
  3104                           	
  3105  0664                     l2805:	
  3106  0664  1FB8               	btfss	(___lwmod@divisor+1),(15)&7
  3107  0665  2E67               	goto	u2921
  3108  0666  2E68               	goto	u2920
  3109  0667                     u2921:
  3110  0667  2E59               	goto	l691
  3111  0668                     u2920:
  3112                           	
  3113  0668                     l692:	
  3114                           	line	14
  3115                           	
  3116  0668                     l693:	
  3117                           	line	15
  3118                           	
  3119  0668                     l2807:	
  3120  0668  0838               	movf	(___lwmod@divisor+1),w
  3121  0669  023A               	subwf	(___lwmod@dividend+1),w
  3122  066A  1D03               	skipz
  3123  066B  2E6E               	goto	u2935
  3124  066C  0837               	movf	(___lwmod@divisor),w
  3125  066D  0239               	subwf	(___lwmod@dividend),w
  3126  066E                     u2935:
  3127  066E  1C03               	skipc
  3128  066F  2E71               	goto	u2931
  3129  0670  2E72               	goto	u2930
  3130  0671                     u2931:
  3131  0671  2E78               	goto	l694
  3132  0672                     u2930:
  3133                           	line	16
  3134                           	
  3135  0672                     l2809:	
  3136  0672  0837               	movf	(___lwmod@divisor),w
  3137  0673  02B9               	subwf	(___lwmod@dividend),f
  3138  0674  0838               	movf	(___lwmod@divisor+1),w
  3139  0675  1C03               	skipc
  3140  0676  03BA               	decf	(___lwmod@dividend+1),f
  3141  0677  02BA               	subwf	(___lwmod@dividend+1),f
  3142                           	
  3143  0678                     l694:	
  3144                           	line	17
  3145                           	
  3146  0678                     l2811:	
  3147  0678  3001               	movlw	01h
  3148                           	
  3149  0679                     u2945:
  3150  0679  1003               	clrc
  3151  067A  0CB8               	rrf	(___lwmod@divisor+1),f
  3152  067B  0CB7               	rrf	(___lwmod@divisor),f
  3153  067C  3EFF               	addlw	-1
  3154  067D  1D03               	skipz
  3155  067E  2E79               	goto	u2945
  3156                           	line	18
  3157                           	
  3158  067F                     l2813:	
  3159  067F  3001               	movlw	low(01h)
  3160  0680  02F6               	subwf	(___lwmod@counter),f
  3161  0681  1D03               	btfss	status,2
  3162  0682  2E84               	goto	u2951
  3163  0683  2E85               	goto	u2950
  3164  0684                     u2951:
  3165  0684  2E68               	goto	l693
  3166  0685                     u2950:
  3167                           	
  3168  0685                     l695:	
  3169                           	line	19
  3170                           	
  3171  0685                     l689:	
  3172                           	line	20
  3173                           	
  3174  0685                     l2815:	
  3175  0685  083A               	movf	(___lwmod@dividend+1),w
  3176  0686  01B8               	clrf	(?___lwmod+1)
  3177  0687  07B8               	addwf	(?___lwmod+1)
  3178  0688  0839               	movf	(___lwmod@dividend),w
  3179  0689  01B7               	clrf	(?___lwmod)
  3180  068A  07B7               	addwf	(?___lwmod)
  3181                           
  3182                           	
  3183  068B                     l2817:	
  3184                           	line	21
  3185                           	
  3186  068B                     l696:	
  3187  068B  0008               	return
  3188                           	opt stack 0
  3189                           GLOBAL	__end_of___lwmod
  3190  068C                     	__end_of___lwmod:
  3191 ;; =============== function ___lwmod ends ============
  3192                           
  3193                           	signat	___lwmod,8314
  3194                           	global	___lwdiv
  3195                           psect	text516,local,class=CODE,delta=2
  3196                           global __ptext516
  3197  05B9                     __ptext516:
  3198                           
  3199 ;; *************** function ___lwdiv *****************
  3200 ;; Defined at:
  3201 ;;		line 5 in file "C:\Program Files (x86)\HI-TECH Software\PICC\9.71a\sources\lwdiv.c"
  3202 ;; Parameters:    Size  Location     Type
  3203 ;;  divisor         2    0[BANK0 ] unsigned int 
  3204 ;;  dividend        2    2[BANK0 ] unsigned int 
  3205 ;; Auto vars:     Size  Location     Type
  3206 ;;  quotient        2    5[BANK0 ] unsigned int 
  3207 ;;  counter         1    4[BANK0 ] unsigned char 
  3208 ;; Return value:  Size  Location     Type
  3209 ;;                  2    0[BANK0 ] unsigned int 
  3210 ;; Registers used:
  3211 ;;		wreg, status,2, status,0
  3212 ;; Tracked objects:
  3213 ;;		On entry : 0/0
  3214 ;;		On exit  : 0/0
  3215 ;;		Unchanged: 0/0
  3216 ;; Data sizes:     COMMON   BANK0   BANK1   BANK3   BANK2
  3217 ;;      Params:         0       4       0       0       0
  3218 ;;      Locals:         0       3       0       0       0
  3219 ;;      Temps:          1       0       0       0       0
  3220 ;;      Totals:         1       7       0       0       0
  3221 ;;Total ram usage:        8 bytes
  3222 ;; Hardware stack levels used:    1
  3223 ;; Hardware stack levels required when called:    1
  3224 ;; This function calls:
  3225 ;;		Nothing
  3226 ;; This function is called by:
  3227 ;;		_main
  3228 ;; This function uses a non-reentrant model
  3229 ;;
  3230                           psect	text516
  3231                           	file	"C:\Program Files (x86)\HI-TECH Software\PICC\9.71a\sources\lwdiv.c"
  3232                           	line	5
  3233                           	global	__size_of___lwdiv
  3234  004B                     	__size_of___lwdiv	equ	__end_of___lwdiv-___lwdiv
  3235                           	
  3236  05B9                     ___lwdiv:	
  3237                           	opt	stack 7
  3238                           ; Regs used in ___lwdiv: [wreg+status,2+status,0]
  3239                           	line	9
  3240                           	
  3241  05B9                     l2773:	
  3242  05B9  3000               	movlw	low(0)
  3243  05BA  1283               	bcf	status, 5	;RP0=0, select bank0
  3244  05BB  1303               	bcf	status, 6	;RP1=0, select bank0
  3245  05BC  00BC               	movwf	(___lwdiv@quotient)
  3246  05BD  3000               	movlw	high(0)
  3247  05BE  00BD               	movwf	((___lwdiv@quotient))+1
  3248                           	line	10
  3249  05BF  0838               	movf	(___lwdiv@divisor+1),w
  3250  05C0  0437               	iorwf	(___lwdiv@divisor),w
  3251  05C1  1903               	skipnz
  3252  05C2  2DC4               	goto	u2831
  3253  05C3  2DC5               	goto	u2830
  3254  05C4                     u2831:
  3255  05C4  2DFD               	goto	l679
  3256  05C5                     u2830:
  3257                           	line	11
  3258                           	
  3259  05C5                     l2775:	
  3260  05C5  01BB               	clrf	(___lwdiv@counter)
  3261  05C6  1403               	bsf	status,0
  3262  05C7  0DBB               	rlf	(___lwdiv@counter),f
  3263                           	line	12
  3264  05C8  2DD4               	goto	l680
  3265                           	
  3266  05C9                     l681:	
  3267                           	line	13
  3268                           	
  3269  05C9                     l2777:	
  3270  05C9  3001               	movlw	01h
  3271                           	
  3272  05CA                     u2845:
  3273  05CA  1003               	clrc
  3274  05CB  0DB7               	rlf	(___lwdiv@divisor),f
  3275  05CC  0DB8               	rlf	(___lwdiv@divisor+1),f
  3276  05CD  3EFF               	addlw	-1
  3277  05CE  1D03               	skipz
  3278  05CF  2DCA               	goto	u2845
  3279                           	line	14
  3280                           	
  3281  05D0                     l2779:	
  3282  05D0  3001               	movlw	(01h)
  3283  05D1  00F5               	movwf	(??___lwdiv+0)+0
  3284  05D2  0875               	movf	(??___lwdiv+0)+0,w
  3285  05D3  07BB               	addwf	(___lwdiv@counter),f
  3286                           	line	15
  3287                           	
  3288  05D4                     l680:	
  3289                           	line	12
  3290                           	
  3291  05D4                     l2781:	
  3292  05D4  1FB8               	btfss	(___lwdiv@divisor+1),(15)&7
  3293  05D5  2DD7               	goto	u2851
  3294  05D6  2DD8               	goto	u2850
  3295  05D7                     u2851:
  3296  05D7  2DC9               	goto	l681
  3297  05D8                     u2850:
  3298                           	
  3299  05D8                     l682:	
  3300                           	line	16
  3301                           	
  3302  05D8                     l683:	
  3303                           	line	17
  3304                           	
  3305  05D8                     l2783:	
  3306  05D8  3001               	movlw	01h
  3307                           	
  3308  05D9                     u2865:
  3309  05D9  1003               	clrc
  3310  05DA  0DBC               	rlf	(___lwdiv@quotient),f
  3311  05DB  0DBD               	rlf	(___lwdiv@quotient+1),f
  3312  05DC  3EFF               	addlw	-1
  3313  05DD  1D03               	skipz
  3314  05DE  2DD9               	goto	u2865
  3315                           	line	18
  3316  05DF  0838               	movf	(___lwdiv@divisor+1),w
  3317  05E0  023A               	subwf	(___lwdiv@dividend+1),w
  3318  05E1  1D03               	skipz
  3319  05E2  2DE5               	goto	u2875
  3320  05E3  0837               	movf	(___lwdiv@divisor),w
  3321  05E4  0239               	subwf	(___lwdiv@dividend),w
  3322  05E5                     u2875:
  3323  05E5  1C03               	skipc
  3324  05E6  2DE8               	goto	u2871
  3325  05E7  2DE9               	goto	u2870
  3326  05E8                     u2871:
  3327  05E8  2DF0               	goto	l684
  3328  05E9                     u2870:
  3329                           	line	19
  3330                           	
  3331  05E9                     l2785:	
  3332  05E9  0837               	movf	(___lwdiv@divisor),w
  3333  05EA  02B9               	subwf	(___lwdiv@dividend),f
  3334  05EB  0838               	movf	(___lwdiv@divisor+1),w
  3335  05EC  1C03               	skipc
  3336  05ED  03BA               	decf	(___lwdiv@dividend+1),f
  3337  05EE  02BA               	subwf	(___lwdiv@dividend+1),f
  3338                           	line	20
  3339                           	
  3340  05EF                     l2787:	
  3341  05EF  143C               	bsf	(___lwdiv@quotient)+(0/8),(0)&7
  3342                           	line	21
  3343                           	
  3344  05F0                     l684:	
  3345                           	line	22
  3346                           	
  3347  05F0                     l2789:	
  3348  05F0  3001               	movlw	01h
  3349                           	
  3350  05F1                     u2885:
  3351  05F1  1003               	clrc
  3352  05F2  0CB8               	rrf	(___lwdiv@divisor+1),f
  3353  05F3  0CB7               	rrf	(___lwdiv@divisor),f
  3354  05F4  3EFF               	addlw	-1
  3355  05F5  1D03               	skipz
  3356  05F6  2DF1               	goto	u2885
  3357                           	line	23
  3358                           	
  3359  05F7                     l2791:	
  3360  05F7  3001               	movlw	low(01h)
  3361  05F8  02BB               	subwf	(___lwdiv@counter),f
  3362  05F9  1D03               	btfss	status,2
  3363  05FA  2DFC               	goto	u2891
  3364  05FB  2DFD               	goto	u2890
  3365  05FC                     u2891:
  3366  05FC  2DD8               	goto	l683
  3367  05FD                     u2890:
  3368                           	
  3369  05FD                     l685:	
  3370                           	line	24
  3371                           	
  3372  05FD                     l679:	
  3373                           	line	25
  3374                           	
  3375  05FD                     l2793:	
  3376  05FD  083D               	movf	(___lwdiv@quotient+1),w
  3377  05FE  01B8               	clrf	(?___lwdiv+1)
  3378  05FF  07B8               	addwf	(?___lwdiv+1)
  3379  0600  083C               	movf	(___lwdiv@quotient),w
  3380  0601  01B7               	clrf	(?___lwdiv)
  3381  0602  07B7               	addwf	(?___lwdiv)
  3382                           
  3383                           	
  3384  0603                     l2795:	
  3385                           	line	26
  3386                           	
  3387  0603                     l686:	
  3388  0603  0008               	return
  3389                           	opt stack 0
  3390                           GLOBAL	__end_of___lwdiv
  3391  0604                     	__end_of___lwdiv:
  3392 ;; =============== function ___lwdiv ends ============
  3393                           
  3394                           	signat	___lwdiv,8314
  3395                           	global	_txs
  3396                           psect	text517,local,class=CODE,delta=2
  3397                           global __ptext517
  3398  07E8                     __ptext517:
  3399                           
  3400 ;; *************** function _txs *****************
  3401 ;; Defined at:
  3402 ;;		line 186 in file "C:\Users\TECH\Desktop\madhu pic folder\gps&gsm\women safety concept.sensor abnormal gps on gsm\wom
       en safety concept sensor abnormal gps on gsm.c"
  3403 ;; Parameters:    Size  Location     Type
  3404 ;;  val             1    wreg     unsigned char 
  3405 ;; Auto vars:     Size  Location     Type
  3406 ;;  val             1    5[COMMON] unsigned char 
  3407 ;; Return value:  Size  Location     Type
  3408 ;;		None               void
  3409 ;; Registers used:
  3410 ;;		wreg
  3411 ;; Tracked objects:
  3412 ;;		On entry : 0/0
  3413 ;;		On exit  : 0/0
  3414 ;;		Unchanged: 0/0
  3415 ;; Data sizes:     COMMON   BANK0   BANK1   BANK3   BANK2
  3416 ;;      Params:         0       0       0       0       0
  3417 ;;      Locals:         1       0       0       0       0
  3418 ;;      Temps:          0       0       0       0       0
  3419 ;;      Totals:         1       0       0       0       0
  3420 ;;Total ram usage:        1 bytes
  3421 ;; Hardware stack levels used:    1
  3422 ;; Hardware stack levels required when called:    1
  3423 ;; This function calls:
  3424 ;;		Nothing
  3425 ;; This function is called by:
  3426 ;;		_sms1
  3427 ;;		_main
  3428 ;; This function uses a non-reentrant model
  3429 ;;
  3430                           psect	text517
  3431                           	file	"C:\Users\TECH\Desktop\madhu pic folder\gps&gsm\women safety concept.sensor abnorm
                                 al gps on gsm\women safety concept sensor abnormal gps on gsm.c"
  3432                           	line	186
  3433                           	global	__size_of_txs
  3434  000C                     	__size_of_txs	equ	__end_of_txs-_txs
  3435                           	
  3436  07E8                     _txs:	
  3437                           	opt	stack 6
  3438                           ; Regs used in _txs: [wreg]
  3439                           ;txs@val stored from wreg
  3440  07E8  00F5               	movwf	(txs@val)
  3441                           	line	187
  3442                           	
  3443  07E9                     l2357:	
  3444                           ;women safety concept sensor abnormal gps on gsm.c: 187: while(!TXIF)
  3445  07E9  2FEA               	goto	l638
  3446                           	
  3447  07EA                     l639:	
  3448                           	line	189
  3449                           ;women safety concept sensor abnormal gps on gsm.c: 188: {
  3450                           	
  3451  07EA                     l638:	
  3452                           	line	187
  3453  07EA  1283               	bcf	status, 5	;RP0=0, select bank0
  3454  07EB  1303               	bcf	status, 6	;RP1=0, select bank0
  3455  07EC  1E0C               	btfss	(100/8),(100)&7
  3456  07ED  2FEF               	goto	u2491
  3457  07EE  2FF0               	goto	u2490
  3458  07EF                     u2491:
  3459  07EF  2FEA               	goto	l639
  3460  07F0                     u2490:
  3461                           	
  3462  07F0                     l640:	
  3463                           	line	190
  3464                           ;women safety concept sensor abnormal gps on gsm.c: 189: }
  3465                           ;women safety concept sensor abnormal gps on gsm.c: 190: OERR=0;
  3466  07F0  1098               	bcf	(193/8),(193)&7
  3467                           	line	191
  3468                           	
  3469  07F1                     l2359:	
  3470                           ;women safety concept sensor abnormal gps on gsm.c: 191: TXREG=val;
  3471  07F1  0875               	movf	(txs@val),w
  3472  07F2  0099               	movwf	(25)	;volatile
  3473                           	line	192
  3474                           	
  3475  07F3                     l641:	
  3476  07F3  0008               	return
  3477                           	opt stack 0
  3478                           GLOBAL	__end_of_txs
  3479  07F4                     	__end_of_txs:
  3480 ;; =============== function _txs ends ============
  3481                           
  3482                           	signat	_txs,4216
  3483                           	global	_gsm_command
  3484                           psect	text518,local,class=CODE,delta=2
  3485                           global __ptext518
  3486  0752                     __ptext518:
  3487                           
  3488 ;; *************** function _gsm_command *****************
  3489 ;; Defined at:
  3490 ;;		line 173 in file "C:\Users\TECH\Desktop\madhu pic folder\gps&gsm\women safety concept.sensor abnormal gps on gsm\wom
       en safety concept sensor abnormal gps on gsm.c"
  3491 ;; Parameters:    Size  Location     Type
  3492 ;;  da              1    wreg     PTR const unsigned char 
  3493 ;;		 -> STR_2(13), 
  3494 ;; Auto vars:     Size  Location     Type
  3495 ;;  da              1    0[BANK0 ] PTR const unsigned char 
  3496 ;;		 -> STR_2(13), 
  3497 ;;  s               2    1[BANK0 ] unsigned int 
  3498 ;; Return value:  Size  Location     Type
  3499 ;;		None               void
  3500 ;; Registers used:
  3501 ;;		wreg, fsr0l, fsr0h, status,2, status,0, pclath
  3502 ;; Tracked objects:
  3503 ;;		On entry : 0/0
  3504 ;;		On exit  : 0/0
  3505 ;;		Unchanged: 0/0
  3506 ;; Data sizes:     COMMON   BANK0   BANK1   BANK3   BANK2
  3507 ;;      Params:         0       0       0       0       0
  3508 ;;      Locals:         0       3       0       0       0
  3509 ;;      Temps:          0       0       0       0       0
  3510 ;;      Totals:         0       3       0       0       0
  3511 ;;Total ram usage:        3 bytes
  3512 ;; Hardware stack levels used:    2
  3513 ;; Hardware stack levels required when called:    1
  3514 ;; This function calls:
  3515 ;;		Nothing
  3516 ;; This function is called by:
  3517 ;;		_sms1
  3518 ;; This function uses a non-reentrant model
  3519 ;;
  3520                           psect	text518
  3521                           	file	"C:\Users\TECH\Desktop\madhu pic folder\gps&gsm\women safety concept.sensor abnorm
                                 al gps on gsm\women safety concept sensor abnormal gps on gsm.c"
  3522                           	line	173
  3523                           	global	__size_of_gsm_command
  3524  002B                     	__size_of_gsm_command	equ	__end_of_gsm_command-_gsm_command
  3525                           	
  3526  0752                     _gsm_command:	
  3527                           	opt	stack 5
  3528                           ; Regs used in _gsm_command: [wreg-fsr0h+status,2+status,0+pclath]
  3529                           ;gsm_command@da stored from wreg
  3530                           	line	175
  3531  0752  1283               	bcf	status, 5	;RP0=0, select bank0
  3532  0753  1303               	bcf	status, 6	;RP1=0, select bank0
  3533  0754  00B7               	movwf	(gsm_command@da)
  3534                           	
  3535  0755                     l2765:	
  3536                           ;women safety concept sensor abnormal gps on gsm.c: 174: unsigned int s;
  3537                           ;women safety concept sensor abnormal gps on gsm.c: 175: for(s=0;da[s]!=0;s++)
  3538  0755  3000               	movlw	low(0)
  3539  0756  00B8               	movwf	(gsm_command@s)
  3540  0757  3000               	movlw	high(0)
  3541  0758  00B9               	movwf	((gsm_command@s))+1
  3542  0759  2F6F               	goto	l629
  3543                           	line	176
  3544                           	
  3545  075A                     l630:	
  3546                           	line	177
  3547                           ;women safety concept sensor abnormal gps on gsm.c: 176: {
  3548                           ;women safety concept sensor abnormal gps on gsm.c: 177: while(!TXIF)
  3549  075A  2F5B               	goto	l631
  3550                           	
  3551  075B                     l632:	
  3552                           	line	179
  3553                           ;women safety concept sensor abnormal gps on gsm.c: 178: {
  3554                           	
  3555  075B                     l631:	
  3556                           	line	177
  3557  075B  1E0C               	btfss	(100/8),(100)&7
  3558  075C  2F5E               	goto	u2811
  3559  075D  2F5F               	goto	u2810
  3560  075E                     u2811:
  3561  075E  2F5B               	goto	l632
  3562  075F                     u2810:
  3563                           	
  3564  075F                     l633:	
  3565                           	line	180
  3566                           ;women safety concept sensor abnormal gps on gsm.c: 179: }
  3567                           ;women safety concept sensor abnormal gps on gsm.c: 180: OERR=0;
  3568  075F  1098               	bcf	(193/8),(193)&7
  3569                           	line	181
  3570                           	
  3571  0760                     l2767:	
  3572                           ;women safety concept sensor abnormal gps on gsm.c: 181: TXREG=da[s];
  3573  0760  0838               	movf	(gsm_command@s),w
  3574  0761  0737               	addwf	(gsm_command@da),w
  3575  0762  0084               	movwf	fsr0
  3576  0763  120A  118A  2013   	fcall	stringdir
              120A  118A         
  3577  0768  0099               	movwf	(25)	;volatile
  3578                           	line	175
  3579                           	
  3580  0769                     l2769:	
  3581  0769  3001               	movlw	low(01h)
  3582  076A  07B8               	addwf	(gsm_command@s),f
  3583  076B  1803               	skipnc
  3584  076C  0AB9               	incf	(gsm_command@s+1),f
  3585  076D  3000               	movlw	high(01h)
  3586  076E  07B9               	addwf	(gsm_command@s+1),f
  3587                           	
  3588  076F                     l629:	
  3589                           	
  3590  076F                     l2771:	
  3591  076F  0838               	movf	(gsm_command@s),w
  3592  0770  0737               	addwf	(gsm_command@da),w
  3593  0771  0084               	movwf	fsr0
  3594  0772  120A  118A  2013   	fcall	stringdir
              120A  118A         
  3595  0777  3800               	iorlw	0
  3596  0778  1D03               	skipz
  3597  0779  2F7B               	goto	u2821
  3598  077A  2F7C               	goto	u2820
  3599  077B                     u2821:
  3600  077B  2F5A               	goto	l630
  3601  077C                     u2820:
  3602                           	
  3603  077C                     l634:	
  3604                           	line	183
  3605                           	
  3606  077C                     l635:	
  3607  077C  0008               	return
  3608                           	opt stack 0
  3609                           GLOBAL	__end_of_gsm_command
  3610  077D                     	__end_of_gsm_command:
  3611 ;; =============== function _gsm_command ends ============
  3612                           
  3613                           	signat	_gsm_command,4216
  3614                           	global	_gps_init
  3615                           psect	text519,local,class=CODE,delta=2
  3616                           global __ptext519
  3617  07D7                     __ptext519:
  3618                           
  3619 ;; *************** function _gps_init *****************
  3620 ;; Defined at:
  3621 ;;		line 19 in file "C:\Users\TECH\Desktop\madhu pic folder\gps&gsm\women safety concept.sensor abnormal gps on gsm\wome
       n safety concept sensor abnormal gps on gsm.c"
  3622 ;; Parameters:    Size  Location     Type
  3623 ;;		None
  3624 ;; Auto vars:     Size  Location     Type
  3625 ;;		None
  3626 ;; Return value:  Size  Location     Type
  3627 ;;		None               void
  3628 ;; Registers used:
  3629 ;;		wreg
  3630 ;; Tracked objects:
  3631 ;;		On entry : 0/0
  3632 ;;		On exit  : 0/0
  3633 ;;		Unchanged: 0/0
  3634 ;; Data sizes:     COMMON   BANK0   BANK1   BANK3   BANK2
  3635 ;;      Params:         0       0       0       0       0
  3636 ;;      Locals:         0       0       0       0       0
  3637 ;;      Temps:          0       0       0       0       0
  3638 ;;      Totals:         0       0       0       0       0
  3639 ;;Total ram usage:        0 bytes
  3640 ;; Hardware stack levels used:    1
  3641 ;; Hardware stack levels required when called:    1
  3642 ;; This function calls:
  3643 ;;		Nothing
  3644 ;; This function is called by:
  3645 ;;		_main
  3646 ;; This function uses a non-reentrant model
  3647 ;;
  3648                           psect	text519
  3649                           	file	"C:\Users\TECH\Desktop\madhu pic folder\gps&gsm\women safety concept.sensor abnorm
                                 al gps on gsm\women safety concept sensor abnormal gps on gsm.c"
  3650                           	line	19
  3651                           	global	__size_of_gps_init
  3652  0011                     	__size_of_gps_init	equ	__end_of_gps_init-_gps_init
  3653                           	
  3654  07D7                     _gps_init:	
  3655                           	opt	stack 7
  3656                           ; Regs used in _gps_init: [wreg]
  3657                           	line	20
  3658                           	
  3659  07D7                     l2321:	
  3660                           ;women safety concept sensor abnormal gps on gsm.c: 20: TXSTA=0X24;
  3661  07D7  3024               	movlw	(024h)
  3662  07D8  1683               	bsf	status, 5	;RP0=1, select bank1
  3663  07D9  1303               	bcf	status, 6	;RP1=0, select bank1
  3664  07DA  0098               	movwf	(152)^080h	;volatile
  3665                           	line	21
  3666                           ;women safety concept sensor abnormal gps on gsm.c: 21: RCSTA=0X90;
  3667  07DB  3090               	movlw	(090h)
  3668  07DC  1283               	bcf	status, 5	;RP0=0, select bank0
  3669  07DD  1303               	bcf	status, 6	;RP1=0, select bank0
  3670  07DE  0098               	movwf	(24)	;volatile
  3671                           	line	22
  3672                           ;women safety concept sensor abnormal gps on gsm.c: 22: SPBRG=25;
  3673  07DF  3019               	movlw	(019h)
  3674  07E0  1683               	bsf	status, 5	;RP0=1, select bank1
  3675  07E1  1303               	bcf	status, 6	;RP1=0, select bank1
  3676  07E2  0099               	movwf	(153)^080h	;volatile
  3677                           	line	23
  3678                           	
  3679  07E3                     l2323:	
  3680                           ;women safety concept sensor abnormal gps on gsm.c: 23: BRGH=1;
  3681  07E3  1518               	bsf	(1218/8)^080h,(1218)&7
  3682                           	line	24
  3683                           	
  3684  07E4                     l2325:	
  3685                           ;women safety concept sensor abnormal gps on gsm.c: 24: GIE=1;
  3686  07E4  178B               	bsf	(95/8),(95)&7
  3687                           	line	25
  3688                           	
  3689  07E5                     l2327:	
  3690                           ;women safety concept sensor abnormal gps on gsm.c: 25: PEIE=1;
  3691  07E5  170B               	bsf	(94/8),(94)&7
  3692                           	line	26
  3693                           	
  3694  07E6                     l2329:	
  3695                           ;women safety concept sensor abnormal gps on gsm.c: 26: RCIE=1;
  3696  07E6  168C               	bsf	(1125/8)^080h,(1125)&7
  3697                           	line	28
  3698                           	
  3699  07E7                     l597:	
  3700  07E7  0008               	return
  3701                           	opt stack 0
  3702                           GLOBAL	__end_of_gps_init
  3703  07E8                     	__end_of_gps_init:
  3704 ;; =============== function _gps_init ends ============
  3705                           
  3706                           	signat	_gps_init,88
  3707                           	global	_delay
  3708                           psect	text520,local,class=CODE,delta=2
  3709                           global __ptext520
  3710  07C5                     __ptext520:
  3711                           
  3712 ;; *************** function _delay *****************
  3713 ;; Defined at:
  3714 ;;		line 12 in file "C:\Users\TECH\Desktop\madhu pic folder\gps&gsm\women safety concept.sensor abnormal gps on gsm\wome
       n safety concept sensor abnormal gps on gsm.c"
  3715 ;; Parameters:    Size  Location     Type
  3716 ;;  x               2    5[COMMON] unsigned int 
  3717 ;; Auto vars:     Size  Location     Type
  3718 ;;		None
  3719 ;; Return value:  Size  Location     Type
  3720 ;;		None               void
  3721 ;; Registers used:
  3722 ;;		wreg
  3723 ;; Tracked objects:
  3724 ;;		On entry : 0/0
  3725 ;;		On exit  : 0/0
  3726 ;;		Unchanged: 0/0
  3727 ;; Data sizes:     COMMON   BANK0   BANK1   BANK3   BANK2
  3728 ;;      Params:         2       0       0       0       0
  3729 ;;      Locals:         0       0       0       0       0
  3730 ;;      Temps:          0       0       0       0       0
  3731 ;;      Totals:         2       0       0       0       0
  3732 ;;Total ram usage:        2 bytes
  3733 ;; Hardware stack levels used:    1
  3734 ;; Hardware stack levels required when called:    1
  3735 ;; This function calls:
  3736 ;;		Nothing
  3737 ;; This function is called by:
  3738 ;;		_lcd_cmd
  3739 ;;		_lcd_data
  3740 ;;		_gps_send
  3741 ;;		_sms1
  3742 ;;		_serial
  3743 ;;		_main
  3744 ;; This function uses a non-reentrant model
  3745 ;;
  3746                           psect	text520
  3747                           	file	"C:\Users\TECH\Desktop\madhu pic folder\gps&gsm\women safety concept.sensor abnorm
                                 al gps on gsm\women safety concept sensor abnormal gps on gsm.c"
  3748                           	line	12
  3749                           	global	__size_of_delay
  3750  0012                     	__size_of_delay	equ	__end_of_delay-_delay
  3751                           	
  3752  07C5                     _delay:	
  3753                           	opt	stack 5
  3754                           ; Regs used in _delay: [wreg]
  3755                           	line	13
  3756                           	
  3757  07C5                     l2317:	
  3758                           ;women safety concept sensor abnormal gps on gsm.c: 13: while (x--);
  3759  07C5  2FC6               	goto	l591
  3760                           	
  3761  07C6                     l592:	
  3762                           	
  3763  07C6                     l591:	
  3764                           	
  3765  07C6                     l2319:	
  3766  07C6  3001               	movlw	low(01h)
  3767  07C7  02F5               	subwf	(delay@x),f
  3768  07C8  3000               	movlw	high(01h)
  3769  07C9  1C03               	skipc
  3770  07CA  03F6               	decf	(delay@x+1),f
  3771  07CB  02F6               	subwf	(delay@x+1),f
  3772  07CC  30FF               	movlw	high(0FFFFh)
  3773  07CD  0676               	xorwf	((delay@x+1)),w
  3774  07CE  1D03               	skipz
  3775  07CF  2FD2               	goto	u2415
  3776  07D0  30FF               	movlw	low(0FFFFh)
  3777  07D1  0675               	xorwf	((delay@x)),w
  3778  07D2                     u2415:
  3779                           
  3780  07D2  1D03               	skipz
  3781  07D3  2FD5               	goto	u2411
  3782  07D4  2FD6               	goto	u2410
  3783  07D5                     u2411:
  3784  07D5  2FC6               	goto	l592
  3785  07D6                     u2410:
  3786                           	
  3787  07D6                     l593:	
  3788                           	line	14
  3789                           	
  3790  07D6                     l594:	
  3791  07D6  0008               	return
  3792                           	opt stack 0
  3793                           GLOBAL	__end_of_delay
  3794  07D7                     	__end_of_delay:
  3795 ;; =============== function _delay ends ============
  3796                           
  3797                           	signat	_delay,4216
  3798                           	global	_rcx
  3799                           psect	text521,local,class=CODE,delta=2
  3800                           global __ptext521
  3801  0604                     __ptext521:
  3802                           
  3803 ;; *************** function _rcx *****************
  3804 ;; Defined at:
  3805 ;;		line 95 in file "C:\Users\TECH\Desktop\madhu pic folder\gps&gsm\women safety concept.sensor abnormal gps on gsm\wome
       n safety concept sensor abnormal gps on gsm.c"
  3806 ;; Parameters:    Size  Location     Type
  3807 ;;		None
  3808 ;; Auto vars:     Size  Location     Type
  3809 ;;		None
  3810 ;; Return value:  Size  Location     Type
  3811 ;;		None               void
  3812 ;; Registers used:
  3813 ;;		wreg, fsr0l, fsr0h, status,2, status,0
  3814 ;; Tracked objects:
  3815 ;;		On entry : 0/0
  3816 ;;		On exit  : 0/0
  3817 ;;		Unchanged: 0/0
  3818 ;; Data sizes:     COMMON   BANK0   BANK1   BANK3   BANK2
  3819 ;;      Params:         0       0       0       0       0
  3820 ;;      Locals:         0       0       0       0       0
  3821 ;;      Temps:          5       0       0       0       0
  3822 ;;      Totals:         5       0       0       0       0
  3823 ;;Total ram usage:        5 bytes
  3824 ;; Hardware stack levels used:    1
  3825 ;; This function calls:
  3826 ;;		Nothing
  3827 ;; This function is called by:
  3828 ;;		Interrupt level 1
  3829 ;; This function uses a non-reentrant model
  3830 ;;
  3831                           psect	text521
  3832                           	file	"C:\Users\TECH\Desktop\madhu pic folder\gps&gsm\women safety concept.sensor abnorm
                                 al gps on gsm\women safety concept sensor abnormal gps on gsm.c"
  3833                           	line	95
  3834                           	global	__size_of_rcx
  3835  0049                     	__size_of_rcx	equ	__end_of_rcx-_rcx
  3836                           	
  3837  0604                     _rcx:	
  3838                           	opt	stack 3
  3839                           ; Regs used in _rcx: [wreg-fsr0h+status,2+status,0]
  3840                           psect	intentry,class=CODE,delta=2
  3841                           global __pintentry
  3842  0004                     __pintentry:
  3843                           global interrupt_function
  3844  0004                     interrupt_function:
  3845                           	global saved_w
  3846  007E                     	saved_w	set	btemp+0
  3847  0004  00FE               	movwf	saved_w
  3848  0005  0803               	movf	status,w
  3849  0006  00F1               	movwf	(??_rcx+1)
  3850  0007  0804               	movf	fsr0,w
  3851  0008  00F2               	movwf	(??_rcx+2)
  3852  0009  080A               	movf	pclath,w
  3853  000A  00F3               	movwf	(??_rcx+3)
  3854  000B  087F               	movf	btemp+1,w
  3855  000C  00F4               	movwf	(??_rcx+4)
  3856  000D  120A  118A  2E04   	ljmp	_rcx
  3857                           psect	text521
  3858                           	line	97
  3859                           	
  3860  0604                     i1l2331:	
  3861                           ;women safety concept sensor abnormal gps on gsm.c: 97: if(RCIF==1)
  3862  0604  1283               	bcf	status, 5	;RP0=0, select bank0
  3863  0605  1303               	bcf	status, 6	;RP1=0, select bank0
  3864  0606  1E8C               	btfss	(101/8),(101)&7
  3865  0607  2E09               	goto	u242_21
  3866  0608  2E0A               	goto	u242_20
  3867  0609                     u242_21:
  3868  0609  2E42               	goto	i1l615
  3869  060A                     u242_20:
  3870                           	line	100
  3871                           	
  3872  060A                     i1l2333:	
  3873                           ;women safety concept sensor abnormal gps on gsm.c: 98: {
  3874                           ;women safety concept sensor abnormal gps on gsm.c: 100: RCIF=0;
  3875  060A  128C               	bcf	(101/8),(101)&7
  3876                           	line	101
  3877                           	
  3878  060B                     i1l2335:	
  3879                           ;women safety concept sensor abnormal gps on gsm.c: 101: ser=RCREG;
  3880  060B  081A               	movf	(26),w	;volatile
  3881  060C  00F0               	movwf	(??_rcx+0)+0
  3882  060D  0870               	movf	(??_rcx+0)+0,w
  3883  060E  00C0               	movwf	(_ser)
  3884                           	line	103
  3885                           ;women safety concept sensor abnormal gps on gsm.c: 103: if((ser==0x52)&&(st==0x01))
  3886  060F  0840               	movf	(_ser),w
  3887  0610  3A52               	xorlw	052h
  3888  0611  1D03               	skipz
  3889  0612  2E14               	goto	u243_21
  3890  0613  2E15               	goto	u243_20
  3891  0614                     u243_21:
  3892  0614  2E23               	goto	i1l616
  3893  0615                     u243_20:
  3894                           	
  3895  0615                     i1l2337:	
  3896  0615  0841               	movf	(_st),w
  3897  0616  3A01               	xorlw	01h
  3898  0617  1D03               	skipz
  3899  0618  2E1A               	goto	u244_21
  3900  0619  2E1B               	goto	u244_20
  3901  061A                     u244_21:
  3902  061A  2E23               	goto	i1l616
  3903  061B                     u244_20:
  3904                           	line	105
  3905                           	
  3906  061B                     i1l2339:	
  3907                           ;women safety concept sensor abnormal gps on gsm.c: 104: {
  3908                           ;women safety concept sensor abnormal gps on gsm.c: 105: data_cap=0x01;
  3909  061B  01B6               	clrf	(_data_cap)
  3910  061C  1403               	bsf	status,0
  3911  061D  0DB6               	rlf	(_data_cap),f
  3912                           	line	106
  3913                           	
  3914  061E                     i1l2341:	
  3915                           ;women safety concept sensor abnormal gps on gsm.c: 106: st=0x00;
  3916  061E  1003               	clrc
  3917  061F  3000               	movlw	0
  3918  0620  1803               	btfsc	status,0
  3919  0621  3001               	movlw	1
  3920  0622  00C1               	movwf	(_st)
  3921                           	line	107
  3922                           	
  3923  0623                     i1l616:	
  3924                           	line	108
  3925                           ;women safety concept sensor abnormal gps on gsm.c: 107: }
  3926                           ;women safety concept sensor abnormal gps on gsm.c: 108: if((data_cap==0x01)&&(i<45))
  3927  0623  0836               	movf	(_data_cap),w
  3928  0624  3A01               	xorlw	01h
  3929  0625  1D03               	skipz
  3930  0626  2E28               	goto	u245_21
  3931  0627  2E29               	goto	u245_20
  3932  0628                     u245_21:
  3933  0628  2E42               	goto	i1l617
  3934  0629                     u245_20:
  3935                           	
  3936  0629                     i1l2343:	
  3937  0629  3000               	movlw	high(02Dh)
  3938  062A  022D               	subwf	(_i+1),w
  3939  062B  302D               	movlw	low(02Dh)
  3940  062C  1903               	skipnz
  3941  062D  022C               	subwf	(_i),w
  3942  062E  1803               	skipnc
  3943  062F  2E31               	goto	u246_21
  3944  0630  2E32               	goto	u246_20
  3945  0631                     u246_21:
  3946  0631  2E42               	goto	i1l617
  3947  0632                     u246_20:
  3948                           	line	110
  3949                           	
  3950  0632                     i1l2345:	
  3951                           ;women safety concept sensor abnormal gps on gsm.c: 109: {
  3952                           ;women safety concept sensor abnormal gps on gsm.c: 110: gpsdata[i]=ser;
  3953  0632  0840               	movf	(_ser),w
  3954  0633  00F0               	movwf	(??_rcx+0)+0
  3955  0634  082C               	movf	(_i),w
  3956  0635  3EA0               	addlw	_gpsdata&0ffh
  3957  0636  0084               	movwf	fsr0
  3958  0637  0870               	movf	(??_rcx+0)+0,w
  3959  0638  1383               	bcf	status, 7	;select IRP bank1
  3960  0639  0080               	movwf	indf
  3961                           	line	111
  3962                           	
  3963  063A                     i1l2347:	
  3964                           ;women safety concept sensor abnormal gps on gsm.c: 111: i=i+1;
  3965  063A  082C               	movf	(_i),w
  3966  063B  3E01               	addlw	low(01h)
  3967  063C  00AC               	movwf	(_i)
  3968  063D  082D               	movf	(_i+1),w
  3969  063E  1803               	skipnc
  3970  063F  3E01               	addlw	1
  3971  0640  3E00               	addlw	high(01h)
  3972  0641  00AD               	movwf	1+(_i)
  3973                           	line	112
  3974                           	
  3975  0642                     i1l617:	
  3976                           	line	113
  3977                           	
  3978  0642                     i1l615:	
  3979                           	line	114
  3980                           	
  3981  0642                     i1l618:	
  3982  0642  0874               	movf	(??_rcx+4),w
  3983  0643  00FF               	movwf	btemp+1
  3984  0644  0873               	movf	(??_rcx+3),w
  3985  0645  008A               	movwf	pclath
  3986  0646  0872               	movf	(??_rcx+2),w
  3987  0647  0084               	movwf	fsr0
  3988  0648  0871               	movf	(??_rcx+1),w
  3989  0649  0083               	movwf	status
  3990  064A  0EFE               	swapf	saved_w,f
  3991  064B  0E7E               	swapf	saved_w,w
  3992  064C  0009               	retfie
  3993                           	opt stack 0
  3994                           GLOBAL	__end_of_rcx
  3995  064D                     	__end_of_rcx:
  3996 ;; =============== function _rcx ends ============
  3997                           
  3998                           	signat	_rcx,88
  3999                           psect	text522,local,class=CODE,delta=2
  4000                           global __ptext522
  4001  0000                     __ptext522:
  4002                           	global	btemp
  4003  007E                     	btemp set 07Eh
  4004                           
  4005                           	DABS	1,126,2	;btemp
  4006                           	global	wtemp0
  4007  007E                     	wtemp0 set btemp


HI-TECH Software PICC Macro Assembler V9.71a build 6446 
Symbol Table                                                                                   Thu Nov 17 16:58:55 2022

         lcd_data@dat 0039                     _a 0020                     _b 0022                     _c 0024  
                   _d 0026                     _e 0028                     _f 002A                     _i 002C  
                   _j 002E                     _y 0032                     _z 0034                     pc 0002  
                  _st 0041                    fsr 0004                   l600 06F7                   l603 06C1  
                 l612 07A1                   l621 05B8                   l630 075A                   l606 0744  
                 l622 0517                   l631 075B                   l607 072F                   l623 053F  
                 l632 075B                   l640 07F0                   l608 0751                   l624 0555  
                 l633 075F                   l641 07F3                   l609 0751                   l625 057D  
                 l634 077C                   l626 05B8                   l635 077C                   l651 0719  
                 l652 0701                   l644 0401                   l660 0242                   l629 076F  
                 l653 0726                   l645 0425                   l661 0321                   l638 07EA  
                 l654 0726                   l646 043B                   l662 0339                   l591 07C6  
                 l639 07EA                   l647 045F                   l663 033A                   l592 07C6  
                 l680 05D4                   l648 04B0                   l664 033A                   l593 07D6  
                 l681 05C9                   l657 00BF                   l594 07D6                   l682 05D8  
                 l690 0664                   l658 0233                   l683 05D8                   l691 0659  
                 l659 0233                   l684 05F0                   l692 0668                   l597 07E7  
                 l685 05FD                   l693 0668                   l686 0603                   l694 0678  
                 l679 05FD                   l695 0685                   l696 068B                   l689 0685  
                 _GIE 005F                   _RD1 0041                   _RD2 0042                   _RD3 0043  
                 _rcx 0604                   _ser 0040                   fsr0 0004                   _txs 07E8  
                 indf 0000          lcd_display@k 003B          lcd_display@m 003A                  l3001 005A  
                l3011 006D                  l3003 005D                  l3101 0221                  l3021 0092  
                l3013 0072                  l3005 0060                  l3111 026F                  l3103 022A  
                l3031 00B6                  l3023 0098                  l3015 007B                  l3007 0063  
                l2321 07D7                  l3121 0290                  l3113 0275                  l3105 0233  
                l3041 00C5                  l3033 00BF                  l3025 009E                  l3017 0080  
                l3009 0066                  l2323 07E3                  l3131 02B7                  l3123 0299  
                l3115 027B                  l3107 023E                  l3051 00F5                  l3043 00CE  
                l3035 00C2                  l3027 00A4                  l3019 0089                  l2317 07C5  
                l2325 07E4                  l3141 02DB                  l3133 02BD                  l3125 029F  
                l3117 0281                  l3109 024B                  l3061 0142                  l3053 0100  
                l3045 00D3                  l3037 00C3                  l3029 00AD                  l2319 07C6  
                l2327 07E5                  l3151 0305                  l3143 02E4                  l3135 02C6  
                l3127 02A5                  l3119 0287                  l3071 01A4                  l3063 0159  
                l3055 0109                  l3047 00DC                  l3039 00C4                  l2329 07E6  
                l3161 0327                  l3153 030A                  l3145 02ED                  l3137 02CF  
                l3129 02AE                  l3081 01D1                  l3073 01AD                  l3065 0170  
                l3057 0112                  l3049 00EC                  l3163 0330                  l3155 0313  
                l3147 02F3                  l3139 02D5                  l3091 01FD                  l3083 01DA  
                l3075 01B6                  l3067 0187                  l3059 012B                  l2357 07E9  
                l3157 031C                  l3149 02FC                  l3093 0201                  l3085 01E3  
                l3077 01BF                  l3069 019E                  l2359 07F1                  l3159 0321  
                l3095 0209                  l3087 01EC                  l3079 01C8                  l2801 0659  
                l3097 020F                  l3089 01F4                  l2811 0678                  l2803 0660  
                l3099 0218                  l2813 067F                  l2805 0664                  l2821 06C8  
                l2901 03F7                  l2815 0685                  l2807 0668                  l2831 06D7  
                l2823 06C9                  l2911 0414                  l2903 0400                  l2817 068B  
                l2809 0672                  l2841 06EB                  l2833 06E5                  l2825 06CA  
                l2921 043A                  l2913 041C                  l2905 0401                  l2771 076F  
                l2843 06F4                  l2835 06E8                  l2827 06CB                  l2819 06C5  
                l2851 0694                  l2931 0456                  l2923 043B                  l2915 0425  
                l2907 0409                  l2765 0755                  l2781 05D4                  l2773 05B9  
                l2837 06E9                  l2829 06D4                  l2861 06B2                  l2853 0695  
                l2845 068F                  l2933 045F                  l2925 0443                  l2917 042B  
                l2909 040B                  l2941 04CC                  l2767 0760                  l2791 05F7  
                l2783 05D8                  l2775 05C5                  l2839 06EA                  l2863 06B3  
                l2855 069E                  l2847 0692                  l2871 06FB                  l2927 0445  
                l2919 0431                  l2951 04F8                  l2943 04D5                  l2935 04B1  
                l2769 0769                  l2793 05FD                  l2785 05E9                  l2777 05C9  
                l2865 06B4                  l2857 06A1                  l2849 0693                  l2873 0701  
                l2881 072A                  l2929 044E                  l2961 0517                  l2953 04FE  
                l2945 04DE                  l2937 04BD                  l2795 0603                  l2787 05EF  
                l2779 05D0                  l2867 06B5                  l2859 06AF                  l2875 070A  
                l2883 072F                  l2891 033D                  l2971 053F                  l2963 051F  
                l2955 0507                  l2947 04E4                  l2939 04C6                  l2789 05F0  
                l2797 064D                  l2869 06BE                  l2877 0713                  l2885 073C  
                l2893 03DC                  l2981 055D                  l2973 0545                  l2965 0525  
                l2957 050D                  l2949 04ED                  l2799 0655                  l2879 0719  
                l2887 0744                  l2895 03E2                  l2991 05A1                  l2983 0563  
                l2975 054B                  l2967 052E                  l2959 0516                  l2889 077D  
                l2897 03E8                  l2993 05A8                  l2985 056C                  l2977 0554  
                l2969 0536                  l2899 03F1                  l2995 05AB                  l2987 0574  
                l2979 0555                  l2989 057D                  l2997 004B                  l2999 0057  
                ?_rcx 0070                  _ADON 00F8                  _CHS0 00FB                  _CHS1 00FC  
                _CHS2 00FD                  STR_1 0044                  STR_2 0019                  STR_3 003C  
                STR_4 0026                  STR_5 0048                  STR_6 0032                  ?_txs 0070  
                _BRGH 04C2                  u3000 0400                  u3001 03FF                  u3010 0425  
                u3011 0424                  u3020 043A                  u3100 01F4                  u3021 0439  
                u3101 01F3                  u3030 045F                  u3110 01FD                  u3031 045E  
                u3111 01FC                  u3040 04F8                  u3120 023E                  u3041 04F7  
                u3121 023D                  u2410 07D6                  u3050 0516                  u3130 024B  
                u2411 07D5                  u3051 0515                  u3131 024A                  u3060 053F  
                u3061 053E                  u3070 0554                  u2415 07D2                  u3071 0553  
                u3080 057D                  u3081 057C                  u3095 00E3                  u2810 075F  
                u2490 07F0                  u2811 075E                  u2491 07EF                  u2820 077C  
                u2900 0655                  u2821 077B                  u2901 0654                  u2830 05C5  
                u2831 05C4                  u2920 0668                  u2921 0667                  u2850 05D8  
                u2930 0672                  u2851 05D7                  u2931 0671                  u2915 065A  
                _PEIE 005E                  u2845 05CA                  u2870 05E9                  u2950 0685  
                u2871 05E8                  u2951 0684                  u2935 066E                  u2865 05D9  
                u2945 0679                  u2890 05FD                  u2891 05FC                  u2875 05E5  
                _RCIE 0465                  u2980 0726                  _RCIF 0065                  u2885 05F1  
                u2965 06DC                  u2981 0725                  u2990 0751                  u2975 06A6  
                u2991 0750                  _OERR 00C1                  _TXIF 0064                  _main 004B  
                _sms1 033D                  _temp 0077                  btemp 007E                  start 0010  
               ??_rcx 0070                 ??_txs 0075          ?_gsm_command 0070                 ?_main 0070  
               ?_sms1 0070       __end_of___lwdiv 0604       __end_of___lwmod 068C                 i1l615 0642  
               i1l616 0623                 i1l617 0642                 i1l618 0642                 _RCREG 001A  
               _RCSTA 0018                 _SPBRG 0099                 _PORTA 0005                 _PORTB 0006  
               _PORTC 0007                 _PORTD 0008                 _TRISA 0085                 _TRISB 0086  
               _TRISC 0087                 _TRISD 0088                 _TXREG 0019                 _TXSTA 0098  
     __end_of_lcd_cmd 06F8                 _delay 07C5                 _temp1 0030                 pclath 000A  
               status 0003                 wtemp0 007E          __end_of_main 033D          __end_of_sms1 04B1  
              ??_main 003E                ??_sms1 003A                ?_delay 0075                _ADCON0 001F  
              _ADCON1 009F                _ADRESH 001E                _ADRESL 009E                i1l2331 0604  
              i1l2341 061E                i1l2333 060A                i1l2343 0629                i1l2335 060B  
              i1l2345 0632                i1l2337 0615                i1l2347 063A                i1l2339 061B  
              u242_20 060A                u242_21 0609                u243_20 0615                u243_21 0614  
              u244_20 061B                u244_21 061A                u245_20 0629                u245_21 0628  
              u246_20 0632                u246_21 0631      __end_of_lcd_data 06C2      __end_of_lcd_init 07A2  
__size_of_lcd_display 002B             ??___lwdiv 0075             ??___lwmod 0075      __end_of_gps_init 07E8  
    __end_of_gps_send 05B9                delay@x 0075                _serial 06F8             ??_lcd_cmd 0037  
              clrloop 07F5                saved_w 007E                txs@val 0075        __pcstackCOMMON 0070  
        __pidataBANK0 07FC         __end_of_delay 07D7  __size_of_gsm_command 002B               ??_delay 0077  
          __pbssBANK0 0020            __pbssBANK1 00A0            __pmaintext 004B            __pintentry 0004  
             ?_serial 0070             ?_lcd_data 0070             ?_lcd_init 0070             ?_gps_init 0070  
           ?_gps_send 0070          gsm_command@s 0038               ___lwdiv 05B9               ___lwmod 064D  
     __size_of_serial 002F               _lcd_cmd 06C2               _gpsdata 00A0          __size_of_rcx 0049  
        __size_of_txs 000C            ??_lcd_data 0037            ??_lcd_init 0077  end_of_initialization 07C1  
          ??_gps_init 0075            ??_gps_send 003D               serial@B 0039               serial@a 0038  
          lcd_cmd@com 0039         ??_lcd_display 0077        __end_of_serial 0727   start_initialization 07A2  
         __end_of_rcx 064D           __end_of_txs 07F4   __end_of_lcd_display 0752           __pdataBANK0 0040  
       ??_gsm_command 0075              ??_serial 0037           __pbssCOMMON 0077         __pcstackBANK0 0037  
   __size_of_lcd_data 0036     __size_of_lcd_init 0025     __size_of_gps_init 0011     __size_of_gps_send 0108  
    ___lwdiv@dividend 0039             __ptext510 077D             __ptext511 0727             __ptext520 07C5  
           __ptext512 06F8             __ptext521 0604             __ptext513 068C             __ptext522 0000  
           __ptext514 06C2             __ptext515 064D             __ptext516 05B9             __ptext508 04B1  
           __ptext517 07E8             __ptext509 033D             __ptext518 0752             __ptext519 07D7  
            ?___lwdiv 0037              ?___lwmod 0037             __pstrings 0013              ?_lcd_cmd 0070  
 __end_of_gsm_command 077D      ___lwdiv@quotient 003C        __size_of_delay 0012     interrupt_function 0004  
         _lcd_display 0727           __stringbase 0018         gsm_command@da 0037      __size_of___lwdiv 004B  
    __size_of___lwmod 003F           _gsm_command 0752      __size_of_lcd_cmd 0036              _data_cap 0036  
     ___lwdiv@divisor 0037       ___lwdiv@counter 003B              _lcd_data 068C              _lcd_init 077D  
            _gps_init 07D7              _gps_send 04B1         __size_of_main 02F2         __size_of_sms1 0174  
            clear_ram 07F4              intlevel1 0000      ___lwmod@dividend 0039             stringcode 0013  
     ___lwmod@divisor 0037       ___lwmod@counter 0076              stringdir 0013              stringtab 0013  
        ?_lcd_display 0070  
