opt subtitle "HI-TECH Software Omniscient Code Generator (Lite mode) build 6446"

opt pagewidth 120

	opt lm

	processor	16F877A
clrc	macro
	bcf	3,0
	endm
clrz	macro
	bcf	3,2
	endm
setc	macro
	bsf	3,0
	endm
setz	macro
	bsf	3,2
	endm
skipc	macro
	btfss	3,0
	endm
skipz	macro
	btfss	3,2
	endm
skipnc	macro
	btfsc	3,0
	endm
skipnz	macro
	btfsc	3,2
	endm
indf	equ	0
indf0	equ	0
pc	equ	2
pcl	equ	2
status	equ	3
fsr	equ	4
fsr0	equ	4
c	equ	1
z	equ	0
pclath	equ	10
# 2 "E:\Embedded_Program\pic task\pic task\serial communication\gsm\gsm data transmit\gsm data transmit.c"
	psect config,class=CONFIG,delta=2 ;#
# 2 "E:\Embedded_Program\pic task\pic task\serial communication\gsm\gsm data transmit\gsm data transmit.c"
	dw 0X3F72 ;#
	FNCALL	_main,_lcd_init
	FNCALL	_main,_delay
	FNCALL	_main,_lcd_command
	FNCALL	_main,_lcd_display
	FNCALL	_main,_serial
	FNCALL	_lcd_init,_lcd_command
	FNCALL	_lcd_display,_lcd_data
	FNCALL	_serial,_delay
	FNCALL	_lcd_data,_delay
	FNCALL	_lcd_command,_delay
	FNROOT	_main
	global	_PORTC
psect	text102,local,class=CODE,delta=2
global __ptext102
__ptext102:
_PORTC	set	7
	global	_PORTD
_PORTD	set	8
	global	_RCSTA
_RCSTA	set	24
	global	_TXREG
_TXREG	set	25
	global	_RB0
_RB0	set	48
	global	_RD1
_RD1	set	65
	global	_RD2
_RD2	set	66
	global	_RD3
_RD3	set	67
	global	_SPBRG
_SPBRG	set	153
	global	_TRISC
_TRISC	set	135
	global	_TRISD
_TRISD	set	136
	global	_TXSTA
_TXSTA	set	152
psect	strings,class=STRING,delta=2
global __pstrings
__pstrings:
;	global	stringdir,stringtab,__stringbase
stringtab:
;	String table - string pointers are 1 byte each
stringcode:stringdir:
movlw high(stringdir)
movwf pclath
movf fsr,w
incf fsr
	addwf pc
__stringbase:
	retlw	0
psect	strings
	
STR_5:	
	retlw	83	;'S'
	retlw	69	;'E'
	retlw	82	;'R'
	retlw	73	;'I'
	retlw	65	;'A'
	retlw	76	;'L'
	retlw	32	;' '
	retlw	67	;'C'
	retlw	79	;'O'
	retlw	77	;'M'
	retlw	77	;'M'
	retlw	85	;'U'
	retlw	78	;'N'
	retlw	73	;'I'
	retlw	67	;'C'
	retlw	65	;'A'
	retlw	84	;'T'
	retlw	73	;'I'
	retlw	79	;'O'
	retlw	78	;'N'
	retlw	0
psect	strings
	
STR_4:	
	retlw	65	;'A'
	retlw	84	;'T'
	retlw	43	;'+'
	retlw	67	;'C'
	retlw	77	;'M'
	retlw	71	;'G'
	retlw	83	;'S'
	retlw	61	;'='
	retlw	56	;'8'
	retlw	55	;'7'
	retlw	55	;'7'
	retlw	56	;'8'
	retlw	55	;'7'
	retlw	53	;'5'
	retlw	51	;'3'
	retlw	57	;'9'
	retlw	52	;'4'
	retlw	48	;'0'
	retlw	0
psect	strings
	
STR_3:	
	retlw	65	;'A'
	retlw	84	;'T'
	retlw	43	;'+'
	retlw	67	;'C'
	retlw	77	;'M'
	retlw	71	;'G'
	retlw	70	;'F'
	retlw	61	;'='
	retlw	49	;'1'
	retlw	0
psect	strings
	
STR_1:	
	retlw	87	;'W'
	retlw	69	;'E'
	retlw	76	;'L'
	retlw	67	;'C'
	retlw	79	;'O'
	retlw	77	;'M'
	retlw	69	;'E'
	retlw	0
psect	strings
	
STR_2:	
	retlw	65	;'A'
	retlw	84	;'T'
	retlw	0
psect	strings
	file	"gsm data transmit.as"
	line	#
psect cinit,class=CODE,delta=2
global start_initialization
start_initialization:

psect cinit,class=CODE,delta=2
global end_of_initialization

;End of C runtime variable initialization code

end_of_initialization:
clrf status
ljmp _main	;jump to C main() function
psect	cstackCOMMON,class=COMMON,space=1
global __pcstackCOMMON
__pcstackCOMMON:
	global	?_delay
?_delay:	; 0 bytes @ 0x0
	global	?_lcd_command
?_lcd_command:	; 0 bytes @ 0x0
	global	?_lcd_data
?_lcd_data:	; 0 bytes @ 0x0
	global	?_lcd_display
?_lcd_display:	; 0 bytes @ 0x0
	global	?_lcd_init
?_lcd_init:	; 0 bytes @ 0x0
	global	?_serial
?_serial:	; 0 bytes @ 0x0
	global	?_main
?_main:	; 2 bytes @ 0x0
	global	delay@x
delay@x:	; 2 bytes @ 0x0
	ds	2
	global	??_delay
??_delay:	; 0 bytes @ 0x2
	global	??_lcd_command
??_lcd_command:	; 0 bytes @ 0x2
	global	??_lcd_data
??_lcd_data:	; 0 bytes @ 0x2
	global	??_serial
??_serial:	; 0 bytes @ 0x2
	global	serial@i
serial@i:	; 2 bytes @ 0x2
	ds	2
	global	serial@a
serial@a:	; 1 bytes @ 0x4
	global	lcd_command@temp
lcd_command@temp:	; 2 bytes @ 0x4
	global	lcd_data@temp
lcd_data@temp:	; 2 bytes @ 0x4
	ds	2
	global	lcd_command@com
lcd_command@com:	; 1 bytes @ 0x6
	global	lcd_data@dat
lcd_data@dat:	; 1 bytes @ 0x6
	ds	1
	global	??_lcd_display
??_lcd_display:	; 0 bytes @ 0x7
	global	??_lcd_init
??_lcd_init:	; 0 bytes @ 0x7
	global	lcd_display@i
lcd_display@i:	; 2 bytes @ 0x7
	ds	2
	global	lcd_display@m
lcd_display@m:	; 1 bytes @ 0x9
	ds	1
	global	??_main
??_main:	; 0 bytes @ 0xA
;;Data sizes: Strings 61, constant 0, data 0, bss 0, persistent 0 stack 0
;;Auto spaces:   Size  Autos    Used
;; COMMON          14     10      10
;; BANK0           80      0       0
;; BANK1           80      0       0
;; BANK3           96      0       0
;; BANK2           96      0       0

;;
;; Pointer list with targets:

;; serial@a	PTR unsigned char  size(1) Largest target is 21
;;		 -> STR_5(CODE[21]), STR_4(CODE[19]), STR_3(CODE[10]), STR_2(CODE[3]), 
;;
;; lcd_display@m	PTR const unsigned char  size(1) Largest target is 8
;;		 -> STR_1(CODE[8]), 
;;


;;
;; Critical Paths under _main in COMMON
;;
;;   _main->_lcd_display
;;   _lcd_init->_lcd_command
;;   _lcd_display->_lcd_data
;;   _serial->_delay
;;   _lcd_data->_delay
;;   _lcd_command->_delay
;;
;; Critical Paths under _main in BANK0
;;
;;   None.
;;
;; Critical Paths under _main in BANK1
;;
;;   None.
;;
;; Critical Paths under _main in BANK3
;;
;;   None.
;;
;; Critical Paths under _main in BANK2
;;
;;   None.

;;
;;Main: autosize = 0, tempsize = 0, incstack = 0, save=0
;;

;;
;;Call Graph Tables:
;;
;; ---------------------------------------------------------------------------------
;; (Depth) Function   	        Calls       Base Space   Used Autos Params    Refs
;; ---------------------------------------------------------------------------------
;; (0) _main                                                 0     0      0     330
;;                           _lcd_init
;;                              _delay
;;                        _lcd_command
;;                        _lcd_display
;;                             _serial
;; ---------------------------------------------------------------------------------
;; (1) _lcd_init                                             0     0      0      60
;;                        _lcd_command
;; ---------------------------------------------------------------------------------
;; (1) _lcd_display                                          3     3      0     120
;;                                              7 COMMON     3     3      0
;;                           _lcd_data
;; ---------------------------------------------------------------------------------
;; (1) _serial                                               3     3      0      75
;;                                              2 COMMON     3     3      0
;;                              _delay
;; ---------------------------------------------------------------------------------
;; (2) _lcd_data                                             5     5      0      60
;;                                              2 COMMON     5     5      0
;;                              _delay
;; ---------------------------------------------------------------------------------
;; (1) _lcd_command                                          5     5      0      60
;;                                              2 COMMON     5     5      0
;;                              _delay
;; ---------------------------------------------------------------------------------
;; (2) _delay                                                2     0      2      15
;;                                              0 COMMON     2     0      2
;; ---------------------------------------------------------------------------------
;; Estimated maximum stack depth 2
;; ---------------------------------------------------------------------------------

;; Call Graph Graphs:

;; _main (ROOT)
;;   _lcd_init
;;     _lcd_command
;;       _delay
;;   _delay
;;   _lcd_command
;;     _delay
;;   _lcd_display
;;     _lcd_data
;;       _delay
;;   _serial
;;     _delay
;;

;; Address spaces:

;;Name               Size   Autos  Total    Cost      Usage
;;BITCOMMON            E      0       0       0        0.0%
;;EEDATA             100      0       0       0        0.0%
;;NULL                 0      0       0       0        0.0%
;;CODE                 0      0       0       0        0.0%
;;COMMON               E      A       A       1       71.4%
;;BITSFR0              0      0       0       1        0.0%
;;SFR0                 0      0       0       1        0.0%
;;BITSFR1              0      0       0       2        0.0%
;;SFR1                 0      0       0       2        0.0%
;;STACK                0      0       3       2        0.0%
;;ABS                  0      0       0       3        0.0%
;;BITBANK0            50      0       0       4        0.0%
;;BITSFR3              0      0       0       4        0.0%
;;SFR3                 0      0       0       4        0.0%
;;BANK0               50      0       0       5        0.0%
;;BITSFR2              0      0       0       5        0.0%
;;SFR2                 0      0       0       5        0.0%
;;BITBANK1            50      0       0       6        0.0%
;;BANK1               50      0       0       7        0.0%
;;BITBANK3            60      0       0       8        0.0%
;;BANK3               60      0       0       9        0.0%
;;BITBANK2            60      0       0      10        0.0%
;;BANK2               60      0       0      11        0.0%
;;DATA                 0      0       0      12        0.0%

	global	_main
psect	maintext,global,class=CODE,delta=2
global __pmaintext
__pmaintext:

;; *************** function _main *****************
;; Defined at:
;;		line 72 in file "E:\Embedded_Program\pic task\pic task\serial communication\gsm\gsm data transmit\gsm data transmit.c"
;; Parameters:    Size  Location     Type
;;		None
;; Auto vars:     Size  Location     Type
;;		None
;; Return value:  Size  Location     Type
;;                  2  585[COMMON] int 
;; Registers used:
;;		wreg, fsr0l, fsr0h, status,2, status,0, btemp+0, pclath, cstack
;; Tracked objects:
;;		On entry : 17F/0
;;		On exit  : 0/0
;;		Unchanged: 0/0
;; Data sizes:     COMMON   BANK0   BANK1   BANK3   BANK2
;;      Params:         0       0       0       0       0
;;      Locals:         0       0       0       0       0
;;      Temps:          0       0       0       0       0
;;      Totals:         0       0       0       0       0
;;Total ram usage:        0 bytes
;; Hardware stack levels required when called:    3
;; This function calls:
;;		_lcd_init
;;		_delay
;;		_lcd_command
;;		_lcd_display
;;		_serial
;; This function is called by:
;;		Startup code after reset
;; This function uses a non-reentrant model
;;
psect	maintext
	file	"E:\Embedded_Program\pic task\pic task\serial communication\gsm\gsm data transmit\gsm data transmit.c"
	line	72
	global	__size_of_main
	__size_of_main	equ	__end_of_main-_main
	
_main:	
	opt	stack 8
; Regs used in _main: [wreg-fsr0h+status,2-btemp+0+pclath+cstack]
	line	73
	
l1827:	
;gsm data transmit.c: 73: TRISC=0X00;
	bsf	status, 5	;RP0=1, select bank1
	bcf	status, 6	;RP1=0, select bank1
	clrf	(135)^080h	;volatile
	line	74
;gsm data transmit.c: 74: PORTC=0X00;
	bcf	status, 5	;RP0=0, select bank0
	bcf	status, 6	;RP1=0, select bank0
	clrf	(7)	;volatile
	line	75
;gsm data transmit.c: 75: TRISD=0X00;
	bsf	status, 5	;RP0=1, select bank1
	bcf	status, 6	;RP1=0, select bank1
	clrf	(136)^080h	;volatile
	line	76
;gsm data transmit.c: 76: PORTD=0X00;
	bcf	status, 5	;RP0=0, select bank0
	bcf	status, 6	;RP1=0, select bank0
	clrf	(8)	;volatile
	line	77
	
l1829:	
;gsm data transmit.c: 77: TXSTA=0X24;
	movlw	(024h)
	bsf	status, 5	;RP0=1, select bank1
	bcf	status, 6	;RP1=0, select bank1
	movwf	(152)^080h	;volatile
	line	78
	
l1831:	
;gsm data transmit.c: 78: RCSTA=0X90;
	movlw	(090h)
	bcf	status, 5	;RP0=0, select bank0
	bcf	status, 6	;RP1=0, select bank0
	movwf	(24)	;volatile
	line	79
	
l1833:	
;gsm data transmit.c: 79: SPBRG=25;
	movlw	(019h)
	bsf	status, 5	;RP0=1, select bank1
	bcf	status, 6	;RP1=0, select bank1
	movwf	(153)^080h	;volatile
	line	82
	
l1835:	
;gsm data transmit.c: 82: lcd_init();
	fcall	_lcd_init
	line	83
	
l1837:	
;gsm data transmit.c: 83: delay(500);
	movlw	low(01F4h)
	movwf	(?_delay)
	movlw	high(01F4h)
	movwf	((?_delay))+1
	fcall	_delay
	line	84
	
l1839:	
;gsm data transmit.c: 84: lcd_command(0X80);
	movlw	(080h)
	fcall	_lcd_command
	line	85
	
l1841:	
;gsm data transmit.c: 85: lcd_display("WELCOME");
	movlw	((STR_1-__stringbase))&0ffh
	fcall	_lcd_display
	line	86
	
l1843:	
;gsm data transmit.c: 86: delay(50000);
	movlw	low(0C350h)
	movwf	(?_delay)
	movlw	high(0C350h)
	movwf	((?_delay))+1
	fcall	_delay
	line	88
;gsm data transmit.c: 88: while(1)
	
l586:	
	line	90
	
l1845:	
;gsm data transmit.c: 89: {
;gsm data transmit.c: 90: if(RB0==1)
	bcf	status, 5	;RP0=0, select bank0
	bcf	status, 6	;RP1=0, select bank0
	btfss	(48/8),(48)&7
	goto	u2191
	goto	u2190
u2191:
	goto	l587
u2190:
	line	92
	
l1847:	
;gsm data transmit.c: 91: {
;gsm data transmit.c: 92: serial("AT");
	movlw	((STR_2-__stringbase))&0ffh
	fcall	_serial
	line	93
	
l1849:	
;gsm data transmit.c: 93: delay(50000);
	movlw	low(0C350h)
	movwf	(?_delay)
	movlw	high(0C350h)
	movwf	((?_delay))+1
	fcall	_delay
	line	94
	
l1851:	
;gsm data transmit.c: 94: TXREG=0X0D;
	movlw	(0Dh)
	bcf	status, 5	;RP0=0, select bank0
	bcf	status, 6	;RP1=0, select bank0
	movwf	(25)	;volatile
	line	96
	
l1853:	
;gsm data transmit.c: 96: delay(50000);
	movlw	low(0C350h)
	movwf	(?_delay)
	movlw	high(0C350h)
	movwf	((?_delay))+1
	fcall	_delay
	line	97
	
l1855:	
;gsm data transmit.c: 97: serial("AT+CMGF=1");
	movlw	((STR_3-__stringbase))&0ffh
	fcall	_serial
	line	98
;gsm data transmit.c: 98: TXREG=0X0D;
	movlw	(0Dh)
	bcf	status, 5	;RP0=0, select bank0
	bcf	status, 6	;RP1=0, select bank0
	movwf	(25)	;volatile
	line	99
	
l1857:	
;gsm data transmit.c: 99: delay(50000);
	movlw	low(0C350h)
	movwf	(?_delay)
	movlw	high(0C350h)
	movwf	((?_delay))+1
	fcall	_delay
	line	100
	
l1859:	
;gsm data transmit.c: 100: serial("AT+CMGS=8778753940");
	movlw	((STR_4-__stringbase))&0ffh
	fcall	_serial
	line	101
	
l1861:	
;gsm data transmit.c: 101: TXREG=0X0D;
	movlw	(0Dh)
	bcf	status, 5	;RP0=0, select bank0
	bcf	status, 6	;RP1=0, select bank0
	movwf	(25)	;volatile
	line	102
	
l1863:	
;gsm data transmit.c: 102: delay(50000);
	movlw	low(0C350h)
	movwf	(?_delay)
	movlw	high(0C350h)
	movwf	((?_delay))+1
	fcall	_delay
	line	103
	
l1865:	
;gsm data transmit.c: 103: TXREG=0X0D;
	movlw	(0Dh)
	bcf	status, 5	;RP0=0, select bank0
	bcf	status, 6	;RP1=0, select bank0
	movwf	(25)	;volatile
	line	104
	
l1867:	
;gsm data transmit.c: 104: serial("SERIAL COMMUNICATION");
	movlw	((STR_5-__stringbase))&0ffh
	fcall	_serial
	line	105
	
l1869:	
;gsm data transmit.c: 105: delay(50000);
	movlw	low(0C350h)
	movwf	(?_delay)
	movlw	high(0C350h)
	movwf	((?_delay))+1
	fcall	_delay
	line	106
	
l1871:	
;gsm data transmit.c: 106: TXREG=0X1A;
	movlw	(01Ah)
	bcf	status, 5	;RP0=0, select bank0
	bcf	status, 6	;RP1=0, select bank0
	movwf	(25)	;volatile
	line	107
;gsm data transmit.c: 107: delay(50000);
	movlw	low(0C350h)
	movwf	(?_delay)
	movlw	high(0C350h)
	movwf	((?_delay))+1
	fcall	_delay
	line	109
	
l587:	
	line	110
	
l588:	
	line	88
	goto	l586
	
l589:	
	line	111
	
l590:	
	global	start
	ljmp	start
	opt stack 0
GLOBAL	__end_of_main
	__end_of_main:
;; =============== function _main ends ============

	signat	_main,90
	global	_lcd_init
psect	text103,local,class=CODE,delta=2
global __ptext103
__ptext103:

;; *************** function _lcd_init *****************
;; Defined at:
;;		line 52 in file "E:\Embedded_Program\pic task\pic task\serial communication\gsm\gsm data transmit\gsm data transmit.c"
;; Parameters:    Size  Location     Type
;;		None
;; Auto vars:     Size  Location     Type
;;		None
;; Return value:  Size  Location     Type
;;		None               void
;; Registers used:
;;		wreg, status,2, status,0, btemp+0, pclath, cstack
;; Tracked objects:
;;		On entry : 0/0
;;		On exit  : 0/0
;;		Unchanged: 0/0
;; Data sizes:     COMMON   BANK0   BANK1   BANK3   BANK2
;;      Params:         0       0       0       0       0
;;      Locals:         0       0       0       0       0
;;      Temps:          0       0       0       0       0
;;      Totals:         0       0       0       0       0
;;Total ram usage:        0 bytes
;; Hardware stack levels used:    1
;; Hardware stack levels required when called:    2
;; This function calls:
;;		_lcd_command
;; This function is called by:
;;		_main
;; This function uses a non-reentrant model
;;
psect	text103
	file	"E:\Embedded_Program\pic task\pic task\serial communication\gsm\gsm data transmit\gsm data transmit.c"
	line	52
	global	__size_of_lcd_init
	__size_of_lcd_init	equ	__end_of_lcd_init-_lcd_init
	
_lcd_init:	
	opt	stack 7
; Regs used in _lcd_init: [wreg+status,2-btemp+0+pclath+cstack]
	line	53
	
l1825:	
;gsm data transmit.c: 53: lcd_command(0x02);
	movlw	(02h)
	fcall	_lcd_command
	line	54
;gsm data transmit.c: 54: lcd_command(0x2c);
	movlw	(02Ch)
	fcall	_lcd_command
	line	55
;gsm data transmit.c: 55: lcd_command(0x06);
	movlw	(06h)
	fcall	_lcd_command
	line	56
;gsm data transmit.c: 56: lcd_command(0x01);
	movlw	(01h)
	fcall	_lcd_command
	line	57
;gsm data transmit.c: 57: lcd_command(0x0c);
	movlw	(0Ch)
	fcall	_lcd_command
	line	58
;gsm data transmit.c: 58: lcd_command(0x80);
	movlw	(080h)
	fcall	_lcd_command
	line	59
	
l577:	
	return
	opt stack 0
GLOBAL	__end_of_lcd_init
	__end_of_lcd_init:
;; =============== function _lcd_init ends ============

	signat	_lcd_init,88
	global	_lcd_display
psect	text104,local,class=CODE,delta=2
global __ptext104
__ptext104:

;; *************** function _lcd_display *****************
;; Defined at:
;;		line 45 in file "E:\Embedded_Program\pic task\pic task\serial communication\gsm\gsm data transmit\gsm data transmit.c"
;; Parameters:    Size  Location     Type
;;  m               1    wreg     PTR const unsigned char 
;;		 -> STR_1(8), 
;; Auto vars:     Size  Location     Type
;;  m               1    9[COMMON] PTR const unsigned char 
;;		 -> STR_1(8), 
;;  i               2    7[COMMON] int 
;; Return value:  Size  Location     Type
;;		None               void
;; Registers used:
;;		wreg, fsr0l, fsr0h, status,2, status,0, btemp+0, pclath, cstack
;; Tracked objects:
;;		On entry : 0/0
;;		On exit  : 0/0
;;		Unchanged: 0/0
;; Data sizes:     COMMON   BANK0   BANK1   BANK3   BANK2
;;      Params:         0       0       0       0       0
;;      Locals:         3       0       0       0       0
;;      Temps:          0       0       0       0       0
;;      Totals:         3       0       0       0       0
;;Total ram usage:        3 bytes
;; Hardware stack levels used:    1
;; Hardware stack levels required when called:    2
;; This function calls:
;;		_lcd_data
;; This function is called by:
;;		_main
;; This function uses a non-reentrant model
;;
psect	text104
	file	"E:\Embedded_Program\pic task\pic task\serial communication\gsm\gsm data transmit\gsm data transmit.c"
	line	45
	global	__size_of_lcd_display
	__size_of_lcd_display	equ	__end_of_lcd_display-_lcd_display
	
_lcd_display:	
	opt	stack 7
; Regs used in _lcd_display: [wreg-fsr0h+status,2-btemp+0+pclath+cstack]
;lcd_display@m stored from wreg
	movwf	(lcd_display@m)
	line	46
	
l1817:	
;gsm data transmit.c: 46: for(int i=0;m[i]!=0;i++)
	movlw	low(0)
	movwf	(lcd_display@i)
	movlw	high(0)
	movwf	((lcd_display@i))+1
	goto	l571
	line	47
	
l572:	
	line	48
	
l1819:	
;gsm data transmit.c: 47: {
;gsm data transmit.c: 48: lcd_data(m[i]);
	movf	(lcd_display@i),w
	addwf	(lcd_display@m),w
	movwf	fsr0
	fcall	stringdir
	fcall	_lcd_data
	line	46
	
l1821:	
	movlw	low(01h)
	addwf	(lcd_display@i),f
	skipnc
	incf	(lcd_display@i+1),f
	movlw	high(01h)
	addwf	(lcd_display@i+1),f
	
l571:	
	
l1823:	
	movf	(lcd_display@i),w
	addwf	(lcd_display@m),w
	movwf	fsr0
	fcall	stringdir
	iorlw	0
	skipz
	goto	u2181
	goto	u2180
u2181:
	goto	l572
u2180:
	
l573:	
	line	50
	
l574:	
	return
	opt stack 0
GLOBAL	__end_of_lcd_display
	__end_of_lcd_display:
;; =============== function _lcd_display ends ============

	signat	_lcd_display,4216
	global	_serial
psect	text105,local,class=CODE,delta=2
global __ptext105
__ptext105:

;; *************** function _serial *****************
;; Defined at:
;;		line 63 in file "E:\Embedded_Program\pic task\pic task\serial communication\gsm\gsm data transmit\gsm data transmit.c"
;; Parameters:    Size  Location     Type
;;  a               1    wreg     PTR unsigned char 
;;		 -> STR_5(21), STR_4(19), STR_3(10), STR_2(3), 
;; Auto vars:     Size  Location     Type
;;  a               1    4[COMMON] PTR unsigned char 
;;		 -> STR_5(21), STR_4(19), STR_3(10), STR_2(3), 
;;  i               2    2[COMMON] int 
;; Return value:  Size  Location     Type
;;		None               void
;; Registers used:
;;		wreg, fsr0l, fsr0h, status,2, status,0, pclath, cstack
;; Tracked objects:
;;		On entry : 0/0
;;		On exit  : 0/0
;;		Unchanged: 0/0
;; Data sizes:     COMMON   BANK0   BANK1   BANK3   BANK2
;;      Params:         0       0       0       0       0
;;      Locals:         3       0       0       0       0
;;      Temps:          0       0       0       0       0
;;      Totals:         3       0       0       0       0
;;Total ram usage:        3 bytes
;; Hardware stack levels used:    1
;; Hardware stack levels required when called:    1
;; This function calls:
;;		_delay
;; This function is called by:
;;		_main
;; This function uses a non-reentrant model
;;
psect	text105
	file	"E:\Embedded_Program\pic task\pic task\serial communication\gsm\gsm data transmit\gsm data transmit.c"
	line	63
	global	__size_of_serial
	__size_of_serial	equ	__end_of_serial-_serial
	
_serial:	
	opt	stack 7
; Regs used in _serial: [wreg-fsr0h+status,2+status,0+pclath+cstack]
;serial@a stored from wreg
	movwf	(serial@a)
	line	64
	
l1805:	
;gsm data transmit.c: 64: for(int i=0;a[i]!=0;i++)
	movlw	low(0)
	movwf	(serial@i)
	movlw	high(0)
	movwf	((serial@i))+1
	goto	l580
	line	65
	
l581:	
	line	66
	
l1807:	
;gsm data transmit.c: 65: {
;gsm data transmit.c: 66: TXREG=a[i];
	movf	(serial@i),w
	addwf	(serial@a),w
	movwf	fsr0
	fcall	stringdir
	bcf	status, 5	;RP0=0, select bank0
	bcf	status, 6	;RP1=0, select bank0
	movwf	(25)	;volatile
	line	67
	
l1809:	
;gsm data transmit.c: 67: delay(20000);
	movlw	low(04E20h)
	movwf	(?_delay)
	movlw	high(04E20h)
	movwf	((?_delay))+1
	fcall	_delay
	line	64
	
l1811:	
	movlw	low(01h)
	addwf	(serial@i),f
	skipnc
	incf	(serial@i+1),f
	movlw	high(01h)
	addwf	(serial@i+1),f
	
l580:	
	
l1813:	
	movf	(serial@i),w
	addwf	(serial@a),w
	movwf	fsr0
	fcall	stringdir
	iorlw	0
	skipz
	goto	u2171
	goto	u2170
u2171:
	goto	l581
u2170:
	
l582:	
	line	69
	
l1815:	
;gsm data transmit.c: 68: }
;gsm data transmit.c: 69: TXREG=0X1D;
	movlw	(01Dh)
	bcf	status, 5	;RP0=0, select bank0
	bcf	status, 6	;RP1=0, select bank0
	movwf	(25)	;volatile
	line	70
	
l583:	
	return
	opt stack 0
GLOBAL	__end_of_serial
	__end_of_serial:
;; =============== function _serial ends ============

	signat	_serial,4216
	global	_lcd_data
psect	text106,local,class=CODE,delta=2
global __ptext106
__ptext106:

;; *************** function _lcd_data *****************
;; Defined at:
;;		line 29 in file "E:\Embedded_Program\pic task\pic task\serial communication\gsm\gsm data transmit\gsm data transmit.c"
;; Parameters:    Size  Location     Type
;;  dat             1    wreg     unsigned char 
;; Auto vars:     Size  Location     Type
;;  dat             1    6[COMMON] unsigned char 
;;  temp            2    4[COMMON] int 
;; Return value:  Size  Location     Type
;;		None               void
;; Registers used:
;;		wreg, status,2, status,0, btemp+0, pclath, cstack
;; Tracked objects:
;;		On entry : 0/0
;;		On exit  : 0/0
;;		Unchanged: 0/0
;; Data sizes:     COMMON   BANK0   BANK1   BANK3   BANK2
;;      Params:         0       0       0       0       0
;;      Locals:         3       0       0       0       0
;;      Temps:          2       0       0       0       0
;;      Totals:         5       0       0       0       0
;;Total ram usage:        5 bytes
;; Hardware stack levels used:    1
;; Hardware stack levels required when called:    1
;; This function calls:
;;		_delay
;; This function is called by:
;;		_lcd_display
;; This function uses a non-reentrant model
;;
psect	text106
	file	"E:\Embedded_Program\pic task\pic task\serial communication\gsm\gsm data transmit\gsm data transmit.c"
	line	29
	global	__size_of_lcd_data
	__size_of_lcd_data	equ	__end_of_lcd_data-_lcd_data
	
_lcd_data:	
	opt	stack 6
; Regs used in _lcd_data: [wreg+status,2-btemp+0+pclath+cstack]
;lcd_data@dat stored from wreg
	movwf	(lcd_data@dat)
	line	30
	
l1779:	
;gsm data transmit.c: 30: PORTD=(dat&0xf0);
	movf	(lcd_data@dat),w
	andlw	0F0h
	bcf	status, 5	;RP0=0, select bank0
	bcf	status, 6	;RP1=0, select bank0
	movwf	(8)	;volatile
	line	31
	
l1781:	
;gsm data transmit.c: 31: RD1=1;
	bsf	(65/8),(65)&7
	line	32
	
l1783:	
;gsm data transmit.c: 32: RD2=0;
	bcf	(66/8),(66)&7
	line	33
	
l1785:	
;gsm data transmit.c: 33: RD3=1;
	bsf	(67/8),(67)&7
	line	34
	
l1787:	
;gsm data transmit.c: 34: delay(200);
	movlw	low(0C8h)
	movwf	(?_delay)
	movlw	high(0C8h)
	movwf	((?_delay))+1
	fcall	_delay
	line	35
	
l1789:	
;gsm data transmit.c: 35: RD3=0;
	bcf	status, 5	;RP0=0, select bank0
	bcf	status, 6	;RP1=0, select bank0
	bcf	(67/8),(67)&7
	line	36
	
l1791:	
;gsm data transmit.c: 36: int temp=dat<<4;
	movf	(lcd_data@dat),w
	movwf	(??_lcd_data+0)+0
	clrf	(??_lcd_data+0)+0+1
	movlw	04h
	movwf	btemp+0
u2165:
	clrc
	rlf	(??_lcd_data+0)+0,f
	rlf	(??_lcd_data+0)+1,f
	decfsz	btemp+0,f
	goto	u2165
	movf	0+(??_lcd_data+0)+0,w
	movwf	(lcd_data@temp)
	movf	1+(??_lcd_data+0)+0,w
	movwf	(lcd_data@temp+1)
	line	37
	
l1793:	
;gsm data transmit.c: 37: PORTD=(temp&0xf0);
	movf	(lcd_data@temp),w
	andlw	0F0h
	movwf	(8)	;volatile
	line	38
	
l1795:	
;gsm data transmit.c: 38: RD1=1;
	bsf	(65/8),(65)&7
	line	39
	
l1797:	
;gsm data transmit.c: 39: RD2=0;
	bcf	(66/8),(66)&7
	line	40
	
l1799:	
;gsm data transmit.c: 40: RD3=1;
	bsf	(67/8),(67)&7
	line	41
	
l1801:	
;gsm data transmit.c: 41: delay(200);
	movlw	low(0C8h)
	movwf	(?_delay)
	movlw	high(0C8h)
	movwf	((?_delay))+1
	fcall	_delay
	line	42
	
l1803:	
;gsm data transmit.c: 42: RD3=0;
	bcf	status, 5	;RP0=0, select bank0
	bcf	status, 6	;RP1=0, select bank0
	bcf	(67/8),(67)&7
	line	43
	
l568:	
	return
	opt stack 0
GLOBAL	__end_of_lcd_data
	__end_of_lcd_data:
;; =============== function _lcd_data ends ============

	signat	_lcd_data,4216
	global	_lcd_command
psect	text107,local,class=CODE,delta=2
global __ptext107
__ptext107:

;; *************** function _lcd_command *****************
;; Defined at:
;;		line 13 in file "E:\Embedded_Program\pic task\pic task\serial communication\gsm\gsm data transmit\gsm data transmit.c"
;; Parameters:    Size  Location     Type
;;  com             1    wreg     unsigned char 
;; Auto vars:     Size  Location     Type
;;  com             1    6[COMMON] unsigned char 
;;  temp            2    4[COMMON] int 
;; Return value:  Size  Location     Type
;;		None               void
;; Registers used:
;;		wreg, status,2, status,0, btemp+0, pclath, cstack
;; Tracked objects:
;;		On entry : 0/0
;;		On exit  : 0/0
;;		Unchanged: 0/0
;; Data sizes:     COMMON   BANK0   BANK1   BANK3   BANK2
;;      Params:         0       0       0       0       0
;;      Locals:         3       0       0       0       0
;;      Temps:          2       0       0       0       0
;;      Totals:         5       0       0       0       0
;;Total ram usage:        5 bytes
;; Hardware stack levels used:    1
;; Hardware stack levels required when called:    1
;; This function calls:
;;		_delay
;; This function is called by:
;;		_lcd_init
;;		_main
;; This function uses a non-reentrant model
;;
psect	text107
	file	"E:\Embedded_Program\pic task\pic task\serial communication\gsm\gsm data transmit\gsm data transmit.c"
	line	13
	global	__size_of_lcd_command
	__size_of_lcd_command	equ	__end_of_lcd_command-_lcd_command
	
_lcd_command:	
	opt	stack 7
; Regs used in _lcd_command: [wreg+status,2-btemp+0+pclath+cstack]
;lcd_command@com stored from wreg
	movwf	(lcd_command@com)
	line	14
	
l1753:	
;gsm data transmit.c: 14: PORTD=(com&0xf0);
	movf	(lcd_command@com),w
	andlw	0F0h
	bcf	status, 5	;RP0=0, select bank0
	bcf	status, 6	;RP1=0, select bank0
	movwf	(8)	;volatile
	line	15
	
l1755:	
;gsm data transmit.c: 15: RD1=0;
	bcf	(65/8),(65)&7
	line	16
	
l1757:	
;gsm data transmit.c: 16: RD2=0;
	bcf	(66/8),(66)&7
	line	17
	
l1759:	
;gsm data transmit.c: 17: RD3=1;
	bsf	(67/8),(67)&7
	line	18
	
l1761:	
;gsm data transmit.c: 18: delay(200);
	movlw	low(0C8h)
	movwf	(?_delay)
	movlw	high(0C8h)
	movwf	((?_delay))+1
	fcall	_delay
	line	19
	
l1763:	
;gsm data transmit.c: 19: RD3=0;
	bcf	status, 5	;RP0=0, select bank0
	bcf	status, 6	;RP1=0, select bank0
	bcf	(67/8),(67)&7
	line	20
	
l1765:	
;gsm data transmit.c: 20: int temp=com<<4;
	movf	(lcd_command@com),w
	movwf	(??_lcd_command+0)+0
	clrf	(??_lcd_command+0)+0+1
	movlw	04h
	movwf	btemp+0
u2155:
	clrc
	rlf	(??_lcd_command+0)+0,f
	rlf	(??_lcd_command+0)+1,f
	decfsz	btemp+0,f
	goto	u2155
	movf	0+(??_lcd_command+0)+0,w
	movwf	(lcd_command@temp)
	movf	1+(??_lcd_command+0)+0,w
	movwf	(lcd_command@temp+1)
	line	21
	
l1767:	
;gsm data transmit.c: 21: PORTD=(temp&0xf0);
	movf	(lcd_command@temp),w
	andlw	0F0h
	movwf	(8)	;volatile
	line	22
	
l1769:	
;gsm data transmit.c: 22: RD1=0;
	bcf	(65/8),(65)&7
	line	23
	
l1771:	
;gsm data transmit.c: 23: RD2=0;
	bcf	(66/8),(66)&7
	line	24
	
l1773:	
;gsm data transmit.c: 24: RD3=1;
	bsf	(67/8),(67)&7
	line	25
	
l1775:	
;gsm data transmit.c: 25: delay(200);
	movlw	low(0C8h)
	movwf	(?_delay)
	movlw	high(0C8h)
	movwf	((?_delay))+1
	fcall	_delay
	line	26
	
l1777:	
;gsm data transmit.c: 26: RD3=0;
	bcf	status, 5	;RP0=0, select bank0
	bcf	status, 6	;RP1=0, select bank0
	bcf	(67/8),(67)&7
	line	27
	
l565:	
	return
	opt stack 0
GLOBAL	__end_of_lcd_command
	__end_of_lcd_command:
;; =============== function _lcd_command ends ============

	signat	_lcd_command,4216
	global	_delay
psect	text108,local,class=CODE,delta=2
global __ptext108
__ptext108:

;; *************** function _delay *****************
;; Defined at:
;;		line 8 in file "E:\Embedded_Program\pic task\pic task\serial communication\gsm\gsm data transmit\gsm data transmit.c"
;; Parameters:    Size  Location     Type
;;  x               2    0[COMMON] unsigned int 
;; Auto vars:     Size  Location     Type
;;		None
;; Return value:  Size  Location     Type
;;		None               void
;; Registers used:
;;		wreg
;; Tracked objects:
;;		On entry : 0/0
;;		On exit  : 0/0
;;		Unchanged: 0/0
;; Data sizes:     COMMON   BANK0   BANK1   BANK3   BANK2
;;      Params:         2       0       0       0       0
;;      Locals:         0       0       0       0       0
;;      Temps:          0       0       0       0       0
;;      Totals:         2       0       0       0       0
;;Total ram usage:        2 bytes
;; Hardware stack levels used:    1
;; This function calls:
;;		Nothing
;; This function is called by:
;;		_lcd_command
;;		_lcd_data
;;		_serial
;;		_main
;; This function uses a non-reentrant model
;;
psect	text108
	file	"E:\Embedded_Program\pic task\pic task\serial communication\gsm\gsm data transmit\gsm data transmit.c"
	line	8
	global	__size_of_delay
	__size_of_delay	equ	__end_of_delay-_delay
	
_delay:	
	opt	stack 6
; Regs used in _delay: [wreg]
	line	9
	
l963:	
;gsm data transmit.c: 9: while(x--);
	goto	l559
	
l560:	
	
l559:	
	
l965:	
	movlw	low(01h)
	subwf	(delay@x),f
	movlw	high(01h)
	skipc
	decf	(delay@x+1),f
	subwf	(delay@x+1),f
	movlw	high(0FFFFh)
	xorwf	((delay@x+1)),w
	skipz
	goto	u15
	movlw	low(0FFFFh)
	xorwf	((delay@x)),w
u15:

	skipz
	goto	u11
	goto	u10
u11:
	goto	l560
u10:
	
l561:	
	line	10
	
l562:	
	return
	opt stack 0
GLOBAL	__end_of_delay
	__end_of_delay:
;; =============== function _delay ends ============

	signat	_delay,4216
psect	text109,local,class=CODE,delta=2
global __ptext109
__ptext109:
	global	btemp
	btemp set 07Eh

	DABS	1,126,2	;btemp
	global	wtemp0
	wtemp0 set btemp
	end
