opt subtitle "HI-TECH Software Omniscient Code Generator (Lite mode) build 6446"

opt pagewidth 120

	opt lm

	processor	16F877A
clrc	macro
	bcf	3,0
	endm
clrz	macro
	bcf	3,2
	endm
setc	macro
	bsf	3,0
	endm
setz	macro
	bsf	3,2
	endm
skipc	macro
	btfss	3,0
	endm
skipz	macro
	btfss	3,2
	endm
skipnc	macro
	btfsc	3,0
	endm
skipnz	macro
	btfsc	3,2
	endm
indf	equ	0
indf0	equ	0
pc	equ	2
pcl	equ	2
status	equ	3
fsr	equ	4
fsr0	equ	4
c	equ	1
z	equ	0
pclath	equ	10
# 2 "C:\Users\TECH\Desktop\madhu pic folder\gps&gsm\gps and gsm\gps location to gsm\gps location to gsm.c"
	psect config,class=CONFIG,delta=2 ;#
# 2 "C:\Users\TECH\Desktop\madhu pic folder\gps&gsm\gps and gsm\gps location to gsm\gps location to gsm.c"
	dw 0X3f72 ;#
	FNCALL	_main,_lcd_init
	FNCALL	_main,_delay
	FNCALL	_main,_lcd_cmd
	FNCALL	_main,_gps_init
	FNCALL	_main,_lcd_display
	FNCALL	_main,_serial
	FNCALL	_main,_txs
	FNCALL	_main,_sms1
	FNCALL	_main,_sms2
	FNCALL	_sms1,_txs
	FNCALL	_sms1,_delay
	FNCALL	_sms1,_gsm_command
	FNCALL	_sms1,_lcd_cmd
	FNCALL	_sms1,_lcd_data
	FNCALL	_lcd_init,_lcd_cmd
	FNCALL	_lcd_display,_lcd_data
	FNCALL	_serial,_delay
	FNCALL	_sms2,_txs
	FNCALL	_sms2,_delay
	FNCALL	_sms2,_gsm_command
	FNCALL	_lcd_data,_delay
	FNCALL	_lcd_cmd,_delay
	FNROOT	_main
	FNCALL	intlevel1,_rcx
	global	intlevel1
	FNROOT	intlevel1
	global	_st
	global	_ser
psect	idataBANK0,class=CODE,space=0,delta=2
global __pidataBANK0
__pidataBANK0:
	file	"C:\Users\TECH\Desktop\madhu pic folder\gps&gsm\gps and gsm\gps location to gsm\gps location to gsm.c"
	line	14

;initializer for _st
	retlw	01h

;initializer for _ser
psect	idataCOMMON,class=CODE,space=0,delta=2
global __pidataCOMMON
__pidataCOMMON:
	retlw	037h
	global	_gpsdata
	global	_T
	global	_W
	global	_c
	global	_i
	global	_j
	global	_q
	global	_r
	global	_temp
	global	_v
	global	_w1
	global	_data_cap
	global	_A
	global	_B
	global	_PORTB
_PORTB	set	6
	global	_PORTC
_PORTC	set	7
	global	_PORTD
_PORTD	set	8
	global	_RCREG
_RCREG	set	26
	global	_RCSTA
_RCSTA	set	24
	global	_TXREG
_TXREG	set	25
	global	_GIE
_GIE	set	95
	global	_OERR
_OERR	set	193
	global	_PEIE
_PEIE	set	94
	global	_RCIF
_RCIF	set	101
	global	_RD1
_RD1	set	65
	global	_RD2
_RD2	set	66
	global	_RD3
_RD3	set	67
	global	_TXIF
_TXIF	set	100
	global	_SPBRG
_SPBRG	set	153
	global	_TRISB
_TRISB	set	134
	global	_TRISC
_TRISC	set	135
	global	_TRISD
_TRISD	set	136
	global	_TXSTA
_TXSTA	set	152
	global	_BRGH
_BRGH	set	1218
	global	_RCIE
_RCIE	set	1125
psect	strings,class=STRING,delta=2
global __pstrings
__pstrings:
;	global	stringdir,stringtab,__stringbase
stringtab:
;	String table - string pointers are 1 byte each
stringcode:stringdir:
movlw high(stringdir)
movwf pclath
movf fsr,w
incf fsr
	addwf pc
__stringbase:
	retlw	0
psect	strings
	
STR_2:	
	retlw	103	;'g'
	retlw	112	;'p'
	retlw	115	;'s'
	retlw	32	;' '
	retlw	108	;'l'
	retlw	111	;'o'
	retlw	99	;'c'
	retlw	97	;'a'
	retlw	116	;'t'
	retlw	105	;'i'
	retlw	111	;'o'
	retlw	110	;'n'
	retlw	0
psect	strings
	
STR_6:	
	retlw	65	;'A'
	retlw	84	;'T'
	retlw	43	;'+'
	retlw	67	;'C'
	retlw	77	;'M'
	retlw	71	;'G'
	retlw	70	;'F'
	retlw	61	;'='
	retlw	49	;'1'
	retlw	0
psect	strings
	
STR_4:	
	retlw	87	;'W'
	retlw	69	;'E'
	retlw	76	;'L'
	retlw	67	;'C'
	retlw	79	;'O'
	retlw	77	;'M'
	retlw	69	;'E'
	retlw	0
psect	strings
	
STR_1:	
	retlw	103	;'g'
	retlw	112	;'p'
	retlw	115	;'s'
	retlw	0
psect	strings
	
STR_5:	
	retlw	65	;'A'
	retlw	84	;'T'
	retlw	0
psect	strings
STR_3	equ	STR_2+0
	file	"gps location to gsm.as"
	line	#
psect cinit,class=CODE,delta=2
global start_initialization
start_initialization:

psect	bssCOMMON,class=COMMON,space=1
global __pbssCOMMON
__pbssCOMMON:
_A:
       ds      2

_B:
       ds      2

psect	dataCOMMON,class=COMMON,space=1
global __pdataCOMMON
__pdataCOMMON:
	file	"C:\Users\TECH\Desktop\madhu pic folder\gps&gsm\gps and gsm\gps location to gsm\gps location to gsm.c"
_ser:
       ds      1

psect	bssBANK0,class=BANK0,space=1
global __pbssBANK0
__pbssBANK0:
_gpsdata:
       ds      50

_T:
       ds      2

_W:
       ds      2

_c:
       ds      2

_i:
       ds      2

_j:
       ds      2

_q:
       ds      2

_r:
       ds      2

_temp:
       ds      2

_v:
       ds      2

_w1:
       ds      2

_data_cap:
       ds      1

psect	dataBANK0,class=BANK0,space=1
global __pdataBANK0
__pdataBANK0:
	file	"C:\Users\TECH\Desktop\madhu pic folder\gps&gsm\gps and gsm\gps location to gsm\gps location to gsm.c"
_st:
       ds      1

psect clrtext,class=CODE,delta=2
global clear_ram
;	Called with FSR containing the base address, and
;	W with the last address+1
clear_ram:
	clrwdt			;clear the watchdog before getting into this loop
clrloop:
	clrf	indf		;clear RAM location pointed to by FSR
	incf	fsr,f		;increment pointer
	xorwf	fsr,w		;XOR with final address
	btfsc	status,2	;have we reached the end yet?
	retlw	0		;all done for this memory range, return
	xorwf	fsr,w		;XOR again to restore value
	goto	clrloop		;do the next byte

; Clear objects allocated to COMMON
psect cinit,class=CODE,delta=2
	clrf	((__pbssCOMMON)+0)&07Fh
	clrf	((__pbssCOMMON)+1)&07Fh
	clrf	((__pbssCOMMON)+2)&07Fh
	clrf	((__pbssCOMMON)+3)&07Fh
; Clear objects allocated to BANK0
psect cinit,class=CODE,delta=2
	bcf	status, 7	;select IRP bank0
	movlw	low(__pbssBANK0)
	movwf	fsr
	movlw	low((__pbssBANK0)+047h)
	fcall	clear_ram
; Initialize objects allocated to BANK0
	global __pidataBANK0
psect cinit,class=CODE,delta=2
	fcall	__pidataBANK0+0		;fetch initializer
	movwf	__pdataBANK0+0&07fh		
; Initialize objects allocated to COMMON
	global __pidataCOMMON
psect cinit,class=CODE,delta=2
	fcall	__pidataCOMMON+0		;fetch initializer
	movwf	__pdataCOMMON+0&07fh		
psect cinit,class=CODE,delta=2
global end_of_initialization

;End of C runtime variable initialization code

end_of_initialization:
clrf status
ljmp _main	;jump to C main() function
psect	cstackCOMMON,class=COMMON,space=1
global __pcstackCOMMON
__pcstackCOMMON:
	global	?_lcd_cmd
?_lcd_cmd:	; 0 bytes @ 0x0
	global	?_lcd_data
?_lcd_data:	; 0 bytes @ 0x0
	global	?_lcd_display
?_lcd_display:	; 0 bytes @ 0x0
	global	?_lcd_init
?_lcd_init:	; 0 bytes @ 0x0
	global	?_gps_init
?_gps_init:	; 0 bytes @ 0x0
	global	?_rcx
?_rcx:	; 0 bytes @ 0x0
	global	??_rcx
??_rcx:	; 0 bytes @ 0x0
	global	?_gsm_command
?_gsm_command:	; 0 bytes @ 0x0
	global	?_txs
?_txs:	; 0 bytes @ 0x0
	global	?_sms1
?_sms1:	; 0 bytes @ 0x0
	global	?_sms2
?_sms2:	; 0 bytes @ 0x0
	global	?_serial
?_serial:	; 0 bytes @ 0x0
	global	?_main
?_main:	; 0 bytes @ 0x0
	ds	5
psect	cstackBANK0,class=BANK0,space=1
global __pcstackBANK0
__pcstackBANK0:
	global	?_delay
?_delay:	; 0 bytes @ 0x0
	global	??_gps_init
??_gps_init:	; 0 bytes @ 0x0
	global	??_gsm_command
??_gsm_command:	; 0 bytes @ 0x0
	global	??_txs
??_txs:	; 0 bytes @ 0x0
	global	gsm_command@da
gsm_command@da:	; 1 bytes @ 0x0
	global	txs@val
txs@val:	; 1 bytes @ 0x0
	global	delay@a
delay@a:	; 2 bytes @ 0x0
	ds	1
	global	gsm_command@s
gsm_command@s:	; 2 bytes @ 0x1
	ds	1
	global	??_delay
??_delay:	; 0 bytes @ 0x2
	global	??_lcd_cmd
??_lcd_cmd:	; 0 bytes @ 0x2
	global	??_lcd_data
??_lcd_data:	; 0 bytes @ 0x2
	global	??_serial
??_serial:	; 0 bytes @ 0x2
	ds	1
	global	??_sms2
??_sms2:	; 0 bytes @ 0x3
	global	serial@a
serial@a:	; 1 bytes @ 0x3
	ds	1
	global	lcd_cmd@com
lcd_cmd@com:	; 1 bytes @ 0x4
	global	lcd_data@dat
lcd_data@dat:	; 1 bytes @ 0x4
	global	serial@i
serial@i:	; 1 bytes @ 0x4
	ds	1
	global	??_lcd_display
??_lcd_display:	; 0 bytes @ 0x5
	global	??_lcd_init
??_lcd_init:	; 0 bytes @ 0x5
	global	??_sms1
??_sms1:	; 0 bytes @ 0x5
	global	lcd_display@m
lcd_display@m:	; 1 bytes @ 0x5
	ds	1
	global	lcd_display@k
lcd_display@k:	; 2 bytes @ 0x6
	ds	2
	global	??_main
??_main:	; 0 bytes @ 0x8
;;Data sizes: Strings 38, constant 0, data 2, bss 75, persistent 0 stack 0
;;Auto spaces:   Size  Autos    Used
;; COMMON          14      5      10
;; BANK0           80      8      80
;; BANK1           80      0       0
;; BANK3           96      0       0
;; BANK2           96      0       0

;;
;; Pointer list with targets:

;; serial@a	PTR const unsigned char  size(1) Largest target is 10
;;		 -> STR_6(CODE[10]), STR_5(CODE[3]), 
;;
;; gsm_command@da	PTR const unsigned char  size(1) Largest target is 13
;;		 -> STR_3(CODE[13]), STR_2(CODE[13]), 
;;
;; lcd_display@m	PTR const unsigned char  size(1) Largest target is 8
;;		 -> STR_4(CODE[8]), STR_1(CODE[4]), 
;;


;;
;; Critical Paths under _main in COMMON
;;
;;   None.
;;
;; Critical Paths under _rcx in COMMON
;;
;;   None.
;;
;; Critical Paths under _main in BANK0
;;
;;   _main->_lcd_display
;;   _sms1->_lcd_cmd
;;   _sms1->_lcd_data
;;   _lcd_init->_lcd_cmd
;;   _lcd_display->_lcd_data
;;   _serial->_delay
;;   _sms2->_gsm_command
;;   _lcd_data->_delay
;;   _lcd_cmd->_delay
;;
;; Critical Paths under _rcx in BANK0
;;
;;   None.
;;
;; Critical Paths under _main in BANK1
;;
;;   None.
;;
;; Critical Paths under _rcx in BANK1
;;
;;   None.
;;
;; Critical Paths under _main in BANK3
;;
;;   None.
;;
;; Critical Paths under _rcx in BANK3
;;
;;   None.
;;
;; Critical Paths under _main in BANK2
;;
;;   None.
;;
;; Critical Paths under _rcx in BANK2
;;
;;   None.

;;
;;Main: autosize = 0, tempsize = 0, incstack = 0, save=0
;;

;;
;;Call Graph Tables:
;;
;; ---------------------------------------------------------------------------------
;; (Depth) Function   	        Calls       Base Space   Used Autos Params    Refs
;; ---------------------------------------------------------------------------------
;; (0) _main                                                 0     0      0    1095
;;                           _lcd_init
;;                              _delay
;;                            _lcd_cmd
;;                           _gps_init
;;                        _lcd_display
;;                             _serial
;;                                _txs
;;                               _sms1
;;                               _sms2
;; ---------------------------------------------------------------------------------
;; (1) _sms1                                                 1     1      0     329
;;                                              5 BANK0      1     1      0
;;                                _txs
;;                              _delay
;;                        _gsm_command
;;                            _lcd_cmd
;;                           _lcd_data
;; ---------------------------------------------------------------------------------
;; (1) _lcd_init                                             0     0      0      93
;;                            _lcd_cmd
;; ---------------------------------------------------------------------------------
;; (1) _lcd_display                                          3     3      0     223
;;                                              5 BANK0      3     3      0
;;                           _lcd_data
;; ---------------------------------------------------------------------------------
;; (1) _serial                                               3     3      0     161
;;                                              2 BANK0      3     3      0
;;                              _delay
;; ---------------------------------------------------------------------------------
;; (1) _sms2                                                 0     0      0     143
;;                                _txs
;;                              _delay
;;                        _gsm_command
;; ---------------------------------------------------------------------------------
;; (2) _lcd_data                                             3     3      0      93
;;                                              2 BANK0      3     3      0
;;                              _delay
;; ---------------------------------------------------------------------------------
;; (2) _lcd_cmd                                              3     3      0      93
;;                                              2 BANK0      3     3      0
;;                              _delay
;; ---------------------------------------------------------------------------------
;; (2) _txs                                                  1     1      0      22
;;                                              0 BANK0      1     1      0
;; ---------------------------------------------------------------------------------
;; (3) _gsm_command                                          3     3      0      90
;;                                              0 BANK0      3     3      0
;; ---------------------------------------------------------------------------------
;; (1) _gps_init                                             0     0      0       0
;; ---------------------------------------------------------------------------------
;; (2) _delay                                                2     0      2      31
;;                                              0 BANK0      2     0      2
;; ---------------------------------------------------------------------------------
;; Estimated maximum stack depth 3
;; ---------------------------------------------------------------------------------
;; (Depth) Function   	        Calls       Base Space   Used Autos Params    Refs
;; ---------------------------------------------------------------------------------
;; (4) _rcx                                                  5     5      0       0
;;                                              0 COMMON     5     5      0
;; ---------------------------------------------------------------------------------
;; Estimated maximum stack depth 4
;; ---------------------------------------------------------------------------------

;; Call Graph Graphs:

;; _main (ROOT)
;;   _lcd_init
;;     _lcd_cmd
;;       _delay
;;   _delay
;;   _lcd_cmd
;;     _delay
;;   _gps_init
;;   _lcd_display
;;     _lcd_data
;;       _delay
;;   _serial
;;     _delay
;;   _txs
;;   _sms1
;;     _txs
;;     _delay
;;     _gsm_command
;;     _lcd_cmd
;;       _delay
;;     _lcd_data
;;       _delay
;;   _sms2
;;     _txs
;;     _delay
;;     _gsm_command
;;
;; _rcx (ROOT)
;;

;; Address spaces:

;;Name               Size   Autos  Total    Cost      Usage
;;BANK3               60      0       0       9        0.0%
;;BITBANK3            60      0       0       8        0.0%
;;SFR3                 0      0       0       4        0.0%
;;BITSFR3              0      0       0       4        0.0%
;;BANK2               60      0       0      11        0.0%
;;BITBANK2            60      0       0      10        0.0%
;;SFR2                 0      0       0       5        0.0%
;;BITSFR2              0      0       0       5        0.0%
;;SFR1                 0      0       0       2        0.0%
;;BITSFR1              0      0       0       2        0.0%
;;BANK1               50      0       0       7        0.0%
;;BITBANK1            50      0       0       6        0.0%
;;CODE                 0      0       0       0        0.0%
;;DATA                 0      0      5D      12        0.0%
;;ABS                  0      0      5A       3        0.0%
;;NULL                 0      0       0       0        0.0%
;;STACK                0      0       3       2        0.0%
;;BANK0               50      8      50       5      100.0%
;;BITBANK0            50      0       0       4        0.0%
;;SFR0                 0      0       0       1        0.0%
;;BITSFR0              0      0       0       1        0.0%
;;COMMON               E      5       A       1       71.4%
;;BITCOMMON            E      0       0       0        0.0%
;;EEDATA             100      0       0       0        0.0%

	global	_main
psect	maintext,global,class=CODE,delta=2
global __pmaintext
__pmaintext:

;; *************** function _main *****************
;; Defined at:
;;		line 281 in file "C:\Users\TECH\Desktop\madhu pic folder\gps&gsm\gps and gsm\gps location to gsm\gps location to gsm.c"
;; Parameters:    Size  Location     Type
;;		None
;; Auto vars:     Size  Location     Type
;;		None
;; Return value:  Size  Location     Type
;;		None               void
;; Registers used:
;;		wreg, fsr0l, fsr0h, status,2, status,0, btemp+0, pclath, cstack
;; Tracked objects:
;;		On entry : 17F/0
;;		On exit  : 0/0
;;		Unchanged: 0/0
;; Data sizes:     COMMON   BANK0   BANK1   BANK3   BANK2
;;      Params:         0       0       0       0       0
;;      Locals:         0       0       0       0       0
;;      Temps:          0       0       0       0       0
;;      Totals:         0       0       0       0       0
;;Total ram usage:        0 bytes
;; Hardware stack levels required when called:    4
;; This function calls:
;;		_lcd_init
;;		_delay
;;		_lcd_cmd
;;		_gps_init
;;		_lcd_display
;;		_serial
;;		_txs
;;		_sms1
;;		_sms2
;; This function is called by:
;;		Startup code after reset
;; This function uses a non-reentrant model
;;
psect	maintext
	file	"C:\Users\TECH\Desktop\madhu pic folder\gps&gsm\gps and gsm\gps location to gsm\gps location to gsm.c"
	line	281
	global	__size_of_main
	__size_of_main	equ	__end_of_main-_main
	
_main:	
	opt	stack 8
; Regs used in _main: [wreg-fsr0h+status,2-btemp+0+pclath+cstack]
	line	283
	
l2687:	
;gps location to gsm.c: 283: TRISD=0x00;
	bsf	status, 5	;RP0=1, select bank1
	bcf	status, 6	;RP1=0, select bank1
	clrf	(136)^080h	;volatile
	line	284
;gps location to gsm.c: 284: PORTD=0x00;
	bcf	status, 5	;RP0=0, select bank0
	bcf	status, 6	;RP1=0, select bank0
	clrf	(8)	;volatile
	line	286
;gps location to gsm.c: 286: TRISC=0x00;
	bsf	status, 5	;RP0=1, select bank1
	bcf	status, 6	;RP1=0, select bank1
	clrf	(135)^080h	;volatile
	line	287
;gps location to gsm.c: 287: PORTC=0x00;
	bcf	status, 5	;RP0=0, select bank0
	bcf	status, 6	;RP1=0, select bank0
	clrf	(7)	;volatile
	line	289
	
l2689:	
;gps location to gsm.c: 289: TRISB=0X03;
	movlw	(03h)
	bsf	status, 5	;RP0=1, select bank1
	bcf	status, 6	;RP1=0, select bank1
	movwf	(134)^080h	;volatile
	line	290
	
l2691:	
;gps location to gsm.c: 290: PORTB=0X00;
	bcf	status, 5	;RP0=0, select bank0
	bcf	status, 6	;RP1=0, select bank0
	clrf	(6)	;volatile
	line	292
	
l2693:	
;gps location to gsm.c: 292: lcd_init();
	fcall	_lcd_init
	line	293
	
l2695:	
;gps location to gsm.c: 293: delay(100);
	movlw	low(064h)
	bcf	status, 5	;RP0=0, select bank0
	bcf	status, 6	;RP1=0, select bank0
	movwf	(?_delay)
	movlw	high(064h)
	movwf	((?_delay))+1
	fcall	_delay
	line	295
	
l2697:	
;gps location to gsm.c: 295: TXSTA=0x24;
	movlw	(024h)
	bsf	status, 5	;RP0=1, select bank1
	bcf	status, 6	;RP1=0, select bank1
	movwf	(152)^080h	;volatile
	line	296
	
l2699:	
;gps location to gsm.c: 296: RCSTA=0x90;
	movlw	(090h)
	bcf	status, 5	;RP0=0, select bank0
	bcf	status, 6	;RP1=0, select bank0
	movwf	(24)	;volatile
	line	297
	
l2701:	
;gps location to gsm.c: 297: SPBRG=25;
	movlw	(019h)
	bsf	status, 5	;RP0=1, select bank1
	bcf	status, 6	;RP1=0, select bank1
	movwf	(153)^080h	;volatile
	line	299
	
l2703:	
;gps location to gsm.c: 299: delay(600);
	movlw	low(0258h)
	bcf	status, 5	;RP0=0, select bank0
	bcf	status, 6	;RP1=0, select bank0
	movwf	(?_delay)
	movlw	high(0258h)
	movwf	((?_delay))+1
	fcall	_delay
	line	300
	
l2705:	
;gps location to gsm.c: 300: PEIE=1;
	bsf	(94/8),(94)&7
	line	301
	
l2707:	
;gps location to gsm.c: 301: GIE=1;
	bsf	(95/8),(95)&7
	line	303
	
l2709:	
;gps location to gsm.c: 303: delay(600);
	movlw	low(0258h)
	bcf	status, 5	;RP0=0, select bank0
	bcf	status, 6	;RP1=0, select bank0
	movwf	(?_delay)
	movlw	high(0258h)
	movwf	((?_delay))+1
	fcall	_delay
	line	305
	
l2711:	
;gps location to gsm.c: 305: lcd_cmd(0x01);
	movlw	(01h)
	fcall	_lcd_cmd
	line	306
	
l2713:	
;gps location to gsm.c: 306: lcd_cmd(0x80);
	movlw	(080h)
	fcall	_lcd_cmd
	line	309
	
l2715:	
;gps location to gsm.c: 309: gps_init();
	fcall	_gps_init
	line	310
	
l2717:	
;gps location to gsm.c: 310: delay(50000);
	movlw	low(0C350h)
	bcf	status, 5	;RP0=0, select bank0
	bcf	status, 6	;RP1=0, select bank0
	movwf	(?_delay)
	movlw	high(0C350h)
	movwf	((?_delay))+1
	fcall	_delay
	line	312
	
l2719:	
;gps location to gsm.c: 312: lcd_display("WELCOME");
	movlw	((STR_4-__stringbase))&0ffh
	fcall	_lcd_display
	line	313
	
l2721:	
;gps location to gsm.c: 313: delay(50000);delay(50000);
	movlw	low(0C350h)
	bcf	status, 5	;RP0=0, select bank0
	bcf	status, 6	;RP1=0, select bank0
	movwf	(?_delay)
	movlw	high(0C350h)
	movwf	((?_delay))+1
	fcall	_delay
	
l2723:	
	movlw	low(0C350h)
	bcf	status, 5	;RP0=0, select bank0
	bcf	status, 6	;RP1=0, select bank0
	movwf	(?_delay)
	movlw	high(0C350h)
	movwf	((?_delay))+1
	fcall	_delay
	line	316
	
l2725:	
;gps location to gsm.c: 316: delay(50000);delay(50000);
	movlw	low(0C350h)
	bcf	status, 5	;RP0=0, select bank0
	bcf	status, 6	;RP1=0, select bank0
	movwf	(?_delay)
	movlw	high(0C350h)
	movwf	((?_delay))+1
	fcall	_delay
	
l2727:	
	movlw	low(0C350h)
	bcf	status, 5	;RP0=0, select bank0
	bcf	status, 6	;RP1=0, select bank0
	movwf	(?_delay)
	movlw	high(0C350h)
	movwf	((?_delay))+1
	fcall	_delay
	line	319
;gps location to gsm.c: 319: while(1)
	
l661:	
	line	324
;gps location to gsm.c: 320: {
;gps location to gsm.c: 324: serial("AT");
	movlw	((STR_5-__stringbase))&0ffh
	fcall	_serial
	line	325
	
l2729:	
;gps location to gsm.c: 325: txs(13);delay(60000);delay(60000);
	movlw	(0Dh)
	fcall	_txs
	
l2731:	
	movlw	low(0EA60h)
	bcf	status, 5	;RP0=0, select bank0
	bcf	status, 6	;RP1=0, select bank0
	movwf	(?_delay)
	movlw	high(0EA60h)
	movwf	((?_delay))+1
	fcall	_delay
	
l2733:	
	movlw	low(0EA60h)
	bcf	status, 5	;RP0=0, select bank0
	bcf	status, 6	;RP1=0, select bank0
	movwf	(?_delay)
	movlw	high(0EA60h)
	movwf	((?_delay))+1
	fcall	_delay
	line	326
	
l2735:	
;gps location to gsm.c: 326: txs(10);
	movlw	(0Ah)
	fcall	_txs
	line	327
	
l2737:	
;gps location to gsm.c: 327: delay(10000);
	movlw	low(02710h)
	bcf	status, 5	;RP0=0, select bank0
	bcf	status, 6	;RP1=0, select bank0
	movwf	(?_delay)
	movlw	high(02710h)
	movwf	((?_delay))+1
	fcall	_delay
	line	328
	
l2739:	
;gps location to gsm.c: 328: delay(10000);
	movlw	low(02710h)
	bcf	status, 5	;RP0=0, select bank0
	bcf	status, 6	;RP1=0, select bank0
	movwf	(?_delay)
	movlw	high(02710h)
	movwf	((?_delay))+1
	fcall	_delay
	line	329
;gps location to gsm.c: 329: serial("AT+CMGF=1");
	movlw	((STR_6-__stringbase))&0ffh
	fcall	_serial
	line	330
	
l2741:	
;gps location to gsm.c: 330: txs(13);delay(60000);delay(60000);
	movlw	(0Dh)
	fcall	_txs
	
l2743:	
	movlw	low(0EA60h)
	bcf	status, 5	;RP0=0, select bank0
	bcf	status, 6	;RP1=0, select bank0
	movwf	(?_delay)
	movlw	high(0EA60h)
	movwf	((?_delay))+1
	fcall	_delay
	
l2745:	
	movlw	low(0EA60h)
	bcf	status, 5	;RP0=0, select bank0
	bcf	status, 6	;RP1=0, select bank0
	movwf	(?_delay)
	movlw	high(0EA60h)
	movwf	((?_delay))+1
	fcall	_delay
	line	331
	
l2747:	
;gps location to gsm.c: 331: txs(10);
	movlw	(0Ah)
	fcall	_txs
	line	332
	
l2749:	
;gps location to gsm.c: 332: delay(10000);
	movlw	low(02710h)
	bcf	status, 5	;RP0=0, select bank0
	bcf	status, 6	;RP1=0, select bank0
	movwf	(?_delay)
	movlw	high(02710h)
	movwf	((?_delay))+1
	fcall	_delay
	line	333
	
l2751:	
;gps location to gsm.c: 333: delay(10000);
	movlw	low(02710h)
	bcf	status, 5	;RP0=0, select bank0
	bcf	status, 6	;RP1=0, select bank0
	movwf	(?_delay)
	movlw	high(02710h)
	movwf	((?_delay))+1
	fcall	_delay
	line	334
	
l2753:	
;gps location to gsm.c: 334: sms1();
	fcall	_sms1
	line	335
	
l2755:	
;gps location to gsm.c: 335: sms2();
	fcall	_sms2
	line	338
	
l662:	
	line	319
	goto	l661
	
l663:	
	line	339
	
l664:	
	global	start
	ljmp	start
	opt stack 0
GLOBAL	__end_of_main
	__end_of_main:
;; =============== function _main ends ============

	signat	_main,88
	global	_sms1
psect	text437,local,class=CODE,delta=2
global __ptext437
__ptext437:

;; *************** function _sms1 *****************
;; Defined at:
;;		line 186 in file "C:\Users\TECH\Desktop\madhu pic folder\gps&gsm\gps and gsm\gps location to gsm\gps location to gsm.c"
;; Parameters:    Size  Location     Type
;;		None
;; Auto vars:     Size  Location     Type
;;		None
;; Return value:  Size  Location     Type
;;		None               void
;; Registers used:
;;		wreg, fsr0l, fsr0h, status,2, status,0, btemp+0, pclath, cstack
;; Tracked objects:
;;		On entry : 0/0
;;		On exit  : 0/0
;;		Unchanged: 0/0
;; Data sizes:     COMMON   BANK0   BANK1   BANK3   BANK2
;;      Params:         0       0       0       0       0
;;      Locals:         0       0       0       0       0
;;      Temps:          0       1       0       0       0
;;      Totals:         0       1       0       0       0
;;Total ram usage:        1 bytes
;; Hardware stack levels used:    1
;; Hardware stack levels required when called:    3
;; This function calls:
;;		_txs
;;		_delay
;;		_gsm_command
;;		_lcd_cmd
;;		_lcd_data
;; This function is called by:
;;		_main
;; This function uses a non-reentrant model
;;
psect	text437
	file	"C:\Users\TECH\Desktop\madhu pic folder\gps&gsm\gps and gsm\gps location to gsm\gps location to gsm.c"
	line	186
	global	__size_of_sms1
	__size_of_sms1	equ	__end_of_sms1-_sms1
	
_sms1:	
	opt	stack 7
; Regs used in _sms1: [wreg-fsr0h+status,2-btemp+0+pclath+cstack]
	line	187
	
l2637:	
;gps location to gsm.c: 187: txs('A');txs('T');txs('+');txs('C');txs('M');txs('G');
	movlw	(041h)
	fcall	_txs
	movlw	(054h)
	fcall	_txs
	movlw	(02Bh)
	fcall	_txs
	movlw	(043h)
	fcall	_txs
	movlw	(04Dh)
	fcall	_txs
	movlw	(047h)
	fcall	_txs
	line	188
;gps location to gsm.c: 188: txs('S');txs('=');
	movlw	(053h)
	fcall	_txs
	movlw	(03Dh)
	fcall	_txs
	line	189
;gps location to gsm.c: 189: txs('"');
	movlw	(022h)
	fcall	_txs
	line	190
;gps location to gsm.c: 190: txs('9');txs('7');txs('5');txs('1');txs('5');
	movlw	(039h)
	fcall	_txs
	movlw	(037h)
	fcall	_txs
	movlw	(035h)
	fcall	_txs
	movlw	(031h)
	fcall	_txs
	movlw	(035h)
	fcall	_txs
	line	191
;gps location to gsm.c: 191: txs('0');txs('5');txs('7');txs('0');txs('6');
	movlw	(030h)
	fcall	_txs
	movlw	(035h)
	fcall	_txs
	movlw	(037h)
	fcall	_txs
	movlw	(030h)
	fcall	_txs
	movlw	(036h)
	fcall	_txs
	line	192
;gps location to gsm.c: 192: txs('"');
	movlw	(022h)
	fcall	_txs
	line	193
;gps location to gsm.c: 193: txs(13); delay(10000);txs(10);
	movlw	(0Dh)
	fcall	_txs
	movlw	low(02710h)
	bcf	status, 5	;RP0=0, select bank0
	bcf	status, 6	;RP1=0, select bank0
	movwf	(?_delay)
	movlw	high(02710h)
	movwf	((?_delay))+1
	fcall	_delay
	movlw	(0Ah)
	fcall	_txs
	line	195
;gps location to gsm.c: 195: delay(600);
	movlw	low(0258h)
	bcf	status, 5	;RP0=0, select bank0
	bcf	status, 6	;RP1=0, select bank0
	movwf	(?_delay)
	movlw	high(0258h)
	movwf	((?_delay))+1
	fcall	_delay
	line	196
;gps location to gsm.c: 196: delay(600);
	movlw	low(0258h)
	bcf	status, 5	;RP0=0, select bank0
	bcf	status, 6	;RP1=0, select bank0
	movwf	(?_delay)
	movlw	high(0258h)
	movwf	((?_delay))+1
	fcall	_delay
	line	201
	
l2639:	
;gps location to gsm.c: 201: gsm_command("gps location");
	movlw	((STR_2-__stringbase))&0ffh
	fcall	_gsm_command
	line	203
	
l2641:	
;gps location to gsm.c: 203: if(A>43)
	movlw	high(02Ch)
	subwf	(_A+1),w
	movlw	low(02Ch)
	skipnz
	subwf	(_A),w
	skipc
	goto	u2701
	goto	u2700
u2701:
	goto	l644
u2700:
	line	206
	
l2643:	
;gps location to gsm.c: 204: {
;gps location to gsm.c: 206: lcd_cmd(0x80);
	movlw	(080h)
	fcall	_lcd_cmd
	line	207
	
l2645:	
;gps location to gsm.c: 207: delay(1000);
	movlw	low(03E8h)
	bcf	status, 5	;RP0=0, select bank0
	bcf	status, 6	;RP1=0, select bank0
	movwf	(?_delay)
	movlw	high(03E8h)
	movwf	((?_delay))+1
	fcall	_delay
	line	209
	
l2647:	
;gps location to gsm.c: 209: for(B=16;B<28;B++)
	movlw	low(010h)
	movwf	(_B)
	movlw	high(010h)
	movwf	((_B))+1
	
l2649:	
	movlw	high(01Ch)
	subwf	(_B+1),w
	movlw	low(01Ch)
	skipnz
	subwf	(_B),w
	skipc
	goto	u2711
	goto	u2710
u2711:
	goto	l645
u2710:
	
l2651:	
	goto	l646
	line	210
	
l645:	
	line	212
	
l2653:	
;gps location to gsm.c: 210: {
;gps location to gsm.c: 212: ser=(gpsdata[B]);
	movf	(_B),w
	addlw	_gpsdata&0ffh
	movwf	fsr0
	bcf	status, 7	;select IRP bank0
	movf	indf,w
	bcf	status, 5	;RP0=0, select bank0
	bcf	status, 6	;RP1=0, select bank0
	movwf	(??_sms1+0)+0
	movf	(??_sms1+0)+0,w
	movwf	(_ser)
	line	213
	
l2655:	
;gps location to gsm.c: 213: lcd_data(ser);
	movf	(_ser),w
	fcall	_lcd_data
	line	214
	
l2657:	
;gps location to gsm.c: 214: TXREG=ser;
	movf	(_ser),w
	bcf	status, 5	;RP0=0, select bank0
	bcf	status, 6	;RP1=0, select bank0
	movwf	(25)	;volatile
	line	216
	
l2659:	
;gps location to gsm.c: 216: delay(600);
	movlw	low(0258h)
	movwf	(?_delay)
	movlw	high(0258h)
	movwf	((?_delay))+1
	fcall	_delay
	line	209
	
l2661:	
	movlw	low(01h)
	addwf	(_B),f
	skipnc
	incf	(_B+1),f
	movlw	high(01h)
	addwf	(_B+1),f
	
l2663:	
	movlw	high(01Ch)
	subwf	(_B+1),w
	movlw	low(01Ch)
	skipnz
	subwf	(_B),w
	skipc
	goto	u2721
	goto	u2720
u2721:
	goto	l645
u2720:
	
l646:	
	line	218
	
l2665:	
;gps location to gsm.c: 217: }
;gps location to gsm.c: 218: lcd_cmd(0xc0);
	movlw	(0C0h)
	fcall	_lcd_cmd
	line	220
	
l2667:	
;gps location to gsm.c: 220: for(B=30;B<41;B++)
	movlw	low(01Eh)
	movwf	(_B)
	movlw	high(01Eh)
	movwf	((_B))+1
	
l2669:	
	movlw	high(029h)
	subwf	(_B+1),w
	movlw	low(029h)
	skipnz
	subwf	(_B),w
	skipc
	goto	u2731
	goto	u2730
u2731:
	goto	l647
u2730:
	
l2671:	
	goto	l648
	line	221
	
l647:	
	line	223
	
l2673:	
;gps location to gsm.c: 221: {
;gps location to gsm.c: 223: ser=(gpsdata[B]);
	movf	(_B),w
	addlw	_gpsdata&0ffh
	movwf	fsr0
	bcf	status, 7	;select IRP bank0
	movf	indf,w
	bcf	status, 5	;RP0=0, select bank0
	bcf	status, 6	;RP1=0, select bank0
	movwf	(??_sms1+0)+0
	movf	(??_sms1+0)+0,w
	movwf	(_ser)
	line	224
	
l2675:	
;gps location to gsm.c: 224: lcd_data(ser);
	movf	(_ser),w
	fcall	_lcd_data
	line	225
	
l2677:	
;gps location to gsm.c: 225: TXREG=ser;
	movf	(_ser),w
	bcf	status, 5	;RP0=0, select bank0
	bcf	status, 6	;RP1=0, select bank0
	movwf	(25)	;volatile
	line	227
	
l2679:	
;gps location to gsm.c: 227: delay(600);
	movlw	low(0258h)
	movwf	(?_delay)
	movlw	high(0258h)
	movwf	((?_delay))+1
	fcall	_delay
	line	220
	
l2681:	
	movlw	low(01h)
	addwf	(_B),f
	skipnc
	incf	(_B+1),f
	movlw	high(01h)
	addwf	(_B+1),f
	
l2683:	
	movlw	high(029h)
	subwf	(_B+1),w
	movlw	low(029h)
	skipnz
	subwf	(_B),w
	skipc
	goto	u2741
	goto	u2740
u2741:
	goto	l647
u2740:
	
l648:	
	line	229
	
l644:	
	line	232
	
l2685:	
;gps location to gsm.c: 228: }
;gps location to gsm.c: 229: }
;gps location to gsm.c: 232: delay(600);
	movlw	low(0258h)
	bcf	status, 5	;RP0=0, select bank0
	bcf	status, 6	;RP1=0, select bank0
	movwf	(?_delay)
	movlw	high(0258h)
	movwf	((?_delay))+1
	fcall	_delay
	line	233
;gps location to gsm.c: 233: txs(13);delay(60000);
	movlw	(0Dh)
	fcall	_txs
	movlw	low(0EA60h)
	bcf	status, 5	;RP0=0, select bank0
	bcf	status, 6	;RP1=0, select bank0
	movwf	(?_delay)
	movlw	high(0EA60h)
	movwf	((?_delay))+1
	fcall	_delay
	line	234
;gps location to gsm.c: 234: txs(10);
	movlw	(0Ah)
	fcall	_txs
	line	235
;gps location to gsm.c: 235: delay(10000);
	movlw	low(02710h)
	bcf	status, 5	;RP0=0, select bank0
	bcf	status, 6	;RP1=0, select bank0
	movwf	(?_delay)
	movlw	high(02710h)
	movwf	((?_delay))+1
	fcall	_delay
	line	237
;gps location to gsm.c: 237: txs(26);
	movlw	(01Ah)
	fcall	_txs
	line	238
;gps location to gsm.c: 238: delay(50000);delay(50000);
	movlw	low(0C350h)
	bcf	status, 5	;RP0=0, select bank0
	bcf	status, 6	;RP1=0, select bank0
	movwf	(?_delay)
	movlw	high(0C350h)
	movwf	((?_delay))+1
	fcall	_delay
	movlw	low(0C350h)
	bcf	status, 5	;RP0=0, select bank0
	bcf	status, 6	;RP1=0, select bank0
	movwf	(?_delay)
	movlw	high(0C350h)
	movwf	((?_delay))+1
	fcall	_delay
	line	239
;gps location to gsm.c: 239: delay(50000);delay(50000);
	movlw	low(0C350h)
	bcf	status, 5	;RP0=0, select bank0
	bcf	status, 6	;RP1=0, select bank0
	movwf	(?_delay)
	movlw	high(0C350h)
	movwf	((?_delay))+1
	fcall	_delay
	movlw	low(0C350h)
	bcf	status, 5	;RP0=0, select bank0
	bcf	status, 6	;RP1=0, select bank0
	movwf	(?_delay)
	movlw	high(0C350h)
	movwf	((?_delay))+1
	fcall	_delay
	line	240
	
l649:	
	return
	opt stack 0
GLOBAL	__end_of_sms1
	__end_of_sms1:
;; =============== function _sms1 ends ============

	signat	_sms1,88
	global	_lcd_init
psect	text438,local,class=CODE,delta=2
global __ptext438
__ptext438:

;; *************** function _lcd_init *****************
;; Defined at:
;;		line 62 in file "C:\Users\TECH\Desktop\madhu pic folder\gps&gsm\gps and gsm\gps location to gsm\gps location to gsm.c"
;; Parameters:    Size  Location     Type
;;		None
;; Auto vars:     Size  Location     Type
;;		None
;; Return value:  Size  Location     Type
;;		None               void
;; Registers used:
;;		wreg, status,2, status,0, btemp+0, pclath, cstack
;; Tracked objects:
;;		On entry : 0/0
;;		On exit  : 0/0
;;		Unchanged: 0/0
;; Data sizes:     COMMON   BANK0   BANK1   BANK3   BANK2
;;      Params:         0       0       0       0       0
;;      Locals:         0       0       0       0       0
;;      Temps:          0       0       0       0       0
;;      Totals:         0       0       0       0       0
;;Total ram usage:        0 bytes
;; Hardware stack levels used:    1
;; Hardware stack levels required when called:    3
;; This function calls:
;;		_lcd_cmd
;; This function is called by:
;;		_main
;; This function uses a non-reentrant model
;;
psect	text438
	file	"C:\Users\TECH\Desktop\madhu pic folder\gps&gsm\gps and gsm\gps location to gsm\gps location to gsm.c"
	line	62
	global	__size_of_lcd_init
	__size_of_lcd_init	equ	__end_of_lcd_init-_lcd_init
	
_lcd_init:	
	opt	stack 7
; Regs used in _lcd_init: [wreg+status,2-btemp+0+pclath+cstack]
	line	63
	
l2635:	
;gps location to gsm.c: 63: lcd_cmd(0x02);
	movlw	(02h)
	fcall	_lcd_cmd
	line	64
;gps location to gsm.c: 64: lcd_cmd(0x2c);
	movlw	(02Ch)
	fcall	_lcd_cmd
	line	65
;gps location to gsm.c: 65: lcd_cmd(0x06);
	movlw	(06h)
	fcall	_lcd_cmd
	line	66
;gps location to gsm.c: 66: lcd_cmd(0x01);
	movlw	(01h)
	fcall	_lcd_cmd
	line	67
;gps location to gsm.c: 67: lcd_cmd(0x0c);
	movlw	(0Ch)
	fcall	_lcd_cmd
	line	68
;gps location to gsm.c: 68: lcd_cmd(0x80);
	movlw	(080h)
	fcall	_lcd_cmd
	line	69
	
l609:	
	return
	opt stack 0
GLOBAL	__end_of_lcd_init
	__end_of_lcd_init:
;; =============== function _lcd_init ends ============

	signat	_lcd_init,88
	global	_lcd_display
psect	text439,local,class=CODE,delta=2
global __ptext439
__ptext439:

;; *************** function _lcd_display *****************
;; Defined at:
;;		line 55 in file "C:\Users\TECH\Desktop\madhu pic folder\gps&gsm\gps and gsm\gps location to gsm\gps location to gsm.c"
;; Parameters:    Size  Location     Type
;;  m               1    wreg     PTR const unsigned char 
;;		 -> STR_4(8), STR_1(4), 
;; Auto vars:     Size  Location     Type
;;  m               1    5[BANK0 ] PTR const unsigned char 
;;		 -> STR_4(8), STR_1(4), 
;;  k               2    6[BANK0 ] int 
;; Return value:  Size  Location     Type
;;		None               void
;; Registers used:
;;		wreg, fsr0l, fsr0h, status,2, status,0, btemp+0, pclath, cstack
;; Tracked objects:
;;		On entry : 0/0
;;		On exit  : 0/0
;;		Unchanged: 0/0
;; Data sizes:     COMMON   BANK0   BANK1   BANK3   BANK2
;;      Params:         0       0       0       0       0
;;      Locals:         0       3       0       0       0
;;      Temps:          0       0       0       0       0
;;      Totals:         0       3       0       0       0
;;Total ram usage:        3 bytes
;; Hardware stack levels used:    1
;; Hardware stack levels required when called:    3
;; This function calls:
;;		_lcd_data
;; This function is called by:
;;		_main
;;		_gps_send
;; This function uses a non-reentrant model
;;
psect	text439
	file	"C:\Users\TECH\Desktop\madhu pic folder\gps&gsm\gps and gsm\gps location to gsm\gps location to gsm.c"
	line	55
	global	__size_of_lcd_display
	__size_of_lcd_display	equ	__end_of_lcd_display-_lcd_display
	
_lcd_display:	
	opt	stack 7
; Regs used in _lcd_display: [wreg-fsr0h+status,2-btemp+0+pclath+cstack]
;lcd_display@m stored from wreg
	bcf	status, 5	;RP0=0, select bank0
	bcf	status, 6	;RP1=0, select bank0
	movwf	(lcd_display@m)
	line	56
	
l2627:	
;gps location to gsm.c: 56: for(int k=0;m[k]!=0;k++)
	movlw	low(0)
	movwf	(lcd_display@k)
	movlw	high(0)
	movwf	((lcd_display@k))+1
	goto	l603
	line	57
	
l604:	
	line	58
	
l2629:	
;gps location to gsm.c: 57: {
;gps location to gsm.c: 58: lcd_data(m[k]);
	movf	(lcd_display@k),w
	addwf	(lcd_display@m),w
	movwf	fsr0
	fcall	stringdir
	fcall	_lcd_data
	line	56
	
l2631:	
	movlw	low(01h)
	bcf	status, 5	;RP0=0, select bank0
	bcf	status, 6	;RP1=0, select bank0
	addwf	(lcd_display@k),f
	skipnc
	incf	(lcd_display@k+1),f
	movlw	high(01h)
	addwf	(lcd_display@k+1),f
	
l603:	
	
l2633:	
	movf	(lcd_display@k),w
	addwf	(lcd_display@m),w
	movwf	fsr0
	fcall	stringdir
	iorlw	0
	skipz
	goto	u2691
	goto	u2690
u2691:
	goto	l604
u2690:
	
l605:	
	line	60
	
l606:	
	return
	opt stack 0
GLOBAL	__end_of_lcd_display
	__end_of_lcd_display:
;; =============== function _lcd_display ends ============

	signat	_lcd_display,4216
	global	_serial
psect	text440,local,class=CODE,delta=2
global __ptext440
__ptext440:

;; *************** function _serial *****************
;; Defined at:
;;		line 270 in file "C:\Users\TECH\Desktop\madhu pic folder\gps&gsm\gps and gsm\gps location to gsm\gps location to gsm.c"
;; Parameters:    Size  Location     Type
;;  a               1    wreg     PTR const unsigned char 
;;		 -> STR_6(10), STR_5(3), 
;; Auto vars:     Size  Location     Type
;;  a               1    3[BANK0 ] PTR const unsigned char 
;;		 -> STR_6(10), STR_5(3), 
;;  i               1    4[BANK0 ] unsigned char 
;; Return value:  Size  Location     Type
;;		None               void
;; Registers used:
;;		wreg, fsr0l, fsr0h, status,2, status,0, pclath, cstack
;; Tracked objects:
;;		On entry : 0/0
;;		On exit  : 0/0
;;		Unchanged: 0/0
;; Data sizes:     COMMON   BANK0   BANK1   BANK3   BANK2
;;      Params:         0       0       0       0       0
;;      Locals:         0       2       0       0       0
;;      Temps:          0       1       0       0       0
;;      Totals:         0       3       0       0       0
;;Total ram usage:        3 bytes
;; Hardware stack levels used:    1
;; Hardware stack levels required when called:    2
;; This function calls:
;;		_delay
;; This function is called by:
;;		_main
;; This function uses a non-reentrant model
;;
psect	text440
	file	"C:\Users\TECH\Desktop\madhu pic folder\gps&gsm\gps and gsm\gps location to gsm\gps location to gsm.c"
	line	270
	global	__size_of_serial
	__size_of_serial	equ	__end_of_serial-_serial
	
_serial:	
	opt	stack 7
; Regs used in _serial: [wreg-fsr0h+status,2+status,0+pclath+cstack]
;serial@a stored from wreg
	line	272
	bcf	status, 5	;RP0=0, select bank0
	bcf	status, 6	;RP1=0, select bank0
	movwf	(serial@a)
	
l2617:	
;gps location to gsm.c: 271: unsigned char i;
;gps location to gsm.c: 272: for(i=0;a[i]!=0;i++)
	clrc
	movlw	0
	btfsc	status,0
	movlw	1
	movwf	(serial@i)
	goto	l655
	line	273
	
l656:	
	line	274
	
l2619:	
;gps location to gsm.c: 273: {
;gps location to gsm.c: 274: TXREG=a[i];
	movf	(serial@i),w
	addwf	(serial@a),w
	movwf	fsr0
	fcall	stringdir
	movwf	(25)	;volatile
	line	275
	
l2621:	
;gps location to gsm.c: 275: delay(20000);
	movlw	low(04E20h)
	movwf	(?_delay)
	movlw	high(04E20h)
	movwf	((?_delay))+1
	fcall	_delay
	line	272
	
l2623:	
	movlw	(01h)
	bcf	status, 5	;RP0=0, select bank0
	bcf	status, 6	;RP1=0, select bank0
	movwf	(??_serial+0)+0
	movf	(??_serial+0)+0,w
	addwf	(serial@i),f
	
l655:	
	
l2625:	
	movf	(serial@i),w
	addwf	(serial@a),w
	movwf	fsr0
	fcall	stringdir
	iorlw	0
	skipz
	goto	u2681
	goto	u2680
u2681:
	goto	l656
u2680:
	
l657:	
	line	278
	
l658:	
	return
	opt stack 0
GLOBAL	__end_of_serial
	__end_of_serial:
;; =============== function _serial ends ============

	signat	_serial,4216
	global	_sms2
psect	text441,local,class=CODE,delta=2
global __ptext441
__ptext441:

;; *************** function _sms2 *****************
;; Defined at:
;;		line 244 in file "C:\Users\TECH\Desktop\madhu pic folder\gps&gsm\gps and gsm\gps location to gsm\gps location to gsm.c"
;; Parameters:    Size  Location     Type
;;		None
;; Auto vars:     Size  Location     Type
;;		None
;; Return value:  Size  Location     Type
;;		None               void
;; Registers used:
;;		wreg, fsr0l, fsr0h, status,2, status,0, pclath, cstack
;; Tracked objects:
;;		On entry : 0/0
;;		On exit  : 0/0
;;		Unchanged: 0/0
;; Data sizes:     COMMON   BANK0   BANK1   BANK3   BANK2
;;      Params:         0       0       0       0       0
;;      Locals:         0       0       0       0       0
;;      Temps:          0       0       0       0       0
;;      Totals:         0       0       0       0       0
;;Total ram usage:        0 bytes
;; Hardware stack levels used:    1
;; Hardware stack levels required when called:    3
;; This function calls:
;;		_txs
;;		_delay
;;		_gsm_command
;; This function is called by:
;;		_main
;; This function uses a non-reentrant model
;;
psect	text441
	file	"C:\Users\TECH\Desktop\madhu pic folder\gps&gsm\gps and gsm\gps location to gsm\gps location to gsm.c"
	line	244
	global	__size_of_sms2
	__size_of_sms2	equ	__end_of_sms2-_sms2
	
_sms2:	
	opt	stack 7
; Regs used in _sms2: [wreg-fsr0h+status,2+status,0+pclath+cstack]
	line	245
	
l2593:	
;gps location to gsm.c: 245: txs('A');txs('T');txs('+');txs('C');txs('M');txs('G');
	movlw	(041h)
	fcall	_txs
	movlw	(054h)
	fcall	_txs
	movlw	(02Bh)
	fcall	_txs
	movlw	(043h)
	fcall	_txs
	movlw	(04Dh)
	fcall	_txs
	movlw	(047h)
	fcall	_txs
	line	246
;gps location to gsm.c: 246: txs('S');txs('=');
	movlw	(053h)
	fcall	_txs
	movlw	(03Dh)
	fcall	_txs
	line	247
;gps location to gsm.c: 247: txs('"');
	movlw	(022h)
	fcall	_txs
	line	248
;gps location to gsm.c: 248: txs('8');txs('0');txs('9');txs('8');txs('1');
	movlw	(038h)
	fcall	_txs
	movlw	(030h)
	fcall	_txs
	movlw	(039h)
	fcall	_txs
	movlw	(038h)
	fcall	_txs
	movlw	(031h)
	fcall	_txs
	line	249
;gps location to gsm.c: 249: txs('4');txs('2');txs('0');txs('6');txs('4');
	movlw	(034h)
	fcall	_txs
	movlw	(032h)
	fcall	_txs
	movlw	(030h)
	fcall	_txs
	movlw	(036h)
	fcall	_txs
	movlw	(034h)
	fcall	_txs
	line	250
;gps location to gsm.c: 250: txs('"');
	movlw	(022h)
	fcall	_txs
	line	251
;gps location to gsm.c: 251: txs(13); delay(10000);txs(10);
	movlw	(0Dh)
	fcall	_txs
	movlw	low(02710h)
	bcf	status, 5	;RP0=0, select bank0
	bcf	status, 6	;RP1=0, select bank0
	movwf	(?_delay)
	movlw	high(02710h)
	movwf	((?_delay))+1
	fcall	_delay
	movlw	(0Ah)
	fcall	_txs
	line	253
;gps location to gsm.c: 253: delay(600);
	movlw	low(0258h)
	bcf	status, 5	;RP0=0, select bank0
	bcf	status, 6	;RP1=0, select bank0
	movwf	(?_delay)
	movlw	high(0258h)
	movwf	((?_delay))+1
	fcall	_delay
	line	254
;gps location to gsm.c: 254: delay(600);
	movlw	low(0258h)
	bcf	status, 5	;RP0=0, select bank0
	bcf	status, 6	;RP1=0, select bank0
	movwf	(?_delay)
	movlw	high(0258h)
	movwf	((?_delay))+1
	fcall	_delay
	line	257
	
l2595:	
;gps location to gsm.c: 257: gsm_command("gps location");
	movlw	((STR_3-__stringbase))&0ffh
	fcall	_gsm_command
	line	258
	
l2597:	
;gps location to gsm.c: 258: delay(600);
	movlw	low(0258h)
	bcf	status, 5	;RP0=0, select bank0
	bcf	status, 6	;RP1=0, select bank0
	movwf	(?_delay)
	movlw	high(0258h)
	movwf	((?_delay))+1
	fcall	_delay
	line	259
	
l2599:	
;gps location to gsm.c: 259: txs(13);delay(60000);
	movlw	(0Dh)
	fcall	_txs
	
l2601:	
	movlw	low(0EA60h)
	bcf	status, 5	;RP0=0, select bank0
	bcf	status, 6	;RP1=0, select bank0
	movwf	(?_delay)
	movlw	high(0EA60h)
	movwf	((?_delay))+1
	fcall	_delay
	line	260
	
l2603:	
;gps location to gsm.c: 260: txs(10);
	movlw	(0Ah)
	fcall	_txs
	line	261
	
l2605:	
;gps location to gsm.c: 261: delay(10000);
	movlw	low(02710h)
	bcf	status, 5	;RP0=0, select bank0
	bcf	status, 6	;RP1=0, select bank0
	movwf	(?_delay)
	movlw	high(02710h)
	movwf	((?_delay))+1
	fcall	_delay
	line	263
	
l2607:	
;gps location to gsm.c: 263: txs(26);
	movlw	(01Ah)
	fcall	_txs
	line	264
	
l2609:	
;gps location to gsm.c: 264: delay(50000);delay(50000);
	movlw	low(0C350h)
	bcf	status, 5	;RP0=0, select bank0
	bcf	status, 6	;RP1=0, select bank0
	movwf	(?_delay)
	movlw	high(0C350h)
	movwf	((?_delay))+1
	fcall	_delay
	
l2611:	
	movlw	low(0C350h)
	bcf	status, 5	;RP0=0, select bank0
	bcf	status, 6	;RP1=0, select bank0
	movwf	(?_delay)
	movlw	high(0C350h)
	movwf	((?_delay))+1
	fcall	_delay
	line	265
	
l2613:	
;gps location to gsm.c: 265: delay(50000);delay(50000);
	movlw	low(0C350h)
	bcf	status, 5	;RP0=0, select bank0
	bcf	status, 6	;RP1=0, select bank0
	movwf	(?_delay)
	movlw	high(0C350h)
	movwf	((?_delay))+1
	fcall	_delay
	
l2615:	
	movlw	low(0C350h)
	bcf	status, 5	;RP0=0, select bank0
	bcf	status, 6	;RP1=0, select bank0
	movwf	(?_delay)
	movlw	high(0C350h)
	movwf	((?_delay))+1
	fcall	_delay
	line	266
	
l652:	
	return
	opt stack 0
GLOBAL	__end_of_sms2
	__end_of_sms2:
;; =============== function _sms2 ends ============

	signat	_sms2,88
	global	_lcd_data
psect	text442,local,class=CODE,delta=2
global __ptext442
__ptext442:

;; *************** function _lcd_data *****************
;; Defined at:
;;		line 39 in file "C:\Users\TECH\Desktop\madhu pic folder\gps&gsm\gps and gsm\gps location to gsm\gps location to gsm.c"
;; Parameters:    Size  Location     Type
;;  dat             1    wreg     unsigned char 
;; Auto vars:     Size  Location     Type
;;  dat             1    4[BANK0 ] unsigned char 
;; Return value:  Size  Location     Type
;;		None               void
;; Registers used:
;;		wreg, status,2, status,0, btemp+0, pclath, cstack
;; Tracked objects:
;;		On entry : 0/0
;;		On exit  : 0/0
;;		Unchanged: 0/0
;; Data sizes:     COMMON   BANK0   BANK1   BANK3   BANK2
;;      Params:         0       0       0       0       0
;;      Locals:         0       1       0       0       0
;;      Temps:          0       2       0       0       0
;;      Totals:         0       3       0       0       0
;;Total ram usage:        3 bytes
;; Hardware stack levels used:    1
;; Hardware stack levels required when called:    2
;; This function calls:
;;		_delay
;; This function is called by:
;;		_lcd_display
;;		_sms1
;;		_gps_send
;; This function uses a non-reentrant model
;;
psect	text442
	file	"C:\Users\TECH\Desktop\madhu pic folder\gps&gsm\gps and gsm\gps location to gsm\gps location to gsm.c"
	line	39
	global	__size_of_lcd_data
	__size_of_lcd_data	equ	__end_of_lcd_data-_lcd_data
	
_lcd_data:	
	opt	stack 6
; Regs used in _lcd_data: [wreg+status,2-btemp+0+pclath+cstack]
;lcd_data@dat stored from wreg
	bcf	status, 5	;RP0=0, select bank0
	bcf	status, 6	;RP1=0, select bank0
	movwf	(lcd_data@dat)
	line	40
	
l2567:	
;gps location to gsm.c: 40: PORTD=(dat&0xf0);
	movf	(lcd_data@dat),w
	andlw	0F0h
	movwf	(8)	;volatile
	line	41
	
l2569:	
;gps location to gsm.c: 41: RD1=1;
	bsf	(65/8),(65)&7
	line	42
	
l2571:	
;gps location to gsm.c: 42: RD2=0;
	bcf	(66/8),(66)&7
	line	43
	
l2573:	
;gps location to gsm.c: 43: RD3=1;
	bsf	(67/8),(67)&7
	line	44
	
l2575:	
;gps location to gsm.c: 44: delay(200);
	movlw	low(0C8h)
	movwf	(?_delay)
	movlw	high(0C8h)
	movwf	((?_delay))+1
	fcall	_delay
	line	45
	
l2577:	
;gps location to gsm.c: 45: RD3=0;
	bcf	status, 5	;RP0=0, select bank0
	bcf	status, 6	;RP1=0, select bank0
	bcf	(67/8),(67)&7
	line	46
	
l2579:	
;gps location to gsm.c: 46: temp=dat<<4;
	movf	(lcd_data@dat),w
	movwf	(??_lcd_data+0)+0
	clrf	(??_lcd_data+0)+0+1
	movlw	04h
	movwf	btemp+0
u2675:
	clrc
	rlf	(??_lcd_data+0)+0,f
	rlf	(??_lcd_data+0)+1,f
	decfsz	btemp+0,f
	goto	u2675
	movf	0+(??_lcd_data+0)+0,w
	movwf	(_temp)
	movf	1+(??_lcd_data+0)+0,w
	movwf	(_temp+1)
	line	47
	
l2581:	
;gps location to gsm.c: 47: PORTD=(temp&0xf0);
	movf	(_temp),w
	andlw	0F0h
	movwf	(8)	;volatile
	line	48
	
l2583:	
;gps location to gsm.c: 48: RD1=1;
	bsf	(65/8),(65)&7
	line	49
	
l2585:	
;gps location to gsm.c: 49: RD2=0;
	bcf	(66/8),(66)&7
	line	50
	
l2587:	
;gps location to gsm.c: 50: RD3=1;
	bsf	(67/8),(67)&7
	line	51
	
l2589:	
;gps location to gsm.c: 51: delay(200);
	movlw	low(0C8h)
	movwf	(?_delay)
	movlw	high(0C8h)
	movwf	((?_delay))+1
	fcall	_delay
	line	52
	
l2591:	
;gps location to gsm.c: 52: RD3=0;
	bcf	status, 5	;RP0=0, select bank0
	bcf	status, 6	;RP1=0, select bank0
	bcf	(67/8),(67)&7
	line	53
	
l600:	
	return
	opt stack 0
GLOBAL	__end_of_lcd_data
	__end_of_lcd_data:
;; =============== function _lcd_data ends ============

	signat	_lcd_data,4216
	global	_lcd_cmd
psect	text443,local,class=CODE,delta=2
global __ptext443
__ptext443:

;; *************** function _lcd_cmd *****************
;; Defined at:
;;		line 23 in file "C:\Users\TECH\Desktop\madhu pic folder\gps&gsm\gps and gsm\gps location to gsm\gps location to gsm.c"
;; Parameters:    Size  Location     Type
;;  com             1    wreg     unsigned char 
;; Auto vars:     Size  Location     Type
;;  com             1    4[BANK0 ] unsigned char 
;; Return value:  Size  Location     Type
;;		None               void
;; Registers used:
;;		wreg, status,2, status,0, btemp+0, pclath, cstack
;; Tracked objects:
;;		On entry : 0/0
;;		On exit  : 0/0
;;		Unchanged: 0/0
;; Data sizes:     COMMON   BANK0   BANK1   BANK3   BANK2
;;      Params:         0       0       0       0       0
;;      Locals:         0       1       0       0       0
;;      Temps:          0       2       0       0       0
;;      Totals:         0       3       0       0       0
;;Total ram usage:        3 bytes
;; Hardware stack levels used:    1
;; Hardware stack levels required when called:    2
;; This function calls:
;;		_delay
;; This function is called by:
;;		_lcd_init
;;		_sms1
;;		_main
;;		_gps_send
;; This function uses a non-reentrant model
;;
psect	text443
	file	"C:\Users\TECH\Desktop\madhu pic folder\gps&gsm\gps and gsm\gps location to gsm\gps location to gsm.c"
	line	23
	global	__size_of_lcd_cmd
	__size_of_lcd_cmd	equ	__end_of_lcd_cmd-_lcd_cmd
	
_lcd_cmd:	
	opt	stack 6
; Regs used in _lcd_cmd: [wreg+status,2-btemp+0+pclath+cstack]
;lcd_cmd@com stored from wreg
	bcf	status, 5	;RP0=0, select bank0
	bcf	status, 6	;RP1=0, select bank0
	movwf	(lcd_cmd@com)
	line	24
	
l2541:	
;gps location to gsm.c: 24: PORTD=(com&0xf0);
	movf	(lcd_cmd@com),w
	andlw	0F0h
	movwf	(8)	;volatile
	line	25
	
l2543:	
;gps location to gsm.c: 25: RD1=0;
	bcf	(65/8),(65)&7
	line	26
	
l2545:	
;gps location to gsm.c: 26: RD2=0;
	bcf	(66/8),(66)&7
	line	27
	
l2547:	
;gps location to gsm.c: 27: RD3=1;
	bsf	(67/8),(67)&7
	line	28
	
l2549:	
;gps location to gsm.c: 28: delay(200);
	movlw	low(0C8h)
	movwf	(?_delay)
	movlw	high(0C8h)
	movwf	((?_delay))+1
	fcall	_delay
	line	29
	
l2551:	
;gps location to gsm.c: 29: RD3=0;
	bcf	status, 5	;RP0=0, select bank0
	bcf	status, 6	;RP1=0, select bank0
	bcf	(67/8),(67)&7
	line	30
	
l2553:	
;gps location to gsm.c: 30: temp=com<<4;
	movf	(lcd_cmd@com),w
	movwf	(??_lcd_cmd+0)+0
	clrf	(??_lcd_cmd+0)+0+1
	movlw	04h
	movwf	btemp+0
u2665:
	clrc
	rlf	(??_lcd_cmd+0)+0,f
	rlf	(??_lcd_cmd+0)+1,f
	decfsz	btemp+0,f
	goto	u2665
	movf	0+(??_lcd_cmd+0)+0,w
	movwf	(_temp)
	movf	1+(??_lcd_cmd+0)+0,w
	movwf	(_temp+1)
	line	31
	
l2555:	
;gps location to gsm.c: 31: PORTD=(temp&0xf0);
	movf	(_temp),w
	andlw	0F0h
	movwf	(8)	;volatile
	line	32
	
l2557:	
;gps location to gsm.c: 32: RD1=0;
	bcf	(65/8),(65)&7
	line	33
	
l2559:	
;gps location to gsm.c: 33: RD2=0;
	bcf	(66/8),(66)&7
	line	34
	
l2561:	
;gps location to gsm.c: 34: RD3=1;
	bsf	(67/8),(67)&7
	line	35
	
l2563:	
;gps location to gsm.c: 35: delay(200);
	movlw	low(0C8h)
	movwf	(?_delay)
	movlw	high(0C8h)
	movwf	((?_delay))+1
	fcall	_delay
	line	36
	
l2565:	
;gps location to gsm.c: 36: RD3=0;
	bcf	status, 5	;RP0=0, select bank0
	bcf	status, 6	;RP1=0, select bank0
	bcf	(67/8),(67)&7
	line	37
	
l597:	
	return
	opt stack 0
GLOBAL	__end_of_lcd_cmd
	__end_of_lcd_cmd:
;; =============== function _lcd_cmd ends ============

	signat	_lcd_cmd,4216
	global	_txs
psect	text444,local,class=CODE,delta=2
global __ptext444
__ptext444:

;; *************** function _txs *****************
;; Defined at:
;;		line 177 in file "C:\Users\TECH\Desktop\madhu pic folder\gps&gsm\gps and gsm\gps location to gsm\gps location to gsm.c"
;; Parameters:    Size  Location     Type
;;  val             1    wreg     unsigned char 
;; Auto vars:     Size  Location     Type
;;  val             1    0[BANK0 ] unsigned char 
;; Return value:  Size  Location     Type
;;		None               void
;; Registers used:
;;		wreg
;; Tracked objects:
;;		On entry : 0/0
;;		On exit  : 0/0
;;		Unchanged: 0/0
;; Data sizes:     COMMON   BANK0   BANK1   BANK3   BANK2
;;      Params:         0       0       0       0       0
;;      Locals:         0       1       0       0       0
;;      Temps:          0       0       0       0       0
;;      Totals:         0       1       0       0       0
;;Total ram usage:        1 bytes
;; Hardware stack levels used:    1
;; Hardware stack levels required when called:    1
;; This function calls:
;;		Nothing
;; This function is called by:
;;		_sms1
;;		_sms2
;;		_main
;; This function uses a non-reentrant model
;;
psect	text444
	file	"C:\Users\TECH\Desktop\madhu pic folder\gps&gsm\gps and gsm\gps location to gsm\gps location to gsm.c"
	line	177
	global	__size_of_txs
	__size_of_txs	equ	__end_of_txs-_txs
	
_txs:	
	opt	stack 6
; Regs used in _txs: [wreg]
;txs@val stored from wreg
	bcf	status, 5	;RP0=0, select bank0
	bcf	status, 6	;RP1=0, select bank0
	movwf	(txs@val)
	line	178
	
l2537:	
;gps location to gsm.c: 178: while(!TXIF)
	goto	l638
	
l639:	
	line	180
;gps location to gsm.c: 179: {
	
l638:	
	line	178
	btfss	(100/8),(100)&7
	goto	u2651
	goto	u2650
u2651:
	goto	l639
u2650:
	
l640:	
	line	181
;gps location to gsm.c: 180: }
;gps location to gsm.c: 181: OERR=0;
	bcf	(193/8),(193)&7
	line	182
	
l2539:	
;gps location to gsm.c: 182: TXREG=val;
	movf	(txs@val),w
	movwf	(25)	;volatile
	line	183
	
l641:	
	return
	opt stack 0
GLOBAL	__end_of_txs
	__end_of_txs:
;; =============== function _txs ends ============

	signat	_txs,4216
	global	_gsm_command
psect	text445,local,class=CODE,delta=2
global __ptext445
__ptext445:

;; *************** function _gsm_command *****************
;; Defined at:
;;		line 164 in file "C:\Users\TECH\Desktop\madhu pic folder\gps&gsm\gps and gsm\gps location to gsm\gps location to gsm.c"
;; Parameters:    Size  Location     Type
;;  da              1    wreg     PTR const unsigned char 
;;		 -> STR_3(13), STR_2(13), 
;; Auto vars:     Size  Location     Type
;;  da              1    0[BANK0 ] PTR const unsigned char 
;;		 -> STR_3(13), STR_2(13), 
;;  s               2    1[BANK0 ] unsigned int 
;; Return value:  Size  Location     Type
;;		None               void
;; Registers used:
;;		wreg, fsr0l, fsr0h, status,2, status,0, pclath
;; Tracked objects:
;;		On entry : 0/0
;;		On exit  : 0/0
;;		Unchanged: 0/0
;; Data sizes:     COMMON   BANK0   BANK1   BANK3   BANK2
;;      Params:         0       0       0       0       0
;;      Locals:         0       3       0       0       0
;;      Temps:          0       0       0       0       0
;;      Totals:         0       3       0       0       0
;;Total ram usage:        3 bytes
;; Hardware stack levels used:    2
;; Hardware stack levels required when called:    1
;; This function calls:
;;		Nothing
;; This function is called by:
;;		_sms1
;;		_sms2
;; This function uses a non-reentrant model
;;
psect	text445
	file	"C:\Users\TECH\Desktop\madhu pic folder\gps&gsm\gps and gsm\gps location to gsm\gps location to gsm.c"
	line	164
	global	__size_of_gsm_command
	__size_of_gsm_command	equ	__end_of_gsm_command-_gsm_command
	
_gsm_command:	
	opt	stack 5
; Regs used in _gsm_command: [wreg-fsr0h+status,2+status,0+pclath]
;gsm_command@da stored from wreg
	line	166
	bcf	status, 5	;RP0=0, select bank0
	bcf	status, 6	;RP1=0, select bank0
	movwf	(gsm_command@da)
	
l2529:	
;gps location to gsm.c: 165: unsigned int s;
;gps location to gsm.c: 166: for(s=0;da[s]!=0;s++)
	movlw	low(0)
	movwf	(gsm_command@s)
	movlw	high(0)
	movwf	((gsm_command@s))+1
	goto	l629
	line	167
	
l630:	
	line	168
;gps location to gsm.c: 167: {
;gps location to gsm.c: 168: while(!TXIF)
	goto	l631
	
l632:	
	line	170
;gps location to gsm.c: 169: {
	
l631:	
	line	168
	btfss	(100/8),(100)&7
	goto	u2631
	goto	u2630
u2631:
	goto	l632
u2630:
	
l633:	
	line	171
;gps location to gsm.c: 170: }
;gps location to gsm.c: 171: OERR=0;
	bcf	(193/8),(193)&7
	line	172
	
l2531:	
;gps location to gsm.c: 172: TXREG=da[s];
	movf	(gsm_command@s),w
	addwf	(gsm_command@da),w
	movwf	fsr0
	fcall	stringdir
	movwf	(25)	;volatile
	line	166
	
l2533:	
	movlw	low(01h)
	addwf	(gsm_command@s),f
	skipnc
	incf	(gsm_command@s+1),f
	movlw	high(01h)
	addwf	(gsm_command@s+1),f
	
l629:	
	
l2535:	
	movf	(gsm_command@s),w
	addwf	(gsm_command@da),w
	movwf	fsr0
	fcall	stringdir
	iorlw	0
	skipz
	goto	u2641
	goto	u2640
u2641:
	goto	l630
u2640:
	
l634:	
	line	174
	
l635:	
	return
	opt stack 0
GLOBAL	__end_of_gsm_command
	__end_of_gsm_command:
;; =============== function _gsm_command ends ============

	signat	_gsm_command,4216
	global	_gps_init
psect	text446,local,class=CODE,delta=2
global __ptext446
__ptext446:

;; *************** function _gps_init *****************
;; Defined at:
;;		line 72 in file "C:\Users\TECH\Desktop\madhu pic folder\gps&gsm\gps and gsm\gps location to gsm\gps location to gsm.c"
;; Parameters:    Size  Location     Type
;;		None
;; Auto vars:     Size  Location     Type
;;		None
;; Return value:  Size  Location     Type
;;		None               void
;; Registers used:
;;		wreg
;; Tracked objects:
;;		On entry : 0/0
;;		On exit  : 0/0
;;		Unchanged: 0/0
;; Data sizes:     COMMON   BANK0   BANK1   BANK3   BANK2
;;      Params:         0       0       0       0       0
;;      Locals:         0       0       0       0       0
;;      Temps:          0       0       0       0       0
;;      Totals:         0       0       0       0       0
;;Total ram usage:        0 bytes
;; Hardware stack levels used:    1
;; Hardware stack levels required when called:    1
;; This function calls:
;;		Nothing
;; This function is called by:
;;		_main
;; This function uses a non-reentrant model
;;
psect	text446
	file	"C:\Users\TECH\Desktop\madhu pic folder\gps&gsm\gps and gsm\gps location to gsm\gps location to gsm.c"
	line	72
	global	__size_of_gps_init
	__size_of_gps_init	equ	__end_of_gps_init-_gps_init
	
_gps_init:	
	opt	stack 7
; Regs used in _gps_init: [wreg]
	line	73
	
l2453:	
;gps location to gsm.c: 73: TXSTA=0X24;
	movlw	(024h)
	bsf	status, 5	;RP0=1, select bank1
	bcf	status, 6	;RP1=0, select bank1
	movwf	(152)^080h	;volatile
	line	74
;gps location to gsm.c: 74: RCSTA=0X90;
	movlw	(090h)
	bcf	status, 5	;RP0=0, select bank0
	bcf	status, 6	;RP1=0, select bank0
	movwf	(24)	;volatile
	line	75
;gps location to gsm.c: 75: SPBRG=25;
	movlw	(019h)
	bsf	status, 5	;RP0=1, select bank1
	bcf	status, 6	;RP1=0, select bank1
	movwf	(153)^080h	;volatile
	line	76
	
l2455:	
;gps location to gsm.c: 76: BRGH=1;
	bsf	(1218/8)^080h,(1218)&7
	line	77
	
l2457:	
;gps location to gsm.c: 77: GIE=1;
	bsf	(95/8),(95)&7
	line	78
	
l2459:	
;gps location to gsm.c: 78: PEIE=1;
	bsf	(94/8),(94)&7
	line	79
	
l2461:	
;gps location to gsm.c: 79: RCIE=1;
	bsf	(1125/8)^080h,(1125)&7
	line	81
	
l612:	
	return
	opt stack 0
GLOBAL	__end_of_gps_init
	__end_of_gps_init:
;; =============== function _gps_init ends ============

	signat	_gps_init,88
	global	_delay
psect	text447,local,class=CODE,delta=2
global __ptext447
__ptext447:

;; *************** function _delay *****************
;; Defined at:
;;		line 19 in file "C:\Users\TECH\Desktop\madhu pic folder\gps&gsm\gps and gsm\gps location to gsm\gps location to gsm.c"
;; Parameters:    Size  Location     Type
;;  a               2    0[BANK0 ] unsigned int 
;; Auto vars:     Size  Location     Type
;;		None
;; Return value:  Size  Location     Type
;;		None               void
;; Registers used:
;;		wreg
;; Tracked objects:
;;		On entry : 0/0
;;		On exit  : 0/0
;;		Unchanged: 0/0
;; Data sizes:     COMMON   BANK0   BANK1   BANK3   BANK2
;;      Params:         0       2       0       0       0
;;      Locals:         0       0       0       0       0
;;      Temps:          0       0       0       0       0
;;      Totals:         0       2       0       0       0
;;Total ram usage:        2 bytes
;; Hardware stack levels used:    1
;; Hardware stack levels required when called:    1
;; This function calls:
;;		Nothing
;; This function is called by:
;;		_lcd_cmd
;;		_lcd_data
;;		_sms1
;;		_sms2
;;		_serial
;;		_main
;;		_gps_send
;; This function uses a non-reentrant model
;;
psect	text447
	file	"C:\Users\TECH\Desktop\madhu pic folder\gps&gsm\gps and gsm\gps location to gsm\gps location to gsm.c"
	line	19
	global	__size_of_delay
	__size_of_delay	equ	__end_of_delay-_delay
	
_delay:	
	opt	stack 6
; Regs used in _delay: [wreg]
	line	20
	
l2449:	
;gps location to gsm.c: 20: while(a--);
	goto	l591
	
l592:	
	
l591:	
	
l2451:	
	movlw	low(01h)
	bcf	status, 5	;RP0=0, select bank0
	bcf	status, 6	;RP1=0, select bank0
	subwf	(delay@a),f
	movlw	high(01h)
	skipc
	decf	(delay@a+1),f
	subwf	(delay@a+1),f
	movlw	high(0FFFFh)
	xorwf	((delay@a+1)),w
	skipz
	goto	u2575
	movlw	low(0FFFFh)
	xorwf	((delay@a)),w
u2575:

	skipz
	goto	u2571
	goto	u2570
u2571:
	goto	l592
u2570:
	
l593:	
	line	21
	
l594:	
	return
	opt stack 0
GLOBAL	__end_of_delay
	__end_of_delay:
;; =============== function _delay ends ============

	signat	_delay,4216
	global	_rcx
psect	text448,local,class=CODE,delta=2
global __ptext448
__ptext448:

;; *************** function _rcx *****************
;; Defined at:
;;		line 84 in file "C:\Users\TECH\Desktop\madhu pic folder\gps&gsm\gps and gsm\gps location to gsm\gps location to gsm.c"
;; Parameters:    Size  Location     Type
;;		None
;; Auto vars:     Size  Location     Type
;;		None
;; Return value:  Size  Location     Type
;;		None               void
;; Registers used:
;;		wreg, fsr0l, fsr0h, status,2, status,0
;; Tracked objects:
;;		On entry : 0/0
;;		On exit  : 0/0
;;		Unchanged: 0/0
;; Data sizes:     COMMON   BANK0   BANK1   BANK3   BANK2
;;      Params:         0       0       0       0       0
;;      Locals:         0       0       0       0       0
;;      Temps:          5       0       0       0       0
;;      Totals:         5       0       0       0       0
;;Total ram usage:        5 bytes
;; Hardware stack levels used:    1
;; This function calls:
;;		Nothing
;; This function is called by:
;;		Interrupt level 1
;; This function uses a non-reentrant model
;;
psect	text448
	file	"C:\Users\TECH\Desktop\madhu pic folder\gps&gsm\gps and gsm\gps location to gsm\gps location to gsm.c"
	line	84
	global	__size_of_rcx
	__size_of_rcx	equ	__end_of_rcx-_rcx
	
_rcx:	
	opt	stack 4
; Regs used in _rcx: [wreg-fsr0h+status,2+status,0]
psect	intentry,class=CODE,delta=2
global __pintentry
__pintentry:
global interrupt_function
interrupt_function:
	global saved_w
	saved_w	set	btemp+0
	movwf	saved_w
	movf	status,w
	movwf	(??_rcx+1)
	movf	fsr0,w
	movwf	(??_rcx+2)
	movf	pclath,w
	movwf	(??_rcx+3)
	movf	btemp+1,w
	movwf	(??_rcx+4)
	ljmp	_rcx
psect	text448
	line	86
	
i1l2149:	
;gps location to gsm.c: 86: if(RCIF==1)
	bcf	status, 5	;RP0=0, select bank0
	bcf	status, 6	;RP1=0, select bank0
	btfss	(101/8),(101)&7
	goto	u238_21
	goto	u238_20
u238_21:
	goto	i1l615
u238_20:
	line	89
	
i1l2151:	
;gps location to gsm.c: 87: {
;gps location to gsm.c: 89: RCIF=0;
	bcf	(101/8),(101)&7
	line	90
	
i1l2153:	
;gps location to gsm.c: 90: ser=RCREG;
	movf	(26),w	;volatile
	movwf	(??_rcx+0)+0
	movf	(??_rcx+0)+0,w
	movwf	(_ser)
	line	92
;gps location to gsm.c: 92: if((ser==0x52)&&(st==0x01))
	movf	(_ser),w
	xorlw	052h
	skipz
	goto	u239_21
	goto	u239_20
u239_21:
	goto	i1l616
u239_20:
	
i1l2155:	
	movf	(_st),w
	xorlw	01h
	skipz
	goto	u240_21
	goto	u240_20
u240_21:
	goto	i1l616
u240_20:
	line	94
	
i1l2157:	
;gps location to gsm.c: 93: {
;gps location to gsm.c: 94: data_cap=0x01;
	clrf	(_data_cap)
	bsf	status,0
	rlf	(_data_cap),f
	line	95
	
i1l2159:	
;gps location to gsm.c: 95: st=0x00;
	clrc
	movlw	0
	btfsc	status,0
	movlw	1
	movwf	(_st)
	line	96
	
i1l616:	
	line	97
;gps location to gsm.c: 96: }
;gps location to gsm.c: 97: if((data_cap==0x01)&&(i<45))
	movf	(_data_cap),w
	xorlw	01h
	skipz
	goto	u241_21
	goto	u241_20
u241_21:
	goto	i1l617
u241_20:
	
i1l2161:	
	movlw	high(02Dh)
	subwf	(_i+1),w
	movlw	low(02Dh)
	skipnz
	subwf	(_i),w
	skipnc
	goto	u242_21
	goto	u242_20
u242_21:
	goto	i1l617
u242_20:
	line	99
	
i1l2163:	
;gps location to gsm.c: 98: {
;gps location to gsm.c: 99: gpsdata[A]=ser;
	movf	(_ser),w
	movwf	(??_rcx+0)+0
	movf	(_A),w
	addlw	_gpsdata&0ffh
	movwf	fsr0
	movf	(??_rcx+0)+0,w
	bcf	status, 7	;select IRP bank0
	movwf	indf
	line	100
	
i1l2165:	
;gps location to gsm.c: 100: A=A+1;
	movf	(_A),w
	addlw	low(01h)
	movwf	(_A)
	movf	(_A+1),w
	skipnc
	addlw	1
	addlw	high(01h)
	movwf	1+(_A)
	line	101
	
i1l617:	
	line	102
	
i1l615:	
	line	103
	
i1l618:	
	movf	(??_rcx+4),w
	movwf	btemp+1
	movf	(??_rcx+3),w
	movwf	pclath
	movf	(??_rcx+2),w
	movwf	fsr0
	movf	(??_rcx+1),w
	movwf	status
	swapf	saved_w,f
	swapf	saved_w,w
	retfie
	opt stack 0
GLOBAL	__end_of_rcx
	__end_of_rcx:
;; =============== function _rcx ends ============

	signat	_rcx,88
psect	text449,local,class=CODE,delta=2
global __ptext449
__ptext449:
	global	btemp
	btemp set 07Eh

	DABS	1,126,2	;btemp
	global	wtemp0
	wtemp0 set btemp
	end
