opt subtitle "HI-TECH Software Omniscient Code Generator (Lite mode) build 6446"

opt pagewidth 120

	opt lm

	processor	16F877A
clrc	macro
	bcf	3,0
	endm
clrz	macro
	bcf	3,2
	endm
setc	macro
	bsf	3,0
	endm
setz	macro
	bsf	3,2
	endm
skipc	macro
	btfss	3,0
	endm
skipz	macro
	btfss	3,2
	endm
skipnc	macro
	btfsc	3,0
	endm
skipnz	macro
	btfsc	3,2
	endm
indf	equ	0
indf0	equ	0
pc	equ	2
pcl	equ	2
status	equ	3
fsr	equ	4
fsr0	equ	4
c	equ	1
z	equ	0
pclath	equ	10
	FNROOT	_main
	global	_ADCON0
psect	maintext,global,class=CODE,delta=2
global __pmaintext
__pmaintext:
_ADCON0	set	31
	global	_ADRESH
_ADRESH	set	30
	global	_PORTA
_PORTA	set	5
	global	_PORTD
_PORTD	set	8
	global	_ADON
_ADON	set	248
	global	_CHS0
_CHS0	set	251
	global	_CHS1
_CHS1	set	252
	global	_CHS2
_CHS2	set	253
	global	_ADCON1
_ADCON1	set	159
	global	_ADRESL
_ADRESL	set	158
	global	_TRISA
_TRISA	set	133
	global	_TRISD
_TRISD	set	136
	file	"ADC TEST.as"
	line	#
psect cinit,class=CODE,delta=2
global start_initialization
start_initialization:

psect cinit,class=CODE,delta=2
global end_of_initialization

;End of C runtime variable initialization code

end_of_initialization:
clrf status
ljmp _main	;jump to C main() function
psect	cstackCOMMON,class=COMMON,space=1
global __pcstackCOMMON
__pcstackCOMMON:
	global	?_main
?_main:	; 0 bytes @ 0x0
	global	??_main
??_main:	; 0 bytes @ 0x0
	ds	2
	global	main@temp
main@temp:	; 2 bytes @ 0x2
	ds	2
;;Data sizes: Strings 0, constant 0, data 0, bss 0, persistent 0 stack 0
;;Auto spaces:   Size  Autos    Used
;; COMMON          14      4       4
;; BANK0           80      0       0
;; BANK1           80      0       0
;; BANK3           96      0       0
;; BANK2           96      0       0

;;
;; Pointer list with targets:



;;
;; Critical Paths under _main in COMMON
;;
;;   None.
;;
;; Critical Paths under _main in BANK0
;;
;;   None.
;;
;; Critical Paths under _main in BANK1
;;
;;   None.
;;
;; Critical Paths under _main in BANK3
;;
;;   None.
;;
;; Critical Paths under _main in BANK2
;;
;;   None.

;;
;;Main: autosize = 0, tempsize = 2, incstack = 0, save=0
;;

;;
;;Call Graph Tables:
;;
;; ---------------------------------------------------------------------------------
;; (Depth) Function   	        Calls       Base Space   Used Autos Params    Refs
;; ---------------------------------------------------------------------------------
;; (0) _main                                                 4     4      0      30
;;                                              0 COMMON     4     4      0
;; ---------------------------------------------------------------------------------
;; Estimated maximum stack depth 0
;; ---------------------------------------------------------------------------------

;; Call Graph Graphs:

;; _main (ROOT)
;;

;; Address spaces:

;;Name               Size   Autos  Total    Cost      Usage
;;BITCOMMON            E      0       0       0        0.0%
;;EEDATA             100      0       0       0        0.0%
;;NULL                 0      0       0       0        0.0%
;;CODE                 0      0       0       0        0.0%
;;COMMON               E      4       4       1       28.6%
;;BITSFR0              0      0       0       1        0.0%
;;SFR0                 0      0       0       1        0.0%
;;BITSFR1              0      0       0       2        0.0%
;;SFR1                 0      0       0       2        0.0%
;;STACK                0      0       0       2        0.0%
;;ABS                  0      0       0       3        0.0%
;;BITBANK0            50      0       0       4        0.0%
;;BITSFR3              0      0       0       4        0.0%
;;SFR3                 0      0       0       4        0.0%
;;BANK0               50      0       0       5        0.0%
;;BITSFR2              0      0       0       5        0.0%
;;SFR2                 0      0       0       5        0.0%
;;BITBANK1            50      0       0       6        0.0%
;;BANK1               50      0       0       7        0.0%
;;BITBANK3            60      0       0       8        0.0%
;;BANK3               60      0       0       9        0.0%
;;BITBANK2            60      0       0      10        0.0%
;;BANK2               60      0       0      11        0.0%
;;DATA                 0      0       0      12        0.0%

	global	_main
psect	maintext

;; *************** function _main *****************
;; Defined at:
;;		line 5 in file "C:\Users\TECH\Desktop\madhu pic folder\ADC\ADC TEST\ADC TEST.C"
;; Parameters:    Size  Location     Type
;;		None
;; Auto vars:     Size  Location     Type
;;  temp            2    2[COMMON] unsigned int 
;; Return value:  Size  Location     Type
;;		None               void
;; Registers used:
;;		wreg, status,2, btemp+0
;; Tracked objects:
;;		On entry : 17F/0
;;		On exit  : 0/0
;;		Unchanged: 0/0
;; Data sizes:     COMMON   BANK0   BANK1   BANK3   BANK2
;;      Params:         0       0       0       0       0
;;      Locals:         2       0       0       0       0
;;      Temps:          2       0       0       0       0
;;      Totals:         4       0       0       0       0
;;Total ram usage:        4 bytes
;; This function calls:
;;		Nothing
;; This function is called by:
;;		Startup code after reset
;; This function uses a non-reentrant model
;;
psect	maintext
	file	"C:\Users\TECH\Desktop\madhu pic folder\ADC\ADC TEST\ADC TEST.C"
	line	5
	global	__size_of_main
	__size_of_main	equ	__end_of_main-_main
	
_main:	
	opt	stack 8
; Regs used in _main: [wreg+status,2+btemp+0]
	line	7
	
l931:	
;ADC TEST.C: 6: unsigned int temp;
;ADC TEST.C: 7: ADCON1=0X8E;
	movlw	(08Eh)
	bsf	status, 5	;RP0=1, select bank1
	bcf	status, 6	;RP1=0, select bank1
	movwf	(159)^080h	;volatile
	line	8
;ADC TEST.C: 8: ADCON0=0X40;
	movlw	(040h)
	bcf	status, 5	;RP0=0, select bank0
	bcf	status, 6	;RP1=0, select bank0
	movwf	(31)	;volatile
	line	10
	
l933:	
;ADC TEST.C: 10: TRISD=0X00;
	bsf	status, 5	;RP0=1, select bank1
	bcf	status, 6	;RP1=0, select bank1
	clrf	(136)^080h	;volatile
	line	11
	
l935:	
;ADC TEST.C: 11: PORTD=0X00;
	bcf	status, 5	;RP0=0, select bank0
	bcf	status, 6	;RP1=0, select bank0
	clrf	(8)	;volatile
	line	12
;ADC TEST.C: 12: TRISA=0X01;
	movlw	(01h)
	bsf	status, 5	;RP0=1, select bank1
	bcf	status, 6	;RP1=0, select bank1
	movwf	(133)^080h	;volatile
	line	13
	
l937:	
;ADC TEST.C: 13: PORTA=0X00;
	bcf	status, 5	;RP0=0, select bank0
	bcf	status, 6	;RP1=0, select bank0
	clrf	(5)	;volatile
	line	15
;ADC TEST.C: 15: while(1)
	
l559:	
	line	17
	
l939:	
;ADC TEST.C: 16: {
;ADC TEST.C: 17: CHS2=0;
	bcf	(253/8),(253)&7
	line	18
	
l941:	
;ADC TEST.C: 18: CHS1=0;
	bcf	(252/8),(252)&7
	line	19
	
l943:	
;ADC TEST.C: 19: CHS0=0;
	bcf	(251/8),(251)&7
	line	20
	
l945:	
;ADC TEST.C: 20: ADON=1;
	bsf	(248/8),(248)&7
	line	21
;ADC TEST.C: 21: ADCON0=(ADCON0|0X04);
	movf	(31),w	;volatile
	iorlw	04h
	movwf	(31)	;volatile
	line	22
	
l947:	
;ADC TEST.C: 22: temp=ADRESH<<8;
	movf	(30),w	;volatile
	movwf	(??_main+0)+0
	clrf	(??_main+0)+0+1
	movlw	08h
	movwf	btemp+0
u15:
	clrc
	rlf	(??_main+0)+0,f
	rlf	(??_main+0)+1,f
	decfsz	btemp+0,f
	goto	u15
	movf	0+(??_main+0)+0,w
	movwf	(main@temp)
	movf	1+(??_main+0)+0,w
	movwf	(main@temp+1)
	line	23
	
l949:	
;ADC TEST.C: 23: temp=temp+ADRESL;
	bsf	status, 5	;RP0=1, select bank1
	bcf	status, 6	;RP1=0, select bank1
	movf	(158)^080h,w	;volatile
	addwf	(main@temp),w
	movwf	(main@temp)
	movf	(main@temp+1),w
	skipnc
	incf	(main@temp+1),w
	movwf	((main@temp))+1
	line	24
	
l951:	
;ADC TEST.C: 24: PORTD=temp;
	movf	(main@temp),w
	bcf	status, 5	;RP0=0, select bank0
	bcf	status, 6	;RP1=0, select bank0
	movwf	(8)	;volatile
	line	25
	
l560:	
	line	15
	goto	l559
	
l561:	
	line	26
	
l562:	
	global	start
	ljmp	start
	opt stack 0
GLOBAL	__end_of_main
	__end_of_main:
;; =============== function _main ends ============

	signat	_main,88
psect	maintext
	global	btemp
	btemp set 07Eh

	DABS	1,126,2	;btemp
	global	wtemp0
	wtemp0 set btemp
	end
