opt subtitle "HI-TECH Software Omniscient Code Generator (Lite mode) build 6446"

opt pagewidth 120

	opt lm

	processor	16F877A
clrc	macro
	bcf	3,0
	endm
clrz	macro
	bcf	3,2
	endm
setc	macro
	bsf	3,0
	endm
setz	macro
	bsf	3,2
	endm
skipc	macro
	btfss	3,0
	endm
skipz	macro
	btfss	3,2
	endm
skipnc	macro
	btfsc	3,0
	endm
skipnz	macro
	btfsc	3,2
	endm
indf	equ	0
indf0	equ	0
pc	equ	2
pcl	equ	2
status	equ	3
fsr	equ	4
fsr0	equ	4
c	equ	1
z	equ	0
pclath	equ	10
# 2 "C:\Users\TECH\Desktop\madhu pic folder\new gps &gsm\gps&gsm\gps and gsm\gps location to gsm\gps location to gsm.c"
	psect config,class=CONFIG,delta=2 ;#
# 2 "C:\Users\TECH\Desktop\madhu pic folder\new gps &gsm\gps&gsm\gps and gsm\gps location to gsm\gps location to gsm.c"
	dw 0X3f72 ;#
	FNCALL	_main,_lcd_init
	FNCALL	_main,_delay
	FNCALL	_main,_gps_init
	FNCALL	_main,_lcd_cmd
	FNCALL	_main,_lcd_display
	FNCALL	_main,_gps_send
	FNCALL	_gps_send,_lcd_cmd
	FNCALL	_gps_send,_delay
	FNCALL	_gps_send,_lcd_display
	FNCALL	_gps_send,_lcd_data
	FNCALL	_lcd_init,_lcd_cmd
	FNCALL	_lcd_display,_lcd_data
	FNCALL	_lcd_data,_delay
	FNCALL	_lcd_cmd,_delay
	FNROOT	_main
	FNCALL	intlevel1,_rcx
	global	intlevel1
	FNROOT	intlevel1
	global	_ser
	global	_st
psect	idataBANK0,class=CODE,space=0,delta=2
global __pidataBANK0
__pidataBANK0:
	file	"C:\Users\TECH\Desktop\madhu pic folder\new gps &gsm\gps&gsm\gps and gsm\gps location to gsm\gps location to gsm.c"
	line	14

;initializer for _ser
	retlw	037h

;initializer for _st
	retlw	01h
	global	_gpsdata
	global	_A
	global	_W
	global	_c
	global	_i
	global	_j
	global	_q
	global	_r
	global	_v
	global	_w1
	global	_data_cap
	global	_T
	global	_temp
	global	_PORTB
_PORTB	set	6
	global	_PORTC
_PORTC	set	7
	global	_PORTD
_PORTD	set	8
	global	_RCREG
_RCREG	set	26
	global	_RCSTA
_RCSTA	set	24
	global	_TXREG
_TXREG	set	25
	global	_GIE
_GIE	set	95
	global	_PEIE
_PEIE	set	94
	global	_RCIF
_RCIF	set	101
	global	_RD1
_RD1	set	65
	global	_RD2
_RD2	set	66
	global	_RD3
_RD3	set	67
	global	_SPBRG
_SPBRG	set	153
	global	_TRISB
_TRISB	set	134
	global	_TRISC
_TRISC	set	135
	global	_TRISD
_TRISD	set	136
	global	_TXSTA
_TXSTA	set	152
	global	_BRGH
_BRGH	set	1218
	global	_RCIE
_RCIE	set	1125
psect	strings,class=STRING,delta=2
global __pstrings
__pstrings:
;	global	stringdir,stringtab,__stringbase
stringtab:
;	String table - string pointers are 1 byte each
stringcode:stringdir:
movlw high(stringdir)
movwf pclath
movf fsr,w
incf fsr
	addwf pc
__stringbase:
	retlw	0
psect	strings
	
STR_2:	
	retlw	87	;'W'
	retlw	69	;'E'
	retlw	76	;'L'
	retlw	67	;'C'
	retlw	79	;'O'
	retlw	77	;'M'
	retlw	69	;'E'
	retlw	0
psect	strings
	
STR_1:	
	retlw	103	;'g'
	retlw	112	;'p'
	retlw	115	;'s'
	retlw	0
psect	strings
	file	"gps location to gsm.as"
	line	#
psect cinit,class=CODE,delta=2
global start_initialization
start_initialization:

psect	bssCOMMON,class=COMMON,space=1
global __pbssCOMMON
__pbssCOMMON:
_T:
       ds      2

_temp:
       ds      2

psect	bssBANK0,class=BANK0,space=1
global __pbssBANK0
__pbssBANK0:
_gpsdata:
       ds      50

_A:
       ds      2

_W:
       ds      2

_c:
       ds      2

_i:
       ds      2

_j:
       ds      2

_q:
       ds      2

_r:
       ds      2

_v:
       ds      2

_w1:
       ds      2

_data_cap:
       ds      1

psect	dataBANK0,class=BANK0,space=1
global __pdataBANK0
__pdataBANK0:
	file	"C:\Users\TECH\Desktop\madhu pic folder\new gps &gsm\gps&gsm\gps and gsm\gps location to gsm\gps location to gsm.c"
_ser:
       ds      1

psect	dataBANK0
	file	"C:\Users\TECH\Desktop\madhu pic folder\new gps &gsm\gps&gsm\gps and gsm\gps location to gsm\gps location to gsm.c"
_st:
       ds      1

psect clrtext,class=CODE,delta=2
global clear_ram
;	Called with FSR containing the base address, and
;	W with the last address+1
clear_ram:
	clrwdt			;clear the watchdog before getting into this loop
clrloop:
	clrf	indf		;clear RAM location pointed to by FSR
	incf	fsr,f		;increment pointer
	xorwf	fsr,w		;XOR with final address
	btfsc	status,2	;have we reached the end yet?
	retlw	0		;all done for this memory range, return
	xorwf	fsr,w		;XOR again to restore value
	goto	clrloop		;do the next byte

; Clear objects allocated to COMMON
psect cinit,class=CODE,delta=2
	clrf	((__pbssCOMMON)+0)&07Fh
	clrf	((__pbssCOMMON)+1)&07Fh
	clrf	((__pbssCOMMON)+2)&07Fh
	clrf	((__pbssCOMMON)+3)&07Fh
; Clear objects allocated to BANK0
psect cinit,class=CODE,delta=2
	bcf	status, 7	;select IRP bank0
	movlw	low(__pbssBANK0)
	movwf	fsr
	movlw	low((__pbssBANK0)+045h)
	fcall	clear_ram
; Initialize objects allocated to BANK0
	global __pidataBANK0
psect cinit,class=CODE,delta=2
	fcall	__pidataBANK0+0		;fetch initializer
	movwf	__pdataBANK0+0&07fh		
	fcall	__pidataBANK0+1		;fetch initializer
	movwf	__pdataBANK0+1&07fh		
psect cinit,class=CODE,delta=2
global end_of_initialization

;End of C runtime variable initialization code

end_of_initialization:
clrf status
ljmp _main	;jump to C main() function
psect	cstackCOMMON,class=COMMON,space=1
global __pcstackCOMMON
__pcstackCOMMON:
	global	?_gps_init
?_gps_init:	; 0 bytes @ 0x0
	global	?_lcd_cmd
?_lcd_cmd:	; 0 bytes @ 0x0
	global	?_lcd_data
?_lcd_data:	; 0 bytes @ 0x0
	global	?_lcd_display
?_lcd_display:	; 0 bytes @ 0x0
	global	?_lcd_init
?_lcd_init:	; 0 bytes @ 0x0
	global	?_rcx
?_rcx:	; 0 bytes @ 0x0
	global	??_rcx
??_rcx:	; 0 bytes @ 0x0
	global	?_gps_send
?_gps_send:	; 0 bytes @ 0x0
	global	?_main
?_main:	; 0 bytes @ 0x0
	ds	5
	global	??_delay
??_delay:	; 0 bytes @ 0x5
	global	??_gps_init
??_gps_init:	; 0 bytes @ 0x5
	global	??_lcd_display
??_lcd_display:	; 0 bytes @ 0x5
	global	??_lcd_init
??_lcd_init:	; 0 bytes @ 0x5
	global	??_main
??_main:	; 0 bytes @ 0x5
psect	cstackBANK0,class=BANK0,space=1
global __pcstackBANK0
__pcstackBANK0:
	global	?_delay
?_delay:	; 0 bytes @ 0x0
	global	delay@x
delay@x:	; 2 bytes @ 0x0
	ds	2
	global	??_lcd_cmd
??_lcd_cmd:	; 0 bytes @ 0x2
	global	??_lcd_data
??_lcd_data:	; 0 bytes @ 0x2
	ds	2
	global	lcd_cmd@com
lcd_cmd@com:	; 1 bytes @ 0x4
	global	lcd_data@dat
lcd_data@dat:	; 1 bytes @ 0x4
	ds	1
	global	lcd_display@m
lcd_display@m:	; 1 bytes @ 0x5
	ds	1
	global	lcd_display@k
lcd_display@k:	; 2 bytes @ 0x6
	ds	2
	global	??_gps_send
??_gps_send:	; 0 bytes @ 0x8
	ds	1
;;Data sizes: Strings 12, constant 0, data 2, bss 73, persistent 0 stack 0
;;Auto spaces:   Size  Autos    Used
;; COMMON          14      5       9
;; BANK0           80      9      80
;; BANK1           80      0       0
;; BANK3           96      0       0
;; BANK2           96      0       0

;;
;; Pointer list with targets:

;; lcd_display@m	PTR const unsigned char  size(1) Largest target is 8
;;		 -> STR_2(CODE[8]), STR_1(CODE[4]), 
;;


;;
;; Critical Paths under _main in COMMON
;;
;;   None.
;;
;; Critical Paths under _rcx in COMMON
;;
;;   None.
;;
;; Critical Paths under _main in BANK0
;;
;;   _main->_gps_send
;;   _gps_send->_lcd_display
;;   _lcd_init->_lcd_cmd
;;   _lcd_display->_lcd_data
;;   _lcd_data->_delay
;;   _lcd_cmd->_delay
;;
;; Critical Paths under _rcx in BANK0
;;
;;   None.
;;
;; Critical Paths under _main in BANK1
;;
;;   None.
;;
;; Critical Paths under _rcx in BANK1
;;
;;   None.
;;
;; Critical Paths under _main in BANK3
;;
;;   None.
;;
;; Critical Paths under _rcx in BANK3
;;
;;   None.
;;
;; Critical Paths under _main in BANK2
;;
;;   None.
;;
;; Critical Paths under _rcx in BANK2
;;
;;   None.

;;
;;Main: autosize = 0, tempsize = 0, incstack = 0, save=0
;;

;;
;;Call Graph Tables:
;;
;; ---------------------------------------------------------------------------------
;; (Depth) Function   	        Calls       Base Space   Used Autos Params    Refs
;; ---------------------------------------------------------------------------------
;; (0) _main                                                 0     0      0     880
;;                           _lcd_init
;;                              _delay
;;                           _gps_init
;;                            _lcd_cmd
;;                        _lcd_display
;;                           _gps_send
;; ---------------------------------------------------------------------------------
;; (1) _gps_send                                             1     1      0     440
;;                                              8 BANK0      1     1      0
;;                            _lcd_cmd
;;                              _delay
;;                        _lcd_display
;;                           _lcd_data
;; ---------------------------------------------------------------------------------
;; (1) _lcd_init                                             0     0      0      93
;;                            _lcd_cmd
;; ---------------------------------------------------------------------------------
;; (2) _lcd_display                                          3     3      0     223
;;                                              5 BANK0      3     3      0
;;                           _lcd_data
;; ---------------------------------------------------------------------------------
;; (2) _lcd_data                                             3     3      0      93
;;                                              2 BANK0      3     3      0
;;                              _delay
;; ---------------------------------------------------------------------------------
;; (2) _lcd_cmd                                              3     3      0      93
;;                                              2 BANK0      3     3      0
;;                              _delay
;; ---------------------------------------------------------------------------------
;; (1) _gps_init                                             0     0      0       0
;; ---------------------------------------------------------------------------------
;; (3) _delay                                                2     0      2      31
;;                                              0 BANK0      2     0      2
;; ---------------------------------------------------------------------------------
;; Estimated maximum stack depth 3
;; ---------------------------------------------------------------------------------
;; (Depth) Function   	        Calls       Base Space   Used Autos Params    Refs
;; ---------------------------------------------------------------------------------
;; (5) _rcx                                                  5     5      0       0
;;                                              0 COMMON     5     5      0
;; ---------------------------------------------------------------------------------
;; Estimated maximum stack depth 5
;; ---------------------------------------------------------------------------------

;; Call Graph Graphs:

;; _main (ROOT)
;;   _lcd_init
;;     _lcd_cmd
;;       _delay
;;   _delay
;;   _gps_init
;;   _lcd_cmd
;;     _delay
;;   _lcd_display
;;     _lcd_data
;;       _delay
;;   _gps_send
;;     _lcd_cmd
;;       _delay
;;     _delay
;;     _lcd_display
;;       _lcd_data
;;         _delay
;;     _lcd_data
;;       _delay
;;
;; _rcx (ROOT)
;;

;; Address spaces:

;;Name               Size   Autos  Total    Cost      Usage
;;BANK3               60      0       0       9        0.0%
;;BITBANK3            60      0       0       8        0.0%
;;SFR3                 0      0       0       4        0.0%
;;BITSFR3              0      0       0       4        0.0%
;;BANK2               60      0       0      11        0.0%
;;BITBANK2            60      0       0      10        0.0%
;;SFR2                 0      0       0       5        0.0%
;;BITSFR2              0      0       0       5        0.0%
;;SFR1                 0      0       0       2        0.0%
;;BITSFR1              0      0       0       2        0.0%
;;BANK1               50      0       0       7        0.0%
;;BITBANK1            50      0       0       6        0.0%
;;CODE                 0      0       0       0        0.0%
;;DATA                 0      0      5D      12        0.0%
;;ABS                  0      0      59       3        0.0%
;;NULL                 0      0       0       0        0.0%
;;STACK                0      0       4       2        0.0%
;;BANK0               50      9      50       5      100.0%
;;BITBANK0            50      0       0       4        0.0%
;;SFR0                 0      0       0       1        0.0%
;;BITSFR0              0      0       0       1        0.0%
;;COMMON               E      5       9       1       64.3%
;;BITCOMMON            E      0       0       0        0.0%
;;EEDATA             100      0       0       0        0.0%

	global	_main
psect	maintext,global,class=CODE,delta=2
global __pmaintext
__pmaintext:

;; *************** function _main *****************
;; Defined at:
;;		line 258 in file "C:\Users\TECH\Desktop\madhu pic folder\new gps &gsm\gps&gsm\gps and gsm\gps location to gsm\gps location to gsm.c"
;; Parameters:    Size  Location     Type
;;		None
;; Auto vars:     Size  Location     Type
;;		None
;; Return value:  Size  Location     Type
;;		None               void
;; Registers used:
;;		wreg, fsr0l, fsr0h, status,2, status,0, btemp+0, pclath, cstack
;; Tracked objects:
;;		On entry : 17F/0
;;		On exit  : 0/0
;;		Unchanged: 0/0
;; Data sizes:     COMMON   BANK0   BANK1   BANK3   BANK2
;;      Params:         0       0       0       0       0
;;      Locals:         0       0       0       0       0
;;      Temps:          0       0       0       0       0
;;      Totals:         0       0       0       0       0
;;Total ram usage:        0 bytes
;; Hardware stack levels required when called:    5
;; This function calls:
;;		_lcd_init
;;		_delay
;;		_gps_init
;;		_lcd_cmd
;;		_lcd_display
;;		_gps_send
;; This function is called by:
;;		Startup code after reset
;; This function uses a non-reentrant model
;;
psect	maintext
	file	"C:\Users\TECH\Desktop\madhu pic folder\new gps &gsm\gps&gsm\gps and gsm\gps location to gsm\gps location to gsm.c"
	line	258
	global	__size_of_main
	__size_of_main	equ	__end_of_main-_main
	
_main:	
	opt	stack 8
; Regs used in _main: [wreg-fsr0h+status,2-btemp+0+pclath+cstack]
	line	260
	
l2327:	
;gps location to gsm.c: 260: TRISD=0x00;
	bsf	status, 5	;RP0=1, select bank1
	bcf	status, 6	;RP1=0, select bank1
	clrf	(136)^080h	;volatile
	line	261
;gps location to gsm.c: 261: PORTD=0x00;
	bcf	status, 5	;RP0=0, select bank0
	bcf	status, 6	;RP1=0, select bank0
	clrf	(8)	;volatile
	line	263
;gps location to gsm.c: 263: TRISC=0x00;
	bsf	status, 5	;RP0=1, select bank1
	bcf	status, 6	;RP1=0, select bank1
	clrf	(135)^080h	;volatile
	line	264
;gps location to gsm.c: 264: PORTC=0x00;
	bcf	status, 5	;RP0=0, select bank0
	bcf	status, 6	;RP1=0, select bank0
	clrf	(7)	;volatile
	line	266
	
l2329:	
;gps location to gsm.c: 266: TRISB=0X01;
	movlw	(01h)
	bsf	status, 5	;RP0=1, select bank1
	bcf	status, 6	;RP1=0, select bank1
	movwf	(134)^080h	;volatile
	line	267
	
l2331:	
;gps location to gsm.c: 267: PORTB=0X00;
	bcf	status, 5	;RP0=0, select bank0
	bcf	status, 6	;RP1=0, select bank0
	clrf	(6)	;volatile
	line	269
	
l2333:	
;gps location to gsm.c: 269: lcd_init();
	fcall	_lcd_init
	line	270
	
l2335:	
;gps location to gsm.c: 270: delay(100);
	movlw	low(064h)
	bcf	status, 5	;RP0=0, select bank0
	bcf	status, 6	;RP1=0, select bank0
	movwf	(?_delay)
	movlw	high(064h)
	movwf	((?_delay))+1
	fcall	_delay
	line	272
	
l2337:	
;gps location to gsm.c: 272: gps_init();
	fcall	_gps_init
	line	273
	
l2339:	
;gps location to gsm.c: 273: delay(50000);
	movlw	low(0C350h)
	bcf	status, 5	;RP0=0, select bank0
	bcf	status, 6	;RP1=0, select bank0
	movwf	(?_delay)
	movlw	high(0C350h)
	movwf	((?_delay))+1
	fcall	_delay
	line	275
	
l2341:	
;gps location to gsm.c: 275: lcd_cmd(0x01);
	movlw	(01h)
	fcall	_lcd_cmd
	line	276
	
l2343:	
;gps location to gsm.c: 276: lcd_cmd(0x80);
	movlw	(080h)
	fcall	_lcd_cmd
	line	277
	
l2345:	
;gps location to gsm.c: 277: lcd_display("WELCOME");
	movlw	((STR_2-__stringbase))&0ffh
	fcall	_lcd_display
	line	278
	
l2347:	
;gps location to gsm.c: 278: delay(50000);delay(50000);
	movlw	low(0C350h)
	bcf	status, 5	;RP0=0, select bank0
	bcf	status, 6	;RP1=0, select bank0
	movwf	(?_delay)
	movlw	high(0C350h)
	movwf	((?_delay))+1
	fcall	_delay
	
l2349:	
	movlw	low(0C350h)
	bcf	status, 5	;RP0=0, select bank0
	bcf	status, 6	;RP1=0, select bank0
	movwf	(?_delay)
	movlw	high(0C350h)
	movwf	((?_delay))+1
	fcall	_delay
	line	281
	
l2351:	
;gps location to gsm.c: 281: delay(50000);delay(50000);
	movlw	low(0C350h)
	bcf	status, 5	;RP0=0, select bank0
	bcf	status, 6	;RP1=0, select bank0
	movwf	(?_delay)
	movlw	high(0C350h)
	movwf	((?_delay))+1
	fcall	_delay
	
l2353:	
	movlw	low(0C350h)
	bcf	status, 5	;RP0=0, select bank0
	bcf	status, 6	;RP1=0, select bank0
	movwf	(?_delay)
	movlw	high(0C350h)
	movwf	((?_delay))+1
	fcall	_delay
	line	284
;gps location to gsm.c: 284: while(1)
	
l633:	
	line	287
	
l2355:	
;gps location to gsm.c: 285: {
;gps location to gsm.c: 287: gps_send();
	fcall	_gps_send
	line	309
	
l634:	
	line	284
	goto	l633
	
l635:	
	line	310
	
l636:	
	global	start
	ljmp	start
	opt stack 0
GLOBAL	__end_of_main
	__end_of_main:
;; =============== function _main ends ============

	signat	_main,88
	global	_gps_send
psect	text325,local,class=CODE,delta=2
global __ptext325
__ptext325:

;; *************** function _gps_send *****************
;; Defined at:
;;		line 112 in file "C:\Users\TECH\Desktop\madhu pic folder\new gps &gsm\gps&gsm\gps and gsm\gps location to gsm\gps location to gsm.c"
;; Parameters:    Size  Location     Type
;;		None
;; Auto vars:     Size  Location     Type
;;		None
;; Return value:  Size  Location     Type
;;		None               void
;; Registers used:
;;		wreg, fsr0l, fsr0h, status,2, status,0, btemp+0, pclath, cstack
;; Tracked objects:
;;		On entry : 0/0
;;		On exit  : 0/0
;;		Unchanged: 0/0
;; Data sizes:     COMMON   BANK0   BANK1   BANK3   BANK2
;;      Params:         0       0       0       0       0
;;      Locals:         0       0       0       0       0
;;      Temps:          0       1       0       0       0
;;      Totals:         0       1       0       0       0
;;Total ram usage:        1 bytes
;; Hardware stack levels used:    1
;; Hardware stack levels required when called:    4
;; This function calls:
;;		_lcd_cmd
;;		_delay
;;		_lcd_display
;;		_lcd_data
;; This function is called by:
;;		_main
;; This function uses a non-reentrant model
;;
psect	text325
	file	"C:\Users\TECH\Desktop\madhu pic folder\new gps &gsm\gps&gsm\gps and gsm\gps location to gsm\gps location to gsm.c"
	line	112
	global	__size_of_gps_send
	__size_of_gps_send	equ	__end_of_gps_send-_gps_send
	
_gps_send:	
	opt	stack 7
; Regs used in _gps_send: [wreg-fsr0h+status,2-btemp+0+pclath+cstack]
	line	113
	
l2261:	
;gps location to gsm.c: 113: lcd_cmd(0x01);
	movlw	(01h)
	fcall	_lcd_cmd
	line	114
;gps location to gsm.c: 114: lcd_cmd(0x87);
	movlw	(087h)
	fcall	_lcd_cmd
	line	115
	
l2263:	
;gps location to gsm.c: 115: delay(100);
	movlw	low(064h)
	bcf	status, 5	;RP0=0, select bank0
	bcf	status, 6	;RP1=0, select bank0
	movwf	(?_delay)
	movlw	high(064h)
	movwf	((?_delay))+1
	fcall	_delay
	line	116
	
l2265:	
;gps location to gsm.c: 116: lcd_display("gps");
	movlw	((STR_1-__stringbase))&0ffh
	fcall	_lcd_display
	line	118
	
l2267:	
;gps location to gsm.c: 118: delay(50000);delay(50000);
	movlw	low(0C350h)
	bcf	status, 5	;RP0=0, select bank0
	bcf	status, 6	;RP1=0, select bank0
	movwf	(?_delay)
	movlw	high(0C350h)
	movwf	((?_delay))+1
	fcall	_delay
	
l2269:	
	movlw	low(0C350h)
	bcf	status, 5	;RP0=0, select bank0
	bcf	status, 6	;RP1=0, select bank0
	movwf	(?_delay)
	movlw	high(0C350h)
	movwf	((?_delay))+1
	fcall	_delay
	line	119
	
l2271:	
;gps location to gsm.c: 119: lcd_cmd(0x01);
	movlw	(01h)
	fcall	_lcd_cmd
	line	120
	
l2273:	
;gps location to gsm.c: 120: delay(100);
	movlw	low(064h)
	bcf	status, 5	;RP0=0, select bank0
	bcf	status, 6	;RP1=0, select bank0
	movwf	(?_delay)
	movlw	high(064h)
	movwf	((?_delay))+1
	fcall	_delay
	line	128
	
l2275:	
;gps location to gsm.c: 128: if(i>43)
	movlw	high(02Ch)
	bcf	status, 5	;RP0=0, select bank0
	bcf	status, 6	;RP1=0, select bank0
	subwf	(_i+1),w
	movlw	low(02Ch)
	skipnz
	subwf	(_i),w
	skipc
	goto	u2491
	goto	u2490
u2491:
	goto	l619
u2490:
	line	131
	
l2277:	
;gps location to gsm.c: 129: {
;gps location to gsm.c: 131: lcd_cmd(0x80);
	movlw	(080h)
	fcall	_lcd_cmd
	line	132
	
l2279:	
;gps location to gsm.c: 132: delay(1000);
	movlw	low(03E8h)
	bcf	status, 5	;RP0=0, select bank0
	bcf	status, 6	;RP1=0, select bank0
	movwf	(?_delay)
	movlw	high(03E8h)
	movwf	((?_delay))+1
	fcall	_delay
	line	134
	
l2281:	
;gps location to gsm.c: 134: for(j=16;j<28;j++)
	movlw	low(010h)
	bcf	status, 5	;RP0=0, select bank0
	bcf	status, 6	;RP1=0, select bank0
	movwf	(_j)
	movlw	high(010h)
	movwf	((_j))+1
	
l2283:	
	movlw	high(01Ch)
	subwf	(_j+1),w
	movlw	low(01Ch)
	skipnz
	subwf	(_j),w
	skipc
	goto	u2501
	goto	u2500
u2501:
	goto	l620
u2500:
	
l2285:	
	goto	l621
	line	135
	
l620:	
	line	137
	
l2287:	
;gps location to gsm.c: 135: {
;gps location to gsm.c: 137: ser=(gpsdata[j]);
	movf	(_j),w
	addlw	_gpsdata&0ffh
	movwf	fsr0
	bcf	status, 7	;select IRP bank0
	movf	indf,w
	movwf	(??_gps_send+0)+0
	movf	(??_gps_send+0)+0,w
	movwf	(_ser)
	line	138
	
l2289:	
;gps location to gsm.c: 138: lcd_data(ser);
	movf	(_ser),w
	fcall	_lcd_data
	line	139
	
l2291:	
;gps location to gsm.c: 139: TXREG=ser;
	bcf	status, 5	;RP0=0, select bank0
	bcf	status, 6	;RP1=0, select bank0
	movf	(_ser),w
	movwf	(25)	;volatile
	line	141
	
l2293:	
;gps location to gsm.c: 141: delay(600);
	movlw	low(0258h)
	movwf	(?_delay)
	movlw	high(0258h)
	movwf	((?_delay))+1
	fcall	_delay
	line	134
	
l2295:	
	movlw	low(01h)
	bcf	status, 5	;RP0=0, select bank0
	bcf	status, 6	;RP1=0, select bank0
	addwf	(_j),f
	skipnc
	incf	(_j+1),f
	movlw	high(01h)
	addwf	(_j+1),f
	
l2297:	
	movlw	high(01Ch)
	subwf	(_j+1),w
	movlw	low(01Ch)
	skipnz
	subwf	(_j),w
	skipc
	goto	u2511
	goto	u2510
u2511:
	goto	l620
u2510:
	
l621:	
	line	143
	
l2299:	
;gps location to gsm.c: 142: }
;gps location to gsm.c: 143: lcd_cmd(0xc0);
	movlw	(0C0h)
	fcall	_lcd_cmd
	line	145
	
l2301:	
;gps location to gsm.c: 145: for(j=30;j<41;j++)
	movlw	low(01Eh)
	bcf	status, 5	;RP0=0, select bank0
	bcf	status, 6	;RP1=0, select bank0
	movwf	(_j)
	movlw	high(01Eh)
	movwf	((_j))+1
	
l2303:	
	movlw	high(029h)
	subwf	(_j+1),w
	movlw	low(029h)
	skipnz
	subwf	(_j),w
	skipc
	goto	u2521
	goto	u2520
u2521:
	goto	l622
u2520:
	
l2305:	
	goto	l623
	line	146
	
l622:	
	line	148
	
l2307:	
;gps location to gsm.c: 146: {
;gps location to gsm.c: 148: ser=(gpsdata[j]);
	movf	(_j),w
	addlw	_gpsdata&0ffh
	movwf	fsr0
	bcf	status, 7	;select IRP bank0
	movf	indf,w
	movwf	(??_gps_send+0)+0
	movf	(??_gps_send+0)+0,w
	movwf	(_ser)
	line	149
	
l2309:	
;gps location to gsm.c: 149: lcd_data(ser);
	movf	(_ser),w
	fcall	_lcd_data
	line	150
	
l2311:	
;gps location to gsm.c: 150: TXREG=ser;
	bcf	status, 5	;RP0=0, select bank0
	bcf	status, 6	;RP1=0, select bank0
	movf	(_ser),w
	movwf	(25)	;volatile
	line	152
	
l2313:	
;gps location to gsm.c: 152: delay(600);
	movlw	low(0258h)
	movwf	(?_delay)
	movlw	high(0258h)
	movwf	((?_delay))+1
	fcall	_delay
	line	145
	
l2315:	
	movlw	low(01h)
	bcf	status, 5	;RP0=0, select bank0
	bcf	status, 6	;RP1=0, select bank0
	addwf	(_j),f
	skipnc
	incf	(_j+1),f
	movlw	high(01h)
	addwf	(_j+1),f
	
l2317:	
	movlw	high(029h)
	subwf	(_j+1),w
	movlw	low(029h)
	skipnz
	subwf	(_j),w
	skipc
	goto	u2531
	goto	u2530
u2531:
	goto	l622
u2530:
	
l623:	
	line	155
	
l2319:	
;gps location to gsm.c: 153: }
;gps location to gsm.c: 155: delay(50000);delay(50000);
	movlw	low(0C350h)
	movwf	(?_delay)
	movlw	high(0C350h)
	movwf	((?_delay))+1
	fcall	_delay
	movlw	low(0C350h)
	bcf	status, 5	;RP0=0, select bank0
	bcf	status, 6	;RP1=0, select bank0
	movwf	(?_delay)
	movlw	high(0C350h)
	movwf	((?_delay))+1
	fcall	_delay
	line	156
;gps location to gsm.c: 156: delay(50000);delay(50000);
	movlw	low(0C350h)
	bcf	status, 5	;RP0=0, select bank0
	bcf	status, 6	;RP1=0, select bank0
	movwf	(?_delay)
	movlw	high(0C350h)
	movwf	((?_delay))+1
	fcall	_delay
	movlw	low(0C350h)
	bcf	status, 5	;RP0=0, select bank0
	bcf	status, 6	;RP1=0, select bank0
	movwf	(?_delay)
	movlw	high(0C350h)
	movwf	((?_delay))+1
	fcall	_delay
	line	158
	
l2321:	
;gps location to gsm.c: 158: data_cap=0x00;
	clrc
	movlw	0
	btfsc	status,0
	movlw	1
	bcf	status, 5	;RP0=0, select bank0
	bcf	status, 6	;RP1=0, select bank0
	movwf	(_data_cap)
	line	159
	
l2323:	
;gps location to gsm.c: 159: st=0x01;
	clrf	(_st)
	bsf	status,0
	rlf	(_st),f
	line	160
	
l2325:	
;gps location to gsm.c: 160: i=0x00;
	movlw	low(0)
	movwf	(_i)
	movlw	high(0)
	movwf	((_i))+1
	line	162
;gps location to gsm.c: 162: delay(35000);
	movlw	low(088B8h)
	movwf	(?_delay)
	movlw	high(088B8h)
	movwf	((?_delay))+1
	fcall	_delay
	line	164
	
l619:	
	line	165
	
l624:	
	return
	opt stack 0
GLOBAL	__end_of_gps_send
	__end_of_gps_send:
;; =============== function _gps_send ends ============

	signat	_gps_send,88
	global	_lcd_init
psect	text326,local,class=CODE,delta=2
global __ptext326
__ptext326:

;; *************** function _lcd_init *****************
;; Defined at:
;;		line 75 in file "C:\Users\TECH\Desktop\madhu pic folder\new gps &gsm\gps&gsm\gps and gsm\gps location to gsm\gps location to gsm.c"
;; Parameters:    Size  Location     Type
;;		None
;; Auto vars:     Size  Location     Type
;;		None
;; Return value:  Size  Location     Type
;;		None               void
;; Registers used:
;;		wreg, status,2, status,0, btemp+0, pclath, cstack
;; Tracked objects:
;;		On entry : 0/0
;;		On exit  : 0/0
;;		Unchanged: 0/0
;; Data sizes:     COMMON   BANK0   BANK1   BANK3   BANK2
;;      Params:         0       0       0       0       0
;;      Locals:         0       0       0       0       0
;;      Temps:          0       0       0       0       0
;;      Totals:         0       0       0       0       0
;;Total ram usage:        0 bytes
;; Hardware stack levels used:    1
;; Hardware stack levels required when called:    3
;; This function calls:
;;		_lcd_cmd
;; This function is called by:
;;		_main
;; This function uses a non-reentrant model
;;
psect	text326
	file	"C:\Users\TECH\Desktop\madhu pic folder\new gps &gsm\gps&gsm\gps and gsm\gps location to gsm\gps location to gsm.c"
	line	75
	global	__size_of_lcd_init
	__size_of_lcd_init	equ	__end_of_lcd_init-_lcd_init
	
_lcd_init:	
	opt	stack 7
; Regs used in _lcd_init: [wreg+status,2-btemp+0+pclath+cstack]
	line	76
	
l2259:	
;gps location to gsm.c: 76: lcd_cmd(0x02);
	movlw	(02h)
	fcall	_lcd_cmd
	line	77
;gps location to gsm.c: 77: lcd_cmd(0x2c);
	movlw	(02Ch)
	fcall	_lcd_cmd
	line	78
;gps location to gsm.c: 78: lcd_cmd(0x06);
	movlw	(06h)
	fcall	_lcd_cmd
	line	79
;gps location to gsm.c: 79: lcd_cmd(0x01);
	movlw	(01h)
	fcall	_lcd_cmd
	line	80
;gps location to gsm.c: 80: lcd_cmd(0x0c);
	movlw	(0Ch)
	fcall	_lcd_cmd
	line	81
;gps location to gsm.c: 81: lcd_cmd(0x80);
	movlw	(080h)
	fcall	_lcd_cmd
	line	82
	
l610:	
	return
	opt stack 0
GLOBAL	__end_of_lcd_init
	__end_of_lcd_init:
;; =============== function _lcd_init ends ============

	signat	_lcd_init,88
	global	_lcd_display
psect	text327,local,class=CODE,delta=2
global __ptext327
__ptext327:

;; *************** function _lcd_display *****************
;; Defined at:
;;		line 68 in file "C:\Users\TECH\Desktop\madhu pic folder\new gps &gsm\gps&gsm\gps and gsm\gps location to gsm\gps location to gsm.c"
;; Parameters:    Size  Location     Type
;;  m               1    wreg     PTR const unsigned char 
;;		 -> STR_2(8), STR_1(4), 
;; Auto vars:     Size  Location     Type
;;  m               1    5[BANK0 ] PTR const unsigned char 
;;		 -> STR_2(8), STR_1(4), 
;;  k               2    6[BANK0 ] int 
;; Return value:  Size  Location     Type
;;		None               void
;; Registers used:
;;		wreg, fsr0l, fsr0h, status,2, status,0, btemp+0, pclath, cstack
;; Tracked objects:
;;		On entry : 0/0
;;		On exit  : 0/0
;;		Unchanged: 0/0
;; Data sizes:     COMMON   BANK0   BANK1   BANK3   BANK2
;;      Params:         0       0       0       0       0
;;      Locals:         0       3       0       0       0
;;      Temps:          0       0       0       0       0
;;      Totals:         0       3       0       0       0
;;Total ram usage:        3 bytes
;; Hardware stack levels used:    1
;; Hardware stack levels required when called:    3
;; This function calls:
;;		_lcd_data
;; This function is called by:
;;		_gps_send
;;		_main
;; This function uses a non-reentrant model
;;
psect	text327
	file	"C:\Users\TECH\Desktop\madhu pic folder\new gps &gsm\gps&gsm\gps and gsm\gps location to gsm\gps location to gsm.c"
	line	68
	global	__size_of_lcd_display
	__size_of_lcd_display	equ	__end_of_lcd_display-_lcd_display
	
_lcd_display:	
	opt	stack 6
; Regs used in _lcd_display: [wreg-fsr0h+status,2-btemp+0+pclath+cstack]
;lcd_display@m stored from wreg
	bcf	status, 5	;RP0=0, select bank0
	bcf	status, 6	;RP1=0, select bank0
	movwf	(lcd_display@m)
	line	69
	
l2251:	
;gps location to gsm.c: 69: for(int k=0;m[k]!=0;k++)
	movlw	low(0)
	movwf	(lcd_display@k)
	movlw	high(0)
	movwf	((lcd_display@k))+1
	goto	l604
	line	70
	
l605:	
	line	71
	
l2253:	
;gps location to gsm.c: 70: {
;gps location to gsm.c: 71: lcd_data(m[k]);
	movf	(lcd_display@k),w
	addwf	(lcd_display@m),w
	movwf	fsr0
	fcall	stringdir
	fcall	_lcd_data
	line	69
	
l2255:	
	movlw	low(01h)
	bcf	status, 5	;RP0=0, select bank0
	bcf	status, 6	;RP1=0, select bank0
	addwf	(lcd_display@k),f
	skipnc
	incf	(lcd_display@k+1),f
	movlw	high(01h)
	addwf	(lcd_display@k+1),f
	
l604:	
	
l2257:	
	movf	(lcd_display@k),w
	addwf	(lcd_display@m),w
	movwf	fsr0
	fcall	stringdir
	iorlw	0
	skipz
	goto	u2481
	goto	u2480
u2481:
	goto	l605
u2480:
	
l606:	
	line	73
	
l607:	
	return
	opt stack 0
GLOBAL	__end_of_lcd_display
	__end_of_lcd_display:
;; =============== function _lcd_display ends ============

	signat	_lcd_display,4216
	global	_lcd_data
psect	text328,local,class=CODE,delta=2
global __ptext328
__ptext328:

;; *************** function _lcd_data *****************
;; Defined at:
;;		line 52 in file "C:\Users\TECH\Desktop\madhu pic folder\new gps &gsm\gps&gsm\gps and gsm\gps location to gsm\gps location to gsm.c"
;; Parameters:    Size  Location     Type
;;  dat             1    wreg     unsigned char 
;; Auto vars:     Size  Location     Type
;;  dat             1    4[BANK0 ] unsigned char 
;; Return value:  Size  Location     Type
;;		None               void
;; Registers used:
;;		wreg, status,2, status,0, btemp+0, pclath, cstack
;; Tracked objects:
;;		On entry : 0/0
;;		On exit  : 0/0
;;		Unchanged: 0/0
;; Data sizes:     COMMON   BANK0   BANK1   BANK3   BANK2
;;      Params:         0       0       0       0       0
;;      Locals:         0       1       0       0       0
;;      Temps:          0       2       0       0       0
;;      Totals:         0       3       0       0       0
;;Total ram usage:        3 bytes
;; Hardware stack levels used:    1
;; Hardware stack levels required when called:    2
;; This function calls:
;;		_delay
;; This function is called by:
;;		_lcd_display
;;		_gps_send
;; This function uses a non-reentrant model
;;
psect	text328
	file	"C:\Users\TECH\Desktop\madhu pic folder\new gps &gsm\gps&gsm\gps and gsm\gps location to gsm\gps location to gsm.c"
	line	52
	global	__size_of_lcd_data
	__size_of_lcd_data	equ	__end_of_lcd_data-_lcd_data
	
_lcd_data:	
	opt	stack 6
; Regs used in _lcd_data: [wreg+status,2-btemp+0+pclath+cstack]
;lcd_data@dat stored from wreg
	bcf	status, 5	;RP0=0, select bank0
	bcf	status, 6	;RP1=0, select bank0
	movwf	(lcd_data@dat)
	line	53
	
l2225:	
;gps location to gsm.c: 53: PORTD=(dat&0xf0);
	movf	(lcd_data@dat),w
	andlw	0F0h
	movwf	(8)	;volatile
	line	54
	
l2227:	
;gps location to gsm.c: 54: RD1=1;
	bsf	(65/8),(65)&7
	line	55
	
l2229:	
;gps location to gsm.c: 55: RD2=0;
	bcf	(66/8),(66)&7
	line	56
	
l2231:	
;gps location to gsm.c: 56: RD3=1;
	bsf	(67/8),(67)&7
	line	57
	
l2233:	
;gps location to gsm.c: 57: delay(200);
	movlw	low(0C8h)
	movwf	(?_delay)
	movlw	high(0C8h)
	movwf	((?_delay))+1
	fcall	_delay
	line	58
	
l2235:	
;gps location to gsm.c: 58: RD3=0;
	bcf	status, 5	;RP0=0, select bank0
	bcf	status, 6	;RP1=0, select bank0
	bcf	(67/8),(67)&7
	line	59
	
l2237:	
;gps location to gsm.c: 59: temp=dat<<4;
	movf	(lcd_data@dat),w
	movwf	(??_lcd_data+0)+0
	clrf	(??_lcd_data+0)+0+1
	movlw	04h
	movwf	btemp+0
u2475:
	clrc
	rlf	(??_lcd_data+0)+0,f
	rlf	(??_lcd_data+0)+1,f
	decfsz	btemp+0,f
	goto	u2475
	movf	0+(??_lcd_data+0)+0,w
	movwf	(_temp)
	movf	1+(??_lcd_data+0)+0,w
	movwf	(_temp+1)
	line	60
	
l2239:	
;gps location to gsm.c: 60: PORTD=(temp&0xf0);
	movf	(_temp),w
	andlw	0F0h
	movwf	(8)	;volatile
	line	61
	
l2241:	
;gps location to gsm.c: 61: RD1=1;
	bsf	(65/8),(65)&7
	line	62
	
l2243:	
;gps location to gsm.c: 62: RD2=0;
	bcf	(66/8),(66)&7
	line	63
	
l2245:	
;gps location to gsm.c: 63: RD3=1;
	bsf	(67/8),(67)&7
	line	64
	
l2247:	
;gps location to gsm.c: 64: delay(200);
	movlw	low(0C8h)
	movwf	(?_delay)
	movlw	high(0C8h)
	movwf	((?_delay))+1
	fcall	_delay
	line	65
	
l2249:	
;gps location to gsm.c: 65: RD3=0;
	bcf	status, 5	;RP0=0, select bank0
	bcf	status, 6	;RP1=0, select bank0
	bcf	(67/8),(67)&7
	line	66
	
l601:	
	return
	opt stack 0
GLOBAL	__end_of_lcd_data
	__end_of_lcd_data:
;; =============== function _lcd_data ends ============

	signat	_lcd_data,4216
	global	_lcd_cmd
psect	text329,local,class=CODE,delta=2
global __ptext329
__ptext329:

;; *************** function _lcd_cmd *****************
;; Defined at:
;;		line 36 in file "C:\Users\TECH\Desktop\madhu pic folder\new gps &gsm\gps&gsm\gps and gsm\gps location to gsm\gps location to gsm.c"
;; Parameters:    Size  Location     Type
;;  com             1    wreg     unsigned char 
;; Auto vars:     Size  Location     Type
;;  com             1    4[BANK0 ] unsigned char 
;; Return value:  Size  Location     Type
;;		None               void
;; Registers used:
;;		wreg, status,2, status,0, btemp+0, pclath, cstack
;; Tracked objects:
;;		On entry : 0/0
;;		On exit  : 0/0
;;		Unchanged: 0/0
;; Data sizes:     COMMON   BANK0   BANK1   BANK3   BANK2
;;      Params:         0       0       0       0       0
;;      Locals:         0       1       0       0       0
;;      Temps:          0       2       0       0       0
;;      Totals:         0       3       0       0       0
;;Total ram usage:        3 bytes
;; Hardware stack levels used:    1
;; Hardware stack levels required when called:    2
;; This function calls:
;;		_delay
;; This function is called by:
;;		_lcd_init
;;		_gps_send
;;		_main
;; This function uses a non-reentrant model
;;
psect	text329
	file	"C:\Users\TECH\Desktop\madhu pic folder\new gps &gsm\gps&gsm\gps and gsm\gps location to gsm\gps location to gsm.c"
	line	36
	global	__size_of_lcd_cmd
	__size_of_lcd_cmd	equ	__end_of_lcd_cmd-_lcd_cmd
	
_lcd_cmd:	
	opt	stack 6
; Regs used in _lcd_cmd: [wreg+status,2-btemp+0+pclath+cstack]
;lcd_cmd@com stored from wreg
	bcf	status, 5	;RP0=0, select bank0
	bcf	status, 6	;RP1=0, select bank0
	movwf	(lcd_cmd@com)
	line	37
	
l2199:	
;gps location to gsm.c: 37: PORTD=(com&0xf0);
	movf	(lcd_cmd@com),w
	andlw	0F0h
	movwf	(8)	;volatile
	line	38
	
l2201:	
;gps location to gsm.c: 38: RD1=0;
	bcf	(65/8),(65)&7
	line	39
	
l2203:	
;gps location to gsm.c: 39: RD2=0;
	bcf	(66/8),(66)&7
	line	40
	
l2205:	
;gps location to gsm.c: 40: RD3=1;
	bsf	(67/8),(67)&7
	line	41
	
l2207:	
;gps location to gsm.c: 41: delay(200);
	movlw	low(0C8h)
	movwf	(?_delay)
	movlw	high(0C8h)
	movwf	((?_delay))+1
	fcall	_delay
	line	42
	
l2209:	
;gps location to gsm.c: 42: RD3=0;
	bcf	status, 5	;RP0=0, select bank0
	bcf	status, 6	;RP1=0, select bank0
	bcf	(67/8),(67)&7
	line	43
	
l2211:	
;gps location to gsm.c: 43: temp=com<<4;
	movf	(lcd_cmd@com),w
	movwf	(??_lcd_cmd+0)+0
	clrf	(??_lcd_cmd+0)+0+1
	movlw	04h
	movwf	btemp+0
u2465:
	clrc
	rlf	(??_lcd_cmd+0)+0,f
	rlf	(??_lcd_cmd+0)+1,f
	decfsz	btemp+0,f
	goto	u2465
	movf	0+(??_lcd_cmd+0)+0,w
	movwf	(_temp)
	movf	1+(??_lcd_cmd+0)+0,w
	movwf	(_temp+1)
	line	44
	
l2213:	
;gps location to gsm.c: 44: PORTD=(temp&0xf0);
	movf	(_temp),w
	andlw	0F0h
	movwf	(8)	;volatile
	line	45
	
l2215:	
;gps location to gsm.c: 45: RD1=0;
	bcf	(65/8),(65)&7
	line	46
	
l2217:	
;gps location to gsm.c: 46: RD2=0;
	bcf	(66/8),(66)&7
	line	47
	
l2219:	
;gps location to gsm.c: 47: RD3=1;
	bsf	(67/8),(67)&7
	line	48
	
l2221:	
;gps location to gsm.c: 48: delay(200);
	movlw	low(0C8h)
	movwf	(?_delay)
	movlw	high(0C8h)
	movwf	((?_delay))+1
	fcall	_delay
	line	49
	
l2223:	
;gps location to gsm.c: 49: RD3=0;
	bcf	status, 5	;RP0=0, select bank0
	bcf	status, 6	;RP1=0, select bank0
	bcf	(67/8),(67)&7
	line	50
	
l598:	
	return
	opt stack 0
GLOBAL	__end_of_lcd_cmd
	__end_of_lcd_cmd:
;; =============== function _lcd_cmd ends ============

	signat	_lcd_cmd,4216
	global	_gps_init
psect	text330,local,class=CODE,delta=2
global __ptext330
__ptext330:

;; *************** function _gps_init *****************
;; Defined at:
;;		line 24 in file "C:\Users\TECH\Desktop\madhu pic folder\new gps &gsm\gps&gsm\gps and gsm\gps location to gsm\gps location to gsm.c"
;; Parameters:    Size  Location     Type
;;		None
;; Auto vars:     Size  Location     Type
;;		None
;; Return value:  Size  Location     Type
;;		None               void
;; Registers used:
;;		wreg
;; Tracked objects:
;;		On entry : 0/0
;;		On exit  : 0/0
;;		Unchanged: 0/0
;; Data sizes:     COMMON   BANK0   BANK1   BANK3   BANK2
;;      Params:         0       0       0       0       0
;;      Locals:         0       0       0       0       0
;;      Temps:          0       0       0       0       0
;;      Totals:         0       0       0       0       0
;;Total ram usage:        0 bytes
;; Hardware stack levels used:    1
;; Hardware stack levels required when called:    1
;; This function calls:
;;		Nothing
;; This function is called by:
;;		_main
;; This function uses a non-reentrant model
;;
psect	text330
	file	"C:\Users\TECH\Desktop\madhu pic folder\new gps &gsm\gps&gsm\gps and gsm\gps location to gsm\gps location to gsm.c"
	line	24
	global	__size_of_gps_init
	__size_of_gps_init	equ	__end_of_gps_init-_gps_init
	
_gps_init:	
	opt	stack 7
; Regs used in _gps_init: [wreg]
	line	25
	
l1013:	
;gps location to gsm.c: 25: TXSTA=0X24;
	movlw	(024h)
	bsf	status, 5	;RP0=1, select bank1
	bcf	status, 6	;RP1=0, select bank1
	movwf	(152)^080h	;volatile
	line	26
;gps location to gsm.c: 26: RCSTA=0X90;
	movlw	(090h)
	bcf	status, 5	;RP0=0, select bank0
	bcf	status, 6	;RP1=0, select bank0
	movwf	(24)	;volatile
	line	27
;gps location to gsm.c: 27: SPBRG=25;
	movlw	(019h)
	bsf	status, 5	;RP0=1, select bank1
	bcf	status, 6	;RP1=0, select bank1
	movwf	(153)^080h	;volatile
	line	28
	
l1015:	
;gps location to gsm.c: 28: BRGH=1;
	bsf	(1218/8)^080h,(1218)&7
	line	29
	
l1017:	
;gps location to gsm.c: 29: GIE=1;
	bsf	(95/8),(95)&7
	line	30
	
l1019:	
;gps location to gsm.c: 30: PEIE=1;
	bsf	(94/8),(94)&7
	line	31
	
l1021:	
;gps location to gsm.c: 31: RCIE=1;
	bsf	(1125/8)^080h,(1125)&7
	line	33
	
l595:	
	return
	opt stack 0
GLOBAL	__end_of_gps_init
	__end_of_gps_init:
;; =============== function _gps_init ends ============

	signat	_gps_init,88
	global	_delay
psect	text331,local,class=CODE,delta=2
global __ptext331
__ptext331:

;; *************** function _delay *****************
;; Defined at:
;;		line 19 in file "C:\Users\TECH\Desktop\madhu pic folder\new gps &gsm\gps&gsm\gps and gsm\gps location to gsm\gps location to gsm.c"
;; Parameters:    Size  Location     Type
;;  x               2    0[BANK0 ] unsigned int 
;; Auto vars:     Size  Location     Type
;;		None
;; Return value:  Size  Location     Type
;;		None               void
;; Registers used:
;;		wreg
;; Tracked objects:
;;		On entry : 0/0
;;		On exit  : 0/0
;;		Unchanged: 0/0
;; Data sizes:     COMMON   BANK0   BANK1   BANK3   BANK2
;;      Params:         0       2       0       0       0
;;      Locals:         0       0       0       0       0
;;      Temps:          0       0       0       0       0
;;      Totals:         0       2       0       0       0
;;Total ram usage:        2 bytes
;; Hardware stack levels used:    1
;; Hardware stack levels required when called:    1
;; This function calls:
;;		Nothing
;; This function is called by:
;;		_lcd_cmd
;;		_lcd_data
;;		_gps_send
;;		_main
;;		_serial
;; This function uses a non-reentrant model
;;
psect	text331
	file	"C:\Users\TECH\Desktop\madhu pic folder\new gps &gsm\gps&gsm\gps and gsm\gps location to gsm\gps location to gsm.c"
	line	19
	global	__size_of_delay
	__size_of_delay	equ	__end_of_delay-_delay
	
_delay:	
	opt	stack 5
; Regs used in _delay: [wreg]
	line	20
	
l2185:	
;gps location to gsm.c: 20: while(x--);
	goto	l589
	
l590:	
	
l589:	
	
l2187:	
	movlw	low(01h)
	bcf	status, 5	;RP0=0, select bank0
	bcf	status, 6	;RP1=0, select bank0
	subwf	(delay@x),f
	movlw	high(01h)
	skipc
	decf	(delay@x+1),f
	subwf	(delay@x+1),f
	movlw	high(0FFFFh)
	xorwf	((delay@x+1)),w
	skipz
	goto	u2445
	movlw	low(0FFFFh)
	xorwf	((delay@x)),w
u2445:

	skipz
	goto	u2441
	goto	u2440
u2441:
	goto	l590
u2440:
	
l591:	
	line	21
	
l592:	
	return
	opt stack 0
GLOBAL	__end_of_delay
	__end_of_delay:
;; =============== function _delay ends ============

	signat	_delay,4216
	global	_rcx
psect	text332,local,class=CODE,delta=2
global __ptext332
__ptext332:

;; *************** function _rcx *****************
;; Defined at:
;;		line 86 in file "C:\Users\TECH\Desktop\madhu pic folder\new gps &gsm\gps&gsm\gps and gsm\gps location to gsm\gps location to gsm.c"
;; Parameters:    Size  Location     Type
;;		None
;; Auto vars:     Size  Location     Type
;;		None
;; Return value:  Size  Location     Type
;;		None               void
;; Registers used:
;;		wreg, fsr0l, fsr0h, status,2, status,0
;; Tracked objects:
;;		On entry : 0/0
;;		On exit  : 0/0
;;		Unchanged: 0/0
;; Data sizes:     COMMON   BANK0   BANK1   BANK3   BANK2
;;      Params:         0       0       0       0       0
;;      Locals:         0       0       0       0       0
;;      Temps:          5       0       0       0       0
;;      Totals:         5       0       0       0       0
;;Total ram usage:        5 bytes
;; Hardware stack levels used:    1
;; This function calls:
;;		Nothing
;; This function is called by:
;;		Interrupt level 1
;; This function uses a non-reentrant model
;;
psect	text332
	file	"C:\Users\TECH\Desktop\madhu pic folder\new gps &gsm\gps&gsm\gps and gsm\gps location to gsm\gps location to gsm.c"
	line	86
	global	__size_of_rcx
	__size_of_rcx	equ	__end_of_rcx-_rcx
	
_rcx:	
	opt	stack 3
; Regs used in _rcx: [wreg-fsr0h+status,2+status,0]
psect	intentry,class=CODE,delta=2
global __pintentry
__pintentry:
global interrupt_function
interrupt_function:
	global saved_w
	saved_w	set	btemp+0
	movwf	saved_w
	movf	status,w
	movwf	(??_rcx+1)
	movf	fsr0,w
	movwf	(??_rcx+2)
	movf	pclath,w
	movwf	(??_rcx+3)
	movf	btemp+1,w
	movwf	(??_rcx+4)
	ljmp	_rcx
psect	text332
	line	88
	
i1l1999:	
;gps location to gsm.c: 88: if(RCIF==1)
	bcf	status, 5	;RP0=0, select bank0
	bcf	status, 6	;RP1=0, select bank0
	btfss	(101/8),(101)&7
	goto	u230_21
	goto	u230_20
u230_21:
	goto	i1l613
u230_20:
	line	91
	
i1l2001:	
;gps location to gsm.c: 89: {
;gps location to gsm.c: 91: RCIF=0;
	bcf	(101/8),(101)&7
	line	92
	
i1l2003:	
;gps location to gsm.c: 92: ser=RCREG;
	movf	(26),w	;volatile
	movwf	(??_rcx+0)+0
	movf	(??_rcx+0)+0,w
	movwf	(_ser)
	line	94
;gps location to gsm.c: 94: if((ser==0x52)&&(st==0x01))
	movf	(_ser),w
	xorlw	052h
	skipz
	goto	u231_21
	goto	u231_20
u231_21:
	goto	i1l614
u231_20:
	
i1l2005:	
	movf	(_st),w
	xorlw	01h
	skipz
	goto	u232_21
	goto	u232_20
u232_21:
	goto	i1l614
u232_20:
	line	96
	
i1l2007:	
;gps location to gsm.c: 95: {
;gps location to gsm.c: 96: data_cap=0x01;
	clrf	(_data_cap)
	bsf	status,0
	rlf	(_data_cap),f
	line	97
	
i1l2009:	
;gps location to gsm.c: 97: st=0x00;
	clrc
	movlw	0
	btfsc	status,0
	movlw	1
	movwf	(_st)
	line	98
	
i1l614:	
	line	99
;gps location to gsm.c: 98: }
;gps location to gsm.c: 99: if((data_cap==0x01)&&(i<45))
	movf	(_data_cap),w
	xorlw	01h
	skipz
	goto	u233_21
	goto	u233_20
u233_21:
	goto	i1l615
u233_20:
	
i1l2011:	
	movlw	high(02Dh)
	subwf	(_i+1),w
	movlw	low(02Dh)
	skipnz
	subwf	(_i),w
	skipnc
	goto	u234_21
	goto	u234_20
u234_21:
	goto	i1l615
u234_20:
	line	101
	
i1l2013:	
;gps location to gsm.c: 100: {
;gps location to gsm.c: 101: gpsdata[i]=ser;
	movf	(_ser),w
	movwf	(??_rcx+0)+0
	movf	(_i),w
	addlw	_gpsdata&0ffh
	movwf	fsr0
	movf	(??_rcx+0)+0,w
	bcf	status, 7	;select IRP bank0
	movwf	indf
	line	102
	
i1l2015:	
;gps location to gsm.c: 102: i=i+1;
	movf	(_i),w
	addlw	low(01h)
	movwf	(_i)
	movf	(_i+1),w
	skipnc
	addlw	1
	addlw	high(01h)
	movwf	1+(_i)
	line	103
	
i1l615:	
	line	104
	
i1l613:	
	line	105
	
i1l616:	
	movf	(??_rcx+4),w
	movwf	btemp+1
	movf	(??_rcx+3),w
	movwf	pclath
	movf	(??_rcx+2),w
	movwf	fsr0
	movf	(??_rcx+1),w
	movwf	status
	swapf	saved_w,f
	swapf	saved_w,w
	retfie
	opt stack 0
GLOBAL	__end_of_rcx
	__end_of_rcx:
;; =============== function _rcx ends ============

	signat	_rcx,88
psect	text333,local,class=CODE,delta=2
global __ptext333
__ptext333:
	global	btemp
	btemp set 07Eh

	DABS	1,126,2	;btemp
	global	wtemp0
	wtemp0 set btemp
	end
