

HI-TECH Software PIC LITE Macro Assembler V9.71a build 6446 
                                                                                               Wed Nov 30 15:15:51 2022

HI-TECH Software Omniscient Code Generator (Lite mode) build 6446
     1  0000                     opt subtitle "HI-TECH Software Omniscient Code Generator (Lite mode) build 6446"
     2                           
     3                           opt pagewidth 120
     4                           
     5                           	opt lm
     6                           
     7                           	processor	16F877A
     8                           clrc	macro
     9                           	bcf	3,0
    10  0000                     	endm
    11                           clrz	macro
    12                           	bcf	3,2
    13  0000                     	endm
    14                           setc	macro
    15                           	bsf	3,0
    16  0000                     	endm
    17                           setz	macro
    18                           	bsf	3,2
    19  0000                     	endm
    20                           skipc	macro
    21                           	btfss	3,0
    22  0000                     	endm
    23                           skipz	macro
    24                           	btfss	3,2
    25  0000                     	endm
    26                           skipnc	macro
    27                           	btfsc	3,0
    28  0000                     	endm
    29                           skipnz	macro
    30                           	btfsc	3,2
    31  0000                     	endm
    32  0000                     indf	equ	0
    33  0000                     indf0	equ	0
    34  0002                     pc	equ	2
    35  0002                     pcl	equ	2
    36  0003                     status	equ	3
    37  0004                     fsr	equ	4
    38  0004                     fsr0	equ	4
    39  0001                     c	equ	1
    40  0000                     z	equ	0
    41  000A                     pclath	equ	10
    42                           # 2 "C:\Users\TECH\Desktop\madhu pic folder\ADC\ADC task\8 sensor with lcd value\8 senso
                                 r with lcd value.c"
    43                           	psect config,class=CONFIG,delta=2 ;#
    44                           # 2 "C:\Users\TECH\Desktop\madhu pic folder\ADC\ADC task\8 sensor with lcd value\8 senso
                                 r with lcd value.c"
    45  2007  3F72               	dw 0X3f72 ;#
    46                           	FNCALL	_main,_lcd_init
    47                           	FNCALL	_main,_delay
    48                           	FNCALL	_main,___lwdiv
    49                           	FNCALL	_main,___lwmod
    50                           	FNCALL	_main,___awdiv
    51                           	FNCALL	_main,___awmod
    52                           	FNCALL	_main,_lcd_command
    53                           	FNCALL	_main,_lcd_data
    54                           	FNCALL	_lcd_init,_lcd_command
    55                           	FNCALL	_lcd_data,_delay
    56                           	FNCALL	_lcd_command,_delay
    57                           	FNROOT	_main
    58                           	global	_ADCON0
    59                           psect	text180,local,class=CODE,delta=2
    60                           global __ptext180
    61  0000                     __ptext180:
    62  001F                     _ADCON0	set	31
    63                           	global	_ADRESH
    64  001E                     _ADRESH	set	30
    65                           	global	_PORTA
    66  0005                     _PORTA	set	5
    67                           	global	_PORTC
    68  0007                     _PORTC	set	7
    69                           	global	_PORTD
    70  0008                     _PORTD	set	8
    71                           	global	_ADON
    72  00F8                     _ADON	set	248
    73                           	global	_CHS0
    74  00FB                     _CHS0	set	251
    75                           	global	_CHS1
    76  00FC                     _CHS1	set	252
    77                           	global	_CHS2
    78  00FD                     _CHS2	set	253
    79                           	global	_RC0
    80  0038                     _RC0	set	56
    81                           	global	_RC1
    82  0039                     _RC1	set	57
    83                           	global	_RC2
    84  003A                     _RC2	set	58
    85                           	global	_ADCON1
    86  009F                     _ADCON1	set	159
    87                           	global	_ADRESL
    88  009E                     _ADRESL	set	158
    89                           	global	_TRISA
    90  0085                     _TRISA	set	133
    91                           	global	_TRISC
    92  0087                     _TRISC	set	135
    93                           	global	_TRISD
    94  0088                     _TRISD	set	136
    95                           	file	"8 sensor with lcd value.as"
    96                           	line	#
    97                           psect cinit,class=CODE,delta=2
    98                           global start_initialization
    99  0C8D                     start_initialization:
   100                           
   101                           psect cinit,class=CODE,delta=2
   102                           global end_of_initialization
   103                           
   104                           ;End of C runtime variable initialization code
   105                           
   106  0C8D                     end_of_initialization:
   107  0C8D  0183               clrf status
   108  0C8E  120A  158A  2F66   ljmp _main	;jump to C main() function
   109                           psect	cstackBANK1,class=BANK1,space=1
   110                           global __pcstackBANK1
   111  00A0                     __pcstackBANK1:
   112                           	global	main@D
   113  00A0                     main@D:	; 2 bytes @ 0x0
   114  00A0                     	ds	2
   115                           	global	main@H
   116  00A2                     main@H:	; 2 bytes @ 0x2
   117  00A2                     	ds	2
   118                           	global	main@J
   119  00A4                     main@J:	; 2 bytes @ 0x4
   120  00A4                     	ds	2
   121                           	global	main@N
   122  00A6                     main@N:	; 2 bytes @ 0x6
   123  00A6                     	ds	2
   124                           	global	main@P
   125  00A8                     main@P:	; 2 bytes @ 0x8
   126  00A8                     	ds	2
   127                           	global	main@Y
   128  00AA                     main@Y:	; 2 bytes @ 0xA
   129  00AA                     	ds	2
   130                           	global	main@W
   131  00AC                     main@W:	; 2 bytes @ 0xC
   132  00AC                     	ds	2
   133                           	global	main@temp
   134  00AE                     main@temp:	; 2 bytes @ 0xE
   135  00AE                     	ds	2
   136                           	global	main@temp1
   137  00B0                     main@temp1:	; 2 bytes @ 0x10
   138  00B0                     	ds	2
   139                           	global	main@temp3
   140  00B2                     main@temp3:	; 2 bytes @ 0x12
   141  00B2                     	ds	2
   142                           	global	main@temp4
   143  00B4                     main@temp4:	; 2 bytes @ 0x14
   144  00B4                     	ds	2
   145                           	global	main@temp5
   146  00B6                     main@temp5:	; 2 bytes @ 0x16
   147  00B6                     	ds	2
   148                           	global	main@temp6
   149  00B8                     main@temp6:	; 2 bytes @ 0x18
   150  00B8                     	ds	2
   151                           	global	main@temp7
   152  00BA                     main@temp7:	; 2 bytes @ 0x1A
   153  00BA                     	ds	2
   154                           	global	main@temp8
   155  00BC                     main@temp8:	; 2 bytes @ 0x1C
   156  00BC                     	ds	2
   157                           psect	cstackCOMMON,class=COMMON,space=1
   158                           global __pcstackCOMMON
   159  0070                     __pcstackCOMMON:
   160                           	global	?_delay
   161  0070                     ?_delay:	; 0 bytes @ 0x0
   162                           	global	?_lcd_command
   163  0070                     ?_lcd_command:	; 0 bytes @ 0x0
   164                           	global	?_lcd_init
   165  0070                     ?_lcd_init:	; 0 bytes @ 0x0
   166                           	global	?_lcd_data
   167  0070                     ?_lcd_data:	; 0 bytes @ 0x0
   168                           	global	?_main
   169  0070                     ?_main:	; 0 bytes @ 0x0
   170                           	global	?___lwdiv
   171  0070                     ?___lwdiv:	; 2 bytes @ 0x0
   172                           	global	?___lwmod
   173  0070                     ?___lwmod:	; 2 bytes @ 0x0
   174                           	global	?___awdiv
   175  0070                     ?___awdiv:	; 2 bytes @ 0x0
   176                           	global	?___awmod
   177  0070                     ?___awmod:	; 2 bytes @ 0x0
   178                           	global	delay@x
   179  0070                     delay@x:	; 2 bytes @ 0x0
   180                           	global	___lwdiv@divisor
   181  0070                     ___lwdiv@divisor:	; 2 bytes @ 0x0
   182                           	global	___lwmod@divisor
   183  0070                     ___lwmod@divisor:	; 2 bytes @ 0x0
   184                           	global	___awdiv@divisor
   185  0070                     ___awdiv@divisor:	; 2 bytes @ 0x0
   186                           	global	___awmod@divisor
   187  0070                     ___awmod@divisor:	; 2 bytes @ 0x0
   188  0070                     	ds	2
   189                           	global	??_delay
   190  0072                     ??_delay:	; 0 bytes @ 0x2
   191                           	global	??_lcd_command
   192  0072                     ??_lcd_command:	; 0 bytes @ 0x2
   193                           	global	??_lcd_data
   194  0072                     ??_lcd_data:	; 0 bytes @ 0x2
   195                           	global	lcd_command@com
   196  0072                     lcd_command@com:	; 1 bytes @ 0x2
   197                           	global	lcd_data@data
   198  0072                     lcd_data@data:	; 1 bytes @ 0x2
   199                           	global	___lwdiv@dividend
   200  0072                     ___lwdiv@dividend:	; 2 bytes @ 0x2
   201                           	global	___lwmod@dividend
   202  0072                     ___lwmod@dividend:	; 2 bytes @ 0x2
   203                           	global	___awdiv@dividend
   204  0072                     ___awdiv@dividend:	; 2 bytes @ 0x2
   205                           	global	___awmod@dividend
   206  0072                     ___awmod@dividend:	; 2 bytes @ 0x2
   207  0072                     	ds	1
   208                           	global	??_lcd_init
   209  0073                     ??_lcd_init:	; 0 bytes @ 0x3
   210  0073                     	ds	1
   211                           	global	??___lwdiv
   212  0074                     ??___lwdiv:	; 0 bytes @ 0x4
   213                           	global	??___lwmod
   214  0074                     ??___lwmod:	; 0 bytes @ 0x4
   215                           	global	??___awdiv
   216  0074                     ??___awdiv:	; 0 bytes @ 0x4
   217                           	global	??___awmod
   218  0074                     ??___awmod:	; 0 bytes @ 0x4
   219  0074                     	ds	1
   220                           	global	___lwmod@counter
   221  0075                     ___lwmod@counter:	; 1 bytes @ 0x5
   222                           	global	___awdiv@counter
   223  0075                     ___awdiv@counter:	; 1 bytes @ 0x5
   224                           	global	___awmod@counter
   225  0075                     ___awmod@counter:	; 1 bytes @ 0x5
   226                           	global	___lwdiv@quotient
   227  0075                     ___lwdiv@quotient:	; 2 bytes @ 0x5
   228  0075                     	ds	1
   229                           	global	___awdiv@sign
   230  0076                     ___awdiv@sign:	; 1 bytes @ 0x6
   231                           	global	___awmod@sign
   232  0076                     ___awmod@sign:	; 1 bytes @ 0x6
   233  0076                     	ds	1
   234                           	global	___lwdiv@counter
   235  0077                     ___lwdiv@counter:	; 1 bytes @ 0x7
   236                           	global	___awdiv@quotient
   237  0077                     ___awdiv@quotient:	; 2 bytes @ 0x7
   238  0077                     	ds	2
   239                           	global	??_main
   240  0079                     ??_main:	; 0 bytes @ 0x9
   241  0079                     	ds	2
   242                           	global	main@a
   243  007B                     main@a:	; 2 bytes @ 0xB
   244  007B                     	ds	2
   245                           psect	cstackBANK0,class=BANK0,space=1
   246                           global __pcstackBANK0
   247  0020                     __pcstackBANK0:
   248                           	global	main@c
   249  0020                     main@c:	; 2 bytes @ 0x0
   250  0020                     	ds	2
   251                           	global	main@e
   252  0022                     main@e:	; 2 bytes @ 0x2
   253  0022                     	ds	2
   254                           	global	main@f
   255  0024                     main@f:	; 2 bytes @ 0x4
   256  0024                     	ds	2
   257                           	global	main@g
   258  0026                     main@g:	; 2 bytes @ 0x6
   259  0026                     	ds	2
   260                           	global	main@i
   261  0028                     main@i:	; 2 bytes @ 0x8
   262  0028                     	ds	2
   263                           	global	main@k
   264  002A                     main@k:	; 2 bytes @ 0xA
   265  002A                     	ds	2
   266                           	global	main@l
   267  002C                     main@l:	; 2 bytes @ 0xC
   268  002C                     	ds	2
   269                           	global	main@m
   270  002E                     main@m:	; 2 bytes @ 0xE
   271  002E                     	ds	2
   272                           	global	main@o
   273  0030                     main@o:	; 2 bytes @ 0x10
   274  0030                     	ds	2
   275                           	global	main@q
   276  0032                     main@q:	; 2 bytes @ 0x12
   277  0032                     	ds	2
   278                           	global	main@r
   279  0034                     main@r:	; 2 bytes @ 0x14
   280  0034                     	ds	2
   281                           	global	main@z
   282  0036                     main@z:	; 2 bytes @ 0x16
   283  0036                     	ds	2
   284                           	global	main@x
   285  0038                     main@x:	; 2 bytes @ 0x18
   286  0038                     	ds	2
   287                           	global	main@v
   288  003A                     main@v:	; 2 bytes @ 0x1A
   289  003A                     	ds	2
   290                           	global	main@u
   291  003C                     main@u:	; 2 bytes @ 0x1C
   292  003C                     	ds	2
   293                           	global	main@A
   294  003E                     main@A:	; 2 bytes @ 0x1E
   295  003E                     	ds	2
   296                           	global	main@C
   297  0040                     main@C:	; 2 bytes @ 0x20
   298  0040                     	ds	2
   299                           	global	main@E
   300  0042                     main@E:	; 2 bytes @ 0x22
   301  0042                     	ds	2
   302                           	global	main@F
   303  0044                     main@F:	; 2 bytes @ 0x24
   304  0044                     	ds	2
   305                           	global	main@G
   306  0046                     main@G:	; 2 bytes @ 0x26
   307  0046                     	ds	2
   308                           	global	main@I
   309  0048                     main@I:	; 2 bytes @ 0x28
   310  0048                     	ds	2
   311                           	global	main@K
   312  004A                     main@K:	; 2 bytes @ 0x2A
   313  004A                     	ds	2
   314                           	global	main@L
   315  004C                     main@L:	; 2 bytes @ 0x2C
   316  004C                     	ds	2
   317                           	global	main@M
   318  004E                     main@M:	; 2 bytes @ 0x2E
   319  004E                     	ds	2
   320                           	global	main@O
   321  0050                     main@O:	; 2 bytes @ 0x30
   322  0050                     	ds	2
   323                           	global	main@Q
   324  0052                     main@Q:	; 2 bytes @ 0x32
   325  0052                     	ds	2
   326                           	global	main@R
   327  0054                     main@R:	; 2 bytes @ 0x34
   328  0054                     	ds	2
   329                           	global	main@Z
   330  0056                     main@Z:	; 2 bytes @ 0x36
   331  0056                     	ds	2
   332                           	global	main@X
   333  0058                     main@X:	; 2 bytes @ 0x38
   334  0058                     	ds	2
   335                           	global	main@V
   336  005A                     main@V:	; 2 bytes @ 0x3A
   337  005A                     	ds	2
   338                           	global	main@U
   339  005C                     main@U:	; 2 bytes @ 0x3C
   340  005C                     	ds	2
   341                           	global	main@b
   342  005E                     main@b:	; 2 bytes @ 0x3E
   343  005E                     	ds	2
   344                           	global	main@d
   345  0060                     main@d:	; 2 bytes @ 0x40
   346  0060                     	ds	2
   347                           	global	main@h
   348  0062                     main@h:	; 2 bytes @ 0x42
   349  0062                     	ds	2
   350                           	global	main@j
   351  0064                     main@j:	; 2 bytes @ 0x44
   352  0064                     	ds	2
   353                           	global	main@n
   354  0066                     main@n:	; 2 bytes @ 0x46
   355  0066                     	ds	2
   356                           	global	main@p
   357  0068                     main@p:	; 2 bytes @ 0x48
   358  0068                     	ds	2
   359                           	global	main@y
   360  006A                     main@y:	; 2 bytes @ 0x4A
   361  006A                     	ds	2
   362                           	global	main@w
   363  006C                     main@w:	; 2 bytes @ 0x4C
   364  006C                     	ds	2
   365                           	global	main@B
   366  006E                     main@B:	; 2 bytes @ 0x4E
   367  006E                     	ds	2
   368 ;;Data sizes: Strings 0, constant 0, data 0, bss 0, persistent 0 stack 0
   369 ;;Auto spaces:   Size  Autos    Used
   370 ;; COMMON          14     13      13
   371 ;; BANK0           80     80      80
   372 ;; BANK1           80     30      30
   373 ;; BANK3           96      0       0
   374 ;; BANK2           96      0       0
   375                           
   376 ;;
   377 ;; Pointer list with targets:
   378                           
   379 ;; ?___awmod	int  size(1) Largest target is 0
   380 ;;
   381 ;; ?___awdiv	int  size(1) Largest target is 0
   382 ;;
   383 ;; ?___lwmod	unsigned int  size(1) Largest target is 0
   384 ;;
   385 ;; ?___lwdiv	unsigned int  size(1) Largest target is 0
   386 ;;
   387                           
   388                           
   389 ;;
   390 ;; Critical Paths under _main in COMMON
   391 ;;
   392 ;;   _main->___awdiv
   393 ;;   _lcd_init->_lcd_command
   394 ;;   _lcd_data->_delay
   395 ;;   _lcd_command->_delay
   396 ;;
   397 ;; Critical Paths under _main in BANK0
   398 ;;
   399 ;;   None.
   400 ;;
   401 ;; Critical Paths under _main in BANK1
   402 ;;
   403 ;;   None.
   404 ;;
   405 ;; Critical Paths under _main in BANK3
   406 ;;
   407 ;;   None.
   408 ;;
   409 ;; Critical Paths under _main in BANK2
   410 ;;
   411 ;;   None.
   412                           
   413 ;;
   414 ;;Main: autosize = 0, tempsize = 2, incstack = 0, save=0
   415 ;;
   416                           
   417 ;;
   418 ;;Call Graph Tables:
   419 ;;
   420 ;; ---------------------------------------------------------------------------------
   421 ;; (Depth) Function   	        Calls       Base Space   Used Autos Params    Refs
   422 ;; ---------------------------------------------------------------------------------
   423 ;; (0) _main                                               116   116      0    3247
   424 ;;                                              9 COMMON     4     4      0
   425 ;;                                              0 BANK0     80    80      0
   426 ;;                                              0 BANK1     30    30      0
   427 ;;                           _lcd_init
   428 ;;                              _delay
   429 ;;                            ___lwdiv
   430 ;;                            ___lwmod
   431 ;;                            ___awdiv
   432 ;;                            ___awmod
   433 ;;                        _lcd_command
   434 ;;                           _lcd_data
   435 ;; ---------------------------------------------------------------------------------
   436 ;; (1) _lcd_init                                             0     0      0      44
   437 ;;                        _lcd_command
   438 ;; ---------------------------------------------------------------------------------
   439 ;; (1) _lcd_data                                             1     1      0      44
   440 ;;                                              2 COMMON     1     1      0
   441 ;;                              _delay
   442 ;; ---------------------------------------------------------------------------------
   443 ;; (1) _lcd_command                                          1     1      0      44
   444 ;;                                              2 COMMON     1     1      0
   445 ;;                              _delay
   446 ;; ---------------------------------------------------------------------------------
   447 ;; (1) ___awmod                                              7     3      4     296
   448 ;;                                              0 COMMON     7     3      4
   449 ;; ---------------------------------------------------------------------------------
   450 ;; (1) ___awdiv                                              9     5      4     300
   451 ;;                                              0 COMMON     9     5      4
   452 ;; ---------------------------------------------------------------------------------
   453 ;; (1) ___lwmod                                              6     2      4     159
   454 ;;                                              0 COMMON     6     2      4
   455 ;; ---------------------------------------------------------------------------------
   456 ;; (1) ___lwdiv                                              8     4      4     162
   457 ;;                                              0 COMMON     8     4      4
   458 ;; ---------------------------------------------------------------------------------
   459 ;; (2) _delay                                                2     0      2      22
   460 ;;                                              0 COMMON     2     0      2
   461 ;; ---------------------------------------------------------------------------------
   462 ;; Estimated maximum stack depth 2
   463 ;; ---------------------------------------------------------------------------------
   464                           
   465 ;; Call Graph Graphs:
   466                           
   467 ;; _main (ROOT)
   468 ;;   _lcd_init
   469 ;;     _lcd_command
   470 ;;       _delay
   471 ;;   _delay
   472 ;;   ___lwdiv
   473 ;;   ___lwmod
   474 ;;   ___awdiv
   475 ;;   ___awmod
   476 ;;   _lcd_command
   477 ;;     _delay
   478 ;;   _lcd_data
   479 ;;     _delay
   480 ;;
   481                           
   482 ;; Address spaces:
   483                           
   484 ;;Name               Size   Autos  Total    Cost      Usage
   485 ;;BITCOMMON            E      0       0       0        0.0%
   486 ;;EEDATA             100      0       0       0        0.0%
   487 ;;NULL                 0      0       0       0        0.0%
   488 ;;CODE                 0      0       0       0        0.0%
   489 ;;COMMON               E      D       D       1       92.9%
   490 ;;BITSFR0              0      0       0       1        0.0%
   491 ;;SFR0                 0      0       0       1        0.0%
   492 ;;BITSFR1              0      0       0       2        0.0%
   493 ;;SFR1                 0      0       0       2        0.0%
   494 ;;STACK                0      0       3       2        0.0%
   495 ;;ABS                  0      0       0       3        0.0%
   496 ;;BITBANK0            50      0       0       4        0.0%
   497 ;;BITSFR3              0      0       0       4        0.0%
   498 ;;SFR3                 0      0       0       4        0.0%
   499 ;;BANK0               50     50      50       5      100.0%
   500 ;;BITSFR2              0      0       0       5        0.0%
   501 ;;SFR2                 0      0       0       5        0.0%
   502 ;;BITBANK1            50      0       0       6        0.0%
   503 ;;BANK1               50     1E      1E       7       37.5%
   504 ;;BITBANK3            60      0       0       8        0.0%
   505 ;;BANK3               60      0       0       9        0.0%
   506 ;;BITBANK2            60      0       0      10        0.0%
   507 ;;BANK2               60      0       0      11        0.0%
   508 ;;DATA                 0      0       0      12        0.0%
   509                           
   510                           	global	_main
   511                           psect	maintext,global,class=CODE,delta=2
   512                           global __pmaintext
   513  0F66                     __pmaintext:
   514                           
   515 ;; *************** function _main *****************
   516 ;; Defined at:
   517 ;;		line 45 in file "C:\Users\TECH\Desktop\madhu pic folder\ADC\ADC task\8 sensor with lcd value\8 sensor with lcd value
       .c"
   518 ;; Parameters:    Size  Location     Type
   519 ;;		None
   520 ;; Auto vars:     Size  Location     Type
   521 ;;  temp8           2   28[BANK1 ] unsigned int 
   522 ;;  temp7           2   26[BANK1 ] unsigned int 
   523 ;;  temp6           2   24[BANK1 ] unsigned int 
   524 ;;  temp5           2   22[BANK1 ] unsigned int 
   525 ;;  temp4           2   20[BANK1 ] unsigned int 
   526 ;;  temp3           2   18[BANK1 ] unsigned int 
   527 ;;  temp1           2   16[BANK1 ] unsigned int 
   528 ;;  temp            2   14[BANK1 ] unsigned int 
   529 ;;  W               2   12[BANK1 ] int 
   530 ;;  Y               2   10[BANK1 ] int 
   531 ;;  P               2    8[BANK1 ] int 
   532 ;;  N               2    6[BANK1 ] int 
   533 ;;  J               2    4[BANK1 ] int 
   534 ;;  H               2    2[BANK1 ] int 
   535 ;;  D               2    0[BANK1 ] int 
   536 ;;  B               2   78[BANK0 ] int 
   537 ;;  w               2   76[BANK0 ] int 
   538 ;;  y               2   74[BANK0 ] int 
   539 ;;  p               2   72[BANK0 ] int 
   540 ;;  n               2   70[BANK0 ] int 
   541 ;;  j               2   68[BANK0 ] int 
   542 ;;  h               2   66[BANK0 ] int 
   543 ;;  d               2   64[BANK0 ] int 
   544 ;;  b               2   62[BANK0 ] int 
   545 ;;  U               2   60[BANK0 ] int 
   546 ;;  V               2   58[BANK0 ] int 
   547 ;;  X               2   56[BANK0 ] int 
   548 ;;  Z               2   54[BANK0 ] int 
   549 ;;  R               2   52[BANK0 ] int 
   550 ;;  Q               2   50[BANK0 ] int 
   551 ;;  O               2   48[BANK0 ] int 
   552 ;;  M               2   46[BANK0 ] int 
   553 ;;  L               2   44[BANK0 ] int 
   554 ;;  K               2   42[BANK0 ] int 
   555 ;;  I               2   40[BANK0 ] int 
   556 ;;  G               2   38[BANK0 ] int 
   557 ;;  F               2   36[BANK0 ] int 
   558 ;;  E               2   34[BANK0 ] int 
   559 ;;  C               2   32[BANK0 ] int 
   560 ;;  A               2   30[BANK0 ] int 
   561 ;;  u               2   28[BANK0 ] int 
   562 ;;  v               2   26[BANK0 ] int 
   563 ;;  x               2   24[BANK0 ] int 
   564 ;;  z               2   22[BANK0 ] int 
   565 ;;  r               2   20[BANK0 ] int 
   566 ;;  q               2   18[BANK0 ] int 
   567 ;;  o               2   16[BANK0 ] int 
   568 ;;  m               2   14[BANK0 ] int 
   569 ;;  l               2   12[BANK0 ] int 
   570 ;;  k               2   10[BANK0 ] int 
   571 ;;  i               2    8[BANK0 ] int 
   572 ;;  g               2    6[BANK0 ] int 
   573 ;;  f               2    4[BANK0 ] int 
   574 ;;  e               2    2[BANK0 ] int 
   575 ;;  c               2    0[BANK0 ] int 
   576 ;;  a               2   11[COMMON] int 
   577 ;;  temp2           2    0        unsigned int 
   578 ;; Return value:  Size  Location     Type
   579 ;;		None               void
   580 ;; Registers used:
   581 ;;		wreg, status,2, status,0, btemp+0, pclath, cstack
   582 ;; Tracked objects:
   583 ;;		On entry : 17F/0
   584 ;;		On exit  : 0/0
   585 ;;		Unchanged: 0/0
   586 ;; Data sizes:     COMMON   BANK0   BANK1   BANK3   BANK2
   587 ;;      Params:         0       0       0       0       0
   588 ;;      Locals:         2      80      30       0       0
   589 ;;      Temps:          2       0       0       0       0
   590 ;;      Totals:         4      80      30       0       0
   591 ;;Total ram usage:      114 bytes
   592 ;; Hardware stack levels required when called:    3
   593 ;; This function calls:
   594 ;;		_lcd_init
   595 ;;		_delay
   596 ;;		___lwdiv
   597 ;;		___lwmod
   598 ;;		___awdiv
   599 ;;		___awmod
   600 ;;		_lcd_command
   601 ;;		_lcd_data
   602 ;; This function is called by:
   603 ;;		Startup code after reset
   604 ;; This function uses a non-reentrant model
   605 ;;
   606                           psect	maintext
   607                           	file	"C:\Users\TECH\Desktop\madhu pic folder\ADC\ADC task\8 sensor with lcd value\8 sen
                                 sor with lcd value.c"
   608                           	line	45
   609                           	global	__size_of_main
   610  F89A                     	__size_of_main	equ	__end_of_main-_main
   611                           	
   612  0F66                     _main:	
   613                           	opt	stack 8
   614                           ; Regs used in _main: [wreg+status,2-btemp+0+pclath+cstack]
   615                           	line	49
   616                           	
   617  0F66                     l3060:	
   618                           ;8 sensor with lcd value.c: 46: int a,b,c,d,e,f,g,h,i,j,k,l,m,n,o,p,q,r,z,y,x,w,v,u;
   619                           ;8 sensor with lcd value.c: 47: unsigned int temp,temp1,temp2,temp3,temp4,temp5,temp6,te
                                 mp7,temp8;
   620                           ;8 sensor with lcd value.c: 48: int A,B,C,D,E,F,G,H,I,J,K,L,M,N,O,P,Q,R,Z,Y,X,W,V,U;
   621                           ;8 sensor with lcd value.c: 49: ADCON1=0X80;
   622  0F66  3080               	movlw	(080h)
   623  0F67  1683               	bsf	status, 5	;RP0=1, select bank1
   624  0F68  1303               	bcf	status, 6	;RP1=0, select bank1
   625  0F69  009F               	movwf	(159)^080h	;volatile
   626                           	line	50
   627                           ;8 sensor with lcd value.c: 50: ADCON0=0X40;
   628  0F6A  3040               	movlw	(040h)
   629  0F6B  1283               	bcf	status, 5	;RP0=0, select bank0
   630  0F6C  1303               	bcf	status, 6	;RP1=0, select bank0
   631  0F6D  009F               	movwf	(31)	;volatile
   632                           	line	52
   633                           	
   634  0F6E                     l3062:	
   635                           ;8 sensor with lcd value.c: 52: TRISC=0X00;
   636  0F6E  1683               	bsf	status, 5	;RP0=1, select bank1
   637  0F6F  1303               	bcf	status, 6	;RP1=0, select bank1
   638  0F70  0187               	clrf	(135)^080h	;volatile
   639                           	line	53
   640                           	
   641  0F71                     l3064:	
   642                           ;8 sensor with lcd value.c: 53: PORTC=0X00;
   643  0F71  1283               	bcf	status, 5	;RP0=0, select bank0
   644  0F72  1303               	bcf	status, 6	;RP1=0, select bank0
   645  0F73  0187               	clrf	(7)	;volatile
   646                           	line	55
   647                           	
   648  0F74                     l3066:	
   649                           ;8 sensor with lcd value.c: 55: TRISD=0X00;
   650  0F74  1683               	bsf	status, 5	;RP0=1, select bank1
   651  0F75  1303               	bcf	status, 6	;RP1=0, select bank1
   652  0F76  0188               	clrf	(136)^080h	;volatile
   653                           	line	56
   654                           	
   655  0F77                     l3068:	
   656                           ;8 sensor with lcd value.c: 56: PORTD=0X00;
   657  0F77  1283               	bcf	status, 5	;RP0=0, select bank0
   658  0F78  1303               	bcf	status, 6	;RP1=0, select bank0
   659  0F79  0188               	clrf	(8)	;volatile
   660                           	line	59
   661                           ;8 sensor with lcd value.c: 59: TRISA=0X03;
   662  0F7A  3003               	movlw	(03h)
   663  0F7B  1683               	bsf	status, 5	;RP0=1, select bank1
   664  0F7C  1303               	bcf	status, 6	;RP1=0, select bank1
   665  0F7D  0085               	movwf	(133)^080h	;volatile
   666                           	line	60
   667                           	
   668  0F7E                     l3070:	
   669                           ;8 sensor with lcd value.c: 60: PORTA=0X00;
   670  0F7E  1283               	bcf	status, 5	;RP0=0, select bank0
   671  0F7F  1303               	bcf	status, 6	;RP1=0, select bank0
   672  0F80  0185               	clrf	(5)	;volatile
   673                           	line	62
   674                           	
   675  0F81                     l3072:	
   676                           ;8 sensor with lcd value.c: 62: lcd_init();
   677  0F81  120A  158A  24CD   	fcall	_lcd_init
              120A  158A         
   678                           	line	63
   679                           	
   680  0F86                     l3074:	
   681                           ;8 sensor with lcd value.c: 63: delay(100);
   682  0F86  3064               	movlw	low(064h)
   683  0F87  00F0               	movwf	(?_delay)
   684  0F88  3000               	movlw	high(064h)
   685  0F89  00F1               	movwf	((?_delay))+1
   686  0F8A  120A  158A  2491   	fcall	_delay
              120A  158A         
   687                           	line	68
   688                           ;8 sensor with lcd value.c: 68: while(1)
   689                           	
   690  0F8F                     l580:	
   691                           	line	70
   692                           	
   693  0F8F                     l3076:	
   694                           ;8 sensor with lcd value.c: 69: {
   695                           ;8 sensor with lcd value.c: 70: CHS2=0;
   696  0F8F  1283               	bcf	status, 5	;RP0=0, select bank0
   697  0F90  1303               	bcf	status, 6	;RP1=0, select bank0
   698  0F91  129F               	bcf	(253/8),(253)&7
   699                           	line	71
   700                           	
   701  0F92                     l3078:	
   702                           ;8 sensor with lcd value.c: 71: CHS1=0;
   703  0F92  121F               	bcf	(252/8),(252)&7
   704                           	line	72
   705                           	
   706  0F93                     l3080:	
   707                           ;8 sensor with lcd value.c: 72: CHS0=0;
   708  0F93  119F               	bcf	(251/8),(251)&7
   709                           	line	73
   710                           	
   711  0F94                     l3082:	
   712                           ;8 sensor with lcd value.c: 73: ADON=1;
   713  0F94  141F               	bsf	(248/8),(248)&7
   714                           	line	74
   715                           	
   716  0F95                     l3084:	
   717                           ;8 sensor with lcd value.c: 74: delay(600);
   718  0F95  3058               	movlw	low(0258h)
   719  0F96  00F0               	movwf	(?_delay)
   720  0F97  3002               	movlw	high(0258h)
   721  0F98  00F1               	movwf	((?_delay))+1
   722  0F99  120A  158A  2491   	fcall	_delay
              120A  158A         
   723                           	line	75
   724                           	
   725  0F9E                     l3086:	
   726                           ;8 sensor with lcd value.c: 75: ADCON0=(ADCON0|0X04);
   727  0F9E  1283               	bcf	status, 5	;RP0=0, select bank0
   728  0F9F  1303               	bcf	status, 6	;RP1=0, select bank0
   729  0FA0  081F               	movf	(31),w	;volatile
   730  0FA1  3804               	iorlw	04h
   731  0FA2  009F               	movwf	(31)	;volatile
   732                           	line	76
   733                           ;8 sensor with lcd value.c: 76: delay(600);
   734  0FA3  3058               	movlw	low(0258h)
   735  0FA4  00F0               	movwf	(?_delay)
   736  0FA5  3002               	movlw	high(0258h)
   737  0FA6  00F1               	movwf	((?_delay))+1
   738  0FA7  120A  158A  2491   	fcall	_delay
              120A  158A         
   739                           	line	77
   740                           	
   741  0FAC                     l3088:	
   742                           ;8 sensor with lcd value.c: 77: temp=ADRESH<<8;
   743  0FAC  1283               	bcf	status, 5	;RP0=0, select bank0
   744  0FAD  1303               	bcf	status, 6	;RP1=0, select bank0
   745  0FAE  081E               	movf	(30),w	;volatile
   746  0FAF  00F9               	movwf	(??_main+0)+0
   747  0FB0  01FA               	clrf	(??_main+0)+0+1
   748  0FB1  3008               	movlw	08h
   749  0FB2  00FE               	movwf	btemp+0
   750  0FB3                     u2585:
   751  0FB3  1003               	clrc
   752  0FB4  0DF9               	rlf	(??_main+0)+0,f
   753  0FB5  0DFA               	rlf	(??_main+0)+1,f
   754  0FB6  0BFE               	decfsz	btemp+0,f
   755  0FB7  2FB3               	goto	u2585
   756  0FB8  0879               	movf	0+(??_main+0)+0,w
   757  0FB9  1683               	bsf	status, 5	;RP0=1, select bank1
   758  0FBA  1303               	bcf	status, 6	;RP1=0, select bank1
   759  0FBB  00AE               	movwf	(main@temp)^080h
   760  0FBC  087A               	movf	1+(??_main+0)+0,w
   761  0FBD  00AF               	movwf	(main@temp+1)^080h
   762                           	line	78
   763                           	
   764  0FBE                     l3090:	
   765                           ;8 sensor with lcd value.c: 78: delay(600);
   766  0FBE  3058               	movlw	low(0258h)
   767  0FBF  00F0               	movwf	(?_delay)
   768  0FC0  3002               	movlw	high(0258h)
   769  0FC1  00F1               	movwf	((?_delay))+1
   770  0FC2  120A  158A  2491   	fcall	_delay
              120A  158A         
   771                           	line	79
   772                           	
   773  0FC7                     l3092:	
   774                           ;8 sensor with lcd value.c: 79: temp=temp+ADRESL;
   775  0FC7  1683               	bsf	status, 5	;RP0=1, select bank1
   776  0FC8  1303               	bcf	status, 6	;RP1=0, select bank1
   777  0FC9  081E               	movf	(158)^080h,w	;volatile
   778  0FCA  072E               	addwf	(main@temp)^080h,w
   779  0FCB  00AE               	movwf	(main@temp)^080h
   780  0FCC  082F               	movf	(main@temp+1)^080h,w
   781  0FCD  1803               	skipnc
   782  0FCE  0A2F               	incf	(main@temp+1)^080h,w
   783  0FCF  00AF               	movwf	((main@temp)^080h)+1
   784                           	line	81
   785                           	
   786  0FD0                     l3094:	
   787                           ;8 sensor with lcd value.c: 81: PORTD=temp;
   788  0FD0  082E               	movf	(main@temp)^080h,w
   789  0FD1  1283               	bcf	status, 5	;RP0=0, select bank0
   790  0FD2  1303               	bcf	status, 6	;RP1=0, select bank0
   791  0FD3  0088               	movwf	(8)	;volatile
   792                           	line	82
   793                           	
   794  0FD4                     l3096:	
   795                           ;8 sensor with lcd value.c: 82: a=temp/1000;
   796  0FD4  30E8               	movlw	low(03E8h)
   797  0FD5  00F0               	movwf	(?___lwdiv)
   798  0FD6  3003               	movlw	high(03E8h)
   799  0FD7  00F1               	movwf	((?___lwdiv))+1
   800  0FD8  1683               	bsf	status, 5	;RP0=1, select bank1
   801  0FD9  1303               	bcf	status, 6	;RP1=0, select bank1
   802  0FDA  082F               	movf	(main@temp+1)^080h,w
   803  0FDB  01F3               	clrf	1+(?___lwdiv)+02h
   804  0FDC  07F3               	addwf	1+(?___lwdiv)+02h
   805  0FDD  082E               	movf	(main@temp)^080h,w
   806  0FDE  01F2               	clrf	0+(?___lwdiv)+02h
   807  0FDF  07F2               	addwf	0+(?___lwdiv)+02h
   808                           
   809  0FE0  120A  158A  2523   	fcall	___lwdiv
              120A  158A         
   810  0FE5  0871               	movf	(1+(?___lwdiv)),w
   811  0FE6  01FC               	clrf	(main@a+1)
   812  0FE7  07FC               	addwf	(main@a+1)
   813  0FE8  0870               	movf	(0+(?___lwdiv)),w
   814  0FE9  01FB               	clrf	(main@a)
   815  0FEA  07FB               	addwf	(main@a)
   816                           
   817                           	line	83
   818                           	
   819  0FEB                     l3098:	
   820                           ;8 sensor with lcd value.c: 83: b=temp%1000;
   821  0FEB  30E8               	movlw	low(03E8h)
   822  0FEC  00F0               	movwf	(?___lwmod)
   823  0FED  3003               	movlw	high(03E8h)
   824  0FEE  00F1               	movwf	((?___lwmod))+1
   825  0FEF  1683               	bsf	status, 5	;RP0=1, select bank1
   826  0FF0  1303               	bcf	status, 6	;RP1=0, select bank1
   827  0FF1  082F               	movf	(main@temp+1)^080h,w
   828  0FF2  01F3               	clrf	1+(?___lwmod)+02h
   829  0FF3  07F3               	addwf	1+(?___lwmod)+02h
   830  0FF4  082E               	movf	(main@temp)^080h,w
   831  0FF5  01F2               	clrf	0+(?___lwmod)+02h
   832  0FF6  07F2               	addwf	0+(?___lwmod)+02h
   833                           
   834  0FF7  120A  158A  24E6   	fcall	___lwmod
              120A  158A         
   835  0FFC  0871               	movf	(1+(?___lwmod)),w
      + 0FFD  120A  158A  2E51   	ljmp	L1
   836  0E51  1283               	bcf	status, 5	;RP0=0, select bank0
   837  0E52  1303               	bcf	status, 6	;RP1=0, select bank0
   838  0E53  01DF               	clrf	(main@b+1)
   839  0E54  07DF               	addwf	(main@b+1)
   840  0E55  0870               	movf	(0+(?___lwmod)),w
   841  0E56  01DE               	clrf	(main@b)
   842  0E57  07DE               	addwf	(main@b)
   843                           
   844                           	line	84
   845                           	
   846  0E58                     l3100:	
   847                           ;8 sensor with lcd value.c: 84: c=b/100;
   848  0E58  3064               	movlw	low(064h)
   849  0E59  00F0               	movwf	(?___awdiv)
   850  0E5A  3000               	movlw	high(064h)
   851  0E5B  00F1               	movwf	((?___awdiv))+1
   852  0E5C  085F               	movf	(main@b+1),w
   853  0E5D  01F3               	clrf	1+(?___awdiv)+02h
   854  0E5E  07F3               	addwf	1+(?___awdiv)+02h
   855  0E5F  085E               	movf	(main@b),w
   856  0E60  01F2               	clrf	0+(?___awdiv)+02h
   857  0E61  07F2               	addwf	0+(?___awdiv)+02h
   858                           
   859  0E62  120A  118A  2003   	fcall	___awdiv
              120A  158A         
   860  0E67  0871               	movf	(1+(?___awdiv)),w
   861  0E68  1283               	bcf	status, 5	;RP0=0, select bank0
   862  0E69  1303               	bcf	status, 6	;RP1=0, select bank0
   863  0E6A  01A1               	clrf	(main@c+1)
   864  0E6B  07A1               	addwf	(main@c+1)
   865  0E6C  0870               	movf	(0+(?___awdiv)),w
   866  0E6D  01A0               	clrf	(main@c)
   867  0E6E  07A0               	addwf	(main@c)
   868                           
   869                           	line	85
   870                           	
   871  0E6F                     l3102:	
   872                           ;8 sensor with lcd value.c: 85: d=b%100;
   873  0E6F  3064               	movlw	low(064h)
   874  0E70  00F0               	movwf	(?___awmod)
   875  0E71  3000               	movlw	high(064h)
   876  0E72  00F1               	movwf	((?___awmod))+1
   877  0E73  085F               	movf	(main@b+1),w
   878  0E74  01F3               	clrf	1+(?___awmod)+02h
   879  0E75  07F3               	addwf	1+(?___awmod)+02h
   880  0E76  085E               	movf	(main@b),w
   881  0E77  01F2               	clrf	0+(?___awmod)+02h
   882  0E78  07F2               	addwf	0+(?___awmod)+02h
   883                           
   884  0E79  120A  158A  256C   	fcall	___awmod
              120A  158A         
   885  0E7E  0871               	movf	(1+(?___awmod)),w
   886  0E7F  1283               	bcf	status, 5	;RP0=0, select bank0
   887  0E80  1303               	bcf	status, 6	;RP1=0, select bank0
   888  0E81  01E1               	clrf	(main@d+1)
   889  0E82  07E1               	addwf	(main@d+1)
   890  0E83  0870               	movf	(0+(?___awmod)),w
   891  0E84  01E0               	clrf	(main@d)
   892  0E85  07E0               	addwf	(main@d)
   893                           
   894                           	line	86
   895                           	
   896  0E86                     l3104:	
   897                           ;8 sensor with lcd value.c: 86: e=d/10;
   898  0E86  300A               	movlw	low(0Ah)
   899  0E87  00F0               	movwf	(?___awdiv)
   900  0E88  3000               	movlw	high(0Ah)
   901  0E89  00F1               	movwf	((?___awdiv))+1
   902  0E8A  0861               	movf	(main@d+1),w
   903  0E8B  01F3               	clrf	1+(?___awdiv)+02h
   904  0E8C  07F3               	addwf	1+(?___awdiv)+02h
   905  0E8D  0860               	movf	(main@d),w
   906  0E8E  01F2               	clrf	0+(?___awdiv)+02h
   907  0E8F  07F2               	addwf	0+(?___awdiv)+02h
   908                           
   909  0E90  120A  118A  2003   	fcall	___awdiv
              120A  158A         
   910  0E95  0871               	movf	(1+(?___awdiv)),w
   911  0E96  1283               	bcf	status, 5	;RP0=0, select bank0
   912  0E97  1303               	bcf	status, 6	;RP1=0, select bank0
   913  0E98  01A3               	clrf	(main@e+1)
   914  0E99  07A3               	addwf	(main@e+1)
   915  0E9A  0870               	movf	(0+(?___awdiv)),w
   916  0E9B  01A2               	clrf	(main@e)
   917  0E9C  07A2               	addwf	(main@e)
   918                           
   919                           	line	87
   920                           	
   921  0E9D                     l3106:	
   922                           ;8 sensor with lcd value.c: 87: f=d%10;
   923  0E9D  300A               	movlw	low(0Ah)
   924  0E9E  00F0               	movwf	(?___awmod)
   925  0E9F  3000               	movlw	high(0Ah)
   926  0EA0  00F1               	movwf	((?___awmod))+1
   927  0EA1  0861               	movf	(main@d+1),w
   928  0EA2  01F3               	clrf	1+(?___awmod)+02h
   929  0EA3  07F3               	addwf	1+(?___awmod)+02h
   930  0EA4  0860               	movf	(main@d),w
   931  0EA5  01F2               	clrf	0+(?___awmod)+02h
   932  0EA6  07F2               	addwf	0+(?___awmod)+02h
   933                           
   934  0EA7  120A  158A  256C   	fcall	___awmod
              120A  158A         
   935  0EAC  0871               	movf	(1+(?___awmod)),w
   936  0EAD  1283               	bcf	status, 5	;RP0=0, select bank0
   937  0EAE  1303               	bcf	status, 6	;RP1=0, select bank0
   938  0EAF  01A5               	clrf	(main@f+1)
   939  0EB0  07A5               	addwf	(main@f+1)
   940  0EB1  0870               	movf	(0+(?___awmod)),w
   941  0EB2  01A4               	clrf	(main@f)
   942  0EB3  07A4               	addwf	(main@f)
   943                           
   944                           	line	88
   945                           	
   946  0EB4                     l3108:	
   947                           ;8 sensor with lcd value.c: 88: lcd_command(0x80);
   948  0EB4  3080               	movlw	(080h)
   949  0EB5  120A  158A  24A3   	fcall	_lcd_command
              120A  158A         
   950                           	line	89
   951                           	
   952  0EBA                     l3110:	
   953                           ;8 sensor with lcd value.c: 89: delay(600);
   954  0EBA  3058               	movlw	low(0258h)
   955  0EBB  00F0               	movwf	(?_delay)
   956  0EBC  3002               	movlw	high(0258h)
   957  0EBD  00F1               	movwf	((?_delay))+1
   958  0EBE  120A  158A  2491   	fcall	_delay
              120A  158A         
   959                           	line	90
   960                           	
   961  0EC3                     l3112:	
   962                           ;8 sensor with lcd value.c: 90: lcd_data(a+0x30);
   963  0EC3  087B               	movf	(main@a),w
   964  0EC4  3E30               	addlw	030h
   965  0EC5  120A  158A  24B8   	fcall	_lcd_data
              120A  158A         
   966                           	line	91
   967                           	
   968  0ECA                     l3114:	
   969                           ;8 sensor with lcd value.c: 91: delay(600);
   970  0ECA  3058               	movlw	low(0258h)
   971  0ECB  00F0               	movwf	(?_delay)
   972  0ECC  3002               	movlw	high(0258h)
   973  0ECD  00F1               	movwf	((?_delay))+1
   974  0ECE  120A  158A  2491   	fcall	_delay
              120A  158A         
   975                           	line	92
   976                           	
   977  0ED3                     l3116:	
      + 0ED3  120A  158A  2ED6   	ljmp	L2
   978                           ;8 sensor with lcd value.c: 92: lcd_data(c+0x30);
   979  0ED6  1283               	bcf	status, 5	;RP0=0, select bank0
   980  0ED7  1303               	bcf	status, 6	;RP1=0, select bank0
   981  0ED8  0820               	movf	(main@c),w
   982  0ED9  3E30               	addlw	030h
   983  0EDA  120A  158A  24B8   	fcall	_lcd_data
              120A  158A         
   984                           	line	93
   985                           	
   986  0EDF                     l3118:	
   987                           ;8 sensor with lcd value.c: 93: delay(600);
   988  0EDF  3058               	movlw	low(0258h)
   989  0EE0  00F0               	movwf	(?_delay)
   990  0EE1  3002               	movlw	high(0258h)
   991  0EE2  00F1               	movwf	((?_delay))+1
   992  0EE3  120A  158A  2491   	fcall	_delay
              120A  158A         
   993                           	line	94
   994                           	
   995  0EE8                     l3120:	
   996                           ;8 sensor with lcd value.c: 94: lcd_data(e+0x30);
   997  0EE8  1283               	bcf	status, 5	;RP0=0, select bank0
   998  0EE9  1303               	bcf	status, 6	;RP1=0, select bank0
   999  0EEA  0822               	movf	(main@e),w
  1000  0EEB  3E30               	addlw	030h
  1001  0EEC  120A  158A  24B8   	fcall	_lcd_data
              120A  158A         
  1002                           	line	95
  1003                           	
  1004  0EF1                     l3122:	
  1005                           ;8 sensor with lcd value.c: 95: delay(600);
  1006  0EF1  3058               	movlw	low(0258h)
  1007  0EF2  00F0               	movwf	(?_delay)
  1008  0EF3  3002               	movlw	high(0258h)
  1009  0EF4  00F1               	movwf	((?_delay))+1
  1010  0EF5  120A  158A  2491   	fcall	_delay
              120A  158A         
  1011                           	line	96
  1012                           	
  1013  0EFA                     l3124:	
  1014                           ;8 sensor with lcd value.c: 96: lcd_data(f+0x30);
  1015  0EFA  1283               	bcf	status, 5	;RP0=0, select bank0
  1016  0EFB  1303               	bcf	status, 6	;RP1=0, select bank0
  1017  0EFC  0824               	movf	(main@f),w
  1018  0EFD  3E30               	addlw	030h
  1019  0EFE  120A  158A  24B8   	fcall	_lcd_data
              120A  158A         
  1020                           	line	97
  1021                           	
  1022  0F03                     l3126:	
  1023                           ;8 sensor with lcd value.c: 97: delay(600);
  1024  0F03  3058               	movlw	low(0258h)
  1025  0F04  00F0               	movwf	(?_delay)
  1026  0F05  3002               	movlw	high(0258h)
  1027  0F06  00F1               	movwf	((?_delay))+1
  1028  0F07  120A  158A  2491   	fcall	_delay
              120A  158A         
  1029                           	line	101
  1030                           	
  1031  0F0C                     l3128:	
  1032                           ;8 sensor with lcd value.c: 101: CHS2=0;
  1033  0F0C  1283               	bcf	status, 5	;RP0=0, select bank0
  1034  0F0D  1303               	bcf	status, 6	;RP1=0, select bank0
  1035  0F0E  129F               	bcf	(253/8),(253)&7
  1036                           	line	102
  1037                           	
  1038  0F0F                     l3130:	
  1039                           ;8 sensor with lcd value.c: 102: CHS1=0;
  1040  0F0F  121F               	bcf	(252/8),(252)&7
  1041                           	line	103
  1042                           	
  1043  0F10                     l3132:	
  1044                           ;8 sensor with lcd value.c: 103: CHS0=1;
  1045  0F10  159F               	bsf	(251/8),(251)&7
  1046                           	line	104
  1047                           	
  1048  0F11                     l3134:	
  1049                           ;8 sensor with lcd value.c: 104: ADON=1;
  1050  0F11  141F               	bsf	(248/8),(248)&7
  1051                           	line	105
  1052                           	
  1053  0F12                     l3136:	
  1054                           ;8 sensor with lcd value.c: 105: delay(600);
  1055  0F12  3058               	movlw	low(0258h)
  1056  0F13  00F0               	movwf	(?_delay)
  1057  0F14  3002               	movlw	high(0258h)
  1058  0F15  00F1               	movwf	((?_delay))+1
  1059  0F16  120A  158A  2491   	fcall	_delay
              120A  158A         
  1060                           	line	106
  1061                           	
  1062  0F1B                     l3138:	
  1063                           ;8 sensor with lcd value.c: 106: ADCON0=(ADCON0|0X04);
  1064  0F1B  1283               	bcf	status, 5	;RP0=0, select bank0
  1065  0F1C  1303               	bcf	status, 6	;RP1=0, select bank0
  1066  0F1D  081F               	movf	(31),w	;volatile
  1067  0F1E  3804               	iorlw	04h
  1068  0F1F  009F               	movwf	(31)	;volatile
  1069                           	line	107
  1070                           	
  1071  0F20                     l3140:	
  1072                           ;8 sensor with lcd value.c: 107: delay(600);
  1073  0F20  3058               	movlw	low(0258h)
  1074  0F21  00F0               	movwf	(?_delay)
  1075  0F22  3002               	movlw	high(0258h)
  1076  0F23  00F1               	movwf	((?_delay))+1
  1077  0F24  120A  158A  2491   	fcall	_delay
              120A  158A         
  1078                           	line	108
  1079                           	
  1080  0F29                     l3142:	
  1081                           ;8 sensor with lcd value.c: 108: temp1=ADRESH<<8;
  1082  0F29  1283               	bcf	status, 5	;RP0=0, select bank0
  1083  0F2A  1303               	bcf	status, 6	;RP1=0, select bank0
  1084  0F2B  081E               	movf	(30),w	;volatile
  1085  0F2C  00F9               	movwf	(??_main+0)+0
  1086  0F2D  01FA               	clrf	(??_main+0)+0+1
  1087  0F2E  3008               	movlw	08h
  1088  0F2F  00FE               	movwf	btemp+0
  1089  0F30                     u2595:
  1090  0F30  1003               	clrc
  1091  0F31  0DF9               	rlf	(??_main+0)+0,f
  1092  0F32  0DFA               	rlf	(??_main+0)+1,f
  1093  0F33  0BFE               	decfsz	btemp+0,f
  1094  0F34  2F30               	goto	u2595
  1095  0F35  0879               	movf	0+(??_main+0)+0,w
  1096  0F36  1683               	bsf	status, 5	;RP0=1, select bank1
  1097  0F37  1303               	bcf	status, 6	;RP1=0, select bank1
  1098  0F38  00B0               	movwf	(main@temp1)^080h
  1099  0F39  087A               	movf	1+(??_main+0)+0,w
  1100  0F3A  00B1               	movwf	(main@temp1+1)^080h
  1101                           	line	109
  1102                           	
  1103  0F3B                     l3144:	
  1104                           ;8 sensor with lcd value.c: 109: delay(600);
  1105  0F3B  3058               	movlw	low(0258h)
  1106  0F3C  00F0               	movwf	(?_delay)
  1107  0F3D  3002               	movlw	high(0258h)
  1108  0F3E  00F1               	movwf	((?_delay))+1
  1109  0F3F  120A  158A  2491   	fcall	_delay
              120A  158A         
  1110                           	line	110
  1111                           	
  1112  0F44                     l3146:	
  1113                           ;8 sensor with lcd value.c: 110: temp1=temp1+ADRESL;
  1114  0F44  1683               	bsf	status, 5	;RP0=1, select bank1
  1115  0F45  1303               	bcf	status, 6	;RP1=0, select bank1
  1116  0F46  081E               	movf	(158)^080h,w	;volatile
  1117  0F47  0730               	addwf	(main@temp1)^080h,w
  1118  0F48  00B0               	movwf	(main@temp1)^080h
  1119  0F49  0831               	movf	(main@temp1+1)^080h,w
  1120  0F4A  1803               	skipnc
  1121  0F4B  0A31               	incf	(main@temp1+1)^080h,w
  1122  0F4C  00B1               	movwf	((main@temp1)^080h)+1
  1123                           	line	112
  1124                           	
  1125  0F4D                     l3148:	
  1126                           ;8 sensor with lcd value.c: 112: PORTD=temp1;
  1127  0F4D  0830               	movf	(main@temp1)^080h,w
  1128  0F4E  1283               	bcf	status, 5	;RP0=0, select bank0
  1129  0F4F  1303               	bcf	status, 6	;RP1=0, select bank0
  1130  0F50  0088               	movwf	(8)	;volatile
  1131                           	line	113
  1132                           	
  1133  0F51                     l3150:	
  1134                           ;8 sensor with lcd value.c: 113: z=temp1/1000;
  1135  0F51  30E8               	movlw	low(03E8h)
  1136  0F52  00F0               	movwf	(?___lwdiv)
  1137  0F53  3003               	movlw	high(03E8h)
  1138  0F54  00F1               	movwf	((?___lwdiv))+1
  1139  0F55  1683               	bsf	status, 5	;RP0=1, select bank1
  1140  0F56  1303               	bcf	status, 6	;RP1=0, select bank1
  1141  0F57  0831               	movf	(main@temp1+1)^080h,w
  1142  0F58  01F3               	clrf	1+(?___lwdiv)+02h
  1143  0F59  07F3               	addwf	1+(?___lwdiv)+02h
  1144  0F5A  0830               	movf	(main@temp1)^080h,w
  1145  0F5B  01F2               	clrf	0+(?___lwdiv)+02h
  1146  0F5C  07F2               	addwf	0+(?___lwdiv)+02h
  1147                           
  1148  0F5D  120A  158A  2523   	fcall	___lwdiv
              120A  158A         
  1149  0F62  0871               	movf	(1+(?___lwdiv)),w
      + 0F63  120A  158A  2DCC   	ljmp	L3
  1150  0DCC  1283               	bcf	status, 5	;RP0=0, select bank0
  1151  0DCD  1303               	bcf	status, 6	;RP1=0, select bank0
  1152  0DCE  01B7               	clrf	(main@z+1)
  1153  0DCF  07B7               	addwf	(main@z+1)
  1154  0DD0  0870               	movf	(0+(?___lwdiv)),w
  1155  0DD1  01B6               	clrf	(main@z)
  1156  0DD2  07B6               	addwf	(main@z)
  1157                           
  1158                           	line	114
  1159                           	
  1160  0DD3                     l3152:	
  1161                           ;8 sensor with lcd value.c: 114: y=temp1%1000;
  1162  0DD3  30E8               	movlw	low(03E8h)
  1163  0DD4  00F0               	movwf	(?___lwmod)
  1164  0DD5  3003               	movlw	high(03E8h)
  1165  0DD6  00F1               	movwf	((?___lwmod))+1
  1166  0DD7  1683               	bsf	status, 5	;RP0=1, select bank1
  1167  0DD8  1303               	bcf	status, 6	;RP1=0, select bank1
  1168  0DD9  0831               	movf	(main@temp1+1)^080h,w
  1169  0DDA  01F3               	clrf	1+(?___lwmod)+02h
  1170  0DDB  07F3               	addwf	1+(?___lwmod)+02h
  1171  0DDC  0830               	movf	(main@temp1)^080h,w
  1172  0DDD  01F2               	clrf	0+(?___lwmod)+02h
  1173  0DDE  07F2               	addwf	0+(?___lwmod)+02h
  1174                           
  1175  0DDF  120A  158A  24E6   	fcall	___lwmod
              120A  158A         
  1176  0DE4  0871               	movf	(1+(?___lwmod)),w
  1177  0DE5  1283               	bcf	status, 5	;RP0=0, select bank0
  1178  0DE6  1303               	bcf	status, 6	;RP1=0, select bank0
  1179  0DE7  01EB               	clrf	(main@y+1)
  1180  0DE8  07EB               	addwf	(main@y+1)
  1181  0DE9  0870               	movf	(0+(?___lwmod)),w
  1182  0DEA  01EA               	clrf	(main@y)
  1183  0DEB  07EA               	addwf	(main@y)
  1184                           
  1185                           	line	115
  1186                           	
  1187  0DEC                     l3154:	
  1188                           ;8 sensor with lcd value.c: 115: x=y/100;
  1189  0DEC  3064               	movlw	low(064h)
  1190  0DED  00F0               	movwf	(?___awdiv)
  1191  0DEE  3000               	movlw	high(064h)
  1192  0DEF  00F1               	movwf	((?___awdiv))+1
  1193  0DF0  086B               	movf	(main@y+1),w
  1194  0DF1  01F3               	clrf	1+(?___awdiv)+02h
  1195  0DF2  07F3               	addwf	1+(?___awdiv)+02h
  1196  0DF3  086A               	movf	(main@y),w
  1197  0DF4  01F2               	clrf	0+(?___awdiv)+02h
  1198  0DF5  07F2               	addwf	0+(?___awdiv)+02h
  1199                           
  1200  0DF6  120A  118A  2003   	fcall	___awdiv
              120A  158A         
  1201  0DFB  0871               	movf	(1+(?___awdiv)),w
  1202  0DFC  1283               	bcf	status, 5	;RP0=0, select bank0
  1203  0DFD  1303               	bcf	status, 6	;RP1=0, select bank0
  1204  0DFE  01B9               	clrf	(main@x+1)
  1205  0DFF  07B9               	addwf	(main@x+1)
  1206  0E00  0870               	movf	(0+(?___awdiv)),w
  1207  0E01  01B8               	clrf	(main@x)
  1208  0E02  07B8               	addwf	(main@x)
  1209                           
  1210                           	line	116
  1211                           	
  1212  0E03                     l3156:	
  1213                           ;8 sensor with lcd value.c: 116: w=y%100;
  1214  0E03  3064               	movlw	low(064h)
  1215  0E04  00F0               	movwf	(?___awmod)
  1216  0E05  3000               	movlw	high(064h)
  1217  0E06  00F1               	movwf	((?___awmod))+1
  1218  0E07  086B               	movf	(main@y+1),w
  1219  0E08  01F3               	clrf	1+(?___awmod)+02h
  1220  0E09  07F3               	addwf	1+(?___awmod)+02h
  1221  0E0A  086A               	movf	(main@y),w
  1222  0E0B  01F2               	clrf	0+(?___awmod)+02h
  1223  0E0C  07F2               	addwf	0+(?___awmod)+02h
  1224                           
  1225  0E0D  120A  158A  256C   	fcall	___awmod
              120A  158A         
  1226  0E12  0871               	movf	(1+(?___awmod)),w
  1227  0E13  1283               	bcf	status, 5	;RP0=0, select bank0
  1228  0E14  1303               	bcf	status, 6	;RP1=0, select bank0
  1229  0E15  01ED               	clrf	(main@w+1)
  1230  0E16  07ED               	addwf	(main@w+1)
  1231  0E17  0870               	movf	(0+(?___awmod)),w
  1232  0E18  01EC               	clrf	(main@w)
  1233  0E19  07EC               	addwf	(main@w)
  1234                           
  1235                           	line	117
  1236                           	
  1237  0E1A                     l3158:	
  1238                           ;8 sensor with lcd value.c: 117: v=w/10;
  1239  0E1A  300A               	movlw	low(0Ah)
  1240  0E1B  00F0               	movwf	(?___awdiv)
  1241  0E1C  3000               	movlw	high(0Ah)
  1242  0E1D  00F1               	movwf	((?___awdiv))+1
  1243  0E1E  086D               	movf	(main@w+1),w
  1244  0E1F  01F3               	clrf	1+(?___awdiv)+02h
  1245  0E20  07F3               	addwf	1+(?___awdiv)+02h
  1246  0E21  086C               	movf	(main@w),w
  1247  0E22  01F2               	clrf	0+(?___awdiv)+02h
  1248  0E23  07F2               	addwf	0+(?___awdiv)+02h
  1249                           
  1250  0E24  120A  118A  2003   	fcall	___awdiv
              120A  158A         
  1251  0E29  0871               	movf	(1+(?___awdiv)),w
  1252  0E2A  1283               	bcf	status, 5	;RP0=0, select bank0
  1253  0E2B  1303               	bcf	status, 6	;RP1=0, select bank0
  1254  0E2C  01BB               	clrf	(main@v+1)
  1255  0E2D  07BB               	addwf	(main@v+1)
  1256  0E2E  0870               	movf	(0+(?___awdiv)),w
  1257  0E2F  01BA               	clrf	(main@v)
  1258  0E30  07BA               	addwf	(main@v)
  1259                           
  1260                           	line	118
  1261                           	
  1262  0E31                     l3160:	
  1263                           ;8 sensor with lcd value.c: 118: u=w%10;
  1264  0E31  300A               	movlw	low(0Ah)
  1265  0E32  00F0               	movwf	(?___awmod)
  1266  0E33  3000               	movlw	high(0Ah)
  1267  0E34  00F1               	movwf	((?___awmod))+1
  1268  0E35  086D               	movf	(main@w+1),w
  1269  0E36  01F3               	clrf	1+(?___awmod)+02h
  1270  0E37  07F3               	addwf	1+(?___awmod)+02h
  1271  0E38  086C               	movf	(main@w),w
  1272  0E39  01F2               	clrf	0+(?___awmod)+02h
  1273  0E3A  07F2               	addwf	0+(?___awmod)+02h
  1274                           
  1275  0E3B  120A  158A  256C   	fcall	___awmod
              120A  158A         
  1276  0E40  0871               	movf	(1+(?___awmod)),w
  1277  0E41  1283               	bcf	status, 5	;RP0=0, select bank0
  1278  0E42  1303               	bcf	status, 6	;RP1=0, select bank0
  1279  0E43  01BD               	clrf	(main@u+1)
  1280  0E44  07BD               	addwf	(main@u+1)
  1281  0E45  0870               	movf	(0+(?___awmod)),w
  1282  0E46  01BC               	clrf	(main@u)
  1283  0E47  07BC               	addwf	(main@u)
  1284                           
  1285                           	line	119
  1286                           	
  1287  0E48                     l3162:	
  1288                           ;8 sensor with lcd value.c: 119: lcd_command(0x84);
  1289  0E48  3084               	movlw	(084h)
  1290  0E49  120A  158A  24A3   	fcall	_lcd_command
              120A  158A         
  1291                           	line	120
  1292                           	
  1293  0E4E                     l3164:	
      + 0E4E  120A  118A  2873   	ljmp	L4
  1294                           ;8 sensor with lcd value.c: 120: delay(600);
  1295  0073  3058               	movlw	low(0258h)
  1296  0074  00F0               	movwf	(?_delay)
  1297  0075  3002               	movlw	high(0258h)
  1298  0076  00F1               	movwf	((?_delay))+1
  1299  0077  120A  158A  2491   	fcall	_delay
              120A  118A         
  1300                           	line	121
  1301                           	
  1302  007C                     l3166:	
  1303                           ;8 sensor with lcd value.c: 121: lcd_data(z+0x30);
  1304  007C  1283               	bcf	status, 5	;RP0=0, select bank0
  1305  007D  1303               	bcf	status, 6	;RP1=0, select bank0
  1306  007E  0836               	movf	(main@z),w
  1307  007F  3E30               	addlw	030h
  1308  0080  120A  158A  24B8   	fcall	_lcd_data
              120A  118A         
  1309                           	line	122
  1310                           	
  1311  0085                     l3168:	
  1312                           ;8 sensor with lcd value.c: 122: delay(600);
  1313  0085  3058               	movlw	low(0258h)
  1314  0086  00F0               	movwf	(?_delay)
  1315  0087  3002               	movlw	high(0258h)
  1316  0088  00F1               	movwf	((?_delay))+1
  1317  0089  120A  158A  2491   	fcall	_delay
              120A  118A         
  1318                           	line	123
  1319                           	
  1320  008E                     l3170:	
  1321                           ;8 sensor with lcd value.c: 123: lcd_data(x+0x30);
  1322  008E  1283               	bcf	status, 5	;RP0=0, select bank0
  1323  008F  1303               	bcf	status, 6	;RP1=0, select bank0
  1324  0090  0838               	movf	(main@x),w
  1325  0091  3E30               	addlw	030h
  1326  0092  120A  158A  24B8   	fcall	_lcd_data
              120A  118A         
  1327                           	line	124
  1328                           	
  1329  0097                     l3172:	
  1330                           ;8 sensor with lcd value.c: 124: delay(600);
  1331  0097  3058               	movlw	low(0258h)
  1332  0098  00F0               	movwf	(?_delay)
  1333  0099  3002               	movlw	high(0258h)
  1334  009A  00F1               	movwf	((?_delay))+1
  1335  009B  120A  158A  2491   	fcall	_delay
              120A  118A         
  1336                           	line	125
  1337                           	
  1338  00A0                     l3174:	
  1339                           ;8 sensor with lcd value.c: 125: lcd_data(v+0x30);
  1340  00A0  1283               	bcf	status, 5	;RP0=0, select bank0
  1341  00A1  1303               	bcf	status, 6	;RP1=0, select bank0
  1342  00A2  083A               	movf	(main@v),w
  1343  00A3  3E30               	addlw	030h
  1344  00A4  120A  158A  24B8   	fcall	_lcd_data
              120A  118A         
  1345                           	line	126
  1346                           	
  1347  00A9                     l3176:	
  1348                           ;8 sensor with lcd value.c: 126: delay(600);
  1349  00A9  3058               	movlw	low(0258h)
  1350  00AA  00F0               	movwf	(?_delay)
  1351  00AB  3002               	movlw	high(0258h)
  1352  00AC  00F1               	movwf	((?_delay))+1
  1353  00AD  120A  158A  2491   	fcall	_delay
              120A  118A         
  1354                           	line	127
  1355                           	
  1356  00B2                     l3178:	
  1357                           ;8 sensor with lcd value.c: 127: lcd_data(u+0x30);
  1358  00B2  1283               	bcf	status, 5	;RP0=0, select bank0
  1359  00B3  1303               	bcf	status, 6	;RP1=0, select bank0
  1360  00B4  083C               	movf	(main@u),w
  1361  00B5  3E30               	addlw	030h
  1362  00B6  120A  158A  24B8   	fcall	_lcd_data
              120A  118A         
  1363                           	line	128
  1364                           	
  1365  00BB                     l3180:	
  1366                           ;8 sensor with lcd value.c: 128: delay(600);
  1367  00BB  3058               	movlw	low(0258h)
  1368  00BC  00F0               	movwf	(?_delay)
  1369  00BD  3002               	movlw	high(0258h)
  1370  00BE  00F1               	movwf	((?_delay))+1
  1371  00BF  120A  158A  2491   	fcall	_delay
              120A  118A         
  1372                           	line	131
  1373                           	
  1374  00C4                     l3182:	
  1375                           ;8 sensor with lcd value.c: 131: CHS2=0;
  1376  00C4  1283               	bcf	status, 5	;RP0=0, select bank0
  1377  00C5  1303               	bcf	status, 6	;RP1=0, select bank0
  1378  00C6  129F               	bcf	(253/8),(253)&7
  1379                           	line	132
  1380                           	
  1381  00C7                     l3184:	
  1382                           ;8 sensor with lcd value.c: 132: CHS1=1;
  1383  00C7  161F               	bsf	(252/8),(252)&7
  1384                           	line	133
  1385                           	
  1386  00C8                     l3186:	
  1387                           ;8 sensor with lcd value.c: 133: CHS0=0;
  1388  00C8  119F               	bcf	(251/8),(251)&7
  1389                           	line	134
  1390                           	
  1391  00C9                     l3188:	
  1392                           ;8 sensor with lcd value.c: 134: ADON=1;
  1393  00C9  141F               	bsf	(248/8),(248)&7
  1394                           	line	135
  1395                           	
  1396  00CA                     l3190:	
  1397                           ;8 sensor with lcd value.c: 135: delay(600);
  1398  00CA  3058               	movlw	low(0258h)
  1399  00CB  00F0               	movwf	(?_delay)
  1400  00CC  3002               	movlw	high(0258h)
  1401  00CD  00F1               	movwf	((?_delay))+1
  1402  00CE  120A  158A  2491   	fcall	_delay
              120A  118A         
  1403                           	line	136
  1404                           ;8 sensor with lcd value.c: 136: ADCON0=(ADCON0|0X04);
  1405  00D3  1283               	bcf	status, 5	;RP0=0, select bank0
  1406  00D4  1303               	bcf	status, 6	;RP1=0, select bank0
  1407  00D5  081F               	movf	(31),w	;volatile
  1408  00D6  3804               	iorlw	04h
  1409  00D7  009F               	movwf	(31)	;volatile
  1410                           	line	137
  1411                           	
  1412  00D8                     l3192:	
  1413                           ;8 sensor with lcd value.c: 137: delay(600);
  1414  00D8  3058               	movlw	low(0258h)
  1415  00D9  00F0               	movwf	(?_delay)
  1416  00DA  3002               	movlw	high(0258h)
  1417  00DB  00F1               	movwf	((?_delay))+1
  1418  00DC  120A  158A  2491   	fcall	_delay
              120A  118A         
  1419                           	line	138
  1420                           	
  1421  00E1                     l3194:	
  1422                           ;8 sensor with lcd value.c: 138: temp3=ADRESH<<8;
  1423  00E1  1283               	bcf	status, 5	;RP0=0, select bank0
  1424  00E2  1303               	bcf	status, 6	;RP1=0, select bank0
  1425  00E3  081E               	movf	(30),w	;volatile
  1426  00E4  00F9               	movwf	(??_main+0)+0
  1427  00E5  01FA               	clrf	(??_main+0)+0+1
  1428  00E6  3008               	movlw	08h
  1429  00E7  00FE               	movwf	btemp+0
  1430  00E8                     u2605:
  1431  00E8  1003               	clrc
  1432  00E9  0DF9               	rlf	(??_main+0)+0,f
  1433  00EA  0DFA               	rlf	(??_main+0)+1,f
  1434  00EB  0BFE               	decfsz	btemp+0,f
  1435  00EC  28E8               	goto	u2605
  1436  00ED  0879               	movf	0+(??_main+0)+0,w
  1437  00EE  1683               	bsf	status, 5	;RP0=1, select bank1
  1438  00EF  1303               	bcf	status, 6	;RP1=0, select bank1
  1439  00F0  00B2               	movwf	(main@temp3)^080h
  1440  00F1  087A               	movf	1+(??_main+0)+0,w
  1441  00F2  00B3               	movwf	(main@temp3+1)^080h
  1442                           	line	139
  1443                           	
  1444  00F3                     l3196:	
  1445                           ;8 sensor with lcd value.c: 139: delay(600);
  1446  00F3  3058               	movlw	low(0258h)
  1447  00F4  00F0               	movwf	(?_delay)
  1448  00F5  3002               	movlw	high(0258h)
  1449  00F6  00F1               	movwf	((?_delay))+1
  1450  00F7  120A  158A  2491   	fcall	_delay
              120A  118A         
  1451                           	line	140
  1452                           	
  1453  00FC                     l3198:	
  1454                           ;8 sensor with lcd value.c: 140: temp3=temp3+ADRESL;
  1455  00FC  1683               	bsf	status, 5	;RP0=1, select bank1
  1456  00FD  1303               	bcf	status, 6	;RP1=0, select bank1
  1457  00FE  081E               	movf	(158)^080h,w	;volatile
  1458  00FF  0732               	addwf	(main@temp3)^080h,w
  1459  0100  00B2               	movwf	(main@temp3)^080h
  1460  0101  0833               	movf	(main@temp3+1)^080h,w
  1461  0102  1803               	skipnc
  1462  0103  0A33               	incf	(main@temp3+1)^080h,w
  1463  0104  00B3               	movwf	((main@temp3)^080h)+1
  1464                           	line	141
  1465                           	
  1466  0105                     l3200:	
  1467                           ;8 sensor with lcd value.c: 141: delay(600);
  1468  0105  3058               	movlw	low(0258h)
  1469  0106  00F0               	movwf	(?_delay)
  1470  0107  3002               	movlw	high(0258h)
  1471  0108  00F1               	movwf	((?_delay))+1
  1472  0109  120A  158A  2491   	fcall	_delay
              120A  118A         
  1473                           	line	142
  1474                           	
  1475  010E                     l3202:	
  1476                           ;8 sensor with lcd value.c: 142: PORTD=temp3;
  1477  010E  1683               	bsf	status, 5	;RP0=1, select bank1
  1478  010F  1303               	bcf	status, 6	;RP1=0, select bank1
  1479  0110  0832               	movf	(main@temp3)^080h,w
  1480  0111  1283               	bcf	status, 5	;RP0=0, select bank0
  1481  0112  1303               	bcf	status, 6	;RP1=0, select bank0
  1482  0113  0088               	movwf	(8)	;volatile
  1483                           	line	143
  1484                           	
  1485  0114                     l3204:	
  1486                           ;8 sensor with lcd value.c: 143: g=temp3/1000;
  1487  0114  30E8               	movlw	low(03E8h)
  1488  0115  00F0               	movwf	(?___lwdiv)
  1489  0116  3003               	movlw	high(03E8h)
  1490  0117  00F1               	movwf	((?___lwdiv))+1
  1491  0118  1683               	bsf	status, 5	;RP0=1, select bank1
  1492  0119  1303               	bcf	status, 6	;RP1=0, select bank1
  1493  011A  0833               	movf	(main@temp3+1)^080h,w
  1494  011B  01F3               	clrf	1+(?___lwdiv)+02h
  1495  011C  07F3               	addwf	1+(?___lwdiv)+02h
  1496  011D  0832               	movf	(main@temp3)^080h,w
  1497  011E  01F2               	clrf	0+(?___lwdiv)+02h
  1498  011F  07F2               	addwf	0+(?___lwdiv)+02h
  1499                           
  1500  0120  120A  158A  2523   	fcall	___lwdiv
              120A  118A         
  1501  0125  0871               	movf	(1+(?___lwdiv)),w
  1502  0126  1283               	bcf	status, 5	;RP0=0, select bank0
  1503  0127  1303               	bcf	status, 6	;RP1=0, select bank0
  1504  0128  01A7               	clrf	(main@g+1)
  1505  0129  07A7               	addwf	(main@g+1)
  1506  012A  0870               	movf	(0+(?___lwdiv)),w
  1507  012B  01A6               	clrf	(main@g)
  1508  012C  07A6               	addwf	(main@g)
  1509                           
  1510                           	line	144
  1511                           	
  1512  012D                     l3206:	
  1513                           ;8 sensor with lcd value.c: 144: h=temp3%1000;
  1514  012D  30E8               	movlw	low(03E8h)
  1515  012E  00F0               	movwf	(?___lwmod)
  1516  012F  3003               	movlw	high(03E8h)
  1517  0130  00F1               	movwf	((?___lwmod))+1
  1518  0131  1683               	bsf	status, 5	;RP0=1, select bank1
  1519  0132  1303               	bcf	status, 6	;RP1=0, select bank1
  1520  0133  0833               	movf	(main@temp3+1)^080h,w
  1521  0134  01F3               	clrf	1+(?___lwmod)+02h
  1522  0135  07F3               	addwf	1+(?___lwmod)+02h
  1523  0136  0832               	movf	(main@temp3)^080h,w
  1524  0137  01F2               	clrf	0+(?___lwmod)+02h
  1525  0138  07F2               	addwf	0+(?___lwmod)+02h
  1526                           
  1527  0139  120A  158A  24E6   	fcall	___lwmod
              120A  118A         
  1528  013E  0871               	movf	(1+(?___lwmod)),w
  1529  013F  1283               	bcf	status, 5	;RP0=0, select bank0
  1530  0140  1303               	bcf	status, 6	;RP1=0, select bank0
  1531  0141  01E3               	clrf	(main@h+1)
  1532  0142  07E3               	addwf	(main@h+1)
  1533  0143  0870               	movf	(0+(?___lwmod)),w
  1534  0144  01E2               	clrf	(main@h)
  1535  0145  07E2               	addwf	(main@h)
  1536                           
  1537                           	line	145
  1538                           	
  1539  0146                     l3208:	
  1540                           ;8 sensor with lcd value.c: 145: i=h/100;
  1541  0146  3064               	movlw	low(064h)
  1542  0147  00F0               	movwf	(?___awdiv)
  1543  0148  3000               	movlw	high(064h)
  1544  0149  00F1               	movwf	((?___awdiv))+1
  1545  014A  0863               	movf	(main@h+1),w
  1546  014B  01F3               	clrf	1+(?___awdiv)+02h
  1547  014C  07F3               	addwf	1+(?___awdiv)+02h
  1548  014D  0862               	movf	(main@h),w
  1549  014E  01F2               	clrf	0+(?___awdiv)+02h
  1550  014F  07F2               	addwf	0+(?___awdiv)+02h
  1551                           
  1552  0150  120A  118A  2003   	fcall	___awdiv
              120A  118A         
  1553  0155  0871               	movf	(1+(?___awdiv)),w
  1554  0156  1283               	bcf	status, 5	;RP0=0, select bank0
  1555  0157  1303               	bcf	status, 6	;RP1=0, select bank0
  1556  0158  01A9               	clrf	(main@i+1)
  1557  0159  07A9               	addwf	(main@i+1)
  1558  015A  0870               	movf	(0+(?___awdiv)),w
  1559  015B  01A8               	clrf	(main@i)
  1560  015C  07A8               	addwf	(main@i)
  1561                           
  1562                           	line	146
  1563                           	
  1564  015D                     l3210:	
  1565                           ;8 sensor with lcd value.c: 146: j=h%100;
  1566  015D  3064               	movlw	low(064h)
  1567  015E  00F0               	movwf	(?___awmod)
  1568  015F  3000               	movlw	high(064h)
  1569  0160  00F1               	movwf	((?___awmod))+1
  1570  0161  0863               	movf	(main@h+1),w
  1571  0162  01F3               	clrf	1+(?___awmod)+02h
  1572  0163  07F3               	addwf	1+(?___awmod)+02h
  1573  0164  0862               	movf	(main@h),w
  1574  0165  01F2               	clrf	0+(?___awmod)+02h
  1575  0166  07F2               	addwf	0+(?___awmod)+02h
  1576                           
  1577  0167  120A  158A  256C   	fcall	___awmod
              120A  118A         
  1578  016C  0871               	movf	(1+(?___awmod)),w
  1579  016D  1283               	bcf	status, 5	;RP0=0, select bank0
  1580  016E  1303               	bcf	status, 6	;RP1=0, select bank0
  1581  016F  01E5               	clrf	(main@j+1)
  1582  0170  07E5               	addwf	(main@j+1)
  1583  0171  0870               	movf	(0+(?___awmod)),w
  1584  0172  01E4               	clrf	(main@j)
  1585  0173  07E4               	addwf	(main@j)
  1586                           
  1587                           	line	147
  1588                           	
  1589  0174                     l3212:	
  1590                           ;8 sensor with lcd value.c: 147: k=j/10;
  1591  0174  300A               	movlw	low(0Ah)
  1592  0175  00F0               	movwf	(?___awdiv)
  1593  0176  3000               	movlw	high(0Ah)
  1594  0177  00F1               	movwf	((?___awdiv))+1
  1595  0178  0865               	movf	(main@j+1),w
  1596  0179  01F3               	clrf	1+(?___awdiv)+02h
  1597  017A  07F3               	addwf	1+(?___awdiv)+02h
  1598  017B  0864               	movf	(main@j),w
  1599  017C  01F2               	clrf	0+(?___awdiv)+02h
  1600  017D  07F2               	addwf	0+(?___awdiv)+02h
  1601                           
  1602  017E  120A  118A  2003   	fcall	___awdiv
              120A  118A         
  1603  0183  0871               	movf	(1+(?___awdiv)),w
  1604  0184  1283               	bcf	status, 5	;RP0=0, select bank0
  1605  0185  1303               	bcf	status, 6	;RP1=0, select bank0
  1606  0186  01AB               	clrf	(main@k+1)
  1607  0187  07AB               	addwf	(main@k+1)
  1608  0188  0870               	movf	(0+(?___awdiv)),w
  1609  0189  01AA               	clrf	(main@k)
  1610  018A  07AA               	addwf	(main@k)
  1611                           
  1612                           	line	148
  1613                           	
  1614  018B                     l3214:	
  1615                           ;8 sensor with lcd value.c: 148: l=j%10;
  1616  018B  300A               	movlw	low(0Ah)
  1617  018C  00F0               	movwf	(?___awmod)
  1618  018D  3000               	movlw	high(0Ah)
  1619  018E  00F1               	movwf	((?___awmod))+1
  1620  018F  0865               	movf	(main@j+1),w
  1621  0190  01F3               	clrf	1+(?___awmod)+02h
  1622  0191  07F3               	addwf	1+(?___awmod)+02h
  1623  0192  0864               	movf	(main@j),w
  1624  0193  01F2               	clrf	0+(?___awmod)+02h
  1625  0194  07F2               	addwf	0+(?___awmod)+02h
  1626                           
  1627  0195  120A  158A  256C   	fcall	___awmod
              120A  118A         
  1628  019A  0871               	movf	(1+(?___awmod)),w
  1629  019B  1283               	bcf	status, 5	;RP0=0, select bank0
  1630  019C  1303               	bcf	status, 6	;RP1=0, select bank0
  1631  019D  01AD               	clrf	(main@l+1)
  1632  019E  07AD               	addwf	(main@l+1)
  1633  019F  0870               	movf	(0+(?___awmod)),w
  1634  01A0  01AC               	clrf	(main@l)
  1635  01A1  07AC               	addwf	(main@l)
  1636                           
  1637                           	line	149
  1638                           	
  1639  01A2                     l3216:	
  1640                           ;8 sensor with lcd value.c: 149: lcd_command(0x88);
  1641  01A2  3088               	movlw	(088h)
  1642  01A3  120A  158A  24A3   	fcall	_lcd_command
              120A  118A         
  1643                           	line	150
  1644                           	
  1645  01A8                     l3218:	
  1646                           ;8 sensor with lcd value.c: 150: delay(600);
  1647  01A8  3058               	movlw	low(0258h)
  1648  01A9  00F0               	movwf	(?_delay)
  1649  01AA  3002               	movlw	high(0258h)
  1650  01AB  00F1               	movwf	((?_delay))+1
  1651  01AC  120A  158A  2491   	fcall	_delay
              120A  118A         
  1652                           	line	151
  1653                           	
  1654  01B1                     l3220:	
  1655                           ;8 sensor with lcd value.c: 151: lcd_data(g+0x30);
  1656  01B1  1283               	bcf	status, 5	;RP0=0, select bank0
  1657  01B2  1303               	bcf	status, 6	;RP1=0, select bank0
  1658  01B3  0826               	movf	(main@g),w
  1659  01B4  3E30               	addlw	030h
  1660  01B5  120A  158A  24B8   	fcall	_lcd_data
              120A  118A         
  1661                           	line	152
  1662                           	
  1663  01BA                     l3222:	
  1664                           ;8 sensor with lcd value.c: 152: delay(600);
  1665  01BA  3058               	movlw	low(0258h)
  1666  01BB  00F0               	movwf	(?_delay)
  1667  01BC  3002               	movlw	high(0258h)
  1668  01BD  00F1               	movwf	((?_delay))+1
  1669  01BE  120A  158A  2491   	fcall	_delay
              120A  118A         
  1670                           	line	153
  1671                           	
  1672  01C3                     l3224:	
  1673                           ;8 sensor with lcd value.c: 153: lcd_data(i+0x30);
  1674  01C3  1283               	bcf	status, 5	;RP0=0, select bank0
  1675  01C4  1303               	bcf	status, 6	;RP1=0, select bank0
  1676  01C5  0828               	movf	(main@i),w
  1677  01C6  3E30               	addlw	030h
  1678  01C7  120A  158A  24B8   	fcall	_lcd_data
              120A  118A         
  1679                           	line	154
  1680                           	
  1681  01CC                     l3226:	
  1682                           ;8 sensor with lcd value.c: 154: delay(600);
  1683  01CC  3058               	movlw	low(0258h)
  1684  01CD  00F0               	movwf	(?_delay)
  1685  01CE  3002               	movlw	high(0258h)
  1686  01CF  00F1               	movwf	((?_delay))+1
  1687  01D0  120A  158A  2491   	fcall	_delay
              120A  118A         
  1688                           	line	155
  1689                           	
  1690  01D5                     l3228:	
  1691                           ;8 sensor with lcd value.c: 155: lcd_data(k+0x30);
  1692  01D5  1283               	bcf	status, 5	;RP0=0, select bank0
  1693  01D6  1303               	bcf	status, 6	;RP1=0, select bank0
  1694  01D7  082A               	movf	(main@k),w
  1695  01D8  3E30               	addlw	030h
  1696  01D9  120A  158A  24B8   	fcall	_lcd_data
              120A  118A         
  1697                           	line	156
  1698                           	
  1699  01DE                     l3230:	
  1700                           ;8 sensor with lcd value.c: 156: delay(600);
  1701  01DE  3058               	movlw	low(0258h)
  1702  01DF  00F0               	movwf	(?_delay)
  1703  01E0  3002               	movlw	high(0258h)
  1704  01E1  00F1               	movwf	((?_delay))+1
  1705  01E2  120A  158A  2491   	fcall	_delay
              120A  118A         
  1706                           	line	157
  1707                           	
  1708  01E7                     l3232:	
  1709                           ;8 sensor with lcd value.c: 157: lcd_data(l+0x30);
  1710  01E7  1283               	bcf	status, 5	;RP0=0, select bank0
  1711  01E8  1303               	bcf	status, 6	;RP1=0, select bank0
  1712  01E9  082C               	movf	(main@l),w
  1713  01EA  3E30               	addlw	030h
  1714  01EB  120A  158A  24B8   	fcall	_lcd_data
              120A  118A         
  1715                           	line	158
  1716                           	
  1717  01F0                     l3234:	
  1718                           ;8 sensor with lcd value.c: 158: delay(600);
  1719  01F0  3058               	movlw	low(0258h)
  1720  01F1  00F0               	movwf	(?_delay)
  1721  01F2  3002               	movlw	high(0258h)
  1722  01F3  00F1               	movwf	((?_delay))+1
  1723  01F4  120A  158A  2491   	fcall	_delay
              120A  118A         
  1724                           	line	161
  1725                           	
  1726  01F9                     l3236:	
  1727                           ;8 sensor with lcd value.c: 161: CHS2=0;
  1728  01F9  1283               	bcf	status, 5	;RP0=0, select bank0
  1729  01FA  1303               	bcf	status, 6	;RP1=0, select bank0
  1730  01FB  129F               	bcf	(253/8),(253)&7
  1731                           	line	162
  1732                           	
  1733  01FC                     l3238:	
  1734                           ;8 sensor with lcd value.c: 162: CHS1=1;
  1735  01FC  161F               	bsf	(252/8),(252)&7
  1736                           	line	163
  1737                           	
  1738  01FD                     l3240:	
  1739                           ;8 sensor with lcd value.c: 163: CHS0=1;
  1740  01FD  159F               	bsf	(251/8),(251)&7
  1741                           	line	164
  1742                           	
  1743  01FE                     l3242:	
  1744                           ;8 sensor with lcd value.c: 164: ADON=1;
  1745  01FE  141F               	bsf	(248/8),(248)&7
  1746                           	line	165
  1747                           	
  1748  01FF                     l3244:	
  1749                           ;8 sensor with lcd value.c: 165: delay(600);
  1750  01FF  3058               	movlw	low(0258h)
  1751  0200  00F0               	movwf	(?_delay)
  1752  0201  3002               	movlw	high(0258h)
  1753  0202  00F1               	movwf	((?_delay))+1
  1754  0203  120A  158A  2491   	fcall	_delay
              120A  118A         
  1755                           	line	166
  1756                           	
  1757  0208                     l3246:	
  1758                           ;8 sensor with lcd value.c: 166: ADCON0=(ADCON0|0X04);
  1759  0208  1283               	bcf	status, 5	;RP0=0, select bank0
  1760  0209  1303               	bcf	status, 6	;RP1=0, select bank0
  1761  020A  081F               	movf	(31),w	;volatile
  1762  020B  3804               	iorlw	04h
  1763  020C  009F               	movwf	(31)	;volatile
  1764                           	line	167
  1765                           	
  1766  020D                     l3248:	
  1767                           ;8 sensor with lcd value.c: 167: delay(600);
  1768  020D  3058               	movlw	low(0258h)
  1769  020E  00F0               	movwf	(?_delay)
  1770  020F  3002               	movlw	high(0258h)
  1771  0210  00F1               	movwf	((?_delay))+1
  1772  0211  120A  158A  2491   	fcall	_delay
              120A  118A         
  1773                           	line	168
  1774                           	
  1775  0216                     l3250:	
  1776                           ;8 sensor with lcd value.c: 168: temp4=ADRESH<<8;
  1777  0216  1283               	bcf	status, 5	;RP0=0, select bank0
  1778  0217  1303               	bcf	status, 6	;RP1=0, select bank0
  1779  0218  081E               	movf	(30),w	;volatile
  1780  0219  00F9               	movwf	(??_main+0)+0
  1781  021A  01FA               	clrf	(??_main+0)+0+1
  1782  021B  3008               	movlw	08h
  1783  021C  00FE               	movwf	btemp+0
  1784  021D                     u2615:
  1785  021D  1003               	clrc
  1786  021E  0DF9               	rlf	(??_main+0)+0,f
  1787  021F  0DFA               	rlf	(??_main+0)+1,f
  1788  0220  0BFE               	decfsz	btemp+0,f
  1789  0221  2A1D               	goto	u2615
  1790  0222  0879               	movf	0+(??_main+0)+0,w
  1791  0223  1683               	bsf	status, 5	;RP0=1, select bank1
  1792  0224  1303               	bcf	status, 6	;RP1=0, select bank1
  1793  0225  00B4               	movwf	(main@temp4)^080h
  1794  0226  087A               	movf	1+(??_main+0)+0,w
  1795  0227  00B5               	movwf	(main@temp4+1)^080h
  1796                           	line	169
  1797                           ;8 sensor with lcd value.c: 169: delay(600);
  1798  0228  3058               	movlw	low(0258h)
  1799  0229  00F0               	movwf	(?_delay)
  1800  022A  3002               	movlw	high(0258h)
  1801  022B  00F1               	movwf	((?_delay))+1
  1802  022C  120A  158A  2491   	fcall	_delay
              120A  118A         
  1803                           	line	170
  1804                           	
  1805  0231                     l3252:	
  1806                           ;8 sensor with lcd value.c: 170: temp4=temp4+ADRESL;
  1807  0231  1683               	bsf	status, 5	;RP0=1, select bank1
  1808  0232  1303               	bcf	status, 6	;RP1=0, select bank1
  1809  0233  081E               	movf	(158)^080h,w	;volatile
  1810  0234  0734               	addwf	(main@temp4)^080h,w
  1811  0235  00B4               	movwf	(main@temp4)^080h
  1812  0236  0835               	movf	(main@temp4+1)^080h,w
  1813  0237  1803               	skipnc
  1814  0238  0A35               	incf	(main@temp4+1)^080h,w
  1815  0239  00B5               	movwf	((main@temp4)^080h)+1
  1816                           	line	171
  1817                           	
  1818  023A                     l3254:	
  1819                           ;8 sensor with lcd value.c: 171: delay(600);
  1820  023A  3058               	movlw	low(0258h)
  1821  023B  00F0               	movwf	(?_delay)
  1822  023C  3002               	movlw	high(0258h)
  1823  023D  00F1               	movwf	((?_delay))+1
  1824  023E  120A  158A  2491   	fcall	_delay
              120A  118A         
  1825                           	line	172
  1826                           ;8 sensor with lcd value.c: 172: PORTD=temp4;
  1827  0243  1683               	bsf	status, 5	;RP0=1, select bank1
  1828  0244  1303               	bcf	status, 6	;RP1=0, select bank1
  1829  0245  0834               	movf	(main@temp4)^080h,w
  1830  0246  1283               	bcf	status, 5	;RP0=0, select bank0
  1831  0247  1303               	bcf	status, 6	;RP1=0, select bank0
  1832  0248  0088               	movwf	(8)	;volatile
  1833                           	line	173
  1834                           	
  1835  0249                     l3256:	
  1836                           ;8 sensor with lcd value.c: 173: m=temp4/1000;
  1837  0249  30E8               	movlw	low(03E8h)
  1838  024A  00F0               	movwf	(?___lwdiv)
  1839  024B  3003               	movlw	high(03E8h)
  1840  024C  00F1               	movwf	((?___lwdiv))+1
  1841  024D  1683               	bsf	status, 5	;RP0=1, select bank1
  1842  024E  1303               	bcf	status, 6	;RP1=0, select bank1
  1843  024F  0835               	movf	(main@temp4+1)^080h,w
  1844  0250  01F3               	clrf	1+(?___lwdiv)+02h
  1845  0251  07F3               	addwf	1+(?___lwdiv)+02h
  1846  0252  0834               	movf	(main@temp4)^080h,w
  1847  0253  01F2               	clrf	0+(?___lwdiv)+02h
  1848  0254  07F2               	addwf	0+(?___lwdiv)+02h
  1849                           
  1850  0255  120A  158A  2523   	fcall	___lwdiv
              120A  118A         
  1851  025A  0871               	movf	(1+(?___lwdiv)),w
  1852  025B  1283               	bcf	status, 5	;RP0=0, select bank0
  1853  025C  1303               	bcf	status, 6	;RP1=0, select bank0
  1854  025D  01AF               	clrf	(main@m+1)
  1855  025E  07AF               	addwf	(main@m+1)
  1856  025F  0870               	movf	(0+(?___lwdiv)),w
  1857  0260  01AE               	clrf	(main@m)
  1858  0261  07AE               	addwf	(main@m)
  1859                           
  1860                           	line	174
  1861                           	
  1862  0262                     l3258:	
  1863                           ;8 sensor with lcd value.c: 174: n=temp4%1000;
  1864  0262  30E8               	movlw	low(03E8h)
  1865  0263  00F0               	movwf	(?___lwmod)
  1866  0264  3003               	movlw	high(03E8h)
  1867  0265  00F1               	movwf	((?___lwmod))+1
  1868  0266  1683               	bsf	status, 5	;RP0=1, select bank1
  1869  0267  1303               	bcf	status, 6	;RP1=0, select bank1
  1870  0268  0835               	movf	(main@temp4+1)^080h,w
  1871  0269  01F3               	clrf	1+(?___lwmod)+02h
  1872  026A  07F3               	addwf	1+(?___lwmod)+02h
  1873  026B  0834               	movf	(main@temp4)^080h,w
  1874  026C  01F2               	clrf	0+(?___lwmod)+02h
  1875  026D  07F2               	addwf	0+(?___lwmod)+02h
  1876                           
  1877  026E  120A  158A  24E6   	fcall	___lwmod
              120A  118A         
  1878  0273  0871               	movf	(1+(?___lwmod)),w
  1879  0274  1283               	bcf	status, 5	;RP0=0, select bank0
  1880  0275  1303               	bcf	status, 6	;RP1=0, select bank0
  1881  0276  01E7               	clrf	(main@n+1)
  1882  0277  07E7               	addwf	(main@n+1)
  1883  0278  0870               	movf	(0+(?___lwmod)),w
  1884  0279  01E6               	clrf	(main@n)
  1885  027A  07E6               	addwf	(main@n)
  1886                           
  1887                           	line	175
  1888                           	
  1889  027B                     l3260:	
  1890                           ;8 sensor with lcd value.c: 175: o=n/100;
  1891  027B  3064               	movlw	low(064h)
  1892  027C  00F0               	movwf	(?___awdiv)
  1893  027D  3000               	movlw	high(064h)
  1894  027E  00F1               	movwf	((?___awdiv))+1
  1895  027F  0867               	movf	(main@n+1),w
  1896  0280  01F3               	clrf	1+(?___awdiv)+02h
  1897  0281  07F3               	addwf	1+(?___awdiv)+02h
  1898  0282  0866               	movf	(main@n),w
  1899  0283  01F2               	clrf	0+(?___awdiv)+02h
  1900  0284  07F2               	addwf	0+(?___awdiv)+02h
  1901                           
  1902  0285  120A  118A  2003   	fcall	___awdiv
              120A  118A         
  1903  028A  0871               	movf	(1+(?___awdiv)),w
  1904  028B  1283               	bcf	status, 5	;RP0=0, select bank0
  1905  028C  1303               	bcf	status, 6	;RP1=0, select bank0
  1906  028D  01B1               	clrf	(main@o+1)
  1907  028E  07B1               	addwf	(main@o+1)
  1908  028F  0870               	movf	(0+(?___awdiv)),w
  1909  0290  01B0               	clrf	(main@o)
  1910  0291  07B0               	addwf	(main@o)
  1911                           
  1912                           	line	176
  1913                           	
  1914  0292                     l3262:	
  1915                           ;8 sensor with lcd value.c: 176: p=n%100;
  1916  0292  3064               	movlw	low(064h)
  1917  0293  00F0               	movwf	(?___awmod)
  1918  0294  3000               	movlw	high(064h)
  1919  0295  00F1               	movwf	((?___awmod))+1
  1920  0296  0867               	movf	(main@n+1),w
  1921  0297  01F3               	clrf	1+(?___awmod)+02h
  1922  0298  07F3               	addwf	1+(?___awmod)+02h
  1923  0299  0866               	movf	(main@n),w
  1924  029A  01F2               	clrf	0+(?___awmod)+02h
  1925  029B  07F2               	addwf	0+(?___awmod)+02h
  1926                           
  1927  029C  120A  158A  256C   	fcall	___awmod
              120A  118A         
  1928  02A1  0871               	movf	(1+(?___awmod)),w
  1929  02A2  1283               	bcf	status, 5	;RP0=0, select bank0
  1930  02A3  1303               	bcf	status, 6	;RP1=0, select bank0
  1931  02A4  01E9               	clrf	(main@p+1)
  1932  02A5  07E9               	addwf	(main@p+1)
  1933  02A6  0870               	movf	(0+(?___awmod)),w
  1934  02A7  01E8               	clrf	(main@p)
  1935  02A8  07E8               	addwf	(main@p)
  1936                           
  1937                           	line	177
  1938                           	
  1939  02A9                     l3264:	
  1940                           ;8 sensor with lcd value.c: 177: q=p/10;
  1941  02A9  300A               	movlw	low(0Ah)
  1942  02AA  00F0               	movwf	(?___awdiv)
  1943  02AB  3000               	movlw	high(0Ah)
  1944  02AC  00F1               	movwf	((?___awdiv))+1
  1945  02AD  0869               	movf	(main@p+1),w
  1946  02AE  01F3               	clrf	1+(?___awdiv)+02h
  1947  02AF  07F3               	addwf	1+(?___awdiv)+02h
  1948  02B0  0868               	movf	(main@p),w
  1949  02B1  01F2               	clrf	0+(?___awdiv)+02h
  1950  02B2  07F2               	addwf	0+(?___awdiv)+02h
  1951                           
  1952  02B3  120A  118A  2003   	fcall	___awdiv
              120A  118A         
  1953  02B8  0871               	movf	(1+(?___awdiv)),w
  1954  02B9  1283               	bcf	status, 5	;RP0=0, select bank0
  1955  02BA  1303               	bcf	status, 6	;RP1=0, select bank0
  1956  02BB  01B3               	clrf	(main@q+1)
  1957  02BC  07B3               	addwf	(main@q+1)
  1958  02BD  0870               	movf	(0+(?___awdiv)),w
  1959  02BE  01B2               	clrf	(main@q)
  1960  02BF  07B2               	addwf	(main@q)
  1961                           
  1962                           	line	178
  1963                           	
  1964  02C0                     l3266:	
  1965                           ;8 sensor with lcd value.c: 178: r=p%10;
  1966  02C0  300A               	movlw	low(0Ah)
  1967  02C1  00F0               	movwf	(?___awmod)
  1968  02C2  3000               	movlw	high(0Ah)
  1969  02C3  00F1               	movwf	((?___awmod))+1
  1970  02C4  0869               	movf	(main@p+1),w
  1971  02C5  01F3               	clrf	1+(?___awmod)+02h
  1972  02C6  07F3               	addwf	1+(?___awmod)+02h
  1973  02C7  0868               	movf	(main@p),w
  1974  02C8  01F2               	clrf	0+(?___awmod)+02h
  1975  02C9  07F2               	addwf	0+(?___awmod)+02h
  1976                           
  1977  02CA  120A  158A  256C   	fcall	___awmod
              120A  118A         
  1978  02CF  0871               	movf	(1+(?___awmod)),w
  1979  02D0  1283               	bcf	status, 5	;RP0=0, select bank0
  1980  02D1  1303               	bcf	status, 6	;RP1=0, select bank0
  1981  02D2  01B5               	clrf	(main@r+1)
  1982  02D3  07B5               	addwf	(main@r+1)
  1983  02D4  0870               	movf	(0+(?___awmod)),w
  1984  02D5  01B4               	clrf	(main@r)
  1985  02D6  07B4               	addwf	(main@r)
  1986                           
  1987                           	line	179
  1988                           	
  1989  02D7                     l3268:	
  1990                           ;8 sensor with lcd value.c: 179: lcd_command(0x8C);
  1991  02D7  308C               	movlw	(08Ch)
  1992  02D8  120A  158A  24A3   	fcall	_lcd_command
              120A  118A         
  1993                           	line	180
  1994                           	
  1995  02DD                     l3270:	
  1996                           ;8 sensor with lcd value.c: 180: delay(600);
  1997  02DD  3058               	movlw	low(0258h)
  1998  02DE  00F0               	movwf	(?_delay)
  1999  02DF  3002               	movlw	high(0258h)
  2000  02E0  00F1               	movwf	((?_delay))+1
  2001  02E1  120A  158A  2491   	fcall	_delay
              120A  118A         
  2002                           	line	181
  2003                           	
  2004  02E6                     l3272:	
  2005                           ;8 sensor with lcd value.c: 181: lcd_data(m+0x30);
  2006  02E6  1283               	bcf	status, 5	;RP0=0, select bank0
  2007  02E7  1303               	bcf	status, 6	;RP1=0, select bank0
  2008  02E8  082E               	movf	(main@m),w
  2009  02E9  3E30               	addlw	030h
  2010  02EA  120A  158A  24B8   	fcall	_lcd_data
              120A  118A         
  2011                           	line	182
  2012                           	
  2013  02EF                     l3274:	
  2014                           ;8 sensor with lcd value.c: 182: delay(600);
  2015  02EF  3058               	movlw	low(0258h)
  2016  02F0  00F0               	movwf	(?_delay)
  2017  02F1  3002               	movlw	high(0258h)
  2018  02F2  00F1               	movwf	((?_delay))+1
  2019  02F3  120A  158A  2491   	fcall	_delay
              120A  118A         
  2020                           	line	183
  2021                           	
  2022  02F8                     l3276:	
  2023                           ;8 sensor with lcd value.c: 183: lcd_data(o+0x30);
  2024  02F8  1283               	bcf	status, 5	;RP0=0, select bank0
  2025  02F9  1303               	bcf	status, 6	;RP1=0, select bank0
  2026  02FA  0830               	movf	(main@o),w
  2027  02FB  3E30               	addlw	030h
  2028  02FC  120A  158A  24B8   	fcall	_lcd_data
              120A  118A         
  2029                           	line	184
  2030                           	
  2031  0301                     l3278:	
  2032                           ;8 sensor with lcd value.c: 184: delay(600);
  2033  0301  3058               	movlw	low(0258h)
  2034  0302  00F0               	movwf	(?_delay)
  2035  0303  3002               	movlw	high(0258h)
  2036  0304  00F1               	movwf	((?_delay))+1
  2037  0305  120A  158A  2491   	fcall	_delay
              120A  118A         
  2038                           	line	185
  2039                           	
  2040  030A                     l3280:	
  2041                           ;8 sensor with lcd value.c: 185: lcd_data(q+0x30);
  2042  030A  1283               	bcf	status, 5	;RP0=0, select bank0
  2043  030B  1303               	bcf	status, 6	;RP1=0, select bank0
  2044  030C  0832               	movf	(main@q),w
  2045  030D  3E30               	addlw	030h
  2046  030E  120A  158A  24B8   	fcall	_lcd_data
              120A  118A         
  2047                           	line	186
  2048                           	
  2049  0313                     l3282:	
  2050                           ;8 sensor with lcd value.c: 186: delay(600);
  2051  0313  3058               	movlw	low(0258h)
  2052  0314  00F0               	movwf	(?_delay)
  2053  0315  3002               	movlw	high(0258h)
  2054  0316  00F1               	movwf	((?_delay))+1
  2055  0317  120A  158A  2491   	fcall	_delay
              120A  118A         
  2056                           	line	187
  2057                           	
  2058  031C                     l3284:	
  2059                           ;8 sensor with lcd value.c: 187: lcd_data(r+0x30);
  2060  031C  1283               	bcf	status, 5	;RP0=0, select bank0
  2061  031D  1303               	bcf	status, 6	;RP1=0, select bank0
  2062  031E  0834               	movf	(main@r),w
  2063  031F  3E30               	addlw	030h
  2064  0320  120A  158A  24B8   	fcall	_lcd_data
              120A  118A         
  2065                           	line	188
  2066                           	
  2067  0325                     l3286:	
  2068                           ;8 sensor with lcd value.c: 188: delay(600);
  2069  0325  3058               	movlw	low(0258h)
  2070  0326  00F0               	movwf	(?_delay)
  2071  0327  3002               	movlw	high(0258h)
  2072  0328  00F1               	movwf	((?_delay))+1
  2073  0329  120A  158A  2491   	fcall	_delay
              120A  118A         
  2074                           	line	192
  2075                           	
  2076  032E                     l3288:	
  2077                           ;8 sensor with lcd value.c: 192: CHS2=1;
  2078  032E  1283               	bcf	status, 5	;RP0=0, select bank0
  2079  032F  1303               	bcf	status, 6	;RP1=0, select bank0
  2080  0330  169F               	bsf	(253/8),(253)&7
  2081                           	line	193
  2082                           	
  2083  0331                     l3290:	
  2084                           ;8 sensor with lcd value.c: 193: CHS1=0;
  2085  0331  121F               	bcf	(252/8),(252)&7
  2086                           	line	194
  2087                           	
  2088  0332                     l3292:	
  2089                           ;8 sensor with lcd value.c: 194: CHS0=0;
  2090  0332  119F               	bcf	(251/8),(251)&7
  2091                           	line	195
  2092                           	
  2093  0333                     l3294:	
  2094                           ;8 sensor with lcd value.c: 195: ADON=1;
  2095  0333  141F               	bsf	(248/8),(248)&7
  2096                           	line	196
  2097                           	
  2098  0334                     l3296:	
  2099                           ;8 sensor with lcd value.c: 196: delay(600);
  2100  0334  3058               	movlw	low(0258h)
  2101  0335  00F0               	movwf	(?_delay)
  2102  0336  3002               	movlw	high(0258h)
  2103  0337  00F1               	movwf	((?_delay))+1
  2104  0338  120A  158A  2491   	fcall	_delay
              120A  118A         
  2105                           	line	197
  2106                           	
  2107  033D                     l3298:	
  2108                           ;8 sensor with lcd value.c: 197: ADCON0=(ADCON0|0X04);
  2109  033D  1283               	bcf	status, 5	;RP0=0, select bank0
  2110  033E  1303               	bcf	status, 6	;RP1=0, select bank0
  2111  033F  081F               	movf	(31),w	;volatile
  2112  0340  3804               	iorlw	04h
  2113  0341  009F               	movwf	(31)	;volatile
  2114                           	line	198
  2115                           	
  2116  0342                     l3300:	
  2117                           ;8 sensor with lcd value.c: 198: delay(600);
  2118  0342  3058               	movlw	low(0258h)
  2119  0343  00F0               	movwf	(?_delay)
  2120  0344  3002               	movlw	high(0258h)
  2121  0345  00F1               	movwf	((?_delay))+1
  2122  0346  120A  158A  2491   	fcall	_delay
              120A  118A         
  2123                           	line	199
  2124                           	
  2125  034B                     l3302:	
  2126                           ;8 sensor with lcd value.c: 199: temp5=ADRESH<<8;
  2127  034B  1283               	bcf	status, 5	;RP0=0, select bank0
  2128  034C  1303               	bcf	status, 6	;RP1=0, select bank0
  2129  034D  081E               	movf	(30),w	;volatile
  2130  034E  00F9               	movwf	(??_main+0)+0
  2131  034F  01FA               	clrf	(??_main+0)+0+1
  2132  0350  3008               	movlw	08h
  2133  0351  00FE               	movwf	btemp+0
  2134  0352                     u2625:
  2135  0352  1003               	clrc
  2136  0353  0DF9               	rlf	(??_main+0)+0,f
  2137  0354  0DFA               	rlf	(??_main+0)+1,f
  2138  0355  0BFE               	decfsz	btemp+0,f
  2139  0356  2B52               	goto	u2625
  2140  0357  0879               	movf	0+(??_main+0)+0,w
  2141  0358  1683               	bsf	status, 5	;RP0=1, select bank1
  2142  0359  1303               	bcf	status, 6	;RP1=0, select bank1
  2143  035A  00B6               	movwf	(main@temp5)^080h
  2144  035B  087A               	movf	1+(??_main+0)+0,w
  2145  035C  00B7               	movwf	(main@temp5+1)^080h
  2146                           	line	200
  2147                           	
  2148  035D                     l3304:	
  2149                           ;8 sensor with lcd value.c: 200: delay(600);
  2150  035D  3058               	movlw	low(0258h)
  2151  035E  00F0               	movwf	(?_delay)
  2152  035F  3002               	movlw	high(0258h)
  2153  0360  00F1               	movwf	((?_delay))+1
  2154  0361  120A  158A  2491   	fcall	_delay
              120A  118A         
  2155                           	line	201
  2156                           	
  2157  0366                     l3306:	
  2158                           ;8 sensor with lcd value.c: 201: temp5=temp5+ADRESL;
  2159  0366  1683               	bsf	status, 5	;RP0=1, select bank1
  2160  0367  1303               	bcf	status, 6	;RP1=0, select bank1
  2161  0368  081E               	movf	(158)^080h,w	;volatile
  2162  0369  0736               	addwf	(main@temp5)^080h,w
  2163  036A  00B6               	movwf	(main@temp5)^080h
  2164  036B  0837               	movf	(main@temp5+1)^080h,w
  2165  036C  1803               	skipnc
  2166  036D  0A37               	incf	(main@temp5+1)^080h,w
  2167  036E  00B7               	movwf	((main@temp5)^080h)+1
  2168                           	line	203
  2169                           	
  2170  036F                     l3308:	
  2171                           ;8 sensor with lcd value.c: 203: PORTD=temp5;
  2172  036F  0836               	movf	(main@temp5)^080h,w
  2173  0370  1283               	bcf	status, 5	;RP0=0, select bank0
  2174  0371  1303               	bcf	status, 6	;RP1=0, select bank0
  2175  0372  0088               	movwf	(8)	;volatile
  2176                           	line	204
  2177                           	
  2178  0373                     l3310:	
  2179                           ;8 sensor with lcd value.c: 204: A=temp5/1000;
  2180  0373  30E8               	movlw	low(03E8h)
  2181  0374  00F0               	movwf	(?___lwdiv)
  2182  0375  3003               	movlw	high(03E8h)
  2183  0376  00F1               	movwf	((?___lwdiv))+1
  2184  0377  1683               	bsf	status, 5	;RP0=1, select bank1
  2185  0378  1303               	bcf	status, 6	;RP1=0, select bank1
  2186  0379  0837               	movf	(main@temp5+1)^080h,w
  2187  037A  01F3               	clrf	1+(?___lwdiv)+02h
  2188  037B  07F3               	addwf	1+(?___lwdiv)+02h
  2189  037C  0836               	movf	(main@temp5)^080h,w
  2190  037D  01F2               	clrf	0+(?___lwdiv)+02h
  2191  037E  07F2               	addwf	0+(?___lwdiv)+02h
  2192                           
  2193  037F  120A  158A  2523   	fcall	___lwdiv
              120A  118A         
  2194  0384  0871               	movf	(1+(?___lwdiv)),w
  2195  0385  1283               	bcf	status, 5	;RP0=0, select bank0
  2196  0386  1303               	bcf	status, 6	;RP1=0, select bank0
  2197  0387  01BF               	clrf	(main@A+1)
  2198  0388  07BF               	addwf	(main@A+1)
  2199  0389  0870               	movf	(0+(?___lwdiv)),w
  2200  038A  01BE               	clrf	(main@A)
  2201  038B  07BE               	addwf	(main@A)
  2202                           
  2203                           	line	205
  2204                           	
  2205  038C                     l3312:	
  2206                           ;8 sensor with lcd value.c: 205: B=temp5%1000;
  2207  038C  30E8               	movlw	low(03E8h)
  2208  038D  00F0               	movwf	(?___lwmod)
  2209  038E  3003               	movlw	high(03E8h)
  2210  038F  00F1               	movwf	((?___lwmod))+1
  2211  0390  1683               	bsf	status, 5	;RP0=1, select bank1
  2212  0391  1303               	bcf	status, 6	;RP1=0, select bank1
  2213  0392  0837               	movf	(main@temp5+1)^080h,w
  2214  0393  01F3               	clrf	1+(?___lwmod)+02h
  2215  0394  07F3               	addwf	1+(?___lwmod)+02h
  2216  0395  0836               	movf	(main@temp5)^080h,w
  2217  0396  01F2               	clrf	0+(?___lwmod)+02h
  2218  0397  07F2               	addwf	0+(?___lwmod)+02h
  2219                           
  2220  0398  120A  158A  24E6   	fcall	___lwmod
              120A  118A         
  2221  039D  0871               	movf	(1+(?___lwmod)),w
  2222  039E  1283               	bcf	status, 5	;RP0=0, select bank0
  2223  039F  1303               	bcf	status, 6	;RP1=0, select bank0
  2224  03A0  01EF               	clrf	(main@B+1)
  2225  03A1  07EF               	addwf	(main@B+1)
  2226  03A2  0870               	movf	(0+(?___lwmod)),w
  2227  03A3  01EE               	clrf	(main@B)
  2228  03A4  07EE               	addwf	(main@B)
  2229                           
  2230                           	line	206
  2231                           	
  2232  03A5                     l3314:	
  2233                           ;8 sensor with lcd value.c: 206: C=B/100;
  2234  03A5  3064               	movlw	low(064h)
  2235  03A6  00F0               	movwf	(?___awdiv)
  2236  03A7  3000               	movlw	high(064h)
  2237  03A8  00F1               	movwf	((?___awdiv))+1
  2238  03A9  086F               	movf	(main@B+1),w
  2239  03AA  01F3               	clrf	1+(?___awdiv)+02h
  2240  03AB  07F3               	addwf	1+(?___awdiv)+02h
  2241  03AC  086E               	movf	(main@B),w
  2242  03AD  01F2               	clrf	0+(?___awdiv)+02h
  2243  03AE  07F2               	addwf	0+(?___awdiv)+02h
  2244                           
  2245  03AF  120A  118A  2003   	fcall	___awdiv
              120A  118A         
  2246  03B4  0871               	movf	(1+(?___awdiv)),w
  2247  03B5  1283               	bcf	status, 5	;RP0=0, select bank0
  2248  03B6  1303               	bcf	status, 6	;RP1=0, select bank0
  2249  03B7  01C1               	clrf	(main@C+1)
  2250  03B8  07C1               	addwf	(main@C+1)
  2251  03B9  0870               	movf	(0+(?___awdiv)),w
  2252  03BA  01C0               	clrf	(main@C)
  2253  03BB  07C0               	addwf	(main@C)
  2254                           
  2255                           	line	207
  2256                           	
  2257  03BC                     l3316:	
  2258                           ;8 sensor with lcd value.c: 207: D=B%100;
  2259  03BC  3064               	movlw	low(064h)
  2260  03BD  00F0               	movwf	(?___awmod)
  2261  03BE  3000               	movlw	high(064h)
  2262  03BF  00F1               	movwf	((?___awmod))+1
  2263  03C0  086F               	movf	(main@B+1),w
  2264  03C1  01F3               	clrf	1+(?___awmod)+02h
  2265  03C2  07F3               	addwf	1+(?___awmod)+02h
  2266  03C3  086E               	movf	(main@B),w
  2267  03C4  01F2               	clrf	0+(?___awmod)+02h
  2268  03C5  07F2               	addwf	0+(?___awmod)+02h
  2269                           
  2270  03C6  120A  158A  256C   	fcall	___awmod
              120A  118A         
  2271  03CB  0871               	movf	(1+(?___awmod)),w
  2272  03CC  1683               	bsf	status, 5	;RP0=1, select bank1
  2273  03CD  1303               	bcf	status, 6	;RP1=0, select bank1
  2274  03CE  01A1               	clrf	(main@D+1)^080h
  2275  03CF  07A1               	addwf	(main@D+1)^080h
  2276  03D0  0870               	movf	(0+(?___awmod)),w
  2277  03D1  01A0               	clrf	(main@D)^080h
  2278  03D2  07A0               	addwf	(main@D)^080h
  2279                           
  2280                           	line	208
  2281                           	
  2282  03D3                     l3318:	
  2283                           ;8 sensor with lcd value.c: 208: E=D/10;
  2284  03D3  300A               	movlw	low(0Ah)
  2285  03D4  00F0               	movwf	(?___awdiv)
  2286  03D5  3000               	movlw	high(0Ah)
  2287  03D6  00F1               	movwf	((?___awdiv))+1
  2288  03D7  0821               	movf	(main@D+1)^080h,w
  2289  03D8  01F3               	clrf	1+(?___awdiv)+02h
  2290  03D9  07F3               	addwf	1+(?___awdiv)+02h
  2291  03DA  0820               	movf	(main@D)^080h,w
  2292  03DB  01F2               	clrf	0+(?___awdiv)+02h
  2293  03DC  07F2               	addwf	0+(?___awdiv)+02h
  2294                           
  2295  03DD  120A  118A  2003   	fcall	___awdiv
              120A  118A         
  2296  03E2  0871               	movf	(1+(?___awdiv)),w
  2297  03E3  1283               	bcf	status, 5	;RP0=0, select bank0
  2298  03E4  1303               	bcf	status, 6	;RP1=0, select bank0
  2299  03E5  01C3               	clrf	(main@E+1)
  2300  03E6  07C3               	addwf	(main@E+1)
  2301  03E7  0870               	movf	(0+(?___awdiv)),w
  2302  03E8  01C2               	clrf	(main@E)
  2303  03E9  07C2               	addwf	(main@E)
  2304                           
  2305                           	line	209
  2306                           	
  2307  03EA                     l3320:	
  2308                           ;8 sensor with lcd value.c: 209: F=D%10;
  2309  03EA  300A               	movlw	low(0Ah)
  2310  03EB  00F0               	movwf	(?___awmod)
  2311  03EC  3000               	movlw	high(0Ah)
  2312  03ED  00F1               	movwf	((?___awmod))+1
  2313  03EE  1683               	bsf	status, 5	;RP0=1, select bank1
  2314  03EF  1303               	bcf	status, 6	;RP1=0, select bank1
  2315  03F0  0821               	movf	(main@D+1)^080h,w
  2316  03F1  01F3               	clrf	1+(?___awmod)+02h
  2317  03F2  07F3               	addwf	1+(?___awmod)+02h
  2318  03F3  0820               	movf	(main@D)^080h,w
  2319  03F4  01F2               	clrf	0+(?___awmod)+02h
  2320  03F5  07F2               	addwf	0+(?___awmod)+02h
  2321                           
  2322  03F6  120A  158A  256C   	fcall	___awmod
              120A  118A         
  2323  03FB  0871               	movf	(1+(?___awmod)),w
  2324  03FC  1283               	bcf	status, 5	;RP0=0, select bank0
  2325  03FD  1303               	bcf	status, 6	;RP1=0, select bank0
  2326  03FE  01C5               	clrf	(main@F+1)
  2327  03FF  07C5               	addwf	(main@F+1)
  2328  0400  0870               	movf	(0+(?___awmod)),w
  2329  0401  01C4               	clrf	(main@F)
  2330  0402  07C4               	addwf	(main@F)
  2331                           
  2332                           	line	210
  2333                           	
  2334  0403                     l3322:	
  2335                           ;8 sensor with lcd value.c: 210: lcd_command(0xC0);
  2336  0403  30C0               	movlw	(0C0h)
  2337  0404  120A  158A  24A3   	fcall	_lcd_command
              120A  118A         
  2338                           	line	211
  2339                           	
  2340  0409                     l3324:	
  2341                           ;8 sensor with lcd value.c: 211: delay(600);
  2342  0409  3058               	movlw	low(0258h)
  2343  040A  00F0               	movwf	(?_delay)
  2344  040B  3002               	movlw	high(0258h)
  2345  040C  00F1               	movwf	((?_delay))+1
  2346  040D  120A  158A  2491   	fcall	_delay
              120A  118A         
  2347                           	line	212
  2348                           	
  2349  0412                     l3326:	
  2350                           ;8 sensor with lcd value.c: 212: lcd_data(A+0x30);
  2351  0412  1283               	bcf	status, 5	;RP0=0, select bank0
  2352  0413  1303               	bcf	status, 6	;RP1=0, select bank0
  2353  0414  083E               	movf	(main@A),w
  2354  0415  3E30               	addlw	030h
  2355  0416  120A  158A  24B8   	fcall	_lcd_data
              120A  118A         
  2356                           	line	213
  2357                           	
  2358  041B                     l3328:	
  2359                           ;8 sensor with lcd value.c: 213: delay(600);
  2360  041B  3058               	movlw	low(0258h)
  2361  041C  00F0               	movwf	(?_delay)
  2362  041D  3002               	movlw	high(0258h)
  2363  041E  00F1               	movwf	((?_delay))+1
  2364  041F  120A  158A  2491   	fcall	_delay
              120A  118A         
  2365                           	line	214
  2366                           	
  2367  0424                     l3330:	
  2368                           ;8 sensor with lcd value.c: 214: lcd_data(C+0x30);
  2369  0424  1283               	bcf	status, 5	;RP0=0, select bank0
  2370  0425  1303               	bcf	status, 6	;RP1=0, select bank0
  2371  0426  0840               	movf	(main@C),w
  2372  0427  3E30               	addlw	030h
  2373  0428  120A  158A  24B8   	fcall	_lcd_data
              120A  118A         
  2374                           	line	215
  2375                           	
  2376  042D                     l3332:	
  2377                           ;8 sensor with lcd value.c: 215: delay(600);
  2378  042D  3058               	movlw	low(0258h)
  2379  042E  00F0               	movwf	(?_delay)
  2380  042F  3002               	movlw	high(0258h)
  2381  0430  00F1               	movwf	((?_delay))+1
  2382  0431  120A  158A  2491   	fcall	_delay
              120A  118A         
  2383                           	line	216
  2384                           	
  2385  0436                     l3334:	
  2386                           ;8 sensor with lcd value.c: 216: lcd_data(E+0x30);
  2387  0436  1283               	bcf	status, 5	;RP0=0, select bank0
  2388  0437  1303               	bcf	status, 6	;RP1=0, select bank0
  2389  0438  0842               	movf	(main@E),w
  2390  0439  3E30               	addlw	030h
  2391  043A  120A  158A  24B8   	fcall	_lcd_data
              120A  118A         
  2392                           	line	217
  2393                           	
  2394  043F                     l3336:	
  2395                           ;8 sensor with lcd value.c: 217: delay(600);
  2396  043F  3058               	movlw	low(0258h)
  2397  0440  00F0               	movwf	(?_delay)
  2398  0441  3002               	movlw	high(0258h)
  2399  0442  00F1               	movwf	((?_delay))+1
  2400  0443  120A  158A  2491   	fcall	_delay
              120A  118A         
  2401                           	line	218
  2402                           	
  2403  0448                     l3338:	
  2404                           ;8 sensor with lcd value.c: 218: lcd_data(F+0x30);
  2405  0448  1283               	bcf	status, 5	;RP0=0, select bank0
  2406  0449  1303               	bcf	status, 6	;RP1=0, select bank0
  2407  044A  0844               	movf	(main@F),w
  2408  044B  3E30               	addlw	030h
  2409  044C  120A  158A  24B8   	fcall	_lcd_data
              120A  118A         
  2410                           	line	219
  2411                           	
  2412  0451                     l3340:	
  2413                           ;8 sensor with lcd value.c: 219: delay(600);
  2414  0451  3058               	movlw	low(0258h)
  2415  0452  00F0               	movwf	(?_delay)
  2416  0453  3002               	movlw	high(0258h)
  2417  0454  00F1               	movwf	((?_delay))+1
  2418  0455  120A  158A  2491   	fcall	_delay
              120A  118A         
  2419                           	line	223
  2420                           	
  2421  045A                     l3342:	
  2422                           ;8 sensor with lcd value.c: 223: CHS2=1;
  2423  045A  1283               	bcf	status, 5	;RP0=0, select bank0
  2424  045B  1303               	bcf	status, 6	;RP1=0, select bank0
  2425  045C  169F               	bsf	(253/8),(253)&7
  2426                           	line	224
  2427                           	
  2428  045D                     l3344:	
  2429                           ;8 sensor with lcd value.c: 224: CHS1=0;
  2430  045D  121F               	bcf	(252/8),(252)&7
  2431                           	line	225
  2432                           	
  2433  045E                     l3346:	
  2434                           ;8 sensor with lcd value.c: 225: CHS0=1;
  2435  045E  159F               	bsf	(251/8),(251)&7
  2436                           	line	226
  2437                           	
  2438  045F                     l3348:	
  2439                           ;8 sensor with lcd value.c: 226: ADON=1;
  2440  045F  141F               	bsf	(248/8),(248)&7
  2441                           	line	227
  2442                           	
  2443  0460                     l3350:	
  2444                           ;8 sensor with lcd value.c: 227: delay(600);
  2445  0460  3058               	movlw	low(0258h)
  2446  0461  00F0               	movwf	(?_delay)
  2447  0462  3002               	movlw	high(0258h)
  2448  0463  00F1               	movwf	((?_delay))+1
  2449  0464  120A  158A  2491   	fcall	_delay
              120A  118A         
  2450                           	line	228
  2451                           	
  2452  0469                     l3352:	
  2453                           ;8 sensor with lcd value.c: 228: ADCON0=(ADCON0|0X04);
  2454  0469  1283               	bcf	status, 5	;RP0=0, select bank0
  2455  046A  1303               	bcf	status, 6	;RP1=0, select bank0
  2456  046B  081F               	movf	(31),w	;volatile
  2457  046C  3804               	iorlw	04h
  2458  046D  009F               	movwf	(31)	;volatile
  2459                           	line	229
  2460                           	
  2461  046E                     l3354:	
  2462                           ;8 sensor with lcd value.c: 229: delay(600);
  2463  046E  3058               	movlw	low(0258h)
  2464  046F  00F0               	movwf	(?_delay)
  2465  0470  3002               	movlw	high(0258h)
  2466  0471  00F1               	movwf	((?_delay))+1
  2467  0472  120A  158A  2491   	fcall	_delay
              120A  118A         
  2468                           	line	230
  2469                           	
  2470  0477                     l3356:	
  2471                           ;8 sensor with lcd value.c: 230: temp6=ADRESH<<8;
  2472  0477  1283               	bcf	status, 5	;RP0=0, select bank0
  2473  0478  1303               	bcf	status, 6	;RP1=0, select bank0
  2474  0479  081E               	movf	(30),w	;volatile
  2475  047A  00F9               	movwf	(??_main+0)+0
  2476  047B  01FA               	clrf	(??_main+0)+0+1
  2477  047C  3008               	movlw	08h
  2478  047D  00FE               	movwf	btemp+0
  2479  047E                     u2635:
  2480  047E  1003               	clrc
  2481  047F  0DF9               	rlf	(??_main+0)+0,f
  2482  0480  0DFA               	rlf	(??_main+0)+1,f
  2483  0481  0BFE               	decfsz	btemp+0,f
  2484  0482  2C7E               	goto	u2635
  2485  0483  0879               	movf	0+(??_main+0)+0,w
  2486  0484  1683               	bsf	status, 5	;RP0=1, select bank1
  2487  0485  1303               	bcf	status, 6	;RP1=0, select bank1
  2488  0486  00B8               	movwf	(main@temp6)^080h
  2489  0487  087A               	movf	1+(??_main+0)+0,w
  2490  0488  00B9               	movwf	(main@temp6+1)^080h
  2491                           	line	231
  2492                           	
  2493  0489                     l3358:	
  2494                           ;8 sensor with lcd value.c: 231: delay(600);
  2495  0489  3058               	movlw	low(0258h)
  2496  048A  00F0               	movwf	(?_delay)
  2497  048B  3002               	movlw	high(0258h)
  2498  048C  00F1               	movwf	((?_delay))+1
  2499  048D  120A  158A  2491   	fcall	_delay
              120A  118A         
  2500                           	line	232
  2501                           ;8 sensor with lcd value.c: 232: temp6=temp6+ADRESL;
  2502  0492  1683               	bsf	status, 5	;RP0=1, select bank1
  2503  0493  1303               	bcf	status, 6	;RP1=0, select bank1
  2504  0494  081E               	movf	(158)^080h,w	;volatile
  2505  0495  0738               	addwf	(main@temp6)^080h,w
  2506  0496  00B8               	movwf	(main@temp6)^080h
  2507  0497  0839               	movf	(main@temp6+1)^080h,w
  2508  0498  1803               	skipnc
  2509  0499  0A39               	incf	(main@temp6+1)^080h,w
  2510  049A  00B9               	movwf	((main@temp6)^080h)+1
  2511                           	line	234
  2512                           ;8 sensor with lcd value.c: 234: PORTD=temp6;
  2513  049B  0838               	movf	(main@temp6)^080h,w
  2514  049C  1283               	bcf	status, 5	;RP0=0, select bank0
  2515  049D  1303               	bcf	status, 6	;RP1=0, select bank0
  2516  049E  0088               	movwf	(8)	;volatile
  2517                           	line	235
  2518                           	
  2519  049F                     l3360:	
  2520                           ;8 sensor with lcd value.c: 235: Z=temp6/1000;
  2521  049F  30E8               	movlw	low(03E8h)
  2522  04A0  00F0               	movwf	(?___lwdiv)
  2523  04A1  3003               	movlw	high(03E8h)
  2524  04A2  00F1               	movwf	((?___lwdiv))+1
  2525  04A3  1683               	bsf	status, 5	;RP0=1, select bank1
  2526  04A4  1303               	bcf	status, 6	;RP1=0, select bank1
  2527  04A5  0839               	movf	(main@temp6+1)^080h,w
  2528  04A6  01F3               	clrf	1+(?___lwdiv)+02h
  2529  04A7  07F3               	addwf	1+(?___lwdiv)+02h
  2530  04A8  0838               	movf	(main@temp6)^080h,w
  2531  04A9  01F2               	clrf	0+(?___lwdiv)+02h
  2532  04AA  07F2               	addwf	0+(?___lwdiv)+02h
  2533                           
  2534  04AB  120A  158A  2523   	fcall	___lwdiv
              120A  118A         
  2535  04B0  0871               	movf	(1+(?___lwdiv)),w
  2536  04B1  1283               	bcf	status, 5	;RP0=0, select bank0
  2537  04B2  1303               	bcf	status, 6	;RP1=0, select bank0
  2538  04B3  01D7               	clrf	(main@Z+1)
  2539  04B4  07D7               	addwf	(main@Z+1)
  2540  04B5  0870               	movf	(0+(?___lwdiv)),w
  2541  04B6  01D6               	clrf	(main@Z)
  2542  04B7  07D6               	addwf	(main@Z)
  2543                           
  2544                           	line	236
  2545                           	
  2546  04B8                     l3362:	
  2547                           ;8 sensor with lcd value.c: 236: Y=temp6%1000;
  2548  04B8  30E8               	movlw	low(03E8h)
  2549  04B9  00F0               	movwf	(?___lwmod)
  2550  04BA  3003               	movlw	high(03E8h)
  2551  04BB  00F1               	movwf	((?___lwmod))+1
  2552  04BC  1683               	bsf	status, 5	;RP0=1, select bank1
  2553  04BD  1303               	bcf	status, 6	;RP1=0, select bank1
  2554  04BE  0839               	movf	(main@temp6+1)^080h,w
  2555  04BF  01F3               	clrf	1+(?___lwmod)+02h
  2556  04C0  07F3               	addwf	1+(?___lwmod)+02h
  2557  04C1  0838               	movf	(main@temp6)^080h,w
  2558  04C2  01F2               	clrf	0+(?___lwmod)+02h
  2559  04C3  07F2               	addwf	0+(?___lwmod)+02h
  2560                           
  2561  04C4  120A  158A  24E6   	fcall	___lwmod
              120A  118A         
  2562  04C9  0871               	movf	(1+(?___lwmod)),w
  2563  04CA  1683               	bsf	status, 5	;RP0=1, select bank1
  2564  04CB  1303               	bcf	status, 6	;RP1=0, select bank1
  2565  04CC  01AB               	clrf	(main@Y+1)^080h
  2566  04CD  07AB               	addwf	(main@Y+1)^080h
  2567  04CE  0870               	movf	(0+(?___lwmod)),w
  2568  04CF  01AA               	clrf	(main@Y)^080h
  2569  04D0  07AA               	addwf	(main@Y)^080h
  2570                           
  2571                           	line	237
  2572                           	
  2573  04D1                     l3364:	
  2574                           ;8 sensor with lcd value.c: 237: X=Y/100;
  2575  04D1  3064               	movlw	low(064h)
  2576  04D2  00F0               	movwf	(?___awdiv)
  2577  04D3  3000               	movlw	high(064h)
  2578  04D4  00F1               	movwf	((?___awdiv))+1
  2579  04D5  082B               	movf	(main@Y+1)^080h,w
  2580  04D6  01F3               	clrf	1+(?___awdiv)+02h
  2581  04D7  07F3               	addwf	1+(?___awdiv)+02h
  2582  04D8  082A               	movf	(main@Y)^080h,w
  2583  04D9  01F2               	clrf	0+(?___awdiv)+02h
  2584  04DA  07F2               	addwf	0+(?___awdiv)+02h
  2585                           
  2586  04DB  120A  118A  2003   	fcall	___awdiv
              120A  118A         
  2587  04E0  0871               	movf	(1+(?___awdiv)),w
  2588  04E1  1283               	bcf	status, 5	;RP0=0, select bank0
  2589  04E2  1303               	bcf	status, 6	;RP1=0, select bank0
  2590  04E3  01D9               	clrf	(main@X+1)
  2591  04E4  07D9               	addwf	(main@X+1)
  2592  04E5  0870               	movf	(0+(?___awdiv)),w
  2593  04E6  01D8               	clrf	(main@X)
  2594  04E7  07D8               	addwf	(main@X)
  2595                           
  2596                           	line	238
  2597                           	
  2598  04E8                     l3366:	
  2599                           ;8 sensor with lcd value.c: 238: W=Y%100;
  2600  04E8  3064               	movlw	low(064h)
  2601  04E9  00F0               	movwf	(?___awmod)
  2602  04EA  3000               	movlw	high(064h)
  2603  04EB  00F1               	movwf	((?___awmod))+1
  2604  04EC  1683               	bsf	status, 5	;RP0=1, select bank1
  2605  04ED  1303               	bcf	status, 6	;RP1=0, select bank1
  2606  04EE  082B               	movf	(main@Y+1)^080h,w
  2607  04EF  01F3               	clrf	1+(?___awmod)+02h
  2608  04F0  07F3               	addwf	1+(?___awmod)+02h
  2609  04F1  082A               	movf	(main@Y)^080h,w
  2610  04F2  01F2               	clrf	0+(?___awmod)+02h
  2611  04F3  07F2               	addwf	0+(?___awmod)+02h
  2612                           
  2613  04F4  120A  158A  256C   	fcall	___awmod
              120A  118A         
  2614  04F9  0871               	movf	(1+(?___awmod)),w
  2615  04FA  1683               	bsf	status, 5	;RP0=1, select bank1
  2616  04FB  1303               	bcf	status, 6	;RP1=0, select bank1
  2617  04FC  01AD               	clrf	(main@W+1)^080h
  2618  04FD  07AD               	addwf	(main@W+1)^080h
  2619  04FE  0870               	movf	(0+(?___awmod)),w
  2620  04FF  01AC               	clrf	(main@W)^080h
  2621  0500  07AC               	addwf	(main@W)^080h
  2622                           
  2623                           	line	239
  2624                           	
  2625  0501                     l3368:	
  2626                           ;8 sensor with lcd value.c: 239: V=W/10;
  2627  0501  300A               	movlw	low(0Ah)
  2628  0502  00F0               	movwf	(?___awdiv)
  2629  0503  3000               	movlw	high(0Ah)
  2630  0504  00F1               	movwf	((?___awdiv))+1
  2631  0505  082D               	movf	(main@W+1)^080h,w
  2632  0506  01F3               	clrf	1+(?___awdiv)+02h
  2633  0507  07F3               	addwf	1+(?___awdiv)+02h
  2634  0508  082C               	movf	(main@W)^080h,w
  2635  0509  01F2               	clrf	0+(?___awdiv)+02h
  2636  050A  07F2               	addwf	0+(?___awdiv)+02h
  2637                           
  2638  050B  120A  118A  2003   	fcall	___awdiv
              120A  118A         
  2639  0510  0871               	movf	(1+(?___awdiv)),w
  2640  0511  1283               	bcf	status, 5	;RP0=0, select bank0
  2641  0512  1303               	bcf	status, 6	;RP1=0, select bank0
  2642  0513  01DB               	clrf	(main@V+1)
  2643  0514  07DB               	addwf	(main@V+1)
  2644  0515  0870               	movf	(0+(?___awdiv)),w
  2645  0516  01DA               	clrf	(main@V)
  2646  0517  07DA               	addwf	(main@V)
  2647                           
  2648                           	line	240
  2649                           	
  2650  0518                     l3370:	
  2651                           ;8 sensor with lcd value.c: 240: U=W%10;
  2652  0518  300A               	movlw	low(0Ah)
  2653  0519  00F0               	movwf	(?___awmod)
  2654  051A  3000               	movlw	high(0Ah)
  2655  051B  00F1               	movwf	((?___awmod))+1
  2656  051C  1683               	bsf	status, 5	;RP0=1, select bank1
  2657  051D  1303               	bcf	status, 6	;RP1=0, select bank1
  2658  051E  082D               	movf	(main@W+1)^080h,w
  2659  051F  01F3               	clrf	1+(?___awmod)+02h
  2660  0520  07F3               	addwf	1+(?___awmod)+02h
  2661  0521  082C               	movf	(main@W)^080h,w
  2662  0522  01F2               	clrf	0+(?___awmod)+02h
  2663  0523  07F2               	addwf	0+(?___awmod)+02h
  2664                           
  2665  0524  120A  158A  256C   	fcall	___awmod
              120A  118A         
  2666  0529  0871               	movf	(1+(?___awmod)),w
  2667  052A  1283               	bcf	status, 5	;RP0=0, select bank0
  2668  052B  1303               	bcf	status, 6	;RP1=0, select bank0
  2669  052C  01DD               	clrf	(main@U+1)
  2670  052D  07DD               	addwf	(main@U+1)
  2671  052E  0870               	movf	(0+(?___awmod)),w
  2672  052F  01DC               	clrf	(main@U)
  2673  0530  07DC               	addwf	(main@U)
  2674                           
  2675                           	line	241
  2676                           	
  2677  0531                     l3372:	
  2678                           ;8 sensor with lcd value.c: 241: lcd_command(0xC4);
  2679  0531  30C4               	movlw	(0C4h)
  2680  0532  120A  158A  24A3   	fcall	_lcd_command
              120A  118A         
  2681                           	line	242
  2682                           	
  2683  0537                     l3374:	
  2684                           ;8 sensor with lcd value.c: 242: delay(600);
  2685  0537  3058               	movlw	low(0258h)
  2686  0538  00F0               	movwf	(?_delay)
  2687  0539  3002               	movlw	high(0258h)
  2688  053A  00F1               	movwf	((?_delay))+1
  2689  053B  120A  158A  2491   	fcall	_delay
              120A  118A         
  2690                           	line	243
  2691                           	
  2692  0540                     l3376:	
  2693                           ;8 sensor with lcd value.c: 243: lcd_data(Z+0x30);
  2694  0540  1283               	bcf	status, 5	;RP0=0, select bank0
  2695  0541  1303               	bcf	status, 6	;RP1=0, select bank0
  2696  0542  0856               	movf	(main@Z),w
  2697  0543  3E30               	addlw	030h
  2698  0544  120A  158A  24B8   	fcall	_lcd_data
              120A  118A         
  2699                           	line	244
  2700                           	
  2701  0549                     l3378:	
  2702                           ;8 sensor with lcd value.c: 244: delay(600);
  2703  0549  3058               	movlw	low(0258h)
  2704  054A  00F0               	movwf	(?_delay)
  2705  054B  3002               	movlw	high(0258h)
  2706  054C  00F1               	movwf	((?_delay))+1
  2707  054D  120A  158A  2491   	fcall	_delay
              120A  118A         
  2708                           	line	245
  2709                           	
  2710  0552                     l3380:	
  2711                           ;8 sensor with lcd value.c: 245: lcd_data(X+0x30);
  2712  0552  1283               	bcf	status, 5	;RP0=0, select bank0
  2713  0553  1303               	bcf	status, 6	;RP1=0, select bank0
  2714  0554  0858               	movf	(main@X),w
  2715  0555  3E30               	addlw	030h
  2716  0556  120A  158A  24B8   	fcall	_lcd_data
              120A  118A         
  2717                           	line	246
  2718                           	
  2719  055B                     l3382:	
  2720                           ;8 sensor with lcd value.c: 246: delay(600);
  2721  055B  3058               	movlw	low(0258h)
  2722  055C  00F0               	movwf	(?_delay)
  2723  055D  3002               	movlw	high(0258h)
  2724  055E  00F1               	movwf	((?_delay))+1
  2725  055F  120A  158A  2491   	fcall	_delay
              120A  118A         
  2726                           	line	247
  2727                           	
  2728  0564                     l3384:	
  2729                           ;8 sensor with lcd value.c: 247: lcd_data(V+0x30);
  2730  0564  1283               	bcf	status, 5	;RP0=0, select bank0
  2731  0565  1303               	bcf	status, 6	;RP1=0, select bank0
  2732  0566  085A               	movf	(main@V),w
  2733  0567  3E30               	addlw	030h
  2734  0568  120A  158A  24B8   	fcall	_lcd_data
              120A  118A         
  2735                           	line	248
  2736                           	
  2737  056D                     l3386:	
  2738                           ;8 sensor with lcd value.c: 248: delay(600);
  2739  056D  3058               	movlw	low(0258h)
  2740  056E  00F0               	movwf	(?_delay)
  2741  056F  3002               	movlw	high(0258h)
  2742  0570  00F1               	movwf	((?_delay))+1
  2743  0571  120A  158A  2491   	fcall	_delay
              120A  118A         
  2744                           	line	249
  2745                           	
  2746  0576                     l3388:	
  2747                           ;8 sensor with lcd value.c: 249: lcd_data(U+0x30);
  2748  0576  1283               	bcf	status, 5	;RP0=0, select bank0
  2749  0577  1303               	bcf	status, 6	;RP1=0, select bank0
  2750  0578  085C               	movf	(main@U),w
  2751  0579  3E30               	addlw	030h
  2752  057A  120A  158A  24B8   	fcall	_lcd_data
              120A  118A         
  2753                           	line	250
  2754                           	
  2755  057F                     l3390:	
  2756                           ;8 sensor with lcd value.c: 250: delay(600);
  2757  057F  3058               	movlw	low(0258h)
  2758  0580  00F0               	movwf	(?_delay)
  2759  0581  3002               	movlw	high(0258h)
  2760  0582  00F1               	movwf	((?_delay))+1
  2761  0583  120A  158A  2491   	fcall	_delay
              120A  118A         
  2762                           	line	253
  2763                           	
  2764  0588                     l3392:	
  2765                           ;8 sensor with lcd value.c: 253: CHS2=1;
  2766  0588  1283               	bcf	status, 5	;RP0=0, select bank0
  2767  0589  1303               	bcf	status, 6	;RP1=0, select bank0
  2768  058A  169F               	bsf	(253/8),(253)&7
  2769                           	line	254
  2770                           	
  2771  058B                     l3394:	
  2772                           ;8 sensor with lcd value.c: 254: CHS1=1;
  2773  058B  161F               	bsf	(252/8),(252)&7
  2774                           	line	255
  2775                           	
  2776  058C                     l3396:	
  2777                           ;8 sensor with lcd value.c: 255: CHS0=0;
  2778  058C  119F               	bcf	(251/8),(251)&7
  2779                           	line	256
  2780                           	
  2781  058D                     l3398:	
  2782                           ;8 sensor with lcd value.c: 256: ADON=1;
  2783  058D  141F               	bsf	(248/8),(248)&7
  2784                           	line	257
  2785                           	
  2786  058E                     l3400:	
  2787                           ;8 sensor with lcd value.c: 257: delay(600);
  2788  058E  3058               	movlw	low(0258h)
  2789  058F  00F0               	movwf	(?_delay)
  2790  0590  3002               	movlw	high(0258h)
  2791  0591  00F1               	movwf	((?_delay))+1
  2792  0592  120A  158A  2491   	fcall	_delay
              120A  118A         
  2793                           	line	258
  2794                           	
  2795  0597                     l3402:	
  2796                           ;8 sensor with lcd value.c: 258: ADCON0=(ADCON0|0X04);
  2797  0597  1283               	bcf	status, 5	;RP0=0, select bank0
  2798  0598  1303               	bcf	status, 6	;RP1=0, select bank0
  2799  0599  081F               	movf	(31),w	;volatile
  2800  059A  3804               	iorlw	04h
  2801  059B  009F               	movwf	(31)	;volatile
  2802                           	line	259
  2803                           	
  2804  059C                     l3404:	
  2805                           ;8 sensor with lcd value.c: 259: delay(600);
  2806  059C  3058               	movlw	low(0258h)
  2807  059D  00F0               	movwf	(?_delay)
  2808  059E  3002               	movlw	high(0258h)
  2809  059F  00F1               	movwf	((?_delay))+1
  2810  05A0  120A  158A  2491   	fcall	_delay
              120A  118A         
  2811                           	line	260
  2812                           	
  2813  05A5                     l3406:	
  2814                           ;8 sensor with lcd value.c: 260: temp7=ADRESH<<8;
  2815  05A5  1283               	bcf	status, 5	;RP0=0, select bank0
  2816  05A6  1303               	bcf	status, 6	;RP1=0, select bank0
  2817  05A7  081E               	movf	(30),w	;volatile
  2818  05A8  00F9               	movwf	(??_main+0)+0
  2819  05A9  01FA               	clrf	(??_main+0)+0+1
  2820  05AA  3008               	movlw	08h
  2821  05AB  00FE               	movwf	btemp+0
  2822  05AC                     u2645:
  2823  05AC  1003               	clrc
  2824  05AD  0DF9               	rlf	(??_main+0)+0,f
  2825  05AE  0DFA               	rlf	(??_main+0)+1,f
  2826  05AF  0BFE               	decfsz	btemp+0,f
  2827  05B0  2DAC               	goto	u2645
  2828  05B1  0879               	movf	0+(??_main+0)+0,w
  2829  05B2  1683               	bsf	status, 5	;RP0=1, select bank1
  2830  05B3  1303               	bcf	status, 6	;RP1=0, select bank1
  2831  05B4  00BA               	movwf	(main@temp7)^080h
  2832  05B5  087A               	movf	1+(??_main+0)+0,w
  2833  05B6  00BB               	movwf	(main@temp7+1)^080h
  2834                           	line	261
  2835                           	
  2836  05B7                     l3408:	
  2837                           ;8 sensor with lcd value.c: 261: delay(600);
  2838  05B7  3058               	movlw	low(0258h)
  2839  05B8  00F0               	movwf	(?_delay)
  2840  05B9  3002               	movlw	high(0258h)
  2841  05BA  00F1               	movwf	((?_delay))+1
  2842  05BB  120A  158A  2491   	fcall	_delay
              120A  118A         
  2843                           	line	262
  2844                           	
  2845  05C0                     l3410:	
  2846                           ;8 sensor with lcd value.c: 262: temp7=temp7+ADRESL;
  2847  05C0  1683               	bsf	status, 5	;RP0=1, select bank1
  2848  05C1  1303               	bcf	status, 6	;RP1=0, select bank1
  2849  05C2  081E               	movf	(158)^080h,w	;volatile
  2850  05C3  073A               	addwf	(main@temp7)^080h,w
  2851  05C4  00BA               	movwf	(main@temp7)^080h
  2852  05C5  083B               	movf	(main@temp7+1)^080h,w
  2853  05C6  1803               	skipnc
  2854  05C7  0A3B               	incf	(main@temp7+1)^080h,w
  2855  05C8  00BB               	movwf	((main@temp7)^080h)+1
  2856                           	line	263
  2857                           	
  2858  05C9                     l3412:	
  2859                           ;8 sensor with lcd value.c: 263: delay(600);
  2860  05C9  3058               	movlw	low(0258h)
  2861  05CA  00F0               	movwf	(?_delay)
  2862  05CB  3002               	movlw	high(0258h)
  2863  05CC  00F1               	movwf	((?_delay))+1
  2864  05CD  120A  158A  2491   	fcall	_delay
              120A  118A         
  2865                           	line	264
  2866                           	
  2867  05D2                     l3414:	
  2868                           ;8 sensor with lcd value.c: 264: PORTD=temp7;
  2869  05D2  1683               	bsf	status, 5	;RP0=1, select bank1
  2870  05D3  1303               	bcf	status, 6	;RP1=0, select bank1
  2871  05D4  083A               	movf	(main@temp7)^080h,w
  2872  05D5  1283               	bcf	status, 5	;RP0=0, select bank0
  2873  05D6  1303               	bcf	status, 6	;RP1=0, select bank0
  2874  05D7  0088               	movwf	(8)	;volatile
  2875                           	line	265
  2876                           	
  2877  05D8                     l3416:	
  2878                           ;8 sensor with lcd value.c: 265: G=temp7/1000;
  2879  05D8  30E8               	movlw	low(03E8h)
  2880  05D9  00F0               	movwf	(?___lwdiv)
  2881  05DA  3003               	movlw	high(03E8h)
  2882  05DB  00F1               	movwf	((?___lwdiv))+1
  2883  05DC  1683               	bsf	status, 5	;RP0=1, select bank1
  2884  05DD  1303               	bcf	status, 6	;RP1=0, select bank1
  2885  05DE  083B               	movf	(main@temp7+1)^080h,w
  2886  05DF  01F3               	clrf	1+(?___lwdiv)+02h
  2887  05E0  07F3               	addwf	1+(?___lwdiv)+02h
  2888  05E1  083A               	movf	(main@temp7)^080h,w
  2889  05E2  01F2               	clrf	0+(?___lwdiv)+02h
  2890  05E3  07F2               	addwf	0+(?___lwdiv)+02h
  2891                           
  2892  05E4  120A  158A  2523   	fcall	___lwdiv
              120A  118A         
  2893  05E9  0871               	movf	(1+(?___lwdiv)),w
  2894  05EA  1283               	bcf	status, 5	;RP0=0, select bank0
  2895  05EB  1303               	bcf	status, 6	;RP1=0, select bank0
  2896  05EC  01C7               	clrf	(main@G+1)
  2897  05ED  07C7               	addwf	(main@G+1)
  2898  05EE  0870               	movf	(0+(?___lwdiv)),w
  2899  05EF  01C6               	clrf	(main@G)
  2900  05F0  07C6               	addwf	(main@G)
  2901                           
  2902                           	line	266
  2903                           	
  2904  05F1                     l3418:	
  2905                           ;8 sensor with lcd value.c: 266: H=temp7%1000;
  2906  05F1  30E8               	movlw	low(03E8h)
  2907  05F2  00F0               	movwf	(?___lwmod)
  2908  05F3  3003               	movlw	high(03E8h)
  2909  05F4  00F1               	movwf	((?___lwmod))+1
  2910  05F5  1683               	bsf	status, 5	;RP0=1, select bank1
  2911  05F6  1303               	bcf	status, 6	;RP1=0, select bank1
  2912  05F7  083B               	movf	(main@temp7+1)^080h,w
  2913  05F8  01F3               	clrf	1+(?___lwmod)+02h
  2914  05F9  07F3               	addwf	1+(?___lwmod)+02h
  2915  05FA  083A               	movf	(main@temp7)^080h,w
  2916  05FB  01F2               	clrf	0+(?___lwmod)+02h
  2917  05FC  07F2               	addwf	0+(?___lwmod)+02h
  2918                           
  2919  05FD  120A  158A  24E6   	fcall	___lwmod
              120A  118A         
  2920  0602  0871               	movf	(1+(?___lwmod)),w
  2921  0603  1683               	bsf	status, 5	;RP0=1, select bank1
  2922  0604  1303               	bcf	status, 6	;RP1=0, select bank1
  2923  0605  01A3               	clrf	(main@H+1)^080h
  2924  0606  07A3               	addwf	(main@H+1)^080h
  2925  0607  0870               	movf	(0+(?___lwmod)),w
  2926  0608  01A2               	clrf	(main@H)^080h
  2927  0609  07A2               	addwf	(main@H)^080h
  2928                           
  2929                           	line	267
  2930                           	
  2931  060A                     l3420:	
  2932                           ;8 sensor with lcd value.c: 267: I=H/100;
  2933  060A  3064               	movlw	low(064h)
  2934  060B  00F0               	movwf	(?___awdiv)
  2935  060C  3000               	movlw	high(064h)
  2936  060D  00F1               	movwf	((?___awdiv))+1
  2937  060E  0823               	movf	(main@H+1)^080h,w
  2938  060F  01F3               	clrf	1+(?___awdiv)+02h
  2939  0610  07F3               	addwf	1+(?___awdiv)+02h
  2940  0611  0822               	movf	(main@H)^080h,w
  2941  0612  01F2               	clrf	0+(?___awdiv)+02h
  2942  0613  07F2               	addwf	0+(?___awdiv)+02h
  2943                           
  2944  0614  120A  118A  2003   	fcall	___awdiv
              120A  118A         
  2945  0619  0871               	movf	(1+(?___awdiv)),w
  2946  061A  1283               	bcf	status, 5	;RP0=0, select bank0
  2947  061B  1303               	bcf	status, 6	;RP1=0, select bank0
  2948  061C  01C9               	clrf	(main@I+1)
  2949  061D  07C9               	addwf	(main@I+1)
  2950  061E  0870               	movf	(0+(?___awdiv)),w
  2951  061F  01C8               	clrf	(main@I)
  2952  0620  07C8               	addwf	(main@I)
  2953                           
  2954                           	line	268
  2955                           	
  2956  0621                     l3422:	
  2957                           ;8 sensor with lcd value.c: 268: J=H%100;
  2958  0621  3064               	movlw	low(064h)
  2959  0622  00F0               	movwf	(?___awmod)
  2960  0623  3000               	movlw	high(064h)
  2961  0624  00F1               	movwf	((?___awmod))+1
  2962  0625  1683               	bsf	status, 5	;RP0=1, select bank1
  2963  0626  1303               	bcf	status, 6	;RP1=0, select bank1
  2964  0627  0823               	movf	(main@H+1)^080h,w
  2965  0628  01F3               	clrf	1+(?___awmod)+02h
  2966  0629  07F3               	addwf	1+(?___awmod)+02h
  2967  062A  0822               	movf	(main@H)^080h,w
  2968  062B  01F2               	clrf	0+(?___awmod)+02h
  2969  062C  07F2               	addwf	0+(?___awmod)+02h
  2970                           
  2971  062D  120A  158A  256C   	fcall	___awmod
              120A  118A         
  2972  0632  0871               	movf	(1+(?___awmod)),w
  2973  0633  1683               	bsf	status, 5	;RP0=1, select bank1
  2974  0634  1303               	bcf	status, 6	;RP1=0, select bank1
  2975  0635  01A5               	clrf	(main@J+1)^080h
  2976  0636  07A5               	addwf	(main@J+1)^080h
  2977  0637  0870               	movf	(0+(?___awmod)),w
  2978  0638  01A4               	clrf	(main@J)^080h
  2979  0639  07A4               	addwf	(main@J)^080h
  2980                           
  2981                           	line	269
  2982                           	
  2983  063A                     l3424:	
  2984                           ;8 sensor with lcd value.c: 269: K=J/10;
  2985  063A  300A               	movlw	low(0Ah)
  2986  063B  00F0               	movwf	(?___awdiv)
  2987  063C  3000               	movlw	high(0Ah)
  2988  063D  00F1               	movwf	((?___awdiv))+1
  2989  063E  0825               	movf	(main@J+1)^080h,w
  2990  063F  01F3               	clrf	1+(?___awdiv)+02h
  2991  0640  07F3               	addwf	1+(?___awdiv)+02h
  2992  0641  0824               	movf	(main@J)^080h,w
  2993  0642  01F2               	clrf	0+(?___awdiv)+02h
  2994  0643  07F2               	addwf	0+(?___awdiv)+02h
  2995                           
  2996  0644  120A  118A  2003   	fcall	___awdiv
              120A  118A         
  2997  0649  0871               	movf	(1+(?___awdiv)),w
  2998  064A  1283               	bcf	status, 5	;RP0=0, select bank0
  2999  064B  1303               	bcf	status, 6	;RP1=0, select bank0
  3000  064C  01CB               	clrf	(main@K+1)
  3001  064D  07CB               	addwf	(main@K+1)
  3002  064E  0870               	movf	(0+(?___awdiv)),w
  3003  064F  01CA               	clrf	(main@K)
  3004  0650  07CA               	addwf	(main@K)
  3005                           
  3006                           	line	270
  3007                           	
  3008  0651                     l3426:	
  3009                           ;8 sensor with lcd value.c: 270: L=J%10;
  3010  0651  300A               	movlw	low(0Ah)
  3011  0652  00F0               	movwf	(?___awmod)
  3012  0653  3000               	movlw	high(0Ah)
  3013  0654  00F1               	movwf	((?___awmod))+1
  3014  0655  1683               	bsf	status, 5	;RP0=1, select bank1
  3015  0656  1303               	bcf	status, 6	;RP1=0, select bank1
  3016  0657  0825               	movf	(main@J+1)^080h,w
  3017  0658  01F3               	clrf	1+(?___awmod)+02h
  3018  0659  07F3               	addwf	1+(?___awmod)+02h
  3019  065A  0824               	movf	(main@J)^080h,w
  3020  065B  01F2               	clrf	0+(?___awmod)+02h
  3021  065C  07F2               	addwf	0+(?___awmod)+02h
  3022                           
  3023  065D  120A  158A  256C   	fcall	___awmod
              120A  118A         
  3024  0662  0871               	movf	(1+(?___awmod)),w
  3025  0663  1283               	bcf	status, 5	;RP0=0, select bank0
  3026  0664  1303               	bcf	status, 6	;RP1=0, select bank0
  3027  0665  01CD               	clrf	(main@L+1)
  3028  0666  07CD               	addwf	(main@L+1)
  3029  0667  0870               	movf	(0+(?___awmod)),w
  3030  0668  01CC               	clrf	(main@L)
  3031  0669  07CC               	addwf	(main@L)
  3032                           
  3033                           	line	271
  3034                           	
  3035  066A                     l3428:	
  3036                           ;8 sensor with lcd value.c: 271: lcd_command(0xC8);
  3037  066A  30C8               	movlw	(0C8h)
  3038  066B  120A  158A  24A3   	fcall	_lcd_command
              120A  118A         
  3039                           	line	272
  3040                           	
  3041  0670                     l3430:	
  3042                           ;8 sensor with lcd value.c: 272: delay(600);
  3043  0670  3058               	movlw	low(0258h)
  3044  0671  00F0               	movwf	(?_delay)
  3045  0672  3002               	movlw	high(0258h)
  3046  0673  00F1               	movwf	((?_delay))+1
  3047  0674  120A  158A  2491   	fcall	_delay
              120A  118A         
  3048                           	line	273
  3049                           	
  3050  0679                     l3432:	
  3051                           ;8 sensor with lcd value.c: 273: lcd_data(G+0x30);
  3052  0679  1283               	bcf	status, 5	;RP0=0, select bank0
  3053  067A  1303               	bcf	status, 6	;RP1=0, select bank0
  3054  067B  0846               	movf	(main@G),w
  3055  067C  3E30               	addlw	030h
  3056  067D  120A  158A  24B8   	fcall	_lcd_data
              120A  118A         
  3057                           	line	274
  3058                           	
  3059  0682                     l3434:	
  3060                           ;8 sensor with lcd value.c: 274: delay(600);
  3061  0682  3058               	movlw	low(0258h)
  3062  0683  00F0               	movwf	(?_delay)
  3063  0684  3002               	movlw	high(0258h)
  3064  0685  00F1               	movwf	((?_delay))+1
  3065  0686  120A  158A  2491   	fcall	_delay
              120A  118A         
  3066                           	line	275
  3067                           	
  3068  068B                     l3436:	
  3069                           ;8 sensor with lcd value.c: 275: lcd_data(I+0x30);
  3070  068B  1283               	bcf	status, 5	;RP0=0, select bank0
  3071  068C  1303               	bcf	status, 6	;RP1=0, select bank0
  3072  068D  0848               	movf	(main@I),w
  3073  068E  3E30               	addlw	030h
  3074  068F  120A  158A  24B8   	fcall	_lcd_data
              120A  118A         
  3075                           	line	276
  3076                           	
  3077  0694                     l3438:	
  3078                           ;8 sensor with lcd value.c: 276: delay(600);
  3079  0694  3058               	movlw	low(0258h)
  3080  0695  00F0               	movwf	(?_delay)
  3081  0696  3002               	movlw	high(0258h)
  3082  0697  00F1               	movwf	((?_delay))+1
  3083  0698  120A  158A  2491   	fcall	_delay
              120A  118A         
  3084                           	line	277
  3085                           	
  3086  069D                     l3440:	
  3087                           ;8 sensor with lcd value.c: 277: lcd_data(K+0x30);
  3088  069D  1283               	bcf	status, 5	;RP0=0, select bank0
  3089  069E  1303               	bcf	status, 6	;RP1=0, select bank0
  3090  069F  084A               	movf	(main@K),w
  3091  06A0  3E30               	addlw	030h
  3092  06A1  120A  158A  24B8   	fcall	_lcd_data
              120A  118A         
  3093                           	line	278
  3094                           	
  3095  06A6                     l3442:	
  3096                           ;8 sensor with lcd value.c: 278: delay(600);
  3097  06A6  3058               	movlw	low(0258h)
  3098  06A7  00F0               	movwf	(?_delay)
  3099  06A8  3002               	movlw	high(0258h)
  3100  06A9  00F1               	movwf	((?_delay))+1
  3101  06AA  120A  158A  2491   	fcall	_delay
              120A  118A         
  3102                           	line	279
  3103                           	
  3104  06AF                     l3444:	
  3105                           ;8 sensor with lcd value.c: 279: lcd_data(L+0x30);
  3106  06AF  1283               	bcf	status, 5	;RP0=0, select bank0
  3107  06B0  1303               	bcf	status, 6	;RP1=0, select bank0
  3108  06B1  084C               	movf	(main@L),w
  3109  06B2  3E30               	addlw	030h
  3110  06B3  120A  158A  24B8   	fcall	_lcd_data
              120A  118A         
  3111                           	line	280
  3112                           	
  3113  06B8                     l3446:	
  3114                           ;8 sensor with lcd value.c: 280: delay(600);
  3115  06B8  3058               	movlw	low(0258h)
  3116  06B9  00F0               	movwf	(?_delay)
  3117  06BA  3002               	movlw	high(0258h)
  3118  06BB  00F1               	movwf	((?_delay))+1
  3119  06BC  120A  158A  2491   	fcall	_delay
              120A  118A         
  3120                           	line	283
  3121                           	
  3122  06C1                     l3448:	
  3123                           ;8 sensor with lcd value.c: 283: CHS2=1;
  3124  06C1  1283               	bcf	status, 5	;RP0=0, select bank0
  3125  06C2  1303               	bcf	status, 6	;RP1=0, select bank0
  3126  06C3  169F               	bsf	(253/8),(253)&7
  3127                           	line	284
  3128                           	
  3129  06C4                     l3450:	
  3130                           ;8 sensor with lcd value.c: 284: CHS1=1;
  3131  06C4  161F               	bsf	(252/8),(252)&7
  3132                           	line	285
  3133                           	
  3134  06C5                     l3452:	
  3135                           ;8 sensor with lcd value.c: 285: CHS0=1;
  3136  06C5  159F               	bsf	(251/8),(251)&7
  3137                           	line	286
  3138                           	
  3139  06C6                     l3454:	
  3140                           ;8 sensor with lcd value.c: 286: ADON=1;
  3141  06C6  141F               	bsf	(248/8),(248)&7
  3142                           	line	287
  3143                           	
  3144  06C7                     l3456:	
  3145                           ;8 sensor with lcd value.c: 287: delay(600);
  3146  06C7  3058               	movlw	low(0258h)
  3147  06C8  00F0               	movwf	(?_delay)
  3148  06C9  3002               	movlw	high(0258h)
  3149  06CA  00F1               	movwf	((?_delay))+1
  3150  06CB  120A  158A  2491   	fcall	_delay
              120A  118A         
  3151                           	line	288
  3152                           	
  3153  06D0                     l3458:	
  3154                           ;8 sensor with lcd value.c: 288: ADCON0=(ADCON0|0X04);
  3155  06D0  1283               	bcf	status, 5	;RP0=0, select bank0
  3156  06D1  1303               	bcf	status, 6	;RP1=0, select bank0
  3157  06D2  081F               	movf	(31),w	;volatile
  3158  06D3  3804               	iorlw	04h
  3159  06D4  009F               	movwf	(31)	;volatile
  3160                           	line	289
  3161                           	
  3162  06D5                     l3460:	
  3163                           ;8 sensor with lcd value.c: 289: delay(600);
  3164  06D5  3058               	movlw	low(0258h)
  3165  06D6  00F0               	movwf	(?_delay)
  3166  06D7  3002               	movlw	high(0258h)
  3167  06D8  00F1               	movwf	((?_delay))+1
  3168  06D9  120A  158A  2491   	fcall	_delay
              120A  118A         
  3169                           	line	290
  3170                           	
  3171  06DE                     l3462:	
  3172                           ;8 sensor with lcd value.c: 290: temp8=ADRESH<<8;
  3173  06DE  1283               	bcf	status, 5	;RP0=0, select bank0
  3174  06DF  1303               	bcf	status, 6	;RP1=0, select bank0
  3175  06E0  081E               	movf	(30),w	;volatile
  3176  06E1  00F9               	movwf	(??_main+0)+0
  3177  06E2  01FA               	clrf	(??_main+0)+0+1
  3178  06E3  3008               	movlw	08h
  3179  06E4  00FE               	movwf	btemp+0
  3180  06E5                     u2655:
  3181  06E5  1003               	clrc
  3182  06E6  0DF9               	rlf	(??_main+0)+0,f
  3183  06E7  0DFA               	rlf	(??_main+0)+1,f
  3184  06E8  0BFE               	decfsz	btemp+0,f
  3185  06E9  2EE5               	goto	u2655
  3186  06EA  0879               	movf	0+(??_main+0)+0,w
  3187  06EB  1683               	bsf	status, 5	;RP0=1, select bank1
  3188  06EC  1303               	bcf	status, 6	;RP1=0, select bank1
  3189  06ED  00BC               	movwf	(main@temp8)^080h
  3190  06EE  087A               	movf	1+(??_main+0)+0,w
  3191  06EF  00BD               	movwf	(main@temp8+1)^080h
  3192                           	line	291
  3193                           	
  3194  06F0                     l3464:	
  3195                           ;8 sensor with lcd value.c: 291: delay(600);
  3196  06F0  3058               	movlw	low(0258h)
  3197  06F1  00F0               	movwf	(?_delay)
  3198  06F2  3002               	movlw	high(0258h)
  3199  06F3  00F1               	movwf	((?_delay))+1
  3200  06F4  120A  158A  2491   	fcall	_delay
              120A  118A         
  3201                           	line	292
  3202                           	
  3203  06F9                     l3466:	
  3204                           ;8 sensor with lcd value.c: 292: temp8=temp8+ADRESL;
  3205  06F9  1683               	bsf	status, 5	;RP0=1, select bank1
  3206  06FA  1303               	bcf	status, 6	;RP1=0, select bank1
  3207  06FB  081E               	movf	(158)^080h,w	;volatile
  3208  06FC  073C               	addwf	(main@temp8)^080h,w
  3209  06FD  00BC               	movwf	(main@temp8)^080h
  3210  06FE  083D               	movf	(main@temp8+1)^080h,w
  3211  06FF  1803               	skipnc
  3212  0700  0A3D               	incf	(main@temp8+1)^080h,w
  3213  0701  00BD               	movwf	((main@temp8)^080h)+1
  3214                           	line	293
  3215                           ;8 sensor with lcd value.c: 293: delay(600);
  3216  0702  3058               	movlw	low(0258h)
  3217  0703  00F0               	movwf	(?_delay)
  3218  0704  3002               	movlw	high(0258h)
  3219  0705  00F1               	movwf	((?_delay))+1
  3220  0706  120A  158A  2491   	fcall	_delay
              120A  118A         
  3221                           	line	294
  3222                           	
  3223  070B                     l3468:	
  3224                           ;8 sensor with lcd value.c: 294: PORTD=temp8;
  3225  070B  1683               	bsf	status, 5	;RP0=1, select bank1
  3226  070C  1303               	bcf	status, 6	;RP1=0, select bank1
  3227  070D  083C               	movf	(main@temp8)^080h,w
  3228  070E  1283               	bcf	status, 5	;RP0=0, select bank0
  3229  070F  1303               	bcf	status, 6	;RP1=0, select bank0
  3230  0710  0088               	movwf	(8)	;volatile
  3231                           	line	295
  3232                           	
  3233  0711                     l3470:	
  3234                           ;8 sensor with lcd value.c: 295: M=temp8/1000;
  3235  0711  30E8               	movlw	low(03E8h)
  3236  0712  00F0               	movwf	(?___lwdiv)
  3237  0713  3003               	movlw	high(03E8h)
  3238  0714  00F1               	movwf	((?___lwdiv))+1
  3239  0715  1683               	bsf	status, 5	;RP0=1, select bank1
  3240  0716  1303               	bcf	status, 6	;RP1=0, select bank1
  3241  0717  083D               	movf	(main@temp8+1)^080h,w
  3242  0718  01F3               	clrf	1+(?___lwdiv)+02h
  3243  0719  07F3               	addwf	1+(?___lwdiv)+02h
  3244  071A  083C               	movf	(main@temp8)^080h,w
  3245  071B  01F2               	clrf	0+(?___lwdiv)+02h
  3246  071C  07F2               	addwf	0+(?___lwdiv)+02h
  3247                           
  3248  071D  120A  158A  2523   	fcall	___lwdiv
              120A  118A         
  3249  0722  0871               	movf	(1+(?___lwdiv)),w
  3250  0723  1283               	bcf	status, 5	;RP0=0, select bank0
  3251  0724  1303               	bcf	status, 6	;RP1=0, select bank0
  3252  0725  01CF               	clrf	(main@M+1)
  3253  0726  07CF               	addwf	(main@M+1)
  3254  0727  0870               	movf	(0+(?___lwdiv)),w
  3255  0728  01CE               	clrf	(main@M)
  3256  0729  07CE               	addwf	(main@M)
  3257                           
  3258                           	line	296
  3259                           	
  3260  072A                     l3472:	
  3261                           ;8 sensor with lcd value.c: 296: N=temp8%1000;
  3262  072A  30E8               	movlw	low(03E8h)
  3263  072B  00F0               	movwf	(?___lwmod)
  3264  072C  3003               	movlw	high(03E8h)
  3265  072D  00F1               	movwf	((?___lwmod))+1
  3266  072E  1683               	bsf	status, 5	;RP0=1, select bank1
  3267  072F  1303               	bcf	status, 6	;RP1=0, select bank1
  3268  0730  083D               	movf	(main@temp8+1)^080h,w
  3269  0731  01F3               	clrf	1+(?___lwmod)+02h
  3270  0732  07F3               	addwf	1+(?___lwmod)+02h
  3271  0733  083C               	movf	(main@temp8)^080h,w
  3272  0734  01F2               	clrf	0+(?___lwmod)+02h
  3273  0735  07F2               	addwf	0+(?___lwmod)+02h
  3274                           
  3275  0736  120A  158A  24E6   	fcall	___lwmod
              120A  118A         
  3276  073B  0871               	movf	(1+(?___lwmod)),w
  3277  073C  1683               	bsf	status, 5	;RP0=1, select bank1
  3278  073D  1303               	bcf	status, 6	;RP1=0, select bank1
  3279  073E  01A7               	clrf	(main@N+1)^080h
  3280  073F  07A7               	addwf	(main@N+1)^080h
  3281  0740  0870               	movf	(0+(?___lwmod)),w
  3282  0741  01A6               	clrf	(main@N)^080h
  3283  0742  07A6               	addwf	(main@N)^080h
  3284                           
  3285                           	line	297
  3286                           	
  3287  0743                     l3474:	
  3288                           ;8 sensor with lcd value.c: 297: O=N/100;
  3289  0743  3064               	movlw	low(064h)
  3290  0744  00F0               	movwf	(?___awdiv)
  3291  0745  3000               	movlw	high(064h)
  3292  0746  00F1               	movwf	((?___awdiv))+1
  3293  0747  0827               	movf	(main@N+1)^080h,w
  3294  0748  01F3               	clrf	1+(?___awdiv)+02h
  3295  0749  07F3               	addwf	1+(?___awdiv)+02h
  3296  074A  0826               	movf	(main@N)^080h,w
  3297  074B  01F2               	clrf	0+(?___awdiv)+02h
  3298  074C  07F2               	addwf	0+(?___awdiv)+02h
  3299                           
  3300  074D  120A  118A  2003   	fcall	___awdiv
              120A  118A         
  3301  0752  0871               	movf	(1+(?___awdiv)),w
  3302  0753  1283               	bcf	status, 5	;RP0=0, select bank0
  3303  0754  1303               	bcf	status, 6	;RP1=0, select bank0
  3304  0755  01D1               	clrf	(main@O+1)
  3305  0756  07D1               	addwf	(main@O+1)
  3306  0757  0870               	movf	(0+(?___awdiv)),w
  3307  0758  01D0               	clrf	(main@O)
  3308  0759  07D0               	addwf	(main@O)
  3309                           
  3310                           	line	298
  3311                           	
  3312  075A                     l3476:	
  3313                           ;8 sensor with lcd value.c: 298: P=N%100;
  3314  075A  3064               	movlw	low(064h)
  3315  075B  00F0               	movwf	(?___awmod)
  3316  075C  3000               	movlw	high(064h)
  3317  075D  00F1               	movwf	((?___awmod))+1
  3318  075E  1683               	bsf	status, 5	;RP0=1, select bank1
  3319  075F  1303               	bcf	status, 6	;RP1=0, select bank1
  3320  0760  0827               	movf	(main@N+1)^080h,w
  3321  0761  01F3               	clrf	1+(?___awmod)+02h
  3322  0762  07F3               	addwf	1+(?___awmod)+02h
  3323  0763  0826               	movf	(main@N)^080h,w
  3324  0764  01F2               	clrf	0+(?___awmod)+02h
  3325  0765  07F2               	addwf	0+(?___awmod)+02h
  3326                           
  3327  0766  120A  158A  256C   	fcall	___awmod
              120A  118A         
  3328  076B  0871               	movf	(1+(?___awmod)),w
  3329  076C  1683               	bsf	status, 5	;RP0=1, select bank1
  3330  076D  1303               	bcf	status, 6	;RP1=0, select bank1
  3331  076E  01A9               	clrf	(main@P+1)^080h
  3332  076F  07A9               	addwf	(main@P+1)^080h
  3333  0770  0870               	movf	(0+(?___awmod)),w
  3334  0771  01A8               	clrf	(main@P)^080h
  3335  0772  07A8               	addwf	(main@P)^080h
  3336                           
  3337                           	line	299
  3338                           	
  3339  0773                     l3478:	
  3340                           ;8 sensor with lcd value.c: 299: Q=P/10;
  3341  0773  300A               	movlw	low(0Ah)
  3342  0774  00F0               	movwf	(?___awdiv)
  3343  0775  3000               	movlw	high(0Ah)
  3344  0776  00F1               	movwf	((?___awdiv))+1
  3345  0777  0829               	movf	(main@P+1)^080h,w
  3346  0778  01F3               	clrf	1+(?___awdiv)+02h
  3347  0779  07F3               	addwf	1+(?___awdiv)+02h
  3348  077A  0828               	movf	(main@P)^080h,w
  3349  077B  01F2               	clrf	0+(?___awdiv)+02h
  3350  077C  07F2               	addwf	0+(?___awdiv)+02h
  3351                           
  3352  077D  120A  118A  2003   	fcall	___awdiv
              120A  118A         
  3353  0782  0871               	movf	(1+(?___awdiv)),w
  3354  0783  1283               	bcf	status, 5	;RP0=0, select bank0
  3355  0784  1303               	bcf	status, 6	;RP1=0, select bank0
  3356  0785  01D3               	clrf	(main@Q+1)
  3357  0786  07D3               	addwf	(main@Q+1)
  3358  0787  0870               	movf	(0+(?___awdiv)),w
  3359  0788  01D2               	clrf	(main@Q)
  3360  0789  07D2               	addwf	(main@Q)
  3361                           
  3362                           	line	300
  3363                           	
  3364  078A                     l3480:	
  3365                           ;8 sensor with lcd value.c: 300: R=P%10;
  3366  078A  300A               	movlw	low(0Ah)
  3367  078B  00F0               	movwf	(?___awmod)
  3368  078C  3000               	movlw	high(0Ah)
  3369  078D  00F1               	movwf	((?___awmod))+1
  3370  078E  1683               	bsf	status, 5	;RP0=1, select bank1
  3371  078F  1303               	bcf	status, 6	;RP1=0, select bank1
  3372  0790  0829               	movf	(main@P+1)^080h,w
  3373  0791  01F3               	clrf	1+(?___awmod)+02h
  3374  0792  07F3               	addwf	1+(?___awmod)+02h
  3375  0793  0828               	movf	(main@P)^080h,w
  3376  0794  01F2               	clrf	0+(?___awmod)+02h
  3377  0795  07F2               	addwf	0+(?___awmod)+02h
  3378                           
  3379  0796  120A  158A  256C   	fcall	___awmod
              120A  118A         
  3380  079B  0871               	movf	(1+(?___awmod)),w
  3381  079C  1283               	bcf	status, 5	;RP0=0, select bank0
  3382  079D  1303               	bcf	status, 6	;RP1=0, select bank0
  3383  079E  01D5               	clrf	(main@R+1)
  3384  079F  07D5               	addwf	(main@R+1)
  3385  07A0  0870               	movf	(0+(?___awmod)),w
  3386  07A1  01D4               	clrf	(main@R)
  3387  07A2  07D4               	addwf	(main@R)
  3388                           
  3389                           	line	301
  3390                           	
  3391  07A3                     l3482:	
  3392                           ;8 sensor with lcd value.c: 301: lcd_command(0xCC);
  3393  07A3  30CC               	movlw	(0CCh)
  3394  07A4  120A  158A  24A3   	fcall	_lcd_command
              120A  118A         
  3395                           	line	302
  3396                           	
  3397  07A9                     l3484:	
  3398                           ;8 sensor with lcd value.c: 302: delay(600);
  3399  07A9  3058               	movlw	low(0258h)
  3400  07AA  00F0               	movwf	(?_delay)
  3401  07AB  3002               	movlw	high(0258h)
  3402  07AC  00F1               	movwf	((?_delay))+1
  3403  07AD  120A  158A  2491   	fcall	_delay
              120A  118A         
  3404                           	line	303
  3405                           	
  3406  07B2                     l3486:	
  3407                           ;8 sensor with lcd value.c: 303: lcd_data(M+0x30);
  3408  07B2  1283               	bcf	status, 5	;RP0=0, select bank0
  3409  07B3  1303               	bcf	status, 6	;RP1=0, select bank0
  3410  07B4  084E               	movf	(main@M),w
  3411  07B5  3E30               	addlw	030h
  3412  07B6  120A  158A  24B8   	fcall	_lcd_data
              120A  118A         
  3413                           	line	304
  3414                           	
  3415  07BB                     l3488:	
  3416                           ;8 sensor with lcd value.c: 304: delay(600);
  3417  07BB  3058               	movlw	low(0258h)
  3418  07BC  00F0               	movwf	(?_delay)
  3419  07BD  3002               	movlw	high(0258h)
  3420  07BE  00F1               	movwf	((?_delay))+1
  3421  07BF  120A  158A  2491   	fcall	_delay
              120A  118A         
  3422                           	line	305
  3423                           	
  3424  07C4                     l3490:	
  3425                           ;8 sensor with lcd value.c: 305: lcd_data(O+0x30);
  3426  07C4  1283               	bcf	status, 5	;RP0=0, select bank0
  3427  07C5  1303               	bcf	status, 6	;RP1=0, select bank0
  3428  07C6  0850               	movf	(main@O),w
  3429  07C7  3E30               	addlw	030h
  3430  07C8  120A  158A  24B8   	fcall	_lcd_data
              120A  118A         
  3431                           	line	306
  3432                           	
  3433  07CD                     l3492:	
  3434                           ;8 sensor with lcd value.c: 306: delay(600);
  3435  07CD  3058               	movlw	low(0258h)
  3436  07CE  00F0               	movwf	(?_delay)
  3437  07CF  3002               	movlw	high(0258h)
  3438  07D0  00F1               	movwf	((?_delay))+1
  3439  07D1  120A  158A  2491   	fcall	_delay
              120A  118A         
  3440                           	line	307
  3441                           	
  3442  07D6                     l3494:	
  3443                           ;8 sensor with lcd value.c: 307: lcd_data(Q+0x30);
  3444  07D6  1283               	bcf	status, 5	;RP0=0, select bank0
  3445  07D7  1303               	bcf	status, 6	;RP1=0, select bank0
  3446  07D8  0852               	movf	(main@Q),w
  3447  07D9  3E30               	addlw	030h
  3448  07DA  120A  158A  24B8   	fcall	_lcd_data
              120A  118A         
  3449                           	line	308
  3450                           	
  3451  07DF                     l3496:	
  3452                           ;8 sensor with lcd value.c: 308: delay(600);
  3453  07DF  3058               	movlw	low(0258h)
  3454  07E0  00F0               	movwf	(?_delay)
  3455  07E1  3002               	movlw	high(0258h)
  3456  07E2  00F1               	movwf	((?_delay))+1
  3457  07E3  120A  158A  2491   	fcall	_delay
              120A  118A         
  3458                           	line	309
  3459                           	
  3460  07E8                     l3498:	
  3461                           ;8 sensor with lcd value.c: 309: lcd_data(R+0x30);
  3462  07E8  1283               	bcf	status, 5	;RP0=0, select bank0
  3463  07E9  1303               	bcf	status, 6	;RP1=0, select bank0
  3464  07EA  0854               	movf	(main@R),w
  3465  07EB  3E30               	addlw	030h
  3466  07EC  120A  158A  24B8   	fcall	_lcd_data
              120A  118A         
  3467                           	line	310
  3468                           	
  3469  07F1                     l3500:	
  3470                           ;8 sensor with lcd value.c: 310: delay(600);
  3471  07F1  3058               	movlw	low(0258h)
  3472  07F2  00F0               	movwf	(?_delay)
  3473  07F3  3002               	movlw	high(0258h)
  3474  07F4  00F1               	movwf	((?_delay))+1
  3475  07F5  120A  158A  2491   	fcall	_delay
              120A  118A         
  3476                           	line	313
  3477                           	
  3478  07FA                     l581:	
  3479                           	line	68
  3480  07FA  120A  158A  2F8F   	goto	l580
  3481                           	
  3482  07FD                     l582:	
  3483                           	line	314
  3484                           	
  3485  07FD                     l583:	
  3486                           	global	start
  3487  07FD  120A  118A  2800   	ljmp	start
  3488                           	opt stack 0
  3489                           GLOBAL	__end_of_main
  3490  0800                     	__end_of_main:
  3491 ;; =============== function _main ends ============
  3492                           
  3493                           	signat	_main,88
  3494                           	global	_lcd_init
  3495                           psect	text181,local,class=CODE,delta=2
  3496                           global __ptext181
  3497  0CCD                     __ptext181:
  3498                           
  3499 ;; *************** function _lcd_init *****************
  3500 ;; Defined at:
  3501 ;;		line 20 in file "C:\Users\TECH\Desktop\madhu pic folder\ADC\ADC task\8 sensor with lcd value\8 sensor with lcd value
       .c"
  3502 ;; Parameters:    Size  Location     Type
  3503 ;;		None
  3504 ;; Auto vars:     Size  Location     Type
  3505 ;;		None
  3506 ;; Return value:  Size  Location     Type
  3507 ;;		None               void
  3508 ;; Registers used:
  3509 ;;		wreg, status,2, status,0, pclath, cstack
  3510 ;; Tracked objects:
  3511 ;;		On entry : 0/0
  3512 ;;		On exit  : 0/0
  3513 ;;		Unchanged: 0/0
  3514 ;; Data sizes:     COMMON   BANK0   BANK1   BANK3   BANK2
  3515 ;;      Params:         0       0       0       0       0
  3516 ;;      Locals:         0       0       0       0       0
  3517 ;;      Temps:          0       0       0       0       0
  3518 ;;      Totals:         0       0       0       0       0
  3519 ;;Total ram usage:        0 bytes
  3520 ;; Hardware stack levels used:    1
  3521 ;; Hardware stack levels required when called:    2
  3522 ;; This function calls:
  3523 ;;		_lcd_command
  3524 ;; This function is called by:
  3525 ;;		_main
  3526 ;; This function uses a non-reentrant model
  3527 ;;
  3528                           psect	text181
  3529                           	file	"C:\Users\TECH\Desktop\madhu pic folder\ADC\ADC task\8 sensor with lcd value\8 sen
                                 sor with lcd value.c"
  3530                           	line	20
  3531                           	global	__size_of_lcd_init
  3532  0019                     	__size_of_lcd_init	equ	__end_of_lcd_init-_lcd_init
  3533                           	
  3534  0CCD                     _lcd_init:	
  3535                           	opt	stack 7
  3536                           ; Regs used in _lcd_init: [wreg+status,2+status,0+pclath+cstack]
  3537                           	line	21
  3538                           	
  3539  0CCD                     l3058:	
  3540                           ;8 sensor with lcd value.c: 21: lcd_command(0x38);
  3541  0CCD  3038               	movlw	(038h)
  3542  0CCE  120A  158A  24A3   	fcall	_lcd_command
              120A  158A         
  3543                           	line	22
  3544                           ;8 sensor with lcd value.c: 22: lcd_command(0x06);
  3545  0CD3  3006               	movlw	(06h)
  3546  0CD4  120A  158A  24A3   	fcall	_lcd_command
              120A  158A         
  3547                           	line	23
  3548                           ;8 sensor with lcd value.c: 23: lcd_command(0x0c);
  3549  0CD9  300C               	movlw	(0Ch)
  3550  0CDA  120A  158A  24A3   	fcall	_lcd_command
              120A  158A         
  3551                           	line	24
  3552                           ;8 sensor with lcd value.c: 24: lcd_command(0x01);
  3553  0CDF  3001               	movlw	(01h)
  3554  0CE0  120A  158A  24A3   	fcall	_lcd_command
              120A  158A         
  3555                           	line	25
  3556                           	
  3557  0CE5                     l568:	
  3558  0CE5  0008               	return
  3559                           	opt stack 0
  3560                           GLOBAL	__end_of_lcd_init
  3561  0CE6                     	__end_of_lcd_init:
  3562 ;; =============== function _lcd_init ends ============
  3563                           
  3564                           	signat	_lcd_init,88
  3565                           	global	_lcd_data
  3566                           psect	text182,local,class=CODE,delta=2
  3567                           global __ptext182
  3568  0CB8                     __ptext182:
  3569                           
  3570 ;; *************** function _lcd_data *****************
  3571 ;; Defined at:
  3572 ;;		line 27 in file "C:\Users\TECH\Desktop\madhu pic folder\ADC\ADC task\8 sensor with lcd value\8 sensor with lcd value
       .c"
  3573 ;; Parameters:    Size  Location     Type
  3574 ;;  data            1    wreg     unsigned char 
  3575 ;; Auto vars:     Size  Location     Type
  3576 ;;  data            1    2[COMMON] unsigned char 
  3577 ;; Return value:  Size  Location     Type
  3578 ;;		None               void
  3579 ;; Registers used:
  3580 ;;		wreg, status,2, status,0, pclath, cstack
  3581 ;; Tracked objects:
  3582 ;;		On entry : 0/0
  3583 ;;		On exit  : 0/0
  3584 ;;		Unchanged: 0/0
  3585 ;; Data sizes:     COMMON   BANK0   BANK1   BANK3   BANK2
  3586 ;;      Params:         0       0       0       0       0
  3587 ;;      Locals:         1       0       0       0       0
  3588 ;;      Temps:          0       0       0       0       0
  3589 ;;      Totals:         1       0       0       0       0
  3590 ;;Total ram usage:        1 bytes
  3591 ;; Hardware stack levels used:    1
  3592 ;; Hardware stack levels required when called:    1
  3593 ;; This function calls:
  3594 ;;		_delay
  3595 ;; This function is called by:
  3596 ;;		_main
  3597 ;;		_lcd_display
  3598 ;; This function uses a non-reentrant model
  3599 ;;
  3600                           psect	text182
  3601                           	file	"C:\Users\TECH\Desktop\madhu pic folder\ADC\ADC task\8 sensor with lcd value\8 sen
                                 sor with lcd value.c"
  3602                           	line	27
  3603                           	global	__size_of_lcd_data
  3604  0015                     	__size_of_lcd_data	equ	__end_of_lcd_data-_lcd_data
  3605                           	
  3606  0CB8                     _lcd_data:	
  3607                           	opt	stack 7
  3608                           ; Regs used in _lcd_data: [wreg+status,2+status,0+pclath+cstack]
  3609                           ;lcd_data@data stored from wreg
  3610  0CB8  00F2               	movwf	(lcd_data@data)
  3611                           	line	28
  3612                           	
  3613  0CB9                     l3046:	
  3614                           ;8 sensor with lcd value.c: 28: PORTD=data;
  3615  0CB9  0872               	movf	(lcd_data@data),w
  3616  0CBA  1283               	bcf	status, 5	;RP0=0, select bank0
  3617  0CBB  1303               	bcf	status, 6	;RP1=0, select bank0
  3618  0CBC  0088               	movwf	(8)	;volatile
  3619                           	line	29
  3620                           	
  3621  0CBD                     l3048:	
  3622                           ;8 sensor with lcd value.c: 29: RC0=1;
  3623  0CBD  1407               	bsf	(56/8),(56)&7
  3624                           	line	30
  3625                           	
  3626  0CBE                     l3050:	
  3627                           ;8 sensor with lcd value.c: 30: RC1=0;
  3628  0CBE  1087               	bcf	(57/8),(57)&7
  3629                           	line	31
  3630                           	
  3631  0CBF                     l3052:	
  3632                           ;8 sensor with lcd value.c: 31: RC2=1;
  3633  0CBF  1507               	bsf	(58/8),(58)&7
  3634                           	line	32
  3635                           	
  3636  0CC0                     l3054:	
  3637                           ;8 sensor with lcd value.c: 32: delay(100);
  3638  0CC0  3064               	movlw	low(064h)
  3639  0CC1  00F0               	movwf	(?_delay)
  3640  0CC2  3000               	movlw	high(064h)
  3641  0CC3  00F1               	movwf	((?_delay))+1
  3642  0CC4  120A  158A  2491   	fcall	_delay
              120A  158A         
  3643                           	line	33
  3644                           	
  3645  0CC9                     l3056:	
  3646                           ;8 sensor with lcd value.c: 33: RC2=0;
  3647  0CC9  1283               	bcf	status, 5	;RP0=0, select bank0
  3648  0CCA  1303               	bcf	status, 6	;RP1=0, select bank0
  3649  0CCB  1107               	bcf	(58/8),(58)&7
  3650                           	line	34
  3651                           	
  3652  0CCC                     l571:	
  3653  0CCC  0008               	return
  3654                           	opt stack 0
  3655                           GLOBAL	__end_of_lcd_data
  3656  0CCD                     	__end_of_lcd_data:
  3657 ;; =============== function _lcd_data ends ============
  3658                           
  3659                           	signat	_lcd_data,4216
  3660                           	global	_lcd_command
  3661                           psect	text183,local,class=CODE,delta=2
  3662                           global __ptext183
  3663  0CA3                     __ptext183:
  3664                           
  3665 ;; *************** function _lcd_command *****************
  3666 ;; Defined at:
  3667 ;;		line 11 in file "C:\Users\TECH\Desktop\madhu pic folder\ADC\ADC task\8 sensor with lcd value\8 sensor with lcd value
       .c"
  3668 ;; Parameters:    Size  Location     Type
  3669 ;;  com             1    wreg     unsigned char 
  3670 ;; Auto vars:     Size  Location     Type
  3671 ;;  com             1    2[COMMON] unsigned char 
  3672 ;; Return value:  Size  Location     Type
  3673 ;;		None               void
  3674 ;; Registers used:
  3675 ;;		wreg, status,2, status,0, pclath, cstack
  3676 ;; Tracked objects:
  3677 ;;		On entry : 0/0
  3678 ;;		On exit  : 0/0
  3679 ;;		Unchanged: 0/0
  3680 ;; Data sizes:     COMMON   BANK0   BANK1   BANK3   BANK2
  3681 ;;      Params:         0       0       0       0       0
  3682 ;;      Locals:         1       0       0       0       0
  3683 ;;      Temps:          0       0       0       0       0
  3684 ;;      Totals:         1       0       0       0       0
  3685 ;;Total ram usage:        1 bytes
  3686 ;; Hardware stack levels used:    1
  3687 ;; Hardware stack levels required when called:    1
  3688 ;; This function calls:
  3689 ;;		_delay
  3690 ;; This function is called by:
  3691 ;;		_lcd_init
  3692 ;;		_main
  3693 ;; This function uses a non-reentrant model
  3694 ;;
  3695                           psect	text183
  3696                           	file	"C:\Users\TECH\Desktop\madhu pic folder\ADC\ADC task\8 sensor with lcd value\8 sen
                                 sor with lcd value.c"
  3697                           	line	11
  3698                           	global	__size_of_lcd_command
  3699  0015                     	__size_of_lcd_command	equ	__end_of_lcd_command-_lcd_command
  3700                           	
  3701  0CA3                     _lcd_command:	
  3702                           	opt	stack 7
  3703                           ; Regs used in _lcd_command: [wreg+status,2+status,0+pclath+cstack]
  3704                           ;lcd_command@com stored from wreg
  3705  0CA3  00F2               	movwf	(lcd_command@com)
  3706                           	line	12
  3707                           	
  3708  0CA4                     l3034:	
  3709                           ;8 sensor with lcd value.c: 12: PORTD=com;
  3710  0CA4  0872               	movf	(lcd_command@com),w
  3711  0CA5  1283               	bcf	status, 5	;RP0=0, select bank0
  3712  0CA6  1303               	bcf	status, 6	;RP1=0, select bank0
  3713  0CA7  0088               	movwf	(8)	;volatile
  3714                           	line	13
  3715                           	
  3716  0CA8                     l3036:	
  3717                           ;8 sensor with lcd value.c: 13: RC0=0;
  3718  0CA8  1007               	bcf	(56/8),(56)&7
  3719                           	line	14
  3720                           	
  3721  0CA9                     l3038:	
  3722                           ;8 sensor with lcd value.c: 14: RC1=0;
  3723  0CA9  1087               	bcf	(57/8),(57)&7
  3724                           	line	15
  3725                           	
  3726  0CAA                     l3040:	
  3727                           ;8 sensor with lcd value.c: 15: RC2=1;
  3728  0CAA  1507               	bsf	(58/8),(58)&7
  3729                           	line	16
  3730                           	
  3731  0CAB                     l3042:	
  3732                           ;8 sensor with lcd value.c: 16: delay(100);
  3733  0CAB  3064               	movlw	low(064h)
  3734  0CAC  00F0               	movwf	(?_delay)
  3735  0CAD  3000               	movlw	high(064h)
  3736  0CAE  00F1               	movwf	((?_delay))+1
  3737  0CAF  120A  158A  2491   	fcall	_delay
              120A  158A         
  3738                           	line	17
  3739                           	
  3740  0CB4                     l3044:	
  3741                           ;8 sensor with lcd value.c: 17: RC2=0;
  3742  0CB4  1283               	bcf	status, 5	;RP0=0, select bank0
  3743  0CB5  1303               	bcf	status, 6	;RP1=0, select bank0
  3744  0CB6  1107               	bcf	(58/8),(58)&7
  3745                           	line	18
  3746                           	
  3747  0CB7                     l565:	
  3748  0CB7  0008               	return
  3749                           	opt stack 0
  3750                           GLOBAL	__end_of_lcd_command
  3751  0CB8                     	__end_of_lcd_command:
  3752 ;; =============== function _lcd_command ends ============
  3753                           
  3754                           	signat	_lcd_command,4216
  3755                           	global	___awmod
  3756                           psect	text184,local,class=CODE,delta=2
  3757                           global __ptext184
  3758  0D6C                     __ptext184:
  3759                           
  3760 ;; *************** function ___awmod *****************
  3761 ;; Defined at:
  3762 ;;		line 5 in file "C:\Program Files (x86)\HI-TECH Software\PICC\9.71a\sources\awmod.c"
  3763 ;; Parameters:    Size  Location     Type
  3764 ;;  divisor         2    0[COMMON] int 
  3765 ;;  dividend        2    2[COMMON] int 
  3766 ;; Auto vars:     Size  Location     Type
  3767 ;;  sign            1    6[COMMON] unsigned char 
  3768 ;;  counter         1    5[COMMON] unsigned char 
  3769 ;; Return value:  Size  Location     Type
  3770 ;;                  2    0[COMMON] int 
  3771 ;; Registers used:
  3772 ;;		wreg, status,2, status,0
  3773 ;; Tracked objects:
  3774 ;;		On entry : 0/0
  3775 ;;		On exit  : 0/0
  3776 ;;		Unchanged: 0/0
  3777 ;; Data sizes:     COMMON   BANK0   BANK1   BANK3   BANK2
  3778 ;;      Params:         4       0       0       0       0
  3779 ;;      Locals:         2       0       0       0       0
  3780 ;;      Temps:          1       0       0       0       0
  3781 ;;      Totals:         7       0       0       0       0
  3782 ;;Total ram usage:        7 bytes
  3783 ;; Hardware stack levels used:    1
  3784 ;; This function calls:
  3785 ;;		Nothing
  3786 ;; This function is called by:
  3787 ;;		_main
  3788 ;; This function uses a non-reentrant model
  3789 ;;
  3790                           psect	text184
  3791                           	file	"C:\Program Files (x86)\HI-TECH Software\PICC\9.71a\sources\awmod.c"
  3792                           	line	5
  3793                           	global	__size_of___awmod
  3794  0060                     	__size_of___awmod	equ	__end_of___awmod-___awmod
  3795                           	
  3796  0D6C                     ___awmod:	
  3797                           	opt	stack 7
  3798                           ; Regs used in ___awmod: [wreg+status,2+status,0]
  3799                           	line	8
  3800                           	
  3801  0D6C                     l2998:	
  3802  0D6C  1003               	clrc
  3803  0D6D  3000               	movlw	0
  3804  0D6E  1803               	btfsc	status,0
  3805  0D6F  3001               	movlw	1
  3806  0D70  00F6               	movwf	(___awmod@sign)
  3807                           	line	9
  3808                           	
  3809  0D71                     l3000:	
  3810  0D71  1FF3               	btfss	(___awmod@dividend+1),7
  3811  0D72  2D74               	goto	u2491
  3812  0D73  2D75               	goto	u2490
  3813  0D74                     u2491:
  3814  0D74  2D7D               	goto	l800
  3815  0D75                     u2490:
  3816                           	line	10
  3817                           	
  3818  0D75                     l3002:	
  3819  0D75  09F2               	comf	(___awmod@dividend),f
  3820  0D76  09F3               	comf	(___awmod@dividend+1),f
  3821  0D77  0AF2               	incf	(___awmod@dividend),f
  3822  0D78  1903               	skipnz
  3823  0D79  0AF3               	incf	(___awmod@dividend+1),f
  3824                           	line	11
  3825  0D7A  01F6               	clrf	(___awmod@sign)
  3826  0D7B  1403               	bsf	status,0
  3827  0D7C  0DF6               	rlf	(___awmod@sign),f
  3828                           	line	12
  3829                           	
  3830  0D7D                     l800:	
  3831                           	line	13
  3832                           	
  3833  0D7D                     l3004:	
  3834  0D7D  1FF1               	btfss	(___awmod@divisor+1),7
  3835  0D7E  2D80               	goto	u2501
  3836  0D7F  2D81               	goto	u2500
  3837  0D80                     u2501:
  3838  0D80  2D86               	goto	l801
  3839  0D81                     u2500:
  3840                           	line	14
  3841                           	
  3842  0D81                     l3006:	
  3843  0D81  09F0               	comf	(___awmod@divisor),f
  3844  0D82  09F1               	comf	(___awmod@divisor+1),f
  3845  0D83  0AF0               	incf	(___awmod@divisor),f
  3846  0D84  1903               	skipnz
  3847  0D85  0AF1               	incf	(___awmod@divisor+1),f
  3848                           	
  3849  0D86                     l801:	
  3850                           	line	15
  3851                           	
  3852  0D86                     l3008:	
  3853  0D86  0871               	movf	(___awmod@divisor+1),w
  3854  0D87  0470               	iorwf	(___awmod@divisor),w
  3855  0D88  1903               	skipnz
  3856  0D89  2D8B               	goto	u2511
  3857  0D8A  2D8C               	goto	u2510
  3858  0D8B                     u2511:
  3859  0D8B  2DBC               	goto	l802
  3860  0D8C                     u2510:
  3861                           	line	16
  3862                           	
  3863  0D8C                     l3010:	
  3864  0D8C  01F5               	clrf	(___awmod@counter)
  3865  0D8D  1403               	bsf	status,0
  3866  0D8E  0DF5               	rlf	(___awmod@counter),f
  3867                           	line	17
  3868  0D8F  2D9B               	goto	l803
  3869                           	
  3870  0D90                     l804:	
  3871                           	line	18
  3872                           	
  3873  0D90                     l3012:	
  3874  0D90  3001               	movlw	01h
  3875                           	
  3876  0D91                     u2525:
  3877  0D91  1003               	clrc
  3878  0D92  0DF0               	rlf	(___awmod@divisor),f
  3879  0D93  0DF1               	rlf	(___awmod@divisor+1),f
  3880  0D94  3EFF               	addlw	-1
  3881  0D95  1D03               	skipz
  3882  0D96  2D91               	goto	u2525
  3883                           	line	19
  3884                           	
  3885  0D97                     l3014:	
  3886  0D97  3001               	movlw	(01h)
  3887  0D98  00F4               	movwf	(??___awmod+0)+0
  3888  0D99  0874               	movf	(??___awmod+0)+0,w
  3889  0D9A  07F5               	addwf	(___awmod@counter),f
  3890                           	line	20
  3891                           	
  3892  0D9B                     l803:	
  3893                           	line	17
  3894                           	
  3895  0D9B                     l3016:	
  3896  0D9B  1FF1               	btfss	(___awmod@divisor+1),(15)&7
  3897  0D9C  2D9E               	goto	u2531
  3898  0D9D  2D9F               	goto	u2530
  3899  0D9E                     u2531:
  3900  0D9E  2D90               	goto	l804
  3901  0D9F                     u2530:
  3902                           	
  3903  0D9F                     l805:	
  3904                           	line	21
  3905                           	
  3906  0D9F                     l806:	
  3907                           	line	22
  3908                           	
  3909  0D9F                     l3018:	
  3910  0D9F  0871               	movf	(___awmod@divisor+1),w
  3911  0DA0  0273               	subwf	(___awmod@dividend+1),w
  3912  0DA1  1D03               	skipz
  3913  0DA2  2DA5               	goto	u2545
  3914  0DA3  0870               	movf	(___awmod@divisor),w
  3915  0DA4  0272               	subwf	(___awmod@dividend),w
  3916  0DA5                     u2545:
  3917  0DA5  1C03               	skipc
  3918  0DA6  2DA8               	goto	u2541
  3919  0DA7  2DA9               	goto	u2540
  3920  0DA8                     u2541:
  3921  0DA8  2DAF               	goto	l807
  3922  0DA9                     u2540:
  3923                           	line	23
  3924                           	
  3925  0DA9                     l3020:	
  3926  0DA9  0870               	movf	(___awmod@divisor),w
  3927  0DAA  02F2               	subwf	(___awmod@dividend),f
  3928  0DAB  0871               	movf	(___awmod@divisor+1),w
  3929  0DAC  1C03               	skipc
  3930  0DAD  03F3               	decf	(___awmod@dividend+1),f
  3931  0DAE  02F3               	subwf	(___awmod@dividend+1),f
  3932                           	
  3933  0DAF                     l807:	
  3934                           	line	24
  3935                           	
  3936  0DAF                     l3022:	
  3937  0DAF  3001               	movlw	01h
  3938                           	
  3939  0DB0                     u2555:
  3940  0DB0  1003               	clrc
  3941  0DB1  0CF1               	rrf	(___awmod@divisor+1),f
  3942  0DB2  0CF0               	rrf	(___awmod@divisor),f
  3943  0DB3  3EFF               	addlw	-1
  3944  0DB4  1D03               	skipz
  3945  0DB5  2DB0               	goto	u2555
  3946                           	line	25
  3947                           	
  3948  0DB6                     l3024:	
  3949  0DB6  3001               	movlw	low(01h)
  3950  0DB7  02F5               	subwf	(___awmod@counter),f
  3951  0DB8  1D03               	btfss	status,2
  3952  0DB9  2DBB               	goto	u2561
  3953  0DBA  2DBC               	goto	u2560
  3954  0DBB                     u2561:
  3955  0DBB  2D9F               	goto	l806
  3956  0DBC                     u2560:
  3957                           	
  3958  0DBC                     l808:	
  3959                           	line	26
  3960                           	
  3961  0DBC                     l802:	
  3962                           	line	27
  3963                           	
  3964  0DBC                     l3026:	
  3965  0DBC  0876               	movf	(___awmod@sign),w
  3966  0DBD  1D03               	skipz
  3967  0DBE  2DC0               	goto	u2570
  3968  0DBF  2DC5               	goto	l809
  3969  0DC0                     u2570:
  3970                           	line	28
  3971                           	
  3972  0DC0                     l3028:	
  3973  0DC0  09F2               	comf	(___awmod@dividend),f
  3974  0DC1  09F3               	comf	(___awmod@dividend+1),f
  3975  0DC2  0AF2               	incf	(___awmod@dividend),f
  3976  0DC3  1903               	skipnz
  3977  0DC4  0AF3               	incf	(___awmod@dividend+1),f
  3978                           	
  3979  0DC5                     l809:	
  3980                           	line	29
  3981                           	
  3982  0DC5                     l3030:	
  3983  0DC5  0873               	movf	(___awmod@dividend+1),w
  3984  0DC6  01F1               	clrf	(?___awmod+1)
  3985  0DC7  07F1               	addwf	(?___awmod+1)
  3986  0DC8  0872               	movf	(___awmod@dividend),w
  3987  0DC9  01F0               	clrf	(?___awmod)
  3988  0DCA  07F0               	addwf	(?___awmod)
  3989                           
  3990                           	
  3991  0DCB                     l3032:	
  3992                           	line	30
  3993                           	
  3994  0DCB                     l810:	
  3995  0DCB  0008               	return
  3996                           	opt stack 0
  3997                           GLOBAL	__end_of___awmod
  3998  0DCC                     	__end_of___awmod:
  3999 ;; =============== function ___awmod ends ============
  4000                           
  4001                           	signat	___awmod,8314
  4002                           	global	___awdiv
  4003                           psect	text185,local,class=CODE,delta=2
  4004                           global __ptext185
  4005  0003                     __ptext185:
  4006                           
  4007 ;; *************** function ___awdiv *****************
  4008 ;; Defined at:
  4009 ;;		line 5 in file "C:\Program Files (x86)\HI-TECH Software\PICC\9.71a\sources\awdiv.c"
  4010 ;; Parameters:    Size  Location     Type
  4011 ;;  divisor         2    0[COMMON] int 
  4012 ;;  dividend        2    2[COMMON] int 
  4013 ;; Auto vars:     Size  Location     Type
  4014 ;;  quotient        2    7[COMMON] int 
  4015 ;;  sign            1    6[COMMON] unsigned char 
  4016 ;;  counter         1    5[COMMON] unsigned char 
  4017 ;; Return value:  Size  Location     Type
  4018 ;;                  2    0[COMMON] int 
  4019 ;; Registers used:
  4020 ;;		wreg, status,2, status,0
  4021 ;; Tracked objects:
  4022 ;;		On entry : 0/0
  4023 ;;		On exit  : 0/0
  4024 ;;		Unchanged: 0/0
  4025 ;; Data sizes:     COMMON   BANK0   BANK1   BANK3   BANK2
  4026 ;;      Params:         4       0       0       0       0
  4027 ;;      Locals:         4       0       0       0       0
  4028 ;;      Temps:          1       0       0       0       0
  4029 ;;      Totals:         9       0       0       0       0
  4030 ;;Total ram usage:        9 bytes
  4031 ;; Hardware stack levels used:    1
  4032 ;; This function calls:
  4033 ;;		Nothing
  4034 ;; This function is called by:
  4035 ;;		_main
  4036 ;; This function uses a non-reentrant model
  4037 ;;
  4038                           psect	text185
  4039                           	file	"C:\Program Files (x86)\HI-TECH Software\PICC\9.71a\sources\awdiv.c"
  4040                           	line	5
  4041                           	global	__size_of___awdiv
  4042  0070                     	__size_of___awdiv	equ	__end_of___awdiv-___awdiv
  4043                           	
  4044  0003                     ___awdiv:	
  4045                           	opt	stack 7
  4046                           ; Regs used in ___awdiv: [wreg+status,2+status,0]
  4047                           	line	9
  4048                           	
  4049  0003                     l2960:	
  4050  0003  1003               	clrc
  4051  0004  3000               	movlw	0
  4052  0005  1803               	btfsc	status,0
  4053  0006  3001               	movlw	1
  4054  0007  00F6               	movwf	(___awdiv@sign)
  4055                           	line	10
  4056                           	
  4057  0008                     l2962:	
  4058  0008  1FF1               	btfss	(___awdiv@divisor+1),7
  4059  0009  280B               	goto	u2391
  4060  000A  280C               	goto	u2390
  4061  000B                     u2391:
  4062  000B  2814               	goto	l732
  4063  000C                     u2390:
  4064                           	line	11
  4065                           	
  4066  000C                     l2964:	
  4067  000C  09F0               	comf	(___awdiv@divisor),f
  4068  000D  09F1               	comf	(___awdiv@divisor+1),f
  4069  000E  0AF0               	incf	(___awdiv@divisor),f
  4070  000F  1903               	skipnz
  4071  0010  0AF1               	incf	(___awdiv@divisor+1),f
  4072                           	line	12
  4073  0011  01F6               	clrf	(___awdiv@sign)
  4074  0012  1403               	bsf	status,0
  4075  0013  0DF6               	rlf	(___awdiv@sign),f
  4076                           	line	13
  4077                           	
  4078  0014                     l732:	
  4079                           	line	14
  4080                           	
  4081  0014                     l2966:	
  4082  0014  1FF3               	btfss	(___awdiv@dividend+1),7
  4083  0015  2817               	goto	u2401
  4084  0016  2818               	goto	u2400
  4085  0017                     u2401:
  4086  0017  2821               	goto	l733
  4087  0018                     u2400:
  4088                           	line	15
  4089                           	
  4090  0018                     l2968:	
  4091  0018  09F2               	comf	(___awdiv@dividend),f
  4092  0019  09F3               	comf	(___awdiv@dividend+1),f
  4093  001A  0AF2               	incf	(___awdiv@dividend),f
  4094  001B  1903               	skipnz
  4095  001C  0AF3               	incf	(___awdiv@dividend+1),f
  4096                           	line	16
  4097                           	
  4098  001D                     l2970:	
  4099  001D  3001               	movlw	(01h)
  4100  001E  00F4               	movwf	(??___awdiv+0)+0
  4101  001F  0874               	movf	(??___awdiv+0)+0,w
  4102  0020  06F6               	xorwf	(___awdiv@sign),f
  4103                           	line	17
  4104                           	
  4105  0021                     l733:	
  4106                           	line	18
  4107  0021  3000               	movlw	low(0)
  4108  0022  00F7               	movwf	(___awdiv@quotient)
  4109  0023  3000               	movlw	high(0)
  4110  0024  00F8               	movwf	((___awdiv@quotient))+1
  4111                           	line	19
  4112  0025  0871               	movf	(___awdiv@divisor+1),w
  4113  0026  0470               	iorwf	(___awdiv@divisor),w
  4114  0027  1903               	skipnz
  4115  0028  282A               	goto	u2411
  4116  0029  282B               	goto	u2410
  4117  002A                     u2411:
  4118  002A  2863               	goto	l734
  4119  002B                     u2410:
  4120                           	line	20
  4121                           	
  4122  002B                     l2972:	
  4123  002B  01F5               	clrf	(___awdiv@counter)
  4124  002C  1403               	bsf	status,0
  4125  002D  0DF5               	rlf	(___awdiv@counter),f
  4126                           	line	21
  4127  002E  283A               	goto	l735
  4128                           	
  4129  002F                     l736:	
  4130                           	line	22
  4131                           	
  4132  002F                     l2974:	
  4133  002F  3001               	movlw	01h
  4134                           	
  4135  0030                     u2425:
  4136  0030  1003               	clrc
  4137  0031  0DF0               	rlf	(___awdiv@divisor),f
  4138  0032  0DF1               	rlf	(___awdiv@divisor+1),f
  4139  0033  3EFF               	addlw	-1
  4140  0034  1D03               	skipz
  4141  0035  2830               	goto	u2425
  4142                           	line	23
  4143                           	
  4144  0036                     l2976:	
  4145  0036  3001               	movlw	(01h)
  4146  0037  00F4               	movwf	(??___awdiv+0)+0
  4147  0038  0874               	movf	(??___awdiv+0)+0,w
  4148  0039  07F5               	addwf	(___awdiv@counter),f
  4149                           	line	24
  4150                           	
  4151  003A                     l735:	
  4152                           	line	21
  4153                           	
  4154  003A                     l2978:	
  4155  003A  1FF1               	btfss	(___awdiv@divisor+1),(15)&7
  4156  003B  283D               	goto	u2431
  4157  003C  283E               	goto	u2430
  4158  003D                     u2431:
  4159  003D  282F               	goto	l736
  4160  003E                     u2430:
  4161                           	
  4162  003E                     l737:	
  4163                           	line	25
  4164                           	
  4165  003E                     l738:	
  4166                           	line	26
  4167                           	
  4168  003E                     l2980:	
  4169  003E  3001               	movlw	01h
  4170                           	
  4171  003F                     u2445:
  4172  003F  1003               	clrc
  4173  0040  0DF7               	rlf	(___awdiv@quotient),f
  4174  0041  0DF8               	rlf	(___awdiv@quotient+1),f
  4175  0042  3EFF               	addlw	-1
  4176  0043  1D03               	skipz
  4177  0044  283F               	goto	u2445
  4178                           	line	27
  4179  0045  0871               	movf	(___awdiv@divisor+1),w
  4180  0046  0273               	subwf	(___awdiv@dividend+1),w
  4181  0047  1D03               	skipz
  4182  0048  284B               	goto	u2455
  4183  0049  0870               	movf	(___awdiv@divisor),w
  4184  004A  0272               	subwf	(___awdiv@dividend),w
  4185  004B                     u2455:
  4186  004B  1C03               	skipc
  4187  004C  284E               	goto	u2451
  4188  004D  284F               	goto	u2450
  4189  004E                     u2451:
  4190  004E  2856               	goto	l739
  4191  004F                     u2450:
  4192                           	line	28
  4193                           	
  4194  004F                     l2982:	
  4195  004F  0870               	movf	(___awdiv@divisor),w
  4196  0050  02F2               	subwf	(___awdiv@dividend),f
  4197  0051  0871               	movf	(___awdiv@divisor+1),w
  4198  0052  1C03               	skipc
  4199  0053  03F3               	decf	(___awdiv@dividend+1),f
  4200  0054  02F3               	subwf	(___awdiv@dividend+1),f
  4201                           	line	29
  4202                           	
  4203  0055                     l2984:	
  4204  0055  1477               	bsf	(___awdiv@quotient)+(0/8),(0)&7
  4205                           	line	30
  4206                           	
  4207  0056                     l739:	
  4208                           	line	31
  4209                           	
  4210  0056                     l2986:	
  4211  0056  3001               	movlw	01h
  4212                           	
  4213  0057                     u2465:
  4214  0057  1003               	clrc
  4215  0058  0CF1               	rrf	(___awdiv@divisor+1),f
  4216  0059  0CF0               	rrf	(___awdiv@divisor),f
  4217  005A  3EFF               	addlw	-1
  4218  005B  1D03               	skipz
  4219  005C  2857               	goto	u2465
  4220                           	line	32
  4221                           	
  4222  005D                     l2988:	
  4223  005D  3001               	movlw	low(01h)
  4224  005E  02F5               	subwf	(___awdiv@counter),f
  4225  005F  1D03               	btfss	status,2
  4226  0060  2862               	goto	u2471
  4227  0061  2863               	goto	u2470
  4228  0062                     u2471:
  4229  0062  283E               	goto	l738
  4230  0063                     u2470:
  4231                           	
  4232  0063                     l740:	
  4233                           	line	33
  4234                           	
  4235  0063                     l734:	
  4236                           	line	34
  4237                           	
  4238  0063                     l2990:	
  4239  0063  0876               	movf	(___awdiv@sign),w
  4240  0064  1D03               	skipz
  4241  0065  2867               	goto	u2480
  4242  0066  286C               	goto	l741
  4243  0067                     u2480:
  4244                           	line	35
  4245                           	
  4246  0067                     l2992:	
  4247  0067  09F7               	comf	(___awdiv@quotient),f
  4248  0068  09F8               	comf	(___awdiv@quotient+1),f
  4249  0069  0AF7               	incf	(___awdiv@quotient),f
  4250  006A  1903               	skipnz
  4251  006B  0AF8               	incf	(___awdiv@quotient+1),f
  4252                           	
  4253  006C                     l741:	
  4254                           	line	36
  4255                           	
  4256  006C                     l2994:	
  4257  006C  0878               	movf	(___awdiv@quotient+1),w
  4258  006D  01F1               	clrf	(?___awdiv+1)
  4259  006E  07F1               	addwf	(?___awdiv+1)
  4260  006F  0877               	movf	(___awdiv@quotient),w
  4261  0070  01F0               	clrf	(?___awdiv)
  4262  0071  07F0               	addwf	(?___awdiv)
  4263                           
  4264                           	
  4265  0072                     l2996:	
  4266                           	line	37
  4267                           	
  4268  0072                     l742:	
  4269  0072  0008               	return
  4270                           	opt stack 0
  4271                           GLOBAL	__end_of___awdiv
  4272  0073                     	__end_of___awdiv:
  4273 ;; =============== function ___awdiv ends ============
  4274                           
  4275                           	signat	___awdiv,8314
  4276                           	global	___lwmod
  4277                           psect	text186,local,class=CODE,delta=2
  4278                           global __ptext186
  4279  0CE6                     __ptext186:
  4280                           
  4281 ;; *************** function ___lwmod *****************
  4282 ;; Defined at:
  4283 ;;		line 5 in file "C:\Program Files (x86)\HI-TECH Software\PICC\9.71a\sources\lwmod.c"
  4284 ;; Parameters:    Size  Location     Type
  4285 ;;  divisor         2    0[COMMON] unsigned int 
  4286 ;;  dividend        2    2[COMMON] unsigned int 
  4287 ;; Auto vars:     Size  Location     Type
  4288 ;;  counter         1    5[COMMON] unsigned char 
  4289 ;; Return value:  Size  Location     Type
  4290 ;;                  2    0[COMMON] unsigned int 
  4291 ;; Registers used:
  4292 ;;		wreg, status,2, status,0
  4293 ;; Tracked objects:
  4294 ;;		On entry : 0/0
  4295 ;;		On exit  : 0/0
  4296 ;;		Unchanged: 0/0
  4297 ;; Data sizes:     COMMON   BANK0   BANK1   BANK3   BANK2
  4298 ;;      Params:         4       0       0       0       0
  4299 ;;      Locals:         1       0       0       0       0
  4300 ;;      Temps:          1       0       0       0       0
  4301 ;;      Totals:         6       0       0       0       0
  4302 ;;Total ram usage:        6 bytes
  4303 ;; Hardware stack levels used:    1
  4304 ;; This function calls:
  4305 ;;		Nothing
  4306 ;; This function is called by:
  4307 ;;		_main
  4308 ;; This function uses a non-reentrant model
  4309 ;;
  4310                           psect	text186
  4311                           	file	"C:\Program Files (x86)\HI-TECH Software\PICC\9.71a\sources\lwmod.c"
  4312                           	line	5
  4313                           	global	__size_of___lwmod
  4314  003D                     	__size_of___lwmod	equ	__end_of___lwmod-___lwmod
  4315                           	
  4316  0CE6                     ___lwmod:	
  4317                           	opt	stack 7
  4318                           ; Regs used in ___lwmod: [wreg+status,2+status,0]
  4319                           	line	8
  4320                           	
  4321  0CE6                     l2938:	
  4322  0CE6  0871               	movf	(___lwmod@divisor+1),w
  4323  0CE7  0470               	iorwf	(___lwmod@divisor),w
  4324  0CE8  1903               	skipnz
  4325  0CE9  2CEB               	goto	u2331
  4326  0CEA  2CEC               	goto	u2330
  4327  0CEB                     u2331:
  4328  0CEB  2D1C               	goto	l608
  4329  0CEC                     u2330:
  4330                           	line	9
  4331                           	
  4332  0CEC                     l2940:	
  4333  0CEC  01F5               	clrf	(___lwmod@counter)
  4334  0CED  1403               	bsf	status,0
  4335  0CEE  0DF5               	rlf	(___lwmod@counter),f
  4336                           	line	10
  4337  0CEF  2CFB               	goto	l609
  4338                           	
  4339  0CF0                     l610:	
  4340                           	line	11
  4341                           	
  4342  0CF0                     l2942:	
  4343  0CF0  3001               	movlw	01h
  4344                           	
  4345  0CF1                     u2345:
  4346  0CF1  1003               	clrc
  4347  0CF2  0DF0               	rlf	(___lwmod@divisor),f
  4348  0CF3  0DF1               	rlf	(___lwmod@divisor+1),f
  4349  0CF4  3EFF               	addlw	-1
  4350  0CF5  1D03               	skipz
  4351  0CF6  2CF1               	goto	u2345
  4352                           	line	12
  4353                           	
  4354  0CF7                     l2944:	
  4355  0CF7  3001               	movlw	(01h)
  4356  0CF8  00F4               	movwf	(??___lwmod+0)+0
  4357  0CF9  0874               	movf	(??___lwmod+0)+0,w
  4358  0CFA  07F5               	addwf	(___lwmod@counter),f
  4359                           	line	13
  4360                           	
  4361  0CFB                     l609:	
  4362                           	line	10
  4363                           	
  4364  0CFB                     l2946:	
  4365  0CFB  1FF1               	btfss	(___lwmod@divisor+1),(15)&7
  4366  0CFC  2CFE               	goto	u2351
  4367  0CFD  2CFF               	goto	u2350
  4368  0CFE                     u2351:
  4369  0CFE  2CF0               	goto	l610
  4370  0CFF                     u2350:
  4371                           	
  4372  0CFF                     l611:	
  4373                           	line	14
  4374                           	
  4375  0CFF                     l612:	
  4376                           	line	15
  4377                           	
  4378  0CFF                     l2948:	
  4379  0CFF  0871               	movf	(___lwmod@divisor+1),w
  4380  0D00  0273               	subwf	(___lwmod@dividend+1),w
  4381  0D01  1D03               	skipz
  4382  0D02  2D05               	goto	u2365
  4383  0D03  0870               	movf	(___lwmod@divisor),w
  4384  0D04  0272               	subwf	(___lwmod@dividend),w
  4385  0D05                     u2365:
  4386  0D05  1C03               	skipc
  4387  0D06  2D08               	goto	u2361
  4388  0D07  2D09               	goto	u2360
  4389  0D08                     u2361:
  4390  0D08  2D0F               	goto	l613
  4391  0D09                     u2360:
  4392                           	line	16
  4393                           	
  4394  0D09                     l2950:	
  4395  0D09  0870               	movf	(___lwmod@divisor),w
  4396  0D0A  02F2               	subwf	(___lwmod@dividend),f
  4397  0D0B  0871               	movf	(___lwmod@divisor+1),w
  4398  0D0C  1C03               	skipc
  4399  0D0D  03F3               	decf	(___lwmod@dividend+1),f
  4400  0D0E  02F3               	subwf	(___lwmod@dividend+1),f
  4401                           	
  4402  0D0F                     l613:	
  4403                           	line	17
  4404                           	
  4405  0D0F                     l2952:	
  4406  0D0F  3001               	movlw	01h
  4407                           	
  4408  0D10                     u2375:
  4409  0D10  1003               	clrc
  4410  0D11  0CF1               	rrf	(___lwmod@divisor+1),f
  4411  0D12  0CF0               	rrf	(___lwmod@divisor),f
  4412  0D13  3EFF               	addlw	-1
  4413  0D14  1D03               	skipz
  4414  0D15  2D10               	goto	u2375
  4415                           	line	18
  4416                           	
  4417  0D16                     l2954:	
  4418  0D16  3001               	movlw	low(01h)
  4419  0D17  02F5               	subwf	(___lwmod@counter),f
  4420  0D18  1D03               	btfss	status,2
  4421  0D19  2D1B               	goto	u2381
  4422  0D1A  2D1C               	goto	u2380
  4423  0D1B                     u2381:
  4424  0D1B  2CFF               	goto	l612
  4425  0D1C                     u2380:
  4426                           	
  4427  0D1C                     l614:	
  4428                           	line	19
  4429                           	
  4430  0D1C                     l608:	
  4431                           	line	20
  4432                           	
  4433  0D1C                     l2956:	
  4434  0D1C  0873               	movf	(___lwmod@dividend+1),w
  4435  0D1D  01F1               	clrf	(?___lwmod+1)
  4436  0D1E  07F1               	addwf	(?___lwmod+1)
  4437  0D1F  0872               	movf	(___lwmod@dividend),w
  4438  0D20  01F0               	clrf	(?___lwmod)
  4439  0D21  07F0               	addwf	(?___lwmod)
  4440                           
  4441                           	
  4442  0D22                     l2958:	
  4443                           	line	21
  4444                           	
  4445  0D22                     l615:	
  4446  0D22  0008               	return
  4447                           	opt stack 0
  4448                           GLOBAL	__end_of___lwmod
  4449  0D23                     	__end_of___lwmod:
  4450 ;; =============== function ___lwmod ends ============
  4451                           
  4452                           	signat	___lwmod,8314
  4453                           	global	___lwdiv
  4454                           psect	text187,local,class=CODE,delta=2
  4455                           global __ptext187
  4456  0D23                     __ptext187:
  4457                           
  4458 ;; *************** function ___lwdiv *****************
  4459 ;; Defined at:
  4460 ;;		line 5 in file "C:\Program Files (x86)\HI-TECH Software\PICC\9.71a\sources\lwdiv.c"
  4461 ;; Parameters:    Size  Location     Type
  4462 ;;  divisor         2    0[COMMON] unsigned int 
  4463 ;;  dividend        2    2[COMMON] unsigned int 
  4464 ;; Auto vars:     Size  Location     Type
  4465 ;;  quotient        2    5[COMMON] unsigned int 
  4466 ;;  counter         1    7[COMMON] unsigned char 
  4467 ;; Return value:  Size  Location     Type
  4468 ;;                  2    0[COMMON] unsigned int 
  4469 ;; Registers used:
  4470 ;;		wreg, status,2, status,0
  4471 ;; Tracked objects:
  4472 ;;		On entry : 0/0
  4473 ;;		On exit  : 0/0
  4474 ;;		Unchanged: 0/0
  4475 ;; Data sizes:     COMMON   BANK0   BANK1   BANK3   BANK2
  4476 ;;      Params:         4       0       0       0       0
  4477 ;;      Locals:         3       0       0       0       0
  4478 ;;      Temps:          1       0       0       0       0
  4479 ;;      Totals:         8       0       0       0       0
  4480 ;;Total ram usage:        8 bytes
  4481 ;; Hardware stack levels used:    1
  4482 ;; This function calls:
  4483 ;;		Nothing
  4484 ;; This function is called by:
  4485 ;;		_main
  4486 ;; This function uses a non-reentrant model
  4487 ;;
  4488                           psect	text187
  4489                           	file	"C:\Program Files (x86)\HI-TECH Software\PICC\9.71a\sources\lwdiv.c"
  4490                           	line	5
  4491                           	global	__size_of___lwdiv
  4492  0049                     	__size_of___lwdiv	equ	__end_of___lwdiv-___lwdiv
  4493                           	
  4494  0D23                     ___lwdiv:	
  4495                           	opt	stack 7
  4496                           ; Regs used in ___lwdiv: [wreg+status,2+status,0]
  4497                           	line	9
  4498                           	
  4499  0D23                     l2914:	
  4500  0D23  3000               	movlw	low(0)
  4501  0D24  00F5               	movwf	(___lwdiv@quotient)
  4502  0D25  3000               	movlw	high(0)
  4503  0D26  00F6               	movwf	((___lwdiv@quotient))+1
  4504                           	line	10
  4505  0D27  0871               	movf	(___lwdiv@divisor+1),w
  4506  0D28  0470               	iorwf	(___lwdiv@divisor),w
  4507  0D29  1903               	skipnz
  4508  0D2A  2D2C               	goto	u2261
  4509  0D2B  2D2D               	goto	u2260
  4510  0D2C                     u2261:
  4511  0D2C  2D65               	goto	l598
  4512  0D2D                     u2260:
  4513                           	line	11
  4514                           	
  4515  0D2D                     l2916:	
  4516  0D2D  01F7               	clrf	(___lwdiv@counter)
  4517  0D2E  1403               	bsf	status,0
  4518  0D2F  0DF7               	rlf	(___lwdiv@counter),f
  4519                           	line	12
  4520  0D30  2D3C               	goto	l599
  4521                           	
  4522  0D31                     l600:	
  4523                           	line	13
  4524                           	
  4525  0D31                     l2918:	
  4526  0D31  3001               	movlw	01h
  4527                           	
  4528  0D32                     u2275:
  4529  0D32  1003               	clrc
  4530  0D33  0DF0               	rlf	(___lwdiv@divisor),f
  4531  0D34  0DF1               	rlf	(___lwdiv@divisor+1),f
  4532  0D35  3EFF               	addlw	-1
  4533  0D36  1D03               	skipz
  4534  0D37  2D32               	goto	u2275
  4535                           	line	14
  4536                           	
  4537  0D38                     l2920:	
  4538  0D38  3001               	movlw	(01h)
  4539  0D39  00F4               	movwf	(??___lwdiv+0)+0
  4540  0D3A  0874               	movf	(??___lwdiv+0)+0,w
  4541  0D3B  07F7               	addwf	(___lwdiv@counter),f
  4542                           	line	15
  4543                           	
  4544  0D3C                     l599:	
  4545                           	line	12
  4546                           	
  4547  0D3C                     l2922:	
  4548  0D3C  1FF1               	btfss	(___lwdiv@divisor+1),(15)&7
  4549  0D3D  2D3F               	goto	u2281
  4550  0D3E  2D40               	goto	u2280
  4551  0D3F                     u2281:
  4552  0D3F  2D31               	goto	l600
  4553  0D40                     u2280:
  4554                           	
  4555  0D40                     l601:	
  4556                           	line	16
  4557                           	
  4558  0D40                     l602:	
  4559                           	line	17
  4560                           	
  4561  0D40                     l2924:	
  4562  0D40  3001               	movlw	01h
  4563                           	
  4564  0D41                     u2295:
  4565  0D41  1003               	clrc
  4566  0D42  0DF5               	rlf	(___lwdiv@quotient),f
  4567  0D43  0DF6               	rlf	(___lwdiv@quotient+1),f
  4568  0D44  3EFF               	addlw	-1
  4569  0D45  1D03               	skipz
  4570  0D46  2D41               	goto	u2295
  4571                           	line	18
  4572  0D47  0871               	movf	(___lwdiv@divisor+1),w
  4573  0D48  0273               	subwf	(___lwdiv@dividend+1),w
  4574  0D49  1D03               	skipz
  4575  0D4A  2D4D               	goto	u2305
  4576  0D4B  0870               	movf	(___lwdiv@divisor),w
  4577  0D4C  0272               	subwf	(___lwdiv@dividend),w
  4578  0D4D                     u2305:
  4579  0D4D  1C03               	skipc
  4580  0D4E  2D50               	goto	u2301
  4581  0D4F  2D51               	goto	u2300
  4582  0D50                     u2301:
  4583  0D50  2D58               	goto	l603
  4584  0D51                     u2300:
  4585                           	line	19
  4586                           	
  4587  0D51                     l2926:	
  4588  0D51  0870               	movf	(___lwdiv@divisor),w
  4589  0D52  02F2               	subwf	(___lwdiv@dividend),f
  4590  0D53  0871               	movf	(___lwdiv@divisor+1),w
  4591  0D54  1C03               	skipc
  4592  0D55  03F3               	decf	(___lwdiv@dividend+1),f
  4593  0D56  02F3               	subwf	(___lwdiv@dividend+1),f
  4594                           	line	20
  4595                           	
  4596  0D57                     l2928:	
  4597  0D57  1475               	bsf	(___lwdiv@quotient)+(0/8),(0)&7
  4598                           	line	21
  4599                           	
  4600  0D58                     l603:	
  4601                           	line	22
  4602                           	
  4603  0D58                     l2930:	
  4604  0D58  3001               	movlw	01h
  4605                           	
  4606  0D59                     u2315:
  4607  0D59  1003               	clrc
  4608  0D5A  0CF1               	rrf	(___lwdiv@divisor+1),f
  4609  0D5B  0CF0               	rrf	(___lwdiv@divisor),f
  4610  0D5C  3EFF               	addlw	-1
  4611  0D5D  1D03               	skipz
  4612  0D5E  2D59               	goto	u2315
  4613                           	line	23
  4614                           	
  4615  0D5F                     l2932:	
  4616  0D5F  3001               	movlw	low(01h)
  4617  0D60  02F7               	subwf	(___lwdiv@counter),f
  4618  0D61  1D03               	btfss	status,2
  4619  0D62  2D64               	goto	u2321
  4620  0D63  2D65               	goto	u2320
  4621  0D64                     u2321:
  4622  0D64  2D40               	goto	l602
  4623  0D65                     u2320:
  4624                           	
  4625  0D65                     l604:	
  4626                           	line	24
  4627                           	
  4628  0D65                     l598:	
  4629                           	line	25
  4630                           	
  4631  0D65                     l2934:	
  4632  0D65  0876               	movf	(___lwdiv@quotient+1),w
  4633  0D66  01F1               	clrf	(?___lwdiv+1)
  4634  0D67  07F1               	addwf	(?___lwdiv+1)
  4635  0D68  0875               	movf	(___lwdiv@quotient),w
  4636  0D69  01F0               	clrf	(?___lwdiv)
  4637  0D6A  07F0               	addwf	(?___lwdiv)
  4638                           
  4639                           	
  4640  0D6B                     l2936:	
  4641                           	line	26
  4642                           	
  4643  0D6B                     l605:	
  4644  0D6B  0008               	return
  4645                           	opt stack 0
  4646                           GLOBAL	__end_of___lwdiv
  4647  0D6C                     	__end_of___lwdiv:
  4648 ;; =============== function ___lwdiv ends ============
  4649                           
  4650                           	signat	___lwdiv,8314
  4651                           	global	_delay
  4652                           psect	text188,local,class=CODE,delta=2
  4653                           global __ptext188
  4654  0C91                     __ptext188:
  4655                           
  4656 ;; *************** function _delay *****************
  4657 ;; Defined at:
  4658 ;;		line 7 in file "C:\Users\TECH\Desktop\madhu pic folder\ADC\ADC task\8 sensor with lcd value\8 sensor with lcd value.
       c"
  4659 ;; Parameters:    Size  Location     Type
  4660 ;;  x               2    0[COMMON] unsigned int 
  4661 ;; Auto vars:     Size  Location     Type
  4662 ;;		None
  4663 ;; Return value:  Size  Location     Type
  4664 ;;		None               void
  4665 ;; Registers used:
  4666 ;;		wreg
  4667 ;; Tracked objects:
  4668 ;;		On entry : 0/0
  4669 ;;		On exit  : 0/0
  4670 ;;		Unchanged: 0/0
  4671 ;; Data sizes:     COMMON   BANK0   BANK1   BANK3   BANK2
  4672 ;;      Params:         2       0       0       0       0
  4673 ;;      Locals:         0       0       0       0       0
  4674 ;;      Temps:          0       0       0       0       0
  4675 ;;      Totals:         2       0       0       0       0
  4676 ;;Total ram usage:        2 bytes
  4677 ;; Hardware stack levels used:    1
  4678 ;; This function calls:
  4679 ;;		Nothing
  4680 ;; This function is called by:
  4681 ;;		_lcd_command
  4682 ;;		_lcd_data
  4683 ;;		_main
  4684 ;; This function uses a non-reentrant model
  4685 ;;
  4686                           psect	text188
  4687                           	file	"C:\Users\TECH\Desktop\madhu pic folder\ADC\ADC task\8 sensor with lcd value\8 sen
                                 sor with lcd value.c"
  4688                           	line	7
  4689                           	global	__size_of_delay
  4690  0012                     	__size_of_delay	equ	__end_of_delay-_delay
  4691                           	
  4692  0C91                     _delay:	
  4693                           	opt	stack 6
  4694                           ; Regs used in _delay: [wreg]
  4695                           	line	8
  4696                           	
  4697  0C91                     l2902:	
  4698                           ;8 sensor with lcd value.c: 8: while(x--);
  4699  0C91  2C92               	goto	l559
  4700                           	
  4701  0C92                     l560:	
  4702                           	
  4703  0C92                     l559:	
  4704                           	
  4705  0C92                     l2904:	
  4706  0C92  3001               	movlw	low(01h)
  4707  0C93  02F0               	subwf	(delay@x),f
  4708  0C94  3000               	movlw	high(01h)
  4709  0C95  1C03               	skipc
  4710  0C96  03F1               	decf	(delay@x+1),f
  4711  0C97  02F1               	subwf	(delay@x+1),f
  4712  0C98  30FF               	movlw	high(0FFFFh)
  4713  0C99  0671               	xorwf	((delay@x+1)),w
  4714  0C9A  1D03               	skipz
  4715  0C9B  2C9E               	goto	u2245
  4716  0C9C  30FF               	movlw	low(0FFFFh)
  4717  0C9D  0670               	xorwf	((delay@x)),w
  4718  0C9E                     u2245:
  4719                           
  4720  0C9E  1D03               	skipz
  4721  0C9F  2CA1               	goto	u2241
  4722  0CA0  2CA2               	goto	u2240
  4723  0CA1                     u2241:
  4724  0CA1  2C92               	goto	l560
  4725  0CA2                     u2240:
  4726                           	
  4727  0CA2                     l561:	
  4728                           	line	9
  4729                           	
  4730  0CA2                     l562:	
  4731  0CA2  0008               	return
  4732                           	opt stack 0
  4733                           GLOBAL	__end_of_delay
  4734  0CA3                     	__end_of_delay:
  4735 ;; =============== function _delay ends ============
  4736                           
  4737                           	signat	_delay,4216
  4738                           psect	text189,local,class=CODE,delta=2
  4739                           global __ptext189
  4740  0000                     __ptext189:
  4741                           	global	btemp
  4742  007E                     	btemp set 07Eh
  4743                           
  4744                           	DABS	1,126,2	;btemp
  4745                           	global	wtemp0
  4746  007E                     	wtemp0 set btemp
  4747  0E51                     


HI-TECH Software PICC Macro Assembler V9.71a build 6446 
Symbol Table                                                                                   Wed Nov 30 15:15:51 2022

        lcd_data@data 0072          ___awdiv@sign 0076                   l600 0D31                   l601 0D40  
                 l602 0D40                   l610 0CF0                   l603 0D58                   l611 0CFF  
                 l604 0D65                   l612 0CFF                   l605 0D6B                   l613 0D0F  
                 l614 0D1C                   l615 0D22                   l560 0C92                   l608 0D1C  
                 l800 0D7D                   l561 0CA2                   l609 0CFB                   l801 0D86  
                 l562 0CA2                   l810 0DCB                   l802 0DBC                   l803 0D9B  
                 l571 0CCC                   l740 0063                   l732 0014                   l804 0D90  
                 l580 0F8F                   l741 006C                   l733 0021                   l805 0D9F  
                 l565 0CB7                   l581 07FA                   l742 0072                   l734 0063  
                 l806 0D9F                   l582 07FD                   l559 0C92                   l735 003A  
                 l807 0DAF                   l583 07FD                   l736 002F                   l808 0DBC  
                 l568 0CE5                   l737 003E                   l809 0DC5                   l738 003E  
                 l739 0056                   l598 0D65                   l599 0D3C                   _RC0 0038  
                 _RC1 0039                   _RC2 003A          ___awmod@sign 0076                  l3000 0D71  
                l3010 0D8C                  l3002 0D75                  l3020 0DA9                  l3012 0D90  
                l3004 0D7D                  l3100 0E58                  l3030 0DC5                  l3022 0DAF  
                l3014 0D97                  l3006 0D81                  l3110 0EBA                  l3102 0E6F  
                l3032 0DCB                  l3024 0DB6                  l3016 0D9B                  l3008 0D86  
                l3040 0CAA                  l3200 0105                  l3120 0EE8                  l3112 0EC3  
                l3104 0E86                  l3026 0DBC                  l3018 0D9F                  l3042 0CAB  
                l3034 0CA4                  l3050 0CBE                  l3210 015D                  l3202 010E  
                l3130 0F0F                  l3122 0EF1                  l3114 0ECA                  l3106 0E9D  
                l3028 0DC0                  l3044 0CB4                  l3036 0CA8                  l3052 0CBF  
                l3300 0342                  l3220 01B1                  l3212 0174                  l3204 0114  
                l3140 0F20                  l3132 0F10                  l3124 0EFA                  l3116 0ED3  
                l3108 0EB4                  l3060 0F66                  l3038 0CA9                  l3054 0CC0  
                l3046 0CB9                  l3310 0373                  l3302 034B                  l3230 01DE  
                l3222 01BA                  l3214 018B                  l3206 012D                  l3150 0F51  
                l3142 0F29                  l3134 0F11                  l3126 0F03                  l3118 0EDF  
                l3070 0F7E                  l3062 0F6E                  l3056 0CC9                  l3048 0CBD  
                l3400 058E                  l3320 03EA                  l3312 038C                  l3304 035D  
                l3240 01FD                  l3232 01E7                  l3224 01C3                  l3216 01A2  
                l3208 0146                  l3160 0E31                  l3152 0DD3                  l3144 0F3B  
                l3136 0F12                  l3128 0F0C                  l3080 0F93                  l3072 0F81  
                l3064 0F71                  l3058 0CCD                  l3410 05C0                  l3402 0597  
                l3330 0424                  l3322 0403                  l3314 03A5                  l3306 0366  
                l3250 0216                  l3242 01FE                  l3234 01F0                  l3226 01CC  
                l3218 01A8                  l3170 008E                  l3162 0E48                  l3154 0DEC  
                l3146 0F44                  l3138 0F1B                  l3090 0FBE                  l3082 0F94  
                l3074 0F86                  l3066 0F74                  l3500 07F1                  l3420 060A  
                l3412 05C9                  l3404 059C                  l3340 0451                  l3332 042D  
                l3324 0409                  l3316 03BC                  l3308 036F                  l3260 027B  
                l3252 0231                  l3244 01FF                  l3236 01F9                  l3228 01D5  
                l3180 00BB                  l3172 0097                  l3164 0E4E                  l3156 0E03  
                l3148 0F4D                  l3092 0FC7                  l3084 0F95                  l3076 0F8F  
                l3068 0F77                  l3430 0670                  l3422 0621                  l3414 05D2  
                l3406 05A5                  l3350 0460                  l3342 045A                  l3334 0436  
                l3326 0412                  l3318 03D3                  l3270 02DD                  l3262 0292  
                l3254 023A                  l3246 0208                  l3238 01FC                  l3190 00CA  
                l3182 00C4                  l3174 00A0                  l3166 007C                  l3158 0E1A  
                l3094 0FD0                  l3086 0F9E                  l3078 0F92                  l3440 069D  
                l3432 0679                  l3424 063A                  l3416 05D8                  l3408 05B7  
                l3360 049F                  l3352 0469                  l3344 045D                  l3336 043F  
                l3328 041B                  l3280 030A                  l3272 02E6                  l3264 02A9  
                l3256 0249                  l3248 020D                  l3192 00D8                  l3184 00C7  
                l3176 00A9                  l3168 0085                  l3096 0FD4                  l3088 0FAC  
                l3450 06C4                  l3442 06A6                  l3434 0682                  l3426 0651  
                l3418 05F1                  l3370 0518                  l3362 04B8                  l3354 046E  
                l3346 045E                  l3338 0448                  l3290 0331                  l3282 0313  
                l3274 02EF                  l3266 02C0                  l3258 0262                  l3194 00E1  
                l3186 00C8                  l3178 00B2                  l3098 0FEB                  l3460 06D5  
                l3452 06C5                  l3444 06AF                  l3436 068B                  l3428 066A  
                l3380 0552                  l3372 0531                  l3364 04D1                  l3356 0477  
                l3348 045F                  l3292 0332                  l3284 031C                  l3276 02F8  
                l3268 02D7                  l3196 00F3                  l3188 00C9                  l2902 0C91  
                l3470 0711                  l3462 06DE                  l3454 06C6                  l3446 06B8  
                l3438 0694                  l3390 057F                  l3382 055B                  l3374 0537  
                l3366 04E8                  l3358 0489                  l3294 0333                  l3286 0325  
                l3278 0301                  l3198 00FC                  l2904 0C92                  l2920 0D38  
                l3480 078A                  l3472 072A                  l3464 06F0                  l3456 06C7  
                l3448 06C1                  l3392 0588                  l3384 0564                  l3376 0540  
                l3368 0501                  l3296 0334                  l3288 032E                  l2930 0D58  
                l2922 0D3C                  l2914 0D23                  l3490 07C4                  l3482 07A3  
                l3474 0743                  l3466 06F9                  l3458 06D0                  l3394 058B  
                l3386 056D                  l3378 0549                  l3298 033D                  l2932 0D5F  
                l2924 0D40                  l2916 0D2D                  l2940 0CEC                  l3492 07CD  
                l3484 07A9                  l3476 075A                  l3468 070B                  l3396 058C  
                l3388 0576                  l2934 0D65                  l2926 0D51                  l2918 0D31  
                l2950 0D09                  l2942 0CF0                  l3494 07D6                  l3486 07B2  
                l3478 0773                  l3398 058D                  l2936 0D6B                  l2928 0D57  
                l2952 0D0F                  l2944 0CF7                  l2960 0003                  l3496 07DF  
                l3488 07BB                  l2954 0D16                  l2946 0CFB                  l2938 0CE6  
                l2970 001D                  l2962 0008                  l3498 07E8                  l2956 0D1C  
                l2948 0CFF                  l2980 003E                  l2972 002B                  l2964 000C  
                l2958 0D22                  l2990 0063                  l2982 004F                  l2974 002F  
                l2966 0014                  l2992 0067                  l2984 0055                  l2976 0036  
                l2968 0018                  l2994 006C                  l2986 0056                  l2978 003A  
                l2996 0072                  l2988 005D                  l2998 0D6C                  _ADON 00F8  
                _CHS0 00FB                  _CHS1 00FC                  _CHS2 00FD                  u2300 0D51  
                u2301 0D50                  u2240 0CA2                  u2320 0D65                  u2400 0018  
                u2241 0CA1                  u2321 0D64                  u2305 0D4D                  u2401 0017  
                u2330 0CEC                  u2410 002B                  u2315 0D59                  u2331 0CEB  
                u2411 002A                  u2260 0D2D                  u2500 0D81                  u2245 0C9E  
                u2261 0D2C                  u2501 0D80                  u2350 0CFF                  u2430 003E  
                u2510 0D8C                  u2351 0CFE                  u2431 003D                  u2511 0D8B  
                u2280 0D40                  u2360 0D09                  u2281 0D3F                  u2361 0D08  
                u2345 0CF1                  u2425 0030                  u2450 004F                  u2530 0D9F  
                u2275 0D32                  u2451 004E                  u2531 0D9E                  u2380 0D1C  
                u2540 0DA9                  u2381 0D1B                  u2365 0D05                  u2445 003F  
                u2541 0DA8                  u2525 0D91                  u2605 00E8                  u2470 0063  
                u2390 000C                  u2295 0D41                  u2375 0D10                  u2471 0062  
                u2455 004B                  u2391 000B                  u2615 021D                  u2480 0067  
                u2560 0DBC                  u2465 0057                  u2561 0DBB                  u2545 0DA5  
                u2625 0352                  u2570 0DC0                  u2490 0D75                  u2555 0DB0  
                u2491 0D74                  u2635 047E                  u2645 05AC                  u2655 06E5  
                u2585 0FB3                  u2595 0F30                  _main 0F66                  btemp 007E  
                start 0000                 ?_main 0070       __end_of___awdiv 0073       __end_of___awmod 0DCC  
     ___awdiv@divisor 0070       __end_of___lwdiv 0D6C       __end_of___lwmod 0D23       ___awdiv@counter 0075  
               _PORTA 0005                 _PORTC 0007                 _PORTD 0008                 _TRISA 0085  
               _TRISC 0087                 _TRISD 0088                 _delay 0C91                 main@A 003E  
               main@B 006E                 main@C 0040                 main@D 00A0                 main@E 0042  
               main@F 0044                 main@G 0046                 main@H 00A2                 main@I 0048  
               main@J 00A4                 main@K 004A                 main@L 004C                 main@M 004E  
               main@N 00A6                 main@O 0050                 main@P 00A8                 main@Q 0052  
               main@R 0054                 main@U 005C                 main@V 005A                 main@W 00AC  
               main@X 0058                 main@Y 00AA                 main@Z 0056                 main@a 007B  
               main@b 005E                 main@c 0020                 main@d 0060                 main@e 0022  
               main@f 0024                 main@g 0026                 main@h 0062                 main@i 0028  
               main@j 0064                 main@k 002A                 main@l 002C                 main@m 002E  
               main@n 0066                 main@o 0030                 main@p 0068                 main@q 0032  
               main@r 0034                 main@u 003C                 main@v 003A                 main@w 006C  
               main@x 0038                 main@y 006A                 main@z 0036                 status 0003  
               wtemp0 007E          __end_of_main 0800                ??_main 0079        lcd_command@com 0072  
              ?_delay 0070                _ADCON0 001F                _ADCON1 009F                _ADRESH 001E  
              _ADRESL 009E      ___awdiv@dividend 0072      __end_of_lcd_data 0CCD      __end_of_lcd_init 0CE6  
__size_of_lcd_command 0015             ??___awdiv 0074             ??___awmod 0074             ??___lwdiv 0074  
           ??___lwmod 0074                delay@x 0070      ___awdiv@quotient 0077       ___awmod@divisor 0070  
     ___awmod@counter 0075        __pcstackCOMMON 0070         __end_of_delay 0CA3               ??_delay 0072  
          __pmaintext 0F66             ?_lcd_data 0070             ?_lcd_init 0070               ___awdiv 0003  
             ___awmod 0D6C               ___lwdiv 0D23               ___lwmod 0CE6      ___awmod@dividend 0072  
          ??_lcd_data 0072            ??_lcd_init 0073  end_of_initialization 0C8D         ??_lcd_command 0072  
 start_initialization 0C8D   __end_of_lcd_command 0CB8         __pcstackBANK0 0020         __pcstackBANK1 00A0  
   __size_of_lcd_data 0015     __size_of_lcd_init 0019      ___lwdiv@dividend 0072              ?___awdiv 0070  
           __ptext180 0000             __ptext181 0CCD             __ptext182 0CB8             __ptext183 0CA3  
           __ptext184 0D6C             __ptext185 0003             __ptext186 0CE6             __ptext187 0D23  
            ?___awmod 0070             __ptext188 0C91             __ptext189 0000              ?___lwdiv 0070  
            ?___lwmod 0070      ___lwdiv@quotient 0075        __size_of_delay 0012           _lcd_command 0CA3  
           main@temp1 00B0             main@temp3 00B2             main@temp4 00B4             main@temp5 00B6  
           main@temp6 00B8             main@temp7 00BA             main@temp8 00BC      __size_of___awdiv 0070  
    __size_of___awmod 0060      __size_of___lwdiv 0049      __size_of___lwmod 003D       ___lwdiv@divisor 0070  
     ___lwdiv@counter 0077              _lcd_data 0CB8              _lcd_init 0CCD         __size_of_main F89A  
            main@temp 00AE      ___lwmod@dividend 0072       ___lwmod@divisor 0070       ___lwmod@counter 0075  
        ?_lcd_command 0070  
