opt subtitle "HI-TECH Software Omniscient Code Generator (Lite mode) build 6446"

opt pagewidth 120

	opt lm

	processor	16F877A
clrc	macro
	bcf	3,0
	endm
clrz	macro
	bcf	3,2
	endm
setc	macro
	bsf	3,0
	endm
setz	macro
	bsf	3,2
	endm
skipc	macro
	btfss	3,0
	endm
skipz	macro
	btfss	3,2
	endm
skipnc	macro
	btfsc	3,0
	endm
skipnz	macro
	btfsc	3,2
	endm
indf	equ	0
indf0	equ	0
pc	equ	2
pcl	equ	2
status	equ	3
fsr	equ	4
fsr0	equ	4
c	equ	1
z	equ	0
pclath	equ	10
	FNCALL	_main,_lcd_init
	FNCALL	_main,_delay
	FNCALL	_main,___awdiv
	FNCALL	_main,___awmod
	FNCALL	_main,_lcd_command
	FNCALL	_main,_lcd_data
	FNCALL	_lcd_init,_lcd_command
	FNCALL	_lcd_data,_delay
	FNCALL	_lcd_command,_delay
	FNROOT	_main
	global	_PORTC
psect	text154,local,class=CODE,delta=2
global __ptext154
__ptext154:
_PORTC	set	7
	global	_PORTD
_PORTD	set	8
	global	_RC0
_RC0	set	56
	global	_RC1
_RC1	set	57
	global	_RC2
_RC2	set	58
	global	_TRISC
_TRISC	set	135
	global	_TRISD
_TRISD	set	136
	file	"lcd increament.as"
	line	#
psect cinit,class=CODE,delta=2
global start_initialization
start_initialization:

psect cinit,class=CODE,delta=2
global end_of_initialization

;End of C runtime variable initialization code

end_of_initialization:
clrf status
ljmp _main	;jump to C main() function
psect	cstackCOMMON,class=COMMON,space=1
global __pcstackCOMMON
__pcstackCOMMON:
	global	?_delay
?_delay:	; 0 bytes @ 0x0
	global	?_lcd_command
?_lcd_command:	; 0 bytes @ 0x0
	global	?_lcd_data
?_lcd_data:	; 0 bytes @ 0x0
	global	?_lcd_init
?_lcd_init:	; 0 bytes @ 0x0
	global	?_main
?_main:	; 0 bytes @ 0x0
	global	?___awdiv
?___awdiv:	; 2 bytes @ 0x0
	global	?___awmod
?___awmod:	; 2 bytes @ 0x0
	global	delay@x
delay@x:	; 2 bytes @ 0x0
	global	___awdiv@divisor
___awdiv@divisor:	; 2 bytes @ 0x0
	global	___awmod@divisor
___awmod@divisor:	; 2 bytes @ 0x0
	ds	2
	global	??_delay
??_delay:	; 0 bytes @ 0x2
	global	??_lcd_command
??_lcd_command:	; 0 bytes @ 0x2
	global	??_lcd_data
??_lcd_data:	; 0 bytes @ 0x2
	global	lcd_command@com
lcd_command@com:	; 1 bytes @ 0x2
	global	lcd_data@data
lcd_data@data:	; 1 bytes @ 0x2
	global	___awdiv@dividend
___awdiv@dividend:	; 2 bytes @ 0x2
	global	___awmod@dividend
___awmod@dividend:	; 2 bytes @ 0x2
	ds	1
	global	??_lcd_init
??_lcd_init:	; 0 bytes @ 0x3
	ds	1
	global	??___awdiv
??___awdiv:	; 0 bytes @ 0x4
	global	??___awmod
??___awmod:	; 0 bytes @ 0x4
	ds	1
	global	___awdiv@counter
___awdiv@counter:	; 1 bytes @ 0x5
	global	___awmod@counter
___awmod@counter:	; 1 bytes @ 0x5
	ds	1
	global	___awdiv@sign
___awdiv@sign:	; 1 bytes @ 0x6
	global	___awmod@sign
___awmod@sign:	; 1 bytes @ 0x6
	ds	1
	global	___awdiv@quotient
___awdiv@quotient:	; 2 bytes @ 0x7
	ds	2
	global	??_main
??_main:	; 0 bytes @ 0x9
psect	cstackBANK0,class=BANK0,space=1
global __pcstackBANK0
__pcstackBANK0:
	global	main@a
main@a:	; 2 bytes @ 0x0
	ds	2
	global	main@c
main@c:	; 2 bytes @ 0x2
	ds	2
	global	main@d
main@d:	; 2 bytes @ 0x4
	ds	2
	global	main@b
main@b:	; 2 bytes @ 0x6
	ds	2
	global	main@i
main@i:	; 2 bytes @ 0x8
	ds	2
;;Data sizes: Strings 0, constant 0, data 0, bss 0, persistent 0 stack 0
;;Auto spaces:   Size  Autos    Used
;; COMMON          14      9       9
;; BANK0           80     10      10
;; BANK1           80      0       0
;; BANK3           96      0       0
;; BANK2           96      0       0

;;
;; Pointer list with targets:

;; ?___awmod	int  size(1) Largest target is 0
;;
;; ?___awdiv	int  size(1) Largest target is 0
;;


;;
;; Critical Paths under _main in COMMON
;;
;;   _main->___awdiv
;;   _lcd_init->_lcd_command
;;   _lcd_data->_delay
;;   _lcd_command->_delay
;;
;; Critical Paths under _main in BANK0
;;
;;   None.
;;
;; Critical Paths under _main in BANK1
;;
;;   None.
;;
;; Critical Paths under _main in BANK3
;;
;;   None.
;;
;; Critical Paths under _main in BANK2
;;
;;   None.

;;
;;Main: autosize = 0, tempsize = 0, incstack = 0, save=0
;;

;;
;;Call Graph Tables:
;;
;; ---------------------------------------------------------------------------------
;; (Depth) Function   	        Calls       Base Space   Used Autos Params    Refs
;; ---------------------------------------------------------------------------------
;; (0) _main                                                10    10      0     954
;;                                              0 BANK0     10    10      0
;;                           _lcd_init
;;                              _delay
;;                            ___awdiv
;;                            ___awmod
;;                        _lcd_command
;;                           _lcd_data
;; ---------------------------------------------------------------------------------
;; (1) _lcd_init                                             0     0      0      44
;;                        _lcd_command
;; ---------------------------------------------------------------------------------
;; (1) _lcd_data                                             1     1      0      44
;;                                              2 COMMON     1     1      0
;;                              _delay
;; ---------------------------------------------------------------------------------
;; (1) _lcd_command                                          1     1      0      44
;;                                              2 COMMON     1     1      0
;;                              _delay
;; ---------------------------------------------------------------------------------
;; (1) ___awmod                                              7     3      4     296
;;                                              0 COMMON     7     3      4
;; ---------------------------------------------------------------------------------
;; (1) ___awdiv                                              9     5      4     300
;;                                              0 COMMON     9     5      4
;; ---------------------------------------------------------------------------------
;; (2) _delay                                                2     0      2      22
;;                                              0 COMMON     2     0      2
;; ---------------------------------------------------------------------------------
;; Estimated maximum stack depth 2
;; ---------------------------------------------------------------------------------

;; Call Graph Graphs:

;; _main (ROOT)
;;   _lcd_init
;;     _lcd_command
;;       _delay
;;   _delay
;;   ___awdiv
;;   ___awmod
;;   _lcd_command
;;     _delay
;;   _lcd_data
;;     _delay
;;

;; Address spaces:

;;Name               Size   Autos  Total    Cost      Usage
;;BITCOMMON            E      0       0       0        0.0%
;;EEDATA             100      0       0       0        0.0%
;;NULL                 0      0       0       0        0.0%
;;CODE                 0      0       0       0        0.0%
;;COMMON               E      9       9       1       64.3%
;;BITSFR0              0      0       0       1        0.0%
;;SFR0                 0      0       0       1        0.0%
;;BITSFR1              0      0       0       2        0.0%
;;SFR1                 0      0       0       2        0.0%
;;STACK                0      0       3       2        0.0%
;;ABS                  0      0       0       3        0.0%
;;BITBANK0            50      0       0       4        0.0%
;;BITSFR3              0      0       0       4        0.0%
;;SFR3                 0      0       0       4        0.0%
;;BANK0               50      A       A       5       12.5%
;;BITSFR2              0      0       0       5        0.0%
;;SFR2                 0      0       0       5        0.0%
;;BITBANK1            50      0       0       6        0.0%
;;BANK1               50      0       0       7        0.0%
;;BITBANK3            60      0       0       8        0.0%
;;BANK3               60      0       0       9        0.0%
;;BITBANK2            60      0       0      10        0.0%
;;BANK2               60      0       0      11        0.0%
;;DATA                 0      0       0      12        0.0%

	global	_main
psect	maintext,global,class=CODE,delta=2
global __pmaintext
__pmaintext:

;; *************** function _main *****************
;; Defined at:
;;		line 36 in file "C:\Users\TECH\Desktop\madhu pic folder\lcd dispaly\lcd increament\lcd increament.c"
;; Parameters:    Size  Location     Type
;;		None
;; Auto vars:     Size  Location     Type
;;  b               2    6[BANK0 ] int 
;;  d               2    4[BANK0 ] int 
;;  c               2    2[BANK0 ] int 
;;  a               2    0[BANK0 ] int 
;;  i               2    8[BANK0 ] int 
;; Return value:  Size  Location     Type
;;		None               void
;; Registers used:
;;		wreg, status,2, status,0, btemp+0, pclath, cstack
;; Tracked objects:
;;		On entry : 17F/0
;;		On exit  : 0/0
;;		Unchanged: 0/0
;; Data sizes:     COMMON   BANK0   BANK1   BANK3   BANK2
;;      Params:         0       0       0       0       0
;;      Locals:         0      10       0       0       0
;;      Temps:          0       0       0       0       0
;;      Totals:         0      10       0       0       0
;;Total ram usage:       10 bytes
;; Hardware stack levels required when called:    3
;; This function calls:
;;		_lcd_init
;;		_delay
;;		___awdiv
;;		___awmod
;;		_lcd_command
;;		_lcd_data
;; This function is called by:
;;		Startup code after reset
;; This function uses a non-reentrant model
;;
psect	maintext
	file	"C:\Users\TECH\Desktop\madhu pic folder\lcd dispaly\lcd increament\lcd increament.c"
	line	36
	global	__size_of_main
	__size_of_main	equ	__end_of_main-_main
	
_main:	
	opt	stack 8
; Regs used in _main: [wreg+status,2-btemp+0+pclath+cstack]
	line	37
	
l1946:	
;lcd increament.c: 37: TRISD=0x00;
	bsf	status, 5	;RP0=1, select bank1
	bcf	status, 6	;RP1=0, select bank1
	clrf	(136)^080h	;volatile
	line	38
;lcd increament.c: 38: PORTD=0x00;
	bcf	status, 5	;RP0=0, select bank0
	bcf	status, 6	;RP1=0, select bank0
	clrf	(8)	;volatile
	line	40
;lcd increament.c: 40: TRISC=0x00;
	bsf	status, 5	;RP0=1, select bank1
	bcf	status, 6	;RP1=0, select bank1
	clrf	(135)^080h	;volatile
	line	41
;lcd increament.c: 41: PORTC=0x00;
	bcf	status, 5	;RP0=0, select bank0
	bcf	status, 6	;RP1=0, select bank0
	clrf	(7)	;volatile
	line	43
	
l1948:	
;lcd increament.c: 43: lcd_init();
	fcall	_lcd_init
	line	44
	
l1950:	
;lcd increament.c: 44: delay(100);
	movlw	low(064h)
	movwf	(?_delay)
	movlw	high(064h)
	movwf	((?_delay))+1
	fcall	_delay
	line	46
;lcd increament.c: 46: while(1)
	
l574:	
	line	49
	
l1952:	
;lcd increament.c: 47: {
;lcd increament.c: 49: for(int i=0;i<=999;i++)
	movlw	low(0)
	bcf	status, 5	;RP0=0, select bank0
	bcf	status, 6	;RP1=0, select bank0
	movwf	(main@i)
	movlw	high(0)
	movwf	((main@i))+1
	
l1954:	
	movf	(main@i+1),w
	xorlw	80h
	movwf	btemp+0
	movlw	(high(03E8h))^80h
	subwf	btemp+0,w
	skipz
	goto	u2375
	movlw	low(03E8h)
	subwf	(main@i),w
u2375:

	skipc
	goto	u2371
	goto	u2370
u2371:
	goto	l575
u2370:
	
l1956:	
	goto	l576
	line	50
	
l575:	
	line	51
	
l1958:	
;lcd increament.c: 50: {
;lcd increament.c: 51: int a=i/100;
	movlw	low(064h)
	movwf	(?___awdiv)
	movlw	high(064h)
	movwf	((?___awdiv))+1
	bcf	status, 5	;RP0=0, select bank0
	bcf	status, 6	;RP1=0, select bank0
	movf	(main@i+1),w
	clrf	1+(?___awdiv)+02h
	addwf	1+(?___awdiv)+02h
	movf	(main@i),w
	clrf	0+(?___awdiv)+02h
	addwf	0+(?___awdiv)+02h

	fcall	___awdiv
	movf	(1+(?___awdiv)),w
	bcf	status, 5	;RP0=0, select bank0
	bcf	status, 6	;RP1=0, select bank0
	clrf	(main@a+1)
	addwf	(main@a+1)
	movf	(0+(?___awdiv)),w
	clrf	(main@a)
	addwf	(main@a)

	line	52
;lcd increament.c: 52: int b=i%100;
	movlw	low(064h)
	movwf	(?___awmod)
	movlw	high(064h)
	movwf	((?___awmod))+1
	movf	(main@i+1),w
	clrf	1+(?___awmod)+02h
	addwf	1+(?___awmod)+02h
	movf	(main@i),w
	clrf	0+(?___awmod)+02h
	addwf	0+(?___awmod)+02h

	fcall	___awmod
	movf	(1+(?___awmod)),w
	bcf	status, 5	;RP0=0, select bank0
	bcf	status, 6	;RP1=0, select bank0
	clrf	(main@b+1)
	addwf	(main@b+1)
	movf	(0+(?___awmod)),w
	clrf	(main@b)
	addwf	(main@b)

	line	53
;lcd increament.c: 53: int c =b/10;
	movlw	low(0Ah)
	movwf	(?___awdiv)
	movlw	high(0Ah)
	movwf	((?___awdiv))+1
	movf	(main@b+1),w
	clrf	1+(?___awdiv)+02h
	addwf	1+(?___awdiv)+02h
	movf	(main@b),w
	clrf	0+(?___awdiv)+02h
	addwf	0+(?___awdiv)+02h

	fcall	___awdiv
	movf	(1+(?___awdiv)),w
	bcf	status, 5	;RP0=0, select bank0
	bcf	status, 6	;RP1=0, select bank0
	clrf	(main@c+1)
	addwf	(main@c+1)
	movf	(0+(?___awdiv)),w
	clrf	(main@c)
	addwf	(main@c)

	line	54
;lcd increament.c: 54: int d=b%10;
	movlw	low(0Ah)
	movwf	(?___awmod)
	movlw	high(0Ah)
	movwf	((?___awmod))+1
	movf	(main@b+1),w
	clrf	1+(?___awmod)+02h
	addwf	1+(?___awmod)+02h
	movf	(main@b),w
	clrf	0+(?___awmod)+02h
	addwf	0+(?___awmod)+02h

	fcall	___awmod
	movf	(1+(?___awmod)),w
	bcf	status, 5	;RP0=0, select bank0
	bcf	status, 6	;RP1=0, select bank0
	clrf	(main@d+1)
	addwf	(main@d+1)
	movf	(0+(?___awmod)),w
	clrf	(main@d)
	addwf	(main@d)

	line	55
;lcd increament.c: 55: lcd_command(0x80);
	movlw	(080h)
	fcall	_lcd_command
	line	56
;lcd increament.c: 56: lcd_data(a+0x30);
	bcf	status, 5	;RP0=0, select bank0
	bcf	status, 6	;RP1=0, select bank0
	movf	(main@a),w
	addlw	030h
	fcall	_lcd_data
	line	57
;lcd increament.c: 57: lcd_data(c+0x30);
	bcf	status, 5	;RP0=0, select bank0
	bcf	status, 6	;RP1=0, select bank0
	movf	(main@c),w
	addlw	030h
	fcall	_lcd_data
	line	58
;lcd increament.c: 58: lcd_data(d+0x30);
	bcf	status, 5	;RP0=0, select bank0
	bcf	status, 6	;RP1=0, select bank0
	movf	(main@d),w
	addlw	030h
	fcall	_lcd_data
	line	59
;lcd increament.c: 59: delay(50000);
	movlw	low(0C350h)
	movwf	(?_delay)
	movlw	high(0C350h)
	movwf	((?_delay))+1
	fcall	_delay
	line	49
	
l1960:	
	movlw	low(01h)
	bcf	status, 5	;RP0=0, select bank0
	bcf	status, 6	;RP1=0, select bank0
	addwf	(main@i),f
	skipnc
	incf	(main@i+1),f
	movlw	high(01h)
	addwf	(main@i+1),f
	
l1962:	
	movf	(main@i+1),w
	xorlw	80h
	movwf	btemp+0
	movlw	(high(03E8h))^80h
	subwf	btemp+0,w
	skipz
	goto	u2385
	movlw	low(03E8h)
	subwf	(main@i),w
u2385:

	skipc
	goto	u2381
	goto	u2380
u2381:
	goto	l575
u2380:
	
l576:	
	line	61
	
l577:	
	line	46
	goto	l574
	
l578:	
	line	62
	
l579:	
	global	start
	ljmp	start
	opt stack 0
GLOBAL	__end_of_main
	__end_of_main:
;; =============== function _main ends ============

	signat	_main,88
	global	_lcd_init
psect	text155,local,class=CODE,delta=2
global __ptext155
__ptext155:

;; *************** function _lcd_init *****************
;; Defined at:
;;		line 29 in file "C:\Users\TECH\Desktop\madhu pic folder\lcd dispaly\lcd increament\lcd increament.c"
;; Parameters:    Size  Location     Type
;;		None
;; Auto vars:     Size  Location     Type
;;		None
;; Return value:  Size  Location     Type
;;		None               void
;; Registers used:
;;		wreg, status,2, status,0, pclath, cstack
;; Tracked objects:
;;		On entry : 0/0
;;		On exit  : 0/0
;;		Unchanged: 0/0
;; Data sizes:     COMMON   BANK0   BANK1   BANK3   BANK2
;;      Params:         0       0       0       0       0
;;      Locals:         0       0       0       0       0
;;      Temps:          0       0       0       0       0
;;      Totals:         0       0       0       0       0
;;Total ram usage:        0 bytes
;; Hardware stack levels used:    1
;; Hardware stack levels required when called:    2
;; This function calls:
;;		_lcd_command
;; This function is called by:
;;		_main
;; This function uses a non-reentrant model
;;
psect	text155
	file	"C:\Users\TECH\Desktop\madhu pic folder\lcd dispaly\lcd increament\lcd increament.c"
	line	29
	global	__size_of_lcd_init
	__size_of_lcd_init	equ	__end_of_lcd_init-_lcd_init
	
_lcd_init:	
	opt	stack 7
; Regs used in _lcd_init: [wreg+status,2+status,0+pclath+cstack]
	line	30
	
l1944:	
;lcd increament.c: 30: lcd_command(0x38);
	movlw	(038h)
	fcall	_lcd_command
	line	31
;lcd increament.c: 31: lcd_command(0x06);
	movlw	(06h)
	fcall	_lcd_command
	line	32
;lcd increament.c: 32: lcd_command(0x0c);
	movlw	(0Ch)
	fcall	_lcd_command
	line	33
;lcd increament.c: 33: lcd_command(0x01);
	movlw	(01h)
	fcall	_lcd_command
	line	34
	
l571:	
	return
	opt stack 0
GLOBAL	__end_of_lcd_init
	__end_of_lcd_init:
;; =============== function _lcd_init ends ============

	signat	_lcd_init,88
	global	_lcd_data
psect	text156,local,class=CODE,delta=2
global __ptext156
__ptext156:

;; *************** function _lcd_data *****************
;; Defined at:
;;		line 20 in file "C:\Users\TECH\Desktop\madhu pic folder\lcd dispaly\lcd increament\lcd increament.c"
;; Parameters:    Size  Location     Type
;;  data            1    wreg     unsigned char 
;; Auto vars:     Size  Location     Type
;;  data            1    2[COMMON] unsigned char 
;; Return value:  Size  Location     Type
;;		None               void
;; Registers used:
;;		wreg, status,2, status,0, pclath, cstack
;; Tracked objects:
;;		On entry : 0/0
;;		On exit  : 0/0
;;		Unchanged: 0/0
;; Data sizes:     COMMON   BANK0   BANK1   BANK3   BANK2
;;      Params:         0       0       0       0       0
;;      Locals:         1       0       0       0       0
;;      Temps:          0       0       0       0       0
;;      Totals:         1       0       0       0       0
;;Total ram usage:        1 bytes
;; Hardware stack levels used:    1
;; Hardware stack levels required when called:    1
;; This function calls:
;;		_delay
;; This function is called by:
;;		_main
;; This function uses a non-reentrant model
;;
psect	text156
	file	"C:\Users\TECH\Desktop\madhu pic folder\lcd dispaly\lcd increament\lcd increament.c"
	line	20
	global	__size_of_lcd_data
	__size_of_lcd_data	equ	__end_of_lcd_data-_lcd_data
	
_lcd_data:	
	opt	stack 7
; Regs used in _lcd_data: [wreg+status,2+status,0+pclath+cstack]
;lcd_data@data stored from wreg
	movwf	(lcd_data@data)
	line	21
	
l1932:	
;lcd increament.c: 21: PORTD=data;
	movf	(lcd_data@data),w
	bcf	status, 5	;RP0=0, select bank0
	bcf	status, 6	;RP1=0, select bank0
	movwf	(8)	;volatile
	line	22
	
l1934:	
;lcd increament.c: 22: RC0=1;
	bsf	(56/8),(56)&7
	line	23
	
l1936:	
;lcd increament.c: 23: RC1=0;
	bcf	(57/8),(57)&7
	line	24
	
l1938:	
;lcd increament.c: 24: RC2=1;
	bsf	(58/8),(58)&7
	line	25
	
l1940:	
;lcd increament.c: 25: delay(100);
	movlw	low(064h)
	movwf	(?_delay)
	movlw	high(064h)
	movwf	((?_delay))+1
	fcall	_delay
	line	26
	
l1942:	
;lcd increament.c: 26: RC2=0;
	bcf	status, 5	;RP0=0, select bank0
	bcf	status, 6	;RP1=0, select bank0
	bcf	(58/8),(58)&7
	line	27
	
l568:	
	return
	opt stack 0
GLOBAL	__end_of_lcd_data
	__end_of_lcd_data:
;; =============== function _lcd_data ends ============

	signat	_lcd_data,4216
	global	_lcd_command
psect	text157,local,class=CODE,delta=2
global __ptext157
__ptext157:

;; *************** function _lcd_command *****************
;; Defined at:
;;		line 11 in file "C:\Users\TECH\Desktop\madhu pic folder\lcd dispaly\lcd increament\lcd increament.c"
;; Parameters:    Size  Location     Type
;;  com             1    wreg     unsigned char 
;; Auto vars:     Size  Location     Type
;;  com             1    2[COMMON] unsigned char 
;; Return value:  Size  Location     Type
;;		None               void
;; Registers used:
;;		wreg, status,2, status,0, pclath, cstack
;; Tracked objects:
;;		On entry : 0/0
;;		On exit  : 0/0
;;		Unchanged: 0/0
;; Data sizes:     COMMON   BANK0   BANK1   BANK3   BANK2
;;      Params:         0       0       0       0       0
;;      Locals:         1       0       0       0       0
;;      Temps:          0       0       0       0       0
;;      Totals:         1       0       0       0       0
;;Total ram usage:        1 bytes
;; Hardware stack levels used:    1
;; Hardware stack levels required when called:    1
;; This function calls:
;;		_delay
;; This function is called by:
;;		_lcd_init
;;		_main
;; This function uses a non-reentrant model
;;
psect	text157
	file	"C:\Users\TECH\Desktop\madhu pic folder\lcd dispaly\lcd increament\lcd increament.c"
	line	11
	global	__size_of_lcd_command
	__size_of_lcd_command	equ	__end_of_lcd_command-_lcd_command
	
_lcd_command:	
	opt	stack 7
; Regs used in _lcd_command: [wreg+status,2+status,0+pclath+cstack]
;lcd_command@com stored from wreg
	movwf	(lcd_command@com)
	line	12
	
l1920:	
;lcd increament.c: 12: PORTD=com;
	movf	(lcd_command@com),w
	bcf	status, 5	;RP0=0, select bank0
	bcf	status, 6	;RP1=0, select bank0
	movwf	(8)	;volatile
	line	13
	
l1922:	
;lcd increament.c: 13: RC0=0;
	bcf	(56/8),(56)&7
	line	14
	
l1924:	
;lcd increament.c: 14: RC1=0;
	bcf	(57/8),(57)&7
	line	15
	
l1926:	
;lcd increament.c: 15: RC2=1;
	bsf	(58/8),(58)&7
	line	16
	
l1928:	
;lcd increament.c: 16: delay(100);
	movlw	low(064h)
	movwf	(?_delay)
	movlw	high(064h)
	movwf	((?_delay))+1
	fcall	_delay
	line	17
	
l1930:	
;lcd increament.c: 17: RC2=0;
	bcf	status, 5	;RP0=0, select bank0
	bcf	status, 6	;RP1=0, select bank0
	bcf	(58/8),(58)&7
	line	18
	
l565:	
	return
	opt stack 0
GLOBAL	__end_of_lcd_command
	__end_of_lcd_command:
;; =============== function _lcd_command ends ============

	signat	_lcd_command,4216
	global	___awmod
psect	text158,local,class=CODE,delta=2
global __ptext158
__ptext158:

;; *************** function ___awmod *****************
;; Defined at:
;;		line 5 in file "C:\Program Files (x86)\HI-TECH Software\PICC\9.71a\sources\awmod.c"
;; Parameters:    Size  Location     Type
;;  divisor         2    0[COMMON] int 
;;  dividend        2    2[COMMON] int 
;; Auto vars:     Size  Location     Type
;;  sign            1    6[COMMON] unsigned char 
;;  counter         1    5[COMMON] unsigned char 
;; Return value:  Size  Location     Type
;;                  2    0[COMMON] int 
;; Registers used:
;;		wreg, status,2, status,0
;; Tracked objects:
;;		On entry : 0/0
;;		On exit  : 0/0
;;		Unchanged: 0/0
;; Data sizes:     COMMON   BANK0   BANK1   BANK3   BANK2
;;      Params:         4       0       0       0       0
;;      Locals:         2       0       0       0       0
;;      Temps:          1       0       0       0       0
;;      Totals:         7       0       0       0       0
;;Total ram usage:        7 bytes
;; Hardware stack levels used:    1
;; This function calls:
;;		Nothing
;; This function is called by:
;;		_main
;; This function uses a non-reentrant model
;;
psect	text158
	file	"C:\Program Files (x86)\HI-TECH Software\PICC\9.71a\sources\awmod.c"
	line	5
	global	__size_of___awmod
	__size_of___awmod	equ	__end_of___awmod-___awmod
	
___awmod:	
	opt	stack 7
; Regs used in ___awmod: [wreg+status,2+status,0]
	line	8
	
l1884:	
	clrc
	movlw	0
	btfsc	status,0
	movlw	1
	movwf	(___awmod@sign)
	line	9
	
l1886:	
	btfss	(___awmod@dividend+1),7
	goto	u2281
	goto	u2280
u2281:
	goto	l796
u2280:
	line	10
	
l1888:	
	comf	(___awmod@dividend),f
	comf	(___awmod@dividend+1),f
	incf	(___awmod@dividend),f
	skipnz
	incf	(___awmod@dividend+1),f
	line	11
	clrf	(___awmod@sign)
	bsf	status,0
	rlf	(___awmod@sign),f
	line	12
	
l796:	
	line	13
	
l1890:	
	btfss	(___awmod@divisor+1),7
	goto	u2291
	goto	u2290
u2291:
	goto	l797
u2290:
	line	14
	
l1892:	
	comf	(___awmod@divisor),f
	comf	(___awmod@divisor+1),f
	incf	(___awmod@divisor),f
	skipnz
	incf	(___awmod@divisor+1),f
	
l797:	
	line	15
	
l1894:	
	movf	(___awmod@divisor+1),w
	iorwf	(___awmod@divisor),w
	skipnz
	goto	u2301
	goto	u2300
u2301:
	goto	l798
u2300:
	line	16
	
l1896:	
	clrf	(___awmod@counter)
	bsf	status,0
	rlf	(___awmod@counter),f
	line	17
	goto	l799
	
l800:	
	line	18
	
l1898:	
	movlw	01h
	
u2315:
	clrc
	rlf	(___awmod@divisor),f
	rlf	(___awmod@divisor+1),f
	addlw	-1
	skipz
	goto	u2315
	line	19
	
l1900:	
	movlw	(01h)
	movwf	(??___awmod+0)+0
	movf	(??___awmod+0)+0,w
	addwf	(___awmod@counter),f
	line	20
	
l799:	
	line	17
	
l1902:	
	btfss	(___awmod@divisor+1),(15)&7
	goto	u2321
	goto	u2320
u2321:
	goto	l800
u2320:
	
l801:	
	line	21
	
l802:	
	line	22
	
l1904:	
	movf	(___awmod@divisor+1),w
	subwf	(___awmod@dividend+1),w
	skipz
	goto	u2335
	movf	(___awmod@divisor),w
	subwf	(___awmod@dividend),w
u2335:
	skipc
	goto	u2331
	goto	u2330
u2331:
	goto	l803
u2330:
	line	23
	
l1906:	
	movf	(___awmod@divisor),w
	subwf	(___awmod@dividend),f
	movf	(___awmod@divisor+1),w
	skipc
	decf	(___awmod@dividend+1),f
	subwf	(___awmod@dividend+1),f
	
l803:	
	line	24
	
l1908:	
	movlw	01h
	
u2345:
	clrc
	rrf	(___awmod@divisor+1),f
	rrf	(___awmod@divisor),f
	addlw	-1
	skipz
	goto	u2345
	line	25
	
l1910:	
	movlw	low(01h)
	subwf	(___awmod@counter),f
	btfss	status,2
	goto	u2351
	goto	u2350
u2351:
	goto	l802
u2350:
	
l804:	
	line	26
	
l798:	
	line	27
	
l1912:	
	movf	(___awmod@sign),w
	skipz
	goto	u2360
	goto	l805
u2360:
	line	28
	
l1914:	
	comf	(___awmod@dividend),f
	comf	(___awmod@dividend+1),f
	incf	(___awmod@dividend),f
	skipnz
	incf	(___awmod@dividend+1),f
	
l805:	
	line	29
	
l1916:	
	movf	(___awmod@dividend+1),w
	clrf	(?___awmod+1)
	addwf	(?___awmod+1)
	movf	(___awmod@dividend),w
	clrf	(?___awmod)
	addwf	(?___awmod)

	
l1918:	
	line	30
	
l806:	
	return
	opt stack 0
GLOBAL	__end_of___awmod
	__end_of___awmod:
;; =============== function ___awmod ends ============

	signat	___awmod,8314
	global	___awdiv
psect	text159,local,class=CODE,delta=2
global __ptext159
__ptext159:

;; *************** function ___awdiv *****************
;; Defined at:
;;		line 5 in file "C:\Program Files (x86)\HI-TECH Software\PICC\9.71a\sources\awdiv.c"
;; Parameters:    Size  Location     Type
;;  divisor         2    0[COMMON] int 
;;  dividend        2    2[COMMON] int 
;; Auto vars:     Size  Location     Type
;;  quotient        2    7[COMMON] int 
;;  sign            1    6[COMMON] unsigned char 
;;  counter         1    5[COMMON] unsigned char 
;; Return value:  Size  Location     Type
;;                  2    0[COMMON] int 
;; Registers used:
;;		wreg, status,2, status,0
;; Tracked objects:
;;		On entry : 0/0
;;		On exit  : 0/0
;;		Unchanged: 0/0
;; Data sizes:     COMMON   BANK0   BANK1   BANK3   BANK2
;;      Params:         4       0       0       0       0
;;      Locals:         4       0       0       0       0
;;      Temps:          1       0       0       0       0
;;      Totals:         9       0       0       0       0
;;Total ram usage:        9 bytes
;; Hardware stack levels used:    1
;; This function calls:
;;		Nothing
;; This function is called by:
;;		_main
;; This function uses a non-reentrant model
;;
psect	text159
	file	"C:\Program Files (x86)\HI-TECH Software\PICC\9.71a\sources\awdiv.c"
	line	5
	global	__size_of___awdiv
	__size_of___awdiv	equ	__end_of___awdiv-___awdiv
	
___awdiv:	
	opt	stack 7
; Regs used in ___awdiv: [wreg+status,2+status,0]
	line	9
	
l1846:	
	clrc
	movlw	0
	btfsc	status,0
	movlw	1
	movwf	(___awdiv@sign)
	line	10
	
l1848:	
	btfss	(___awdiv@divisor+1),7
	goto	u2181
	goto	u2180
u2181:
	goto	l728
u2180:
	line	11
	
l1850:	
	comf	(___awdiv@divisor),f
	comf	(___awdiv@divisor+1),f
	incf	(___awdiv@divisor),f
	skipnz
	incf	(___awdiv@divisor+1),f
	line	12
	clrf	(___awdiv@sign)
	bsf	status,0
	rlf	(___awdiv@sign),f
	line	13
	
l728:	
	line	14
	
l1852:	
	btfss	(___awdiv@dividend+1),7
	goto	u2191
	goto	u2190
u2191:
	goto	l729
u2190:
	line	15
	
l1854:	
	comf	(___awdiv@dividend),f
	comf	(___awdiv@dividend+1),f
	incf	(___awdiv@dividend),f
	skipnz
	incf	(___awdiv@dividend+1),f
	line	16
	
l1856:	
	movlw	(01h)
	movwf	(??___awdiv+0)+0
	movf	(??___awdiv+0)+0,w
	xorwf	(___awdiv@sign),f
	line	17
	
l729:	
	line	18
	movlw	low(0)
	movwf	(___awdiv@quotient)
	movlw	high(0)
	movwf	((___awdiv@quotient))+1
	line	19
	movf	(___awdiv@divisor+1),w
	iorwf	(___awdiv@divisor),w
	skipnz
	goto	u2201
	goto	u2200
u2201:
	goto	l730
u2200:
	line	20
	
l1858:	
	clrf	(___awdiv@counter)
	bsf	status,0
	rlf	(___awdiv@counter),f
	line	21
	goto	l731
	
l732:	
	line	22
	
l1860:	
	movlw	01h
	
u2215:
	clrc
	rlf	(___awdiv@divisor),f
	rlf	(___awdiv@divisor+1),f
	addlw	-1
	skipz
	goto	u2215
	line	23
	
l1862:	
	movlw	(01h)
	movwf	(??___awdiv+0)+0
	movf	(??___awdiv+0)+0,w
	addwf	(___awdiv@counter),f
	line	24
	
l731:	
	line	21
	
l1864:	
	btfss	(___awdiv@divisor+1),(15)&7
	goto	u2221
	goto	u2220
u2221:
	goto	l732
u2220:
	
l733:	
	line	25
	
l734:	
	line	26
	
l1866:	
	movlw	01h
	
u2235:
	clrc
	rlf	(___awdiv@quotient),f
	rlf	(___awdiv@quotient+1),f
	addlw	-1
	skipz
	goto	u2235
	line	27
	movf	(___awdiv@divisor+1),w
	subwf	(___awdiv@dividend+1),w
	skipz
	goto	u2245
	movf	(___awdiv@divisor),w
	subwf	(___awdiv@dividend),w
u2245:
	skipc
	goto	u2241
	goto	u2240
u2241:
	goto	l735
u2240:
	line	28
	
l1868:	
	movf	(___awdiv@divisor),w
	subwf	(___awdiv@dividend),f
	movf	(___awdiv@divisor+1),w
	skipc
	decf	(___awdiv@dividend+1),f
	subwf	(___awdiv@dividend+1),f
	line	29
	
l1870:	
	bsf	(___awdiv@quotient)+(0/8),(0)&7
	line	30
	
l735:	
	line	31
	
l1872:	
	movlw	01h
	
u2255:
	clrc
	rrf	(___awdiv@divisor+1),f
	rrf	(___awdiv@divisor),f
	addlw	-1
	skipz
	goto	u2255
	line	32
	
l1874:	
	movlw	low(01h)
	subwf	(___awdiv@counter),f
	btfss	status,2
	goto	u2261
	goto	u2260
u2261:
	goto	l734
u2260:
	
l736:	
	line	33
	
l730:	
	line	34
	
l1876:	
	movf	(___awdiv@sign),w
	skipz
	goto	u2270
	goto	l737
u2270:
	line	35
	
l1878:	
	comf	(___awdiv@quotient),f
	comf	(___awdiv@quotient+1),f
	incf	(___awdiv@quotient),f
	skipnz
	incf	(___awdiv@quotient+1),f
	
l737:	
	line	36
	
l1880:	
	movf	(___awdiv@quotient+1),w
	clrf	(?___awdiv+1)
	addwf	(?___awdiv+1)
	movf	(___awdiv@quotient),w
	clrf	(?___awdiv)
	addwf	(?___awdiv)

	
l1882:	
	line	37
	
l738:	
	return
	opt stack 0
GLOBAL	__end_of___awdiv
	__end_of___awdiv:
;; =============== function ___awdiv ends ============

	signat	___awdiv,8314
	global	_delay
psect	text160,local,class=CODE,delta=2
global __ptext160
__ptext160:

;; *************** function _delay *****************
;; Defined at:
;;		line 6 in file "C:\Users\TECH\Desktop\madhu pic folder\lcd dispaly\lcd increament\lcd increament.c"
;; Parameters:    Size  Location     Type
;;  x               2    0[COMMON] unsigned int 
;; Auto vars:     Size  Location     Type
;;		None
;; Return value:  Size  Location     Type
;;		None               void
;; Registers used:
;;		wreg
;; Tracked objects:
;;		On entry : 0/0
;;		On exit  : 0/0
;;		Unchanged: 0/0
;; Data sizes:     COMMON   BANK0   BANK1   BANK3   BANK2
;;      Params:         2       0       0       0       0
;;      Locals:         0       0       0       0       0
;;      Temps:          0       0       0       0       0
;;      Totals:         2       0       0       0       0
;;Total ram usage:        2 bytes
;; Hardware stack levels used:    1
;; This function calls:
;;		Nothing
;; This function is called by:
;;		_lcd_command
;;		_lcd_data
;;		_main
;; This function uses a non-reentrant model
;;
psect	text160
	file	"C:\Users\TECH\Desktop\madhu pic folder\lcd dispaly\lcd increament\lcd increament.c"
	line	6
	global	__size_of_delay
	__size_of_delay	equ	__end_of_delay-_delay
	
_delay:	
	opt	stack 6
; Regs used in _delay: [wreg]
	line	7
	
l1842:	
;lcd increament.c: 7: while(x--);
	goto	l559
	
l560:	
	
l559:	
	
l1844:	
	movlw	low(01h)
	subwf	(delay@x),f
	movlw	high(01h)
	skipc
	decf	(delay@x+1),f
	subwf	(delay@x+1),f
	movlw	high(0FFFFh)
	xorwf	((delay@x+1)),w
	skipz
	goto	u2175
	movlw	low(0FFFFh)
	xorwf	((delay@x)),w
u2175:

	skipz
	goto	u2171
	goto	u2170
u2171:
	goto	l560
u2170:
	
l561:	
	line	8
	
l562:	
	return
	opt stack 0
GLOBAL	__end_of_delay
	__end_of_delay:
;; =============== function _delay ends ============

	signat	_delay,4216
psect	text161,local,class=CODE,delta=2
global __ptext161
__ptext161:
	global	btemp
	btemp set 07Eh

	DABS	1,126,2	;btemp
	global	wtemp0
	wtemp0 set btemp
	end
