opt subtitle "HI-TECH Software Omniscient Code Generator (Lite mode) build 6446"

opt pagewidth 120

	opt lm

	processor	16F877A
clrc	macro
	bcf	3,0
	endm
clrz	macro
	bcf	3,2
	endm
setc	macro
	bsf	3,0
	endm
setz	macro
	bsf	3,2
	endm
skipc	macro
	btfss	3,0
	endm
skipz	macro
	btfss	3,2
	endm
skipnc	macro
	btfsc	3,0
	endm
skipnz	macro
	btfsc	3,2
	endm
indf	equ	0
indf0	equ	0
pc	equ	2
pcl	equ	2
status	equ	3
fsr	equ	4
fsr0	equ	4
c	equ	1
z	equ	0
pclath	equ	10
# 2 "C:\Users\TECH\Desktop\madhu pic folder\gps&gsm\gps&gsm\gps and gsm\gps location to gsm\gps location to gsm.c"
	psect config,class=CONFIG,delta=2 ;#
# 2 "C:\Users\TECH\Desktop\madhu pic folder\gps&gsm\gps&gsm\gps and gsm\gps location to gsm\gps location to gsm.c"
	dw 0X3f72 ;#
	FNCALL	_main,_lcd_init
	FNCALL	_main,_delay
	FNCALL	_main,_lcd_cmd
	FNCALL	_main,_gps_init
	FNCALL	_main,_lcd_display
	FNCALL	_main,_gps_send
	FNCALL	_main,_serial
	FNCALL	_main,_txs
	FNCALL	_main,_sms1
	FNCALL	_gps_send,_lcd_cmd
	FNCALL	_gps_send,_delay
	FNCALL	_gps_send,_lcd_display
	FNCALL	_gps_send,_lcd_data
	FNCALL	_sms1,_txs
	FNCALL	_sms1,_delay
	FNCALL	_sms1,_gsm_command
	FNCALL	_sms1,_lcd_cmd
	FNCALL	_sms1,_lcd_data
	FNCALL	_lcd_init,_lcd_cmd
	FNCALL	_lcd_display,_lcd_data
	FNCALL	_serial,_delay
	FNCALL	_lcd_data,_delay
	FNCALL	_lcd_cmd,_delay
	FNROOT	_main
	FNCALL	intlevel1,_rcx
	global	intlevel1
	FNROOT	intlevel1
	global	_ser
	global	_st
psect	idataBANK0,class=CODE,space=0,delta=2
global __pidataBANK0
__pidataBANK0:
	file	"C:\Users\TECH\Desktop\madhu pic folder\gps&gsm\gps&gsm\gps and gsm\gps location to gsm\gps location to gsm.c"
	line	14

;initializer for _ser
	retlw	037h

;initializer for _st
	retlw	01h
	global	_gpsdata
	global	_A
	global	_B
	global	_W
	global	_c
	global	_i
	global	_j
	global	_q
	global	_r
	global	_v
	global	_w1
	global	_data_cap
	global	_T
	global	_temp
	global	_PORTB
_PORTB	set	6
	global	_PORTC
_PORTC	set	7
	global	_PORTD
_PORTD	set	8
	global	_RCREG
_RCREG	set	26
	global	_RCSTA
_RCSTA	set	24
	global	_TXREG
_TXREG	set	25
	global	_GIE
_GIE	set	95
	global	_OERR
_OERR	set	193
	global	_PEIE
_PEIE	set	94
	global	_RB0
_RB0	set	48
	global	_RCIF
_RCIF	set	101
	global	_RD1
_RD1	set	65
	global	_RD2
_RD2	set	66
	global	_RD3
_RD3	set	67
	global	_TXIF
_TXIF	set	100
	global	_SPBRG
_SPBRG	set	153
	global	_TRISB
_TRISB	set	134
	global	_TRISC
_TRISC	set	135
	global	_TRISD
_TRISD	set	136
	global	_TXSTA
_TXSTA	set	152
	global	_BRGH
_BRGH	set	1218
	global	_RCIE
_RCIE	set	1125
psect	strings,class=STRING,delta=2
global __pstrings
__pstrings:
;	global	stringdir,stringtab,__stringbase
stringtab:
;	String table - string pointers are 1 byte each
stringcode:stringdir:
movlw high(stringdir)
movwf pclath
movf fsr,w
incf fsr
	addwf pc
__stringbase:
	retlw	0
psect	strings
	
STR_2:	
	retlw	103	;'g'
	retlw	112	;'p'
	retlw	115	;'s'
	retlw	32	;' '
	retlw	108	;'l'
	retlw	111	;'o'
	retlw	99	;'c'
	retlw	97	;'a'
	retlw	116	;'t'
	retlw	105	;'i'
	retlw	111	;'o'
	retlw	110	;'n'
	retlw	0
psect	strings
	
STR_5:	
	retlw	65	;'A'
	retlw	84	;'T'
	retlw	43	;'+'
	retlw	67	;'C'
	retlw	77	;'M'
	retlw	71	;'G'
	retlw	70	;'F'
	retlw	61	;'='
	retlw	49	;'1'
	retlw	0
psect	strings
	
STR_3:	
	retlw	87	;'W'
	retlw	69	;'E'
	retlw	76	;'L'
	retlw	67	;'C'
	retlw	79	;'O'
	retlw	77	;'M'
	retlw	69	;'E'
	retlw	0
psect	strings
	
STR_1:	
	retlw	103	;'g'
	retlw	112	;'p'
	retlw	115	;'s'
	retlw	0
psect	strings
	
STR_4:	
	retlw	65	;'A'
	retlw	84	;'T'
	retlw	0
psect	strings
	file	"gps location to gsm.as"
	line	#
psect cinit,class=CODE,delta=2
global start_initialization
start_initialization:

psect	bssCOMMON,class=COMMON,space=1
global __pbssCOMMON
__pbssCOMMON:
_T:
       ds      2

_temp:
       ds      2

psect	bssBANK0,class=BANK0,space=1
global __pbssBANK0
__pbssBANK0:
_gpsdata:
       ds      50

_A:
       ds      2

_B:
       ds      2

_W:
       ds      2

_c:
       ds      2

_i:
       ds      2

_j:
       ds      2

_q:
       ds      2

_r:
       ds      2

_v:
       ds      2

_w1:
       ds      2

_data_cap:
       ds      1

psect	dataBANK0,class=BANK0,space=1
global __pdataBANK0
__pdataBANK0:
	file	"C:\Users\TECH\Desktop\madhu pic folder\gps&gsm\gps&gsm\gps and gsm\gps location to gsm\gps location to gsm.c"
_ser:
       ds      1

psect	dataBANK0
	file	"C:\Users\TECH\Desktop\madhu pic folder\gps&gsm\gps&gsm\gps and gsm\gps location to gsm\gps location to gsm.c"
_st:
       ds      1

psect clrtext,class=CODE,delta=2
global clear_ram
;	Called with FSR containing the base address, and
;	W with the last address+1
clear_ram:
	clrwdt			;clear the watchdog before getting into this loop
clrloop:
	clrf	indf		;clear RAM location pointed to by FSR
	incf	fsr,f		;increment pointer
	xorwf	fsr,w		;XOR with final address
	btfsc	status,2	;have we reached the end yet?
	retlw	0		;all done for this memory range, return
	xorwf	fsr,w		;XOR again to restore value
	goto	clrloop		;do the next byte

; Clear objects allocated to COMMON
psect cinit,class=CODE,delta=2
	clrf	((__pbssCOMMON)+0)&07Fh
	clrf	((__pbssCOMMON)+1)&07Fh
	clrf	((__pbssCOMMON)+2)&07Fh
	clrf	((__pbssCOMMON)+3)&07Fh
; Clear objects allocated to BANK0
psect cinit,class=CODE,delta=2
	bcf	status, 7	;select IRP bank0
	movlw	low(__pbssBANK0)
	movwf	fsr
	movlw	low((__pbssBANK0)+047h)
	fcall	clear_ram
; Initialize objects allocated to BANK0
	global __pidataBANK0
psect cinit,class=CODE,delta=2
	fcall	__pidataBANK0+0		;fetch initializer
	movwf	__pdataBANK0+0&07fh		
	fcall	__pidataBANK0+1		;fetch initializer
	movwf	__pdataBANK0+1&07fh		
psect cinit,class=CODE,delta=2
global end_of_initialization

;End of C runtime variable initialization code

end_of_initialization:
clrf status
ljmp _main	;jump to C main() function
psect	cstackBANK1,class=BANK1,space=1
global __pcstackBANK1
__pcstackBANK1:
	global	lcd_display@m
lcd_display@m:	; 1 bytes @ 0x0
	ds	1
	global	lcd_display@k
lcd_display@k:	; 2 bytes @ 0x1
	ds	2
psect	cstackCOMMON,class=COMMON,space=1
global __pcstackCOMMON
__pcstackCOMMON:
	global	?_lcd_cmd
?_lcd_cmd:	; 0 bytes @ 0x0
	global	?_lcd_data
?_lcd_data:	; 0 bytes @ 0x0
	global	?_lcd_display
?_lcd_display:	; 0 bytes @ 0x0
	global	?_lcd_init
?_lcd_init:	; 0 bytes @ 0x0
	global	?_gps_init
?_gps_init:	; 0 bytes @ 0x0
	global	?_rcx
?_rcx:	; 0 bytes @ 0x0
	global	??_rcx
??_rcx:	; 0 bytes @ 0x0
	global	?_gps_send
?_gps_send:	; 0 bytes @ 0x0
	global	?_gsm_command
?_gsm_command:	; 0 bytes @ 0x0
	global	?_txs
?_txs:	; 0 bytes @ 0x0
	global	?_sms1
?_sms1:	; 0 bytes @ 0x0
	global	?_serial
?_serial:	; 0 bytes @ 0x0
	global	?_main
?_main:	; 0 bytes @ 0x0
	ds	5
	global	??_delay
??_delay:	; 0 bytes @ 0x5
	global	??_lcd_display
??_lcd_display:	; 0 bytes @ 0x5
	global	??_lcd_init
??_lcd_init:	; 0 bytes @ 0x5
	global	??_gps_init
??_gps_init:	; 0 bytes @ 0x5
	global	??_gsm_command
??_gsm_command:	; 0 bytes @ 0x5
	global	??_txs
??_txs:	; 0 bytes @ 0x5
	global	??_main
??_main:	; 0 bytes @ 0x5
psect	cstackBANK0,class=BANK0,space=1
global __pcstackBANK0
__pcstackBANK0:
	global	?_delay
?_delay:	; 0 bytes @ 0x0
	global	gsm_command@da
gsm_command@da:	; 1 bytes @ 0x0
	global	txs@val
txs@val:	; 1 bytes @ 0x0
	global	delay@a
delay@a:	; 2 bytes @ 0x0
	ds	1
	global	gsm_command@s
gsm_command@s:	; 2 bytes @ 0x1
	ds	1
	global	??_lcd_cmd
??_lcd_cmd:	; 0 bytes @ 0x2
	global	??_lcd_data
??_lcd_data:	; 0 bytes @ 0x2
	global	??_serial
??_serial:	; 0 bytes @ 0x2
	ds	1
	global	serial@a
serial@a:	; 1 bytes @ 0x3
	ds	1
	global	lcd_cmd@com
lcd_cmd@com:	; 1 bytes @ 0x4
	global	lcd_data@dat
lcd_data@dat:	; 1 bytes @ 0x4
	global	serial@B
serial@B:	; 1 bytes @ 0x4
	ds	1
	global	??_gps_send
??_gps_send:	; 0 bytes @ 0x5
	global	??_sms1
??_sms1:	; 0 bytes @ 0x5
	ds	1
;;Data sizes: Strings 38, constant 0, data 2, bss 75, persistent 0 stack 0
;;Auto spaces:   Size  Autos    Used
;; COMMON          14      5       9
;; BANK0           80      6      79
;; BANK1           80      3       3
;; BANK3           96      0       0
;; BANK2           96      0       0

;;
;; Pointer list with targets:

;; serial@a	PTR const unsigned char  size(1) Largest target is 10
;;		 -> STR_5(CODE[10]), STR_4(CODE[3]), 
;;
;; gsm_command@da	PTR const unsigned char  size(1) Largest target is 13
;;		 -> STR_2(CODE[13]), 
;;
;; lcd_display@m	PTR const unsigned char  size(1) Largest target is 8
;;		 -> STR_3(CODE[8]), STR_1(CODE[4]), 
;;


;;
;; Critical Paths under _main in COMMON
;;
;;   None.
;;
;; Critical Paths under _rcx in COMMON
;;
;;   None.
;;
;; Critical Paths under _main in BANK0
;;
;;   _main->_gps_send
;;   _main->_sms1
;;   _gps_send->_lcd_cmd
;;   _gps_send->_lcd_data
;;   _sms1->_lcd_cmd
;;   _sms1->_lcd_data
;;   _lcd_init->_lcd_cmd
;;   _lcd_display->_lcd_data
;;   _serial->_delay
;;   _lcd_data->_delay
;;   _lcd_cmd->_delay
;;
;; Critical Paths under _rcx in BANK0
;;
;;   None.
;;
;; Critical Paths under _main in BANK1
;;
;;   _main->_lcd_display
;;   _gps_send->_lcd_display
;;
;; Critical Paths under _rcx in BANK1
;;
;;   None.
;;
;; Critical Paths under _main in BANK3
;;
;;   None.
;;
;; Critical Paths under _rcx in BANK3
;;
;;   None.
;;
;; Critical Paths under _main in BANK2
;;
;;   None.
;;
;; Critical Paths under _rcx in BANK2
;;
;;   None.

;;
;;Main: autosize = 0, tempsize = 0, incstack = 0, save=0
;;

;;
;;Call Graph Tables:
;;
;; ---------------------------------------------------------------------------------
;; (Depth) Function   	        Calls       Base Space   Used Autos Params    Refs
;; ---------------------------------------------------------------------------------
;; (0) _main                                                 0     0      0    1450
;;                           _lcd_init
;;                              _delay
;;                            _lcd_cmd
;;                           _gps_init
;;                        _lcd_display
;;                           _gps_send
;;                             _serial
;;                                _txs
;;                               _sms1
;; ---------------------------------------------------------------------------------
;; (1) _gps_send                                             1     1      0     440
;;                                              5 BANK0      1     1      0
;;                            _lcd_cmd
;;                              _delay
;;                        _lcd_display
;;                           _lcd_data
;; ---------------------------------------------------------------------------------
;; (1) _sms1                                                 1     1      0     378
;;                                              5 BANK0      1     1      0
;;                                _txs
;;                              _delay
;;                        _gsm_command
;;                            _lcd_cmd
;;                           _lcd_data
;; ---------------------------------------------------------------------------------
;; (1) _lcd_init                                             0     0      0      93
;;                            _lcd_cmd
;; ---------------------------------------------------------------------------------
;; (2) _lcd_display                                          3     3      0     223
;;                                              0 BANK1      3     3      0
;;                           _lcd_data
;; ---------------------------------------------------------------------------------
;; (1) _serial                                               3     3      0     161
;;                                              2 BANK0      3     3      0
;;                              _delay
;; ---------------------------------------------------------------------------------
;; (2) _lcd_data                                             3     3      0      93
;;                                              2 BANK0      3     3      0
;;                              _delay
;; ---------------------------------------------------------------------------------
;; (2) _lcd_cmd                                              3     3      0      93
;;                                              2 BANK0      3     3      0
;;                              _delay
;; ---------------------------------------------------------------------------------
;; (2) _txs                                                  1     1      0      31
;;                                              0 BANK0      1     1      0
;; ---------------------------------------------------------------------------------
;; (3) _gsm_command                                          3     3      0     130
;;                                              0 BANK0      3     3      0
;; ---------------------------------------------------------------------------------
;; (1) _gps_init                                             0     0      0       0
;; ---------------------------------------------------------------------------------
;; (3) _delay                                                2     0      2      31
;;                                              0 BANK0      2     0      2
;; ---------------------------------------------------------------------------------
;; Estimated maximum stack depth 3
;; ---------------------------------------------------------------------------------
;; (Depth) Function   	        Calls       Base Space   Used Autos Params    Refs
;; ---------------------------------------------------------------------------------
;; (5) _rcx                                                  5     5      0       0
;;                                              0 COMMON     5     5      0
;; ---------------------------------------------------------------------------------
;; Estimated maximum stack depth 5
;; ---------------------------------------------------------------------------------

;; Call Graph Graphs:

;; _main (ROOT)
;;   _lcd_init
;;     _lcd_cmd
;;       _delay
;;   _delay
;;   _lcd_cmd
;;     _delay
;;   _gps_init
;;   _lcd_display
;;     _lcd_data
;;       _delay
;;   _gps_send
;;     _lcd_cmd
;;       _delay
;;     _delay
;;     _lcd_display
;;       _lcd_data
;;         _delay
;;     _lcd_data
;;       _delay
;;   _serial
;;     _delay
;;   _txs
;;   _sms1
;;     _txs
;;     _delay
;;     _gsm_command
;;     _lcd_cmd
;;       _delay
;;     _lcd_data
;;       _delay
;;
;; _rcx (ROOT)
;;

;; Address spaces:

;;Name               Size   Autos  Total    Cost      Usage
;;BANK3               60      0       0       9        0.0%
;;BITBANK3            60      0       0       8        0.0%
;;SFR3                 0      0       0       4        0.0%
;;BITSFR3              0      0       0       4        0.0%
;;BANK2               60      0       0      11        0.0%
;;BITBANK2            60      0       0      10        0.0%
;;SFR2                 0      0       0       5        0.0%
;;BITSFR2              0      0       0       5        0.0%
;;SFR1                 0      0       0       2        0.0%
;;BITSFR1              0      0       0       2        0.0%
;;BANK1               50      3       3       7        3.8%
;;BITBANK1            50      0       0       6        0.0%
;;CODE                 0      0       0       0        0.0%
;;DATA                 0      0      5F      12        0.0%
;;ABS                  0      0      5B       3        0.0%
;;NULL                 0      0       0       0        0.0%
;;STACK                0      0       4       2        0.0%
;;BANK0               50      6      4F       5       98.8%
;;BITBANK0            50      0       0       4        0.0%
;;SFR0                 0      0       0       1        0.0%
;;BITSFR0              0      0       0       1        0.0%
;;COMMON               E      5       9       1       64.3%
;;BITCOMMON            E      0       0       0        0.0%
;;EEDATA             100      0       0       0        0.0%

	global	_main
psect	maintext,global,class=CODE,delta=2
global __pmaintext
__pmaintext:

;; *************** function _main *****************
;; Defined at:
;;		line 257 in file "C:\Users\TECH\Desktop\madhu pic folder\gps&gsm\gps&gsm\gps and gsm\gps location to gsm\gps location to gsm.c"
;; Parameters:    Size  Location     Type
;;		None
;; Auto vars:     Size  Location     Type
;;		None
;; Return value:  Size  Location     Type
;;		None               void
;; Registers used:
;;		wreg, fsr0l, fsr0h, status,2, status,0, btemp+0, pclath, cstack
;; Tracked objects:
;;		On entry : 17F/0
;;		On exit  : 0/0
;;		Unchanged: 0/0
;; Data sizes:     COMMON   BANK0   BANK1   BANK3   BANK2
;;      Params:         0       0       0       0       0
;;      Locals:         0       0       0       0       0
;;      Temps:          0       0       0       0       0
;;      Totals:         0       0       0       0       0
;;Total ram usage:        0 bytes
;; Hardware stack levels required when called:    5
;; This function calls:
;;		_lcd_init
;;		_delay
;;		_lcd_cmd
;;		_gps_init
;;		_lcd_display
;;		_gps_send
;;		_serial
;;		_txs
;;		_sms1
;; This function is called by:
;;		Startup code after reset
;; This function uses a non-reentrant model
;;
psect	maintext
	file	"C:\Users\TECH\Desktop\madhu pic folder\gps&gsm\gps&gsm\gps and gsm\gps location to gsm\gps location to gsm.c"
	line	257
	global	__size_of_main
	__size_of_main	equ	__end_of_main-_main
	
_main:	
	opt	stack 8
; Regs used in _main: [wreg-fsr0h+status,2-btemp+0+pclath+cstack]
	line	259
	
l2627:	
;gps location to gsm.c: 259: TRISD=0x00;
	bsf	status, 5	;RP0=1, select bank1
	bcf	status, 6	;RP1=0, select bank1
	clrf	(136)^080h	;volatile
	line	260
;gps location to gsm.c: 260: PORTD=0x00;
	bcf	status, 5	;RP0=0, select bank0
	bcf	status, 6	;RP1=0, select bank0
	clrf	(8)	;volatile
	line	262
;gps location to gsm.c: 262: TRISC=0x00;
	bsf	status, 5	;RP0=1, select bank1
	bcf	status, 6	;RP1=0, select bank1
	clrf	(135)^080h	;volatile
	line	263
;gps location to gsm.c: 263: PORTC=0x00;
	bcf	status, 5	;RP0=0, select bank0
	bcf	status, 6	;RP1=0, select bank0
	clrf	(7)	;volatile
	line	265
	
l2629:	
;gps location to gsm.c: 265: TRISB=0X03;
	movlw	(03h)
	bsf	status, 5	;RP0=1, select bank1
	bcf	status, 6	;RP1=0, select bank1
	movwf	(134)^080h	;volatile
	line	266
	
l2631:	
;gps location to gsm.c: 266: PORTB=0X00;
	bcf	status, 5	;RP0=0, select bank0
	bcf	status, 6	;RP1=0, select bank0
	clrf	(6)	;volatile
	line	268
	
l2633:	
;gps location to gsm.c: 268: lcd_init();
	fcall	_lcd_init
	line	269
	
l2635:	
;gps location to gsm.c: 269: delay(100);
	movlw	low(064h)
	bcf	status, 5	;RP0=0, select bank0
	bcf	status, 6	;RP1=0, select bank0
	movwf	(?_delay)
	movlw	high(064h)
	movwf	((?_delay))+1
	fcall	_delay
	line	271
	
l2637:	
;gps location to gsm.c: 271: TXSTA=0x24;
	movlw	(024h)
	bsf	status, 5	;RP0=1, select bank1
	bcf	status, 6	;RP1=0, select bank1
	movwf	(152)^080h	;volatile
	line	272
	
l2639:	
;gps location to gsm.c: 272: RCSTA=0x90;
	movlw	(090h)
	bcf	status, 5	;RP0=0, select bank0
	bcf	status, 6	;RP1=0, select bank0
	movwf	(24)	;volatile
	line	273
	
l2641:	
;gps location to gsm.c: 273: SPBRG=25;
	movlw	(019h)
	bsf	status, 5	;RP0=1, select bank1
	bcf	status, 6	;RP1=0, select bank1
	movwf	(153)^080h	;volatile
	line	275
	
l2643:	
;gps location to gsm.c: 275: delay(600);
	movlw	low(0258h)
	bcf	status, 5	;RP0=0, select bank0
	bcf	status, 6	;RP1=0, select bank0
	movwf	(?_delay)
	movlw	high(0258h)
	movwf	((?_delay))+1
	fcall	_delay
	line	276
	
l2645:	
;gps location to gsm.c: 276: PEIE=1;
	bsf	(94/8),(94)&7
	line	277
	
l2647:	
;gps location to gsm.c: 277: GIE=1;
	bsf	(95/8),(95)&7
	line	279
	
l2649:	
;gps location to gsm.c: 279: delay(600);
	movlw	low(0258h)
	bcf	status, 5	;RP0=0, select bank0
	bcf	status, 6	;RP1=0, select bank0
	movwf	(?_delay)
	movlw	high(0258h)
	movwf	((?_delay))+1
	fcall	_delay
	line	281
	
l2651:	
;gps location to gsm.c: 281: lcd_cmd(0x01);
	movlw	(01h)
	fcall	_lcd_cmd
	line	282
	
l2653:	
;gps location to gsm.c: 282: lcd_cmd(0x80);
	movlw	(080h)
	fcall	_lcd_cmd
	line	285
	
l2655:	
;gps location to gsm.c: 285: gps_init();
	fcall	_gps_init
	line	286
	
l2657:	
;gps location to gsm.c: 286: delay(50000);
	movlw	low(0C350h)
	bcf	status, 5	;RP0=0, select bank0
	bcf	status, 6	;RP1=0, select bank0
	movwf	(?_delay)
	movlw	high(0C350h)
	movwf	((?_delay))+1
	fcall	_delay
	line	288
	
l2659:	
;gps location to gsm.c: 288: lcd_display("WELCOME");
	movlw	((STR_3-__stringbase))&0ffh
	fcall	_lcd_display
	line	289
	
l2661:	
;gps location to gsm.c: 289: delay(50000);delay(50000);
	movlw	low(0C350h)
	bcf	status, 5	;RP0=0, select bank0
	bcf	status, 6	;RP1=0, select bank0
	movwf	(?_delay)
	movlw	high(0C350h)
	movwf	((?_delay))+1
	fcall	_delay
	
l2663:	
	movlw	low(0C350h)
	bcf	status, 5	;RP0=0, select bank0
	bcf	status, 6	;RP1=0, select bank0
	movwf	(?_delay)
	movlw	high(0C350h)
	movwf	((?_delay))+1
	fcall	_delay
	line	292
	
l2665:	
;gps location to gsm.c: 292: delay(50000);delay(50000);
	movlw	low(0C350h)
	bcf	status, 5	;RP0=0, select bank0
	bcf	status, 6	;RP1=0, select bank0
	movwf	(?_delay)
	movlw	high(0C350h)
	movwf	((?_delay))+1
	fcall	_delay
	
l2667:	
	movlw	low(0C350h)
	bcf	status, 5	;RP0=0, select bank0
	bcf	status, 6	;RP1=0, select bank0
	movwf	(?_delay)
	movlw	high(0C350h)
	movwf	((?_delay))+1
	fcall	_delay
	line	295
;gps location to gsm.c: 295: while(1)
	
l658:	
	line	298
	
l2669:	
;gps location to gsm.c: 296: {
;gps location to gsm.c: 298: if(RB0==1)
	bcf	status, 5	;RP0=0, select bank0
	bcf	status, 6	;RP1=0, select bank0
	btfss	(48/8),(48)&7
	goto	u2801
	goto	u2800
u2801:
	goto	l659
u2800:
	line	300
	
l2671:	
;gps location to gsm.c: 299: {
;gps location to gsm.c: 300: gps_send();
	fcall	_gps_send
	line	301
	
l2673:	
;gps location to gsm.c: 301: serial("AT");
	movlw	((STR_4-__stringbase))&0ffh
	fcall	_serial
	line	302
	
l2675:	
;gps location to gsm.c: 302: txs(13);delay(60000);delay(60000);
	movlw	(0Dh)
	fcall	_txs
	
l2677:	
	movlw	low(0EA60h)
	bcf	status, 5	;RP0=0, select bank0
	bcf	status, 6	;RP1=0, select bank0
	movwf	(?_delay)
	movlw	high(0EA60h)
	movwf	((?_delay))+1
	fcall	_delay
	
l2679:	
	movlw	low(0EA60h)
	bcf	status, 5	;RP0=0, select bank0
	bcf	status, 6	;RP1=0, select bank0
	movwf	(?_delay)
	movlw	high(0EA60h)
	movwf	((?_delay))+1
	fcall	_delay
	line	303
	
l2681:	
;gps location to gsm.c: 303: txs(10);
	movlw	(0Ah)
	fcall	_txs
	line	304
	
l2683:	
;gps location to gsm.c: 304: delay(10000);
	movlw	low(02710h)
	bcf	status, 5	;RP0=0, select bank0
	bcf	status, 6	;RP1=0, select bank0
	movwf	(?_delay)
	movlw	high(02710h)
	movwf	((?_delay))+1
	fcall	_delay
	line	305
	
l2685:	
;gps location to gsm.c: 305: delay(10000);
	movlw	low(02710h)
	bcf	status, 5	;RP0=0, select bank0
	bcf	status, 6	;RP1=0, select bank0
	movwf	(?_delay)
	movlw	high(02710h)
	movwf	((?_delay))+1
	fcall	_delay
	line	306
	
l2687:	
;gps location to gsm.c: 306: serial("AT+CMGF=1");
	movlw	((STR_5-__stringbase))&0ffh
	fcall	_serial
	line	307
	
l2689:	
;gps location to gsm.c: 307: txs(13);delay(60000);delay(60000);
	movlw	(0Dh)
	fcall	_txs
	
l2691:	
	movlw	low(0EA60h)
	bcf	status, 5	;RP0=0, select bank0
	bcf	status, 6	;RP1=0, select bank0
	movwf	(?_delay)
	movlw	high(0EA60h)
	movwf	((?_delay))+1
	fcall	_delay
	
l2693:	
	movlw	low(0EA60h)
	bcf	status, 5	;RP0=0, select bank0
	bcf	status, 6	;RP1=0, select bank0
	movwf	(?_delay)
	movlw	high(0EA60h)
	movwf	((?_delay))+1
	fcall	_delay
	line	308
	
l2695:	
;gps location to gsm.c: 308: txs(10);
	movlw	(0Ah)
	fcall	_txs
	line	309
	
l2697:	
;gps location to gsm.c: 309: delay(10000);
	movlw	low(02710h)
	bcf	status, 5	;RP0=0, select bank0
	bcf	status, 6	;RP1=0, select bank0
	movwf	(?_delay)
	movlw	high(02710h)
	movwf	((?_delay))+1
	fcall	_delay
	line	310
	
l2699:	
;gps location to gsm.c: 310: delay(10000);
	movlw	low(02710h)
	bcf	status, 5	;RP0=0, select bank0
	bcf	status, 6	;RP1=0, select bank0
	movwf	(?_delay)
	movlw	high(02710h)
	movwf	((?_delay))+1
	fcall	_delay
	line	311
;gps location to gsm.c: 311: sms1();
	fcall	_sms1
	line	312
	
l659:	
	line	315
	
l660:	
	line	295
	goto	l658
	
l661:	
	line	316
	
l662:	
	global	start
	ljmp	start
	opt stack 0
GLOBAL	__end_of_main
	__end_of_main:
;; =============== function _main ends ============

	signat	_main,88
	global	_gps_send
psect	text451,local,class=CODE,delta=2
global __ptext451
__ptext451:

;; *************** function _gps_send *****************
;; Defined at:
;;		line 106 in file "C:\Users\TECH\Desktop\madhu pic folder\gps&gsm\gps&gsm\gps and gsm\gps location to gsm\gps location to gsm.c"
;; Parameters:    Size  Location     Type
;;		None
;; Auto vars:     Size  Location     Type
;;		None
;; Return value:  Size  Location     Type
;;		None               void
;; Registers used:
;;		wreg, fsr0l, fsr0h, status,2, status,0, btemp+0, pclath, cstack
;; Tracked objects:
;;		On entry : 0/0
;;		On exit  : 0/0
;;		Unchanged: 0/0
;; Data sizes:     COMMON   BANK0   BANK1   BANK3   BANK2
;;      Params:         0       0       0       0       0
;;      Locals:         0       0       0       0       0
;;      Temps:          0       1       0       0       0
;;      Totals:         0       1       0       0       0
;;Total ram usage:        1 bytes
;; Hardware stack levels used:    1
;; Hardware stack levels required when called:    4
;; This function calls:
;;		_lcd_cmd
;;		_delay
;;		_lcd_display
;;		_lcd_data
;; This function is called by:
;;		_main
;; This function uses a non-reentrant model
;;
psect	text451
	file	"C:\Users\TECH\Desktop\madhu pic folder\gps&gsm\gps&gsm\gps and gsm\gps location to gsm\gps location to gsm.c"
	line	106
	global	__size_of_gps_send
	__size_of_gps_send	equ	__end_of_gps_send-_gps_send
	
_gps_send:	
	opt	stack 7
; Regs used in _gps_send: [wreg-fsr0h+status,2-btemp+0+pclath+cstack]
	line	107
	
l2561:	
;gps location to gsm.c: 107: lcd_cmd(0x01);
	movlw	(01h)
	fcall	_lcd_cmd
	line	108
;gps location to gsm.c: 108: lcd_cmd(0x87);
	movlw	(087h)
	fcall	_lcd_cmd
	line	109
	
l2563:	
;gps location to gsm.c: 109: delay(100);
	movlw	low(064h)
	bcf	status, 5	;RP0=0, select bank0
	bcf	status, 6	;RP1=0, select bank0
	movwf	(?_delay)
	movlw	high(064h)
	movwf	((?_delay))+1
	fcall	_delay
	line	110
	
l2565:	
;gps location to gsm.c: 110: lcd_display("gps");
	movlw	((STR_1-__stringbase))&0ffh
	fcall	_lcd_display
	line	112
	
l2567:	
;gps location to gsm.c: 112: delay(50000);delay(50000);
	movlw	low(0C350h)
	bcf	status, 5	;RP0=0, select bank0
	bcf	status, 6	;RP1=0, select bank0
	movwf	(?_delay)
	movlw	high(0C350h)
	movwf	((?_delay))+1
	fcall	_delay
	
l2569:	
	movlw	low(0C350h)
	bcf	status, 5	;RP0=0, select bank0
	bcf	status, 6	;RP1=0, select bank0
	movwf	(?_delay)
	movlw	high(0C350h)
	movwf	((?_delay))+1
	fcall	_delay
	line	113
	
l2571:	
;gps location to gsm.c: 113: lcd_cmd(0x01);
	movlw	(01h)
	fcall	_lcd_cmd
	line	114
	
l2573:	
;gps location to gsm.c: 114: delay(100);
	movlw	low(064h)
	bcf	status, 5	;RP0=0, select bank0
	bcf	status, 6	;RP1=0, select bank0
	movwf	(?_delay)
	movlw	high(064h)
	movwf	((?_delay))+1
	fcall	_delay
	line	122
	
l2575:	
;gps location to gsm.c: 122: if(i>43)
	movlw	high(02Ch)
	bcf	status, 5	;RP0=0, select bank0
	bcf	status, 6	;RP1=0, select bank0
	subwf	(_i+1),w
	movlw	low(02Ch)
	skipnz
	subwf	(_i),w
	skipc
	goto	u2751
	goto	u2750
u2751:
	goto	l621
u2750:
	line	125
	
l2577:	
;gps location to gsm.c: 123: {
;gps location to gsm.c: 125: lcd_cmd(0x80);
	movlw	(080h)
	fcall	_lcd_cmd
	line	126
	
l2579:	
;gps location to gsm.c: 126: delay(1000);
	movlw	low(03E8h)
	bcf	status, 5	;RP0=0, select bank0
	bcf	status, 6	;RP1=0, select bank0
	movwf	(?_delay)
	movlw	high(03E8h)
	movwf	((?_delay))+1
	fcall	_delay
	line	128
	
l2581:	
;gps location to gsm.c: 128: for(j=16;j<28;j++)
	movlw	low(010h)
	bcf	status, 5	;RP0=0, select bank0
	bcf	status, 6	;RP1=0, select bank0
	movwf	(_j)
	movlw	high(010h)
	movwf	((_j))+1
	
l2583:	
	movlw	high(01Ch)
	subwf	(_j+1),w
	movlw	low(01Ch)
	skipnz
	subwf	(_j),w
	skipc
	goto	u2761
	goto	u2760
u2761:
	goto	l622
u2760:
	
l2585:	
	goto	l623
	line	129
	
l622:	
	line	131
	
l2587:	
;gps location to gsm.c: 129: {
;gps location to gsm.c: 131: ser=(gpsdata[j]);
	movf	(_j),w
	addlw	_gpsdata&0ffh
	movwf	fsr0
	bcf	status, 7	;select IRP bank0
	movf	indf,w
	movwf	(??_gps_send+0)+0
	movf	(??_gps_send+0)+0,w
	movwf	(_ser)
	line	132
	
l2589:	
;gps location to gsm.c: 132: lcd_data(ser);
	movf	(_ser),w
	fcall	_lcd_data
	line	133
	
l2591:	
;gps location to gsm.c: 133: TXREG=ser;
	bcf	status, 5	;RP0=0, select bank0
	bcf	status, 6	;RP1=0, select bank0
	movf	(_ser),w
	movwf	(25)	;volatile
	line	135
	
l2593:	
;gps location to gsm.c: 135: delay(600);
	movlw	low(0258h)
	movwf	(?_delay)
	movlw	high(0258h)
	movwf	((?_delay))+1
	fcall	_delay
	line	128
	
l2595:	
	movlw	low(01h)
	bcf	status, 5	;RP0=0, select bank0
	bcf	status, 6	;RP1=0, select bank0
	addwf	(_j),f
	skipnc
	incf	(_j+1),f
	movlw	high(01h)
	addwf	(_j+1),f
	
l2597:	
	movlw	high(01Ch)
	subwf	(_j+1),w
	movlw	low(01Ch)
	skipnz
	subwf	(_j),w
	skipc
	goto	u2771
	goto	u2770
u2771:
	goto	l622
u2770:
	
l623:	
	line	137
	
l2599:	
;gps location to gsm.c: 136: }
;gps location to gsm.c: 137: lcd_cmd(0xc0);
	movlw	(0C0h)
	fcall	_lcd_cmd
	line	139
	
l2601:	
;gps location to gsm.c: 139: for(j=30;j<41;j++)
	movlw	low(01Eh)
	bcf	status, 5	;RP0=0, select bank0
	bcf	status, 6	;RP1=0, select bank0
	movwf	(_j)
	movlw	high(01Eh)
	movwf	((_j))+1
	
l2603:	
	movlw	high(029h)
	subwf	(_j+1),w
	movlw	low(029h)
	skipnz
	subwf	(_j),w
	skipc
	goto	u2781
	goto	u2780
u2781:
	goto	l624
u2780:
	
l2605:	
	goto	l625
	line	140
	
l624:	
	line	142
	
l2607:	
;gps location to gsm.c: 140: {
;gps location to gsm.c: 142: ser=(gpsdata[j]);
	movf	(_j),w
	addlw	_gpsdata&0ffh
	movwf	fsr0
	bcf	status, 7	;select IRP bank0
	movf	indf,w
	movwf	(??_gps_send+0)+0
	movf	(??_gps_send+0)+0,w
	movwf	(_ser)
	line	143
	
l2609:	
;gps location to gsm.c: 143: lcd_data(ser);
	movf	(_ser),w
	fcall	_lcd_data
	line	144
	
l2611:	
;gps location to gsm.c: 144: TXREG=ser;
	bcf	status, 5	;RP0=0, select bank0
	bcf	status, 6	;RP1=0, select bank0
	movf	(_ser),w
	movwf	(25)	;volatile
	line	146
	
l2613:	
;gps location to gsm.c: 146: delay(600);
	movlw	low(0258h)
	movwf	(?_delay)
	movlw	high(0258h)
	movwf	((?_delay))+1
	fcall	_delay
	line	139
	
l2615:	
	movlw	low(01h)
	bcf	status, 5	;RP0=0, select bank0
	bcf	status, 6	;RP1=0, select bank0
	addwf	(_j),f
	skipnc
	incf	(_j+1),f
	movlw	high(01h)
	addwf	(_j+1),f
	
l2617:	
	movlw	high(029h)
	subwf	(_j+1),w
	movlw	low(029h)
	skipnz
	subwf	(_j),w
	skipc
	goto	u2791
	goto	u2790
u2791:
	goto	l624
u2790:
	
l625:	
	line	149
	
l2619:	
;gps location to gsm.c: 147: }
;gps location to gsm.c: 149: delay(50000);delay(50000);
	movlw	low(0C350h)
	movwf	(?_delay)
	movlw	high(0C350h)
	movwf	((?_delay))+1
	fcall	_delay
	movlw	low(0C350h)
	bcf	status, 5	;RP0=0, select bank0
	bcf	status, 6	;RP1=0, select bank0
	movwf	(?_delay)
	movlw	high(0C350h)
	movwf	((?_delay))+1
	fcall	_delay
	line	150
;gps location to gsm.c: 150: delay(50000);delay(50000);
	movlw	low(0C350h)
	bcf	status, 5	;RP0=0, select bank0
	bcf	status, 6	;RP1=0, select bank0
	movwf	(?_delay)
	movlw	high(0C350h)
	movwf	((?_delay))+1
	fcall	_delay
	movlw	low(0C350h)
	bcf	status, 5	;RP0=0, select bank0
	bcf	status, 6	;RP1=0, select bank0
	movwf	(?_delay)
	movlw	high(0C350h)
	movwf	((?_delay))+1
	fcall	_delay
	line	152
	
l2621:	
;gps location to gsm.c: 152: data_cap=0x00;
	clrc
	movlw	0
	btfsc	status,0
	movlw	1
	bcf	status, 5	;RP0=0, select bank0
	bcf	status, 6	;RP1=0, select bank0
	movwf	(_data_cap)
	line	153
	
l2623:	
;gps location to gsm.c: 153: st=0x01;
	clrf	(_st)
	bsf	status,0
	rlf	(_st),f
	line	154
	
l2625:	
;gps location to gsm.c: 154: i=0x00;
	movlw	low(0)
	movwf	(_i)
	movlw	high(0)
	movwf	((_i))+1
	line	156
;gps location to gsm.c: 156: delay(35000);
	movlw	low(088B8h)
	movwf	(?_delay)
	movlw	high(088B8h)
	movwf	((?_delay))+1
	fcall	_delay
	line	158
	
l621:	
	line	159
	
l626:	
	return
	opt stack 0
GLOBAL	__end_of_gps_send
	__end_of_gps_send:
;; =============== function _gps_send ends ============

	signat	_gps_send,88
	global	_sms1
psect	text452,local,class=CODE,delta=2
global __ptext452
__ptext452:

;; *************** function _sms1 *****************
;; Defined at:
;;		line 186 in file "C:\Users\TECH\Desktop\madhu pic folder\gps&gsm\gps&gsm\gps and gsm\gps location to gsm\gps location to gsm.c"
;; Parameters:    Size  Location     Type
;;		None
;; Auto vars:     Size  Location     Type
;;		None
;; Return value:  Size  Location     Type
;;		None               void
;; Registers used:
;;		wreg, fsr0l, fsr0h, status,2, status,0, btemp+0, pclath, cstack
;; Tracked objects:
;;		On entry : 0/0
;;		On exit  : 0/0
;;		Unchanged: 0/0
;; Data sizes:     COMMON   BANK0   BANK1   BANK3   BANK2
;;      Params:         0       0       0       0       0
;;      Locals:         0       0       0       0       0
;;      Temps:          0       1       0       0       0
;;      Totals:         0       1       0       0       0
;;Total ram usage:        1 bytes
;; Hardware stack levels used:    1
;; Hardware stack levels required when called:    3
;; This function calls:
;;		_txs
;;		_delay
;;		_gsm_command
;;		_lcd_cmd
;;		_lcd_data
;; This function is called by:
;;		_main
;; This function uses a non-reentrant model
;;
psect	text452
	file	"C:\Users\TECH\Desktop\madhu pic folder\gps&gsm\gps&gsm\gps and gsm\gps location to gsm\gps location to gsm.c"
	line	186
	global	__size_of_sms1
	__size_of_sms1	equ	__end_of_sms1-_sms1
	
_sms1:	
	opt	stack 7
; Regs used in _sms1: [wreg-fsr0h+status,2-btemp+0+pclath+cstack]
	line	187
	
l2511:	
;gps location to gsm.c: 187: txs('A');txs('T');txs('+');txs('C');txs('M');txs('G');
	movlw	(041h)
	fcall	_txs
	movlw	(054h)
	fcall	_txs
	movlw	(02Bh)
	fcall	_txs
	movlw	(043h)
	fcall	_txs
	movlw	(04Dh)
	fcall	_txs
	movlw	(047h)
	fcall	_txs
	line	188
;gps location to gsm.c: 188: txs('S');txs('=');
	movlw	(053h)
	fcall	_txs
	movlw	(03Dh)
	fcall	_txs
	line	189
;gps location to gsm.c: 189: txs('"');
	movlw	(022h)
	fcall	_txs
	line	190
;gps location to gsm.c: 190: txs('8');txs('0');txs('9');txs('8');txs('1');
	movlw	(038h)
	fcall	_txs
	movlw	(030h)
	fcall	_txs
	movlw	(039h)
	fcall	_txs
	movlw	(038h)
	fcall	_txs
	movlw	(031h)
	fcall	_txs
	line	191
;gps location to gsm.c: 191: txs('4');txs('2');txs('0');txs('6');txs('4');
	movlw	(034h)
	fcall	_txs
	movlw	(032h)
	fcall	_txs
	movlw	(030h)
	fcall	_txs
	movlw	(036h)
	fcall	_txs
	movlw	(034h)
	fcall	_txs
	line	192
;gps location to gsm.c: 192: txs('"');
	movlw	(022h)
	fcall	_txs
	line	193
;gps location to gsm.c: 193: txs(13); delay(10000);txs(10);
	movlw	(0Dh)
	fcall	_txs
	movlw	low(02710h)
	bcf	status, 5	;RP0=0, select bank0
	bcf	status, 6	;RP1=0, select bank0
	movwf	(?_delay)
	movlw	high(02710h)
	movwf	((?_delay))+1
	fcall	_delay
	movlw	(0Ah)
	fcall	_txs
	line	195
;gps location to gsm.c: 195: delay(600);
	movlw	low(0258h)
	bcf	status, 5	;RP0=0, select bank0
	bcf	status, 6	;RP1=0, select bank0
	movwf	(?_delay)
	movlw	high(0258h)
	movwf	((?_delay))+1
	fcall	_delay
	line	196
;gps location to gsm.c: 196: delay(600);
	movlw	low(0258h)
	bcf	status, 5	;RP0=0, select bank0
	bcf	status, 6	;RP1=0, select bank0
	movwf	(?_delay)
	movlw	high(0258h)
	movwf	((?_delay))+1
	fcall	_delay
	line	201
	
l2513:	
;gps location to gsm.c: 201: gsm_command("gps location");
	movlw	((STR_2-__stringbase))&0ffh
	fcall	_gsm_command
	line	203
	
l2515:	
;gps location to gsm.c: 203: if(i>43)
	movlw	high(02Ch)
	bcf	status, 5	;RP0=0, select bank0
	bcf	status, 6	;RP1=0, select bank0
	subwf	(_i+1),w
	movlw	low(02Ch)
	skipnz
	subwf	(_i),w
	skipc
	goto	u2701
	goto	u2700
u2701:
	goto	l644
u2700:
	line	206
	
l2517:	
;gps location to gsm.c: 204: {
;gps location to gsm.c: 206: lcd_cmd(0x80);
	movlw	(080h)
	fcall	_lcd_cmd
	line	207
	
l2519:	
;gps location to gsm.c: 207: delay(1000);
	movlw	low(03E8h)
	bcf	status, 5	;RP0=0, select bank0
	bcf	status, 6	;RP1=0, select bank0
	movwf	(?_delay)
	movlw	high(03E8h)
	movwf	((?_delay))+1
	fcall	_delay
	line	209
	
l2521:	
;gps location to gsm.c: 209: for(j=16;j<28;j++)
	movlw	low(010h)
	bcf	status, 5	;RP0=0, select bank0
	bcf	status, 6	;RP1=0, select bank0
	movwf	(_j)
	movlw	high(010h)
	movwf	((_j))+1
	
l2523:	
	movlw	high(01Ch)
	subwf	(_j+1),w
	movlw	low(01Ch)
	skipnz
	subwf	(_j),w
	skipc
	goto	u2711
	goto	u2710
u2711:
	goto	l645
u2710:
	
l2525:	
	goto	l646
	line	210
	
l645:	
	line	212
	
l2527:	
;gps location to gsm.c: 210: {
;gps location to gsm.c: 212: ser=(gpsdata[j]);
	movf	(_j),w
	addlw	_gpsdata&0ffh
	movwf	fsr0
	bcf	status, 7	;select IRP bank0
	movf	indf,w
	movwf	(??_sms1+0)+0
	movf	(??_sms1+0)+0,w
	movwf	(_ser)
	line	213
	
l2529:	
;gps location to gsm.c: 213: lcd_data(ser);
	movf	(_ser),w
	fcall	_lcd_data
	line	214
	
l2531:	
;gps location to gsm.c: 214: TXREG=ser;
	bcf	status, 5	;RP0=0, select bank0
	bcf	status, 6	;RP1=0, select bank0
	movf	(_ser),w
	movwf	(25)	;volatile
	line	216
	
l2533:	
;gps location to gsm.c: 216: delay(600);
	movlw	low(0258h)
	movwf	(?_delay)
	movlw	high(0258h)
	movwf	((?_delay))+1
	fcall	_delay
	line	209
	
l2535:	
	movlw	low(01h)
	bcf	status, 5	;RP0=0, select bank0
	bcf	status, 6	;RP1=0, select bank0
	addwf	(_j),f
	skipnc
	incf	(_j+1),f
	movlw	high(01h)
	addwf	(_j+1),f
	
l2537:	
	movlw	high(01Ch)
	subwf	(_j+1),w
	movlw	low(01Ch)
	skipnz
	subwf	(_j),w
	skipc
	goto	u2721
	goto	u2720
u2721:
	goto	l645
u2720:
	
l646:	
	line	218
	
l2539:	
;gps location to gsm.c: 217: }
;gps location to gsm.c: 218: lcd_cmd(0xc0);
	movlw	(0C0h)
	fcall	_lcd_cmd
	line	220
	
l2541:	
;gps location to gsm.c: 220: for(j=30;j<41;j++)
	movlw	low(01Eh)
	bcf	status, 5	;RP0=0, select bank0
	bcf	status, 6	;RP1=0, select bank0
	movwf	(_j)
	movlw	high(01Eh)
	movwf	((_j))+1
	
l2543:	
	movlw	high(029h)
	subwf	(_j+1),w
	movlw	low(029h)
	skipnz
	subwf	(_j),w
	skipc
	goto	u2731
	goto	u2730
u2731:
	goto	l647
u2730:
	
l2545:	
	goto	l648
	line	221
	
l647:	
	line	223
	
l2547:	
;gps location to gsm.c: 221: {
;gps location to gsm.c: 223: ser=(gpsdata[j]);
	movf	(_j),w
	addlw	_gpsdata&0ffh
	movwf	fsr0
	bcf	status, 7	;select IRP bank0
	movf	indf,w
	movwf	(??_sms1+0)+0
	movf	(??_sms1+0)+0,w
	movwf	(_ser)
	line	224
	
l2549:	
;gps location to gsm.c: 224: lcd_data(ser);
	movf	(_ser),w
	fcall	_lcd_data
	line	225
	
l2551:	
;gps location to gsm.c: 225: TXREG=ser;
	bcf	status, 5	;RP0=0, select bank0
	bcf	status, 6	;RP1=0, select bank0
	movf	(_ser),w
	movwf	(25)	;volatile
	line	227
	
l2553:	
;gps location to gsm.c: 227: delay(600);
	movlw	low(0258h)
	movwf	(?_delay)
	movlw	high(0258h)
	movwf	((?_delay))+1
	fcall	_delay
	line	220
	
l2555:	
	movlw	low(01h)
	bcf	status, 5	;RP0=0, select bank0
	bcf	status, 6	;RP1=0, select bank0
	addwf	(_j),f
	skipnc
	incf	(_j+1),f
	movlw	high(01h)
	addwf	(_j+1),f
	
l2557:	
	movlw	high(029h)
	subwf	(_j+1),w
	movlw	low(029h)
	skipnz
	subwf	(_j),w
	skipc
	goto	u2741
	goto	u2740
u2741:
	goto	l647
u2740:
	
l648:	
	line	229
	
l644:	
	line	232
	
l2559:	
;gps location to gsm.c: 228: }
;gps location to gsm.c: 229: }
;gps location to gsm.c: 232: delay(600);
	movlw	low(0258h)
	movwf	(?_delay)
	movlw	high(0258h)
	movwf	((?_delay))+1
	fcall	_delay
	line	233
;gps location to gsm.c: 233: txs(13);delay(60000);
	movlw	(0Dh)
	fcall	_txs
	movlw	low(0EA60h)
	bcf	status, 5	;RP0=0, select bank0
	bcf	status, 6	;RP1=0, select bank0
	movwf	(?_delay)
	movlw	high(0EA60h)
	movwf	((?_delay))+1
	fcall	_delay
	line	234
;gps location to gsm.c: 234: txs(10);
	movlw	(0Ah)
	fcall	_txs
	line	235
;gps location to gsm.c: 235: delay(10000);
	movlw	low(02710h)
	bcf	status, 5	;RP0=0, select bank0
	bcf	status, 6	;RP1=0, select bank0
	movwf	(?_delay)
	movlw	high(02710h)
	movwf	((?_delay))+1
	fcall	_delay
	line	237
;gps location to gsm.c: 237: txs(26);
	movlw	(01Ah)
	fcall	_txs
	line	238
;gps location to gsm.c: 238: delay(50000);delay(50000);
	movlw	low(0C350h)
	bcf	status, 5	;RP0=0, select bank0
	bcf	status, 6	;RP1=0, select bank0
	movwf	(?_delay)
	movlw	high(0C350h)
	movwf	((?_delay))+1
	fcall	_delay
	movlw	low(0C350h)
	bcf	status, 5	;RP0=0, select bank0
	bcf	status, 6	;RP1=0, select bank0
	movwf	(?_delay)
	movlw	high(0C350h)
	movwf	((?_delay))+1
	fcall	_delay
	line	239
;gps location to gsm.c: 239: delay(50000);delay(50000);
	movlw	low(0C350h)
	bcf	status, 5	;RP0=0, select bank0
	bcf	status, 6	;RP1=0, select bank0
	movwf	(?_delay)
	movlw	high(0C350h)
	movwf	((?_delay))+1
	fcall	_delay
	movlw	low(0C350h)
	bcf	status, 5	;RP0=0, select bank0
	bcf	status, 6	;RP1=0, select bank0
	movwf	(?_delay)
	movlw	high(0C350h)
	movwf	((?_delay))+1
	fcall	_delay
	line	240
	
l649:	
	return
	opt stack 0
GLOBAL	__end_of_sms1
	__end_of_sms1:
;; =============== function _sms1 ends ============

	signat	_sms1,88
	global	_lcd_init
psect	text453,local,class=CODE,delta=2
global __ptext453
__ptext453:

;; *************** function _lcd_init *****************
;; Defined at:
;;		line 62 in file "C:\Users\TECH\Desktop\madhu pic folder\gps&gsm\gps&gsm\gps and gsm\gps location to gsm\gps location to gsm.c"
;; Parameters:    Size  Location     Type
;;		None
;; Auto vars:     Size  Location     Type
;;		None
;; Return value:  Size  Location     Type
;;		None               void
;; Registers used:
;;		wreg, status,2, status,0, btemp+0, pclath, cstack
;; Tracked objects:
;;		On entry : 0/0
;;		On exit  : 0/0
;;		Unchanged: 0/0
;; Data sizes:     COMMON   BANK0   BANK1   BANK3   BANK2
;;      Params:         0       0       0       0       0
;;      Locals:         0       0       0       0       0
;;      Temps:          0       0       0       0       0
;;      Totals:         0       0       0       0       0
;;Total ram usage:        0 bytes
;; Hardware stack levels used:    1
;; Hardware stack levels required when called:    3
;; This function calls:
;;		_lcd_cmd
;; This function is called by:
;;		_main
;; This function uses a non-reentrant model
;;
psect	text453
	file	"C:\Users\TECH\Desktop\madhu pic folder\gps&gsm\gps&gsm\gps and gsm\gps location to gsm\gps location to gsm.c"
	line	62
	global	__size_of_lcd_init
	__size_of_lcd_init	equ	__end_of_lcd_init-_lcd_init
	
_lcd_init:	
	opt	stack 7
; Regs used in _lcd_init: [wreg+status,2-btemp+0+pclath+cstack]
	line	63
	
l2509:	
;gps location to gsm.c: 63: lcd_cmd(0x02);
	movlw	(02h)
	fcall	_lcd_cmd
	line	64
;gps location to gsm.c: 64: lcd_cmd(0x2c);
	movlw	(02Ch)
	fcall	_lcd_cmd
	line	65
;gps location to gsm.c: 65: lcd_cmd(0x06);
	movlw	(06h)
	fcall	_lcd_cmd
	line	66
;gps location to gsm.c: 66: lcd_cmd(0x01);
	movlw	(01h)
	fcall	_lcd_cmd
	line	67
;gps location to gsm.c: 67: lcd_cmd(0x0c);
	movlw	(0Ch)
	fcall	_lcd_cmd
	line	68
;gps location to gsm.c: 68: lcd_cmd(0x80);
	movlw	(080h)
	fcall	_lcd_cmd
	line	69
	
l609:	
	return
	opt stack 0
GLOBAL	__end_of_lcd_init
	__end_of_lcd_init:
;; =============== function _lcd_init ends ============

	signat	_lcd_init,88
	global	_lcd_display
psect	text454,local,class=CODE,delta=2
global __ptext454
__ptext454:

;; *************** function _lcd_display *****************
;; Defined at:
;;		line 55 in file "C:\Users\TECH\Desktop\madhu pic folder\gps&gsm\gps&gsm\gps and gsm\gps location to gsm\gps location to gsm.c"
;; Parameters:    Size  Location     Type
;;  m               1    wreg     PTR const unsigned char 
;;		 -> STR_3(8), STR_1(4), 
;; Auto vars:     Size  Location     Type
;;  m               1    0[BANK1 ] PTR const unsigned char 
;;		 -> STR_3(8), STR_1(4), 
;;  k               2    1[BANK1 ] int 
;; Return value:  Size  Location     Type
;;		None               void
;; Registers used:
;;		wreg, fsr0l, fsr0h, status,2, status,0, btemp+0, pclath, cstack
;; Tracked objects:
;;		On entry : 0/0
;;		On exit  : 0/0
;;		Unchanged: 0/0
;; Data sizes:     COMMON   BANK0   BANK1   BANK3   BANK2
;;      Params:         0       0       0       0       0
;;      Locals:         0       0       3       0       0
;;      Temps:          0       0       0       0       0
;;      Totals:         0       0       3       0       0
;;Total ram usage:        3 bytes
;; Hardware stack levels used:    1
;; Hardware stack levels required when called:    3
;; This function calls:
;;		_lcd_data
;; This function is called by:
;;		_gps_send
;;		_main
;; This function uses a non-reentrant model
;;
psect	text454
	file	"C:\Users\TECH\Desktop\madhu pic folder\gps&gsm\gps&gsm\gps and gsm\gps location to gsm\gps location to gsm.c"
	line	55
	global	__size_of_lcd_display
	__size_of_lcd_display	equ	__end_of_lcd_display-_lcd_display
	
_lcd_display:	
	opt	stack 6
; Regs used in _lcd_display: [wreg-fsr0h+status,2-btemp+0+pclath+cstack]
;lcd_display@m stored from wreg
	bsf	status, 5	;RP0=1, select bank1
	bcf	status, 6	;RP1=0, select bank1
	movwf	(lcd_display@m)^080h
	line	56
	
l2501:	
;gps location to gsm.c: 56: for(int k=0;m[k]!=0;k++)
	movlw	low(0)
	movwf	(lcd_display@k)^080h
	movlw	high(0)
	movwf	((lcd_display@k)^080h)+1
	goto	l603
	line	57
	
l604:	
	line	58
	
l2503:	
;gps location to gsm.c: 57: {
;gps location to gsm.c: 58: lcd_data(m[k]);
	movf	(lcd_display@k)^080h,w
	addwf	(lcd_display@m)^080h,w
	movwf	fsr0
	fcall	stringdir
	fcall	_lcd_data
	line	56
	
l2505:	
	movlw	low(01h)
	bsf	status, 5	;RP0=1, select bank1
	bcf	status, 6	;RP1=0, select bank1
	addwf	(lcd_display@k)^080h,f
	skipnc
	incf	(lcd_display@k+1)^080h,f
	movlw	high(01h)
	addwf	(lcd_display@k+1)^080h,f
	
l603:	
	
l2507:	
	movf	(lcd_display@k)^080h,w
	addwf	(lcd_display@m)^080h,w
	movwf	fsr0
	fcall	stringdir
	iorlw	0
	skipz
	goto	u2691
	goto	u2690
u2691:
	goto	l604
u2690:
	
l605:	
	line	60
	
l606:	
	return
	opt stack 0
GLOBAL	__end_of_lcd_display
	__end_of_lcd_display:
;; =============== function _lcd_display ends ============

	signat	_lcd_display,4216
	global	_serial
psect	text455,local,class=CODE,delta=2
global __ptext455
__ptext455:

;; *************** function _serial *****************
;; Defined at:
;;		line 246 in file "C:\Users\TECH\Desktop\madhu pic folder\gps&gsm\gps&gsm\gps and gsm\gps location to gsm\gps location to gsm.c"
;; Parameters:    Size  Location     Type
;;  a               1    wreg     PTR const unsigned char 
;;		 -> STR_5(10), STR_4(3), 
;; Auto vars:     Size  Location     Type
;;  a               1    3[BANK0 ] PTR const unsigned char 
;;		 -> STR_5(10), STR_4(3), 
;;  B               1    4[BANK0 ] unsigned char 
;; Return value:  Size  Location     Type
;;		None               void
;; Registers used:
;;		wreg, fsr0l, fsr0h, status,2, status,0, pclath, cstack
;; Tracked objects:
;;		On entry : 0/0
;;		On exit  : 0/0
;;		Unchanged: 0/0
;; Data sizes:     COMMON   BANK0   BANK1   BANK3   BANK2
;;      Params:         0       0       0       0       0
;;      Locals:         0       2       0       0       0
;;      Temps:          0       1       0       0       0
;;      Totals:         0       3       0       0       0
;;Total ram usage:        3 bytes
;; Hardware stack levels used:    1
;; Hardware stack levels required when called:    2
;; This function calls:
;;		_delay
;; This function is called by:
;;		_main
;; This function uses a non-reentrant model
;;
psect	text455
	file	"C:\Users\TECH\Desktop\madhu pic folder\gps&gsm\gps&gsm\gps and gsm\gps location to gsm\gps location to gsm.c"
	line	246
	global	__size_of_serial
	__size_of_serial	equ	__end_of_serial-_serial
	
_serial:	
	opt	stack 7
; Regs used in _serial: [wreg-fsr0h+status,2+status,0+pclath+cstack]
;serial@a stored from wreg
	line	248
	bcf	status, 5	;RP0=0, select bank0
	bcf	status, 6	;RP1=0, select bank0
	movwf	(serial@a)
	
l2491:	
;gps location to gsm.c: 247: unsigned char B;
;gps location to gsm.c: 248: for(B=0;a[B]!=0;B++)
	clrc
	movlw	0
	btfsc	status,0
	movlw	1
	movwf	(serial@B)
	goto	l652
	line	249
	
l653:	
	line	250
	
l2493:	
;gps location to gsm.c: 249: {
;gps location to gsm.c: 250: TXREG=a[B];
	movf	(serial@B),w
	addwf	(serial@a),w
	movwf	fsr0
	fcall	stringdir
	movwf	(25)	;volatile
	line	251
	
l2495:	
;gps location to gsm.c: 251: delay(20000);
	movlw	low(04E20h)
	movwf	(?_delay)
	movlw	high(04E20h)
	movwf	((?_delay))+1
	fcall	_delay
	line	248
	
l2497:	
	movlw	(01h)
	bcf	status, 5	;RP0=0, select bank0
	bcf	status, 6	;RP1=0, select bank0
	movwf	(??_serial+0)+0
	movf	(??_serial+0)+0,w
	addwf	(serial@B),f
	
l652:	
	
l2499:	
	movf	(serial@B),w
	addwf	(serial@a),w
	movwf	fsr0
	fcall	stringdir
	iorlw	0
	skipz
	goto	u2681
	goto	u2680
u2681:
	goto	l653
u2680:
	
l654:	
	line	254
	
l655:	
	return
	opt stack 0
GLOBAL	__end_of_serial
	__end_of_serial:
;; =============== function _serial ends ============

	signat	_serial,4216
	global	_lcd_data
psect	text456,local,class=CODE,delta=2
global __ptext456
__ptext456:

;; *************** function _lcd_data *****************
;; Defined at:
;;		line 39 in file "C:\Users\TECH\Desktop\madhu pic folder\gps&gsm\gps&gsm\gps and gsm\gps location to gsm\gps location to gsm.c"
;; Parameters:    Size  Location     Type
;;  dat             1    wreg     unsigned char 
;; Auto vars:     Size  Location     Type
;;  dat             1    4[BANK0 ] unsigned char 
;; Return value:  Size  Location     Type
;;		None               void
;; Registers used:
;;		wreg, status,2, status,0, btemp+0, pclath, cstack
;; Tracked objects:
;;		On entry : 0/0
;;		On exit  : 0/0
;;		Unchanged: 0/0
;; Data sizes:     COMMON   BANK0   BANK1   BANK3   BANK2
;;      Params:         0       0       0       0       0
;;      Locals:         0       1       0       0       0
;;      Temps:          0       2       0       0       0
;;      Totals:         0       3       0       0       0
;;Total ram usage:        3 bytes
;; Hardware stack levels used:    1
;; Hardware stack levels required when called:    2
;; This function calls:
;;		_delay
;; This function is called by:
;;		_lcd_display
;;		_gps_send
;;		_sms1
;; This function uses a non-reentrant model
;;
psect	text456
	file	"C:\Users\TECH\Desktop\madhu pic folder\gps&gsm\gps&gsm\gps and gsm\gps location to gsm\gps location to gsm.c"
	line	39
	global	__size_of_lcd_data
	__size_of_lcd_data	equ	__end_of_lcd_data-_lcd_data
	
_lcd_data:	
	opt	stack 6
; Regs used in _lcd_data: [wreg+status,2-btemp+0+pclath+cstack]
;lcd_data@dat stored from wreg
	bcf	status, 5	;RP0=0, select bank0
	bcf	status, 6	;RP1=0, select bank0
	movwf	(lcd_data@dat)
	line	40
	
l2465:	
;gps location to gsm.c: 40: PORTD=(dat&0xf0);
	movf	(lcd_data@dat),w
	andlw	0F0h
	movwf	(8)	;volatile
	line	41
	
l2467:	
;gps location to gsm.c: 41: RD1=1;
	bsf	(65/8),(65)&7
	line	42
	
l2469:	
;gps location to gsm.c: 42: RD2=0;
	bcf	(66/8),(66)&7
	line	43
	
l2471:	
;gps location to gsm.c: 43: RD3=1;
	bsf	(67/8),(67)&7
	line	44
	
l2473:	
;gps location to gsm.c: 44: delay(200);
	movlw	low(0C8h)
	movwf	(?_delay)
	movlw	high(0C8h)
	movwf	((?_delay))+1
	fcall	_delay
	line	45
	
l2475:	
;gps location to gsm.c: 45: RD3=0;
	bcf	status, 5	;RP0=0, select bank0
	bcf	status, 6	;RP1=0, select bank0
	bcf	(67/8),(67)&7
	line	46
	
l2477:	
;gps location to gsm.c: 46: temp=dat<<4;
	movf	(lcd_data@dat),w
	movwf	(??_lcd_data+0)+0
	clrf	(??_lcd_data+0)+0+1
	movlw	04h
	movwf	btemp+0
u2675:
	clrc
	rlf	(??_lcd_data+0)+0,f
	rlf	(??_lcd_data+0)+1,f
	decfsz	btemp+0,f
	goto	u2675
	movf	0+(??_lcd_data+0)+0,w
	movwf	(_temp)
	movf	1+(??_lcd_data+0)+0,w
	movwf	(_temp+1)
	line	47
	
l2479:	
;gps location to gsm.c: 47: PORTD=(temp&0xf0);
	movf	(_temp),w
	andlw	0F0h
	movwf	(8)	;volatile
	line	48
	
l2481:	
;gps location to gsm.c: 48: RD1=1;
	bsf	(65/8),(65)&7
	line	49
	
l2483:	
;gps location to gsm.c: 49: RD2=0;
	bcf	(66/8),(66)&7
	line	50
	
l2485:	
;gps location to gsm.c: 50: RD3=1;
	bsf	(67/8),(67)&7
	line	51
	
l2487:	
;gps location to gsm.c: 51: delay(200);
	movlw	low(0C8h)
	movwf	(?_delay)
	movlw	high(0C8h)
	movwf	((?_delay))+1
	fcall	_delay
	line	52
	
l2489:	
;gps location to gsm.c: 52: RD3=0;
	bcf	status, 5	;RP0=0, select bank0
	bcf	status, 6	;RP1=0, select bank0
	bcf	(67/8),(67)&7
	line	53
	
l600:	
	return
	opt stack 0
GLOBAL	__end_of_lcd_data
	__end_of_lcd_data:
;; =============== function _lcd_data ends ============

	signat	_lcd_data,4216
	global	_lcd_cmd
psect	text457,local,class=CODE,delta=2
global __ptext457
__ptext457:

;; *************** function _lcd_cmd *****************
;; Defined at:
;;		line 23 in file "C:\Users\TECH\Desktop\madhu pic folder\gps&gsm\gps&gsm\gps and gsm\gps location to gsm\gps location to gsm.c"
;; Parameters:    Size  Location     Type
;;  com             1    wreg     unsigned char 
;; Auto vars:     Size  Location     Type
;;  com             1    4[BANK0 ] unsigned char 
;; Return value:  Size  Location     Type
;;		None               void
;; Registers used:
;;		wreg, status,2, status,0, btemp+0, pclath, cstack
;; Tracked objects:
;;		On entry : 0/0
;;		On exit  : 0/0
;;		Unchanged: 0/0
;; Data sizes:     COMMON   BANK0   BANK1   BANK3   BANK2
;;      Params:         0       0       0       0       0
;;      Locals:         0       1       0       0       0
;;      Temps:          0       2       0       0       0
;;      Totals:         0       3       0       0       0
;;Total ram usage:        3 bytes
;; Hardware stack levels used:    1
;; Hardware stack levels required when called:    2
;; This function calls:
;;		_delay
;; This function is called by:
;;		_lcd_init
;;		_gps_send
;;		_sms1
;;		_main
;; This function uses a non-reentrant model
;;
psect	text457
	file	"C:\Users\TECH\Desktop\madhu pic folder\gps&gsm\gps&gsm\gps and gsm\gps location to gsm\gps location to gsm.c"
	line	23
	global	__size_of_lcd_cmd
	__size_of_lcd_cmd	equ	__end_of_lcd_cmd-_lcd_cmd
	
_lcd_cmd:	
	opt	stack 6
; Regs used in _lcd_cmd: [wreg+status,2-btemp+0+pclath+cstack]
;lcd_cmd@com stored from wreg
	bcf	status, 5	;RP0=0, select bank0
	bcf	status, 6	;RP1=0, select bank0
	movwf	(lcd_cmd@com)
	line	24
	
l2439:	
;gps location to gsm.c: 24: PORTD=(com&0xf0);
	movf	(lcd_cmd@com),w
	andlw	0F0h
	movwf	(8)	;volatile
	line	25
	
l2441:	
;gps location to gsm.c: 25: RD1=0;
	bcf	(65/8),(65)&7
	line	26
	
l2443:	
;gps location to gsm.c: 26: RD2=0;
	bcf	(66/8),(66)&7
	line	27
	
l2445:	
;gps location to gsm.c: 27: RD3=1;
	bsf	(67/8),(67)&7
	line	28
	
l2447:	
;gps location to gsm.c: 28: delay(200);
	movlw	low(0C8h)
	movwf	(?_delay)
	movlw	high(0C8h)
	movwf	((?_delay))+1
	fcall	_delay
	line	29
	
l2449:	
;gps location to gsm.c: 29: RD3=0;
	bcf	status, 5	;RP0=0, select bank0
	bcf	status, 6	;RP1=0, select bank0
	bcf	(67/8),(67)&7
	line	30
	
l2451:	
;gps location to gsm.c: 30: temp=com<<4;
	movf	(lcd_cmd@com),w
	movwf	(??_lcd_cmd+0)+0
	clrf	(??_lcd_cmd+0)+0+1
	movlw	04h
	movwf	btemp+0
u2665:
	clrc
	rlf	(??_lcd_cmd+0)+0,f
	rlf	(??_lcd_cmd+0)+1,f
	decfsz	btemp+0,f
	goto	u2665
	movf	0+(??_lcd_cmd+0)+0,w
	movwf	(_temp)
	movf	1+(??_lcd_cmd+0)+0,w
	movwf	(_temp+1)
	line	31
	
l2453:	
;gps location to gsm.c: 31: PORTD=(temp&0xf0);
	movf	(_temp),w
	andlw	0F0h
	movwf	(8)	;volatile
	line	32
	
l2455:	
;gps location to gsm.c: 32: RD1=0;
	bcf	(65/8),(65)&7
	line	33
	
l2457:	
;gps location to gsm.c: 33: RD2=0;
	bcf	(66/8),(66)&7
	line	34
	
l2459:	
;gps location to gsm.c: 34: RD3=1;
	bsf	(67/8),(67)&7
	line	35
	
l2461:	
;gps location to gsm.c: 35: delay(200);
	movlw	low(0C8h)
	movwf	(?_delay)
	movlw	high(0C8h)
	movwf	((?_delay))+1
	fcall	_delay
	line	36
	
l2463:	
;gps location to gsm.c: 36: RD3=0;
	bcf	status, 5	;RP0=0, select bank0
	bcf	status, 6	;RP1=0, select bank0
	bcf	(67/8),(67)&7
	line	37
	
l597:	
	return
	opt stack 0
GLOBAL	__end_of_lcd_cmd
	__end_of_lcd_cmd:
;; =============== function _lcd_cmd ends ============

	signat	_lcd_cmd,4216
	global	_txs
psect	text458,local,class=CODE,delta=2
global __ptext458
__ptext458:

;; *************** function _txs *****************
;; Defined at:
;;		line 177 in file "C:\Users\TECH\Desktop\madhu pic folder\gps&gsm\gps&gsm\gps and gsm\gps location to gsm\gps location to gsm.c"
;; Parameters:    Size  Location     Type
;;  val             1    wreg     unsigned char 
;; Auto vars:     Size  Location     Type
;;  val             1    0[BANK0 ] unsigned char 
;; Return value:  Size  Location     Type
;;		None               void
;; Registers used:
;;		wreg
;; Tracked objects:
;;		On entry : 0/0
;;		On exit  : 0/0
;;		Unchanged: 0/0
;; Data sizes:     COMMON   BANK0   BANK1   BANK3   BANK2
;;      Params:         0       0       0       0       0
;;      Locals:         0       1       0       0       0
;;      Temps:          0       0       0       0       0
;;      Totals:         0       1       0       0       0
;;Total ram usage:        1 bytes
;; Hardware stack levels used:    1
;; Hardware stack levels required when called:    1
;; This function calls:
;;		Nothing
;; This function is called by:
;;		_sms1
;;		_main
;; This function uses a non-reentrant model
;;
psect	text458
	file	"C:\Users\TECH\Desktop\madhu pic folder\gps&gsm\gps&gsm\gps and gsm\gps location to gsm\gps location to gsm.c"
	line	177
	global	__size_of_txs
	__size_of_txs	equ	__end_of_txs-_txs
	
_txs:	
	opt	stack 6
; Regs used in _txs: [wreg]
;txs@val stored from wreg
	bcf	status, 5	;RP0=0, select bank0
	bcf	status, 6	;RP1=0, select bank0
	movwf	(txs@val)
	line	178
	
l2435:	
;gps location to gsm.c: 178: while(!TXIF)
	goto	l638
	
l639:	
	line	180
;gps location to gsm.c: 179: {
	
l638:	
	line	178
	btfss	(100/8),(100)&7
	goto	u2651
	goto	u2650
u2651:
	goto	l639
u2650:
	
l640:	
	line	181
;gps location to gsm.c: 180: }
;gps location to gsm.c: 181: OERR=0;
	bcf	(193/8),(193)&7
	line	182
	
l2437:	
;gps location to gsm.c: 182: TXREG=val;
	movf	(txs@val),w
	movwf	(25)	;volatile
	line	183
	
l641:	
	return
	opt stack 0
GLOBAL	__end_of_txs
	__end_of_txs:
;; =============== function _txs ends ============

	signat	_txs,4216
	global	_gsm_command
psect	text459,local,class=CODE,delta=2
global __ptext459
__ptext459:

;; *************** function _gsm_command *****************
;; Defined at:
;;		line 164 in file "C:\Users\TECH\Desktop\madhu pic folder\gps&gsm\gps&gsm\gps and gsm\gps location to gsm\gps location to gsm.c"
;; Parameters:    Size  Location     Type
;;  da              1    wreg     PTR const unsigned char 
;;		 -> STR_2(13), 
;; Auto vars:     Size  Location     Type
;;  da              1    0[BANK0 ] PTR const unsigned char 
;;		 -> STR_2(13), 
;;  s               2    1[BANK0 ] unsigned int 
;; Return value:  Size  Location     Type
;;		None               void
;; Registers used:
;;		wreg, fsr0l, fsr0h, status,2, status,0, pclath
;; Tracked objects:
;;		On entry : 0/0
;;		On exit  : 0/0
;;		Unchanged: 0/0
;; Data sizes:     COMMON   BANK0   BANK1   BANK3   BANK2
;;      Params:         0       0       0       0       0
;;      Locals:         0       3       0       0       0
;;      Temps:          0       0       0       0       0
;;      Totals:         0       3       0       0       0
;;Total ram usage:        3 bytes
;; Hardware stack levels used:    2
;; Hardware stack levels required when called:    1
;; This function calls:
;;		Nothing
;; This function is called by:
;;		_sms1
;; This function uses a non-reentrant model
;;
psect	text459
	file	"C:\Users\TECH\Desktop\madhu pic folder\gps&gsm\gps&gsm\gps and gsm\gps location to gsm\gps location to gsm.c"
	line	164
	global	__size_of_gsm_command
	__size_of_gsm_command	equ	__end_of_gsm_command-_gsm_command
	
_gsm_command:	
	opt	stack 5
; Regs used in _gsm_command: [wreg-fsr0h+status,2+status,0+pclath]
;gsm_command@da stored from wreg
	line	166
	bcf	status, 5	;RP0=0, select bank0
	bcf	status, 6	;RP1=0, select bank0
	movwf	(gsm_command@da)
	
l2427:	
;gps location to gsm.c: 165: unsigned int s;
;gps location to gsm.c: 166: for(s=0;da[s]!=0;s++)
	movlw	low(0)
	movwf	(gsm_command@s)
	movlw	high(0)
	movwf	((gsm_command@s))+1
	goto	l629
	line	167
	
l630:	
	line	168
;gps location to gsm.c: 167: {
;gps location to gsm.c: 168: while(!TXIF)
	goto	l631
	
l632:	
	line	170
;gps location to gsm.c: 169: {
	
l631:	
	line	168
	btfss	(100/8),(100)&7
	goto	u2631
	goto	u2630
u2631:
	goto	l632
u2630:
	
l633:	
	line	171
;gps location to gsm.c: 170: }
;gps location to gsm.c: 171: OERR=0;
	bcf	(193/8),(193)&7
	line	172
	
l2429:	
;gps location to gsm.c: 172: TXREG=da[s];
	movf	(gsm_command@s),w
	addwf	(gsm_command@da),w
	movwf	fsr0
	fcall	stringdir
	movwf	(25)	;volatile
	line	166
	
l2431:	
	movlw	low(01h)
	addwf	(gsm_command@s),f
	skipnc
	incf	(gsm_command@s+1),f
	movlw	high(01h)
	addwf	(gsm_command@s+1),f
	
l629:	
	
l2433:	
	movf	(gsm_command@s),w
	addwf	(gsm_command@da),w
	movwf	fsr0
	fcall	stringdir
	iorlw	0
	skipz
	goto	u2641
	goto	u2640
u2641:
	goto	l630
u2640:
	
l634:	
	line	174
	
l635:	
	return
	opt stack 0
GLOBAL	__end_of_gsm_command
	__end_of_gsm_command:
;; =============== function _gsm_command ends ============

	signat	_gsm_command,4216
	global	_gps_init
psect	text460,local,class=CODE,delta=2
global __ptext460
__ptext460:

;; *************** function _gps_init *****************
;; Defined at:
;;		line 72 in file "C:\Users\TECH\Desktop\madhu pic folder\gps&gsm\gps&gsm\gps and gsm\gps location to gsm\gps location to gsm.c"
;; Parameters:    Size  Location     Type
;;		None
;; Auto vars:     Size  Location     Type
;;		None
;; Return value:  Size  Location     Type
;;		None               void
;; Registers used:
;;		wreg
;; Tracked objects:
;;		On entry : 0/0
;;		On exit  : 0/0
;;		Unchanged: 0/0
;; Data sizes:     COMMON   BANK0   BANK1   BANK3   BANK2
;;      Params:         0       0       0       0       0
;;      Locals:         0       0       0       0       0
;;      Temps:          0       0       0       0       0
;;      Totals:         0       0       0       0       0
;;Total ram usage:        0 bytes
;; Hardware stack levels used:    1
;; Hardware stack levels required when called:    1
;; This function calls:
;;		Nothing
;; This function is called by:
;;		_main
;; This function uses a non-reentrant model
;;
psect	text460
	file	"C:\Users\TECH\Desktop\madhu pic folder\gps&gsm\gps&gsm\gps and gsm\gps location to gsm\gps location to gsm.c"
	line	72
	global	__size_of_gps_init
	__size_of_gps_init	equ	__end_of_gps_init-_gps_init
	
_gps_init:	
	opt	stack 7
; Regs used in _gps_init: [wreg]
	line	73
	
l1039:	
;gps location to gsm.c: 73: TXSTA=0X24;
	movlw	(024h)
	bsf	status, 5	;RP0=1, select bank1
	bcf	status, 6	;RP1=0, select bank1
	movwf	(152)^080h	;volatile
	line	74
;gps location to gsm.c: 74: RCSTA=0X90;
	movlw	(090h)
	bcf	status, 5	;RP0=0, select bank0
	bcf	status, 6	;RP1=0, select bank0
	movwf	(24)	;volatile
	line	75
;gps location to gsm.c: 75: SPBRG=25;
	movlw	(019h)
	bsf	status, 5	;RP0=1, select bank1
	bcf	status, 6	;RP1=0, select bank1
	movwf	(153)^080h	;volatile
	line	76
	
l1041:	
;gps location to gsm.c: 76: BRGH=1;
	bsf	(1218/8)^080h,(1218)&7
	line	77
	
l1043:	
;gps location to gsm.c: 77: GIE=1;
	bsf	(95/8),(95)&7
	line	78
	
l1045:	
;gps location to gsm.c: 78: PEIE=1;
	bsf	(94/8),(94)&7
	line	79
	
l1047:	
;gps location to gsm.c: 79: RCIE=1;
	bsf	(1125/8)^080h,(1125)&7
	line	81
	
l612:	
	return
	opt stack 0
GLOBAL	__end_of_gps_init
	__end_of_gps_init:
;; =============== function _gps_init ends ============

	signat	_gps_init,88
	global	_delay
psect	text461,local,class=CODE,delta=2
global __ptext461
__ptext461:

;; *************** function _delay *****************
;; Defined at:
;;		line 19 in file "C:\Users\TECH\Desktop\madhu pic folder\gps&gsm\gps&gsm\gps and gsm\gps location to gsm\gps location to gsm.c"
;; Parameters:    Size  Location     Type
;;  a               2    0[BANK0 ] unsigned int 
;; Auto vars:     Size  Location     Type
;;		None
;; Return value:  Size  Location     Type
;;		None               void
;; Registers used:
;;		wreg
;; Tracked objects:
;;		On entry : 0/0
;;		On exit  : 0/0
;;		Unchanged: 0/0
;; Data sizes:     COMMON   BANK0   BANK1   BANK3   BANK2
;;      Params:         0       2       0       0       0
;;      Locals:         0       0       0       0       0
;;      Temps:          0       0       0       0       0
;;      Totals:         0       2       0       0       0
;;Total ram usage:        2 bytes
;; Hardware stack levels used:    1
;; Hardware stack levels required when called:    1
;; This function calls:
;;		Nothing
;; This function is called by:
;;		_lcd_cmd
;;		_lcd_data
;;		_gps_send
;;		_sms1
;;		_serial
;;		_main
;; This function uses a non-reentrant model
;;
psect	text461
	file	"C:\Users\TECH\Desktop\madhu pic folder\gps&gsm\gps&gsm\gps and gsm\gps location to gsm\gps location to gsm.c"
	line	19
	global	__size_of_delay
	__size_of_delay	equ	__end_of_delay-_delay
	
_delay:	
	opt	stack 5
; Regs used in _delay: [wreg]
	line	20
	
l2423:	
;gps location to gsm.c: 20: while(a--);
	goto	l591
	
l592:	
	
l591:	
	
l2425:	
	movlw	low(01h)
	bcf	status, 5	;RP0=0, select bank0
	bcf	status, 6	;RP1=0, select bank0
	subwf	(delay@a),f
	movlw	high(01h)
	skipc
	decf	(delay@a+1),f
	subwf	(delay@a+1),f
	movlw	high(0FFFFh)
	xorwf	((delay@a+1)),w
	skipz
	goto	u2625
	movlw	low(0FFFFh)
	xorwf	((delay@a)),w
u2625:

	skipz
	goto	u2621
	goto	u2620
u2621:
	goto	l592
u2620:
	
l593:	
	line	21
	
l594:	
	return
	opt stack 0
GLOBAL	__end_of_delay
	__end_of_delay:
;; =============== function _delay ends ============

	signat	_delay,4216
	global	_rcx
psect	text462,local,class=CODE,delta=2
global __ptext462
__ptext462:

;; *************** function _rcx *****************
;; Defined at:
;;		line 84 in file "C:\Users\TECH\Desktop\madhu pic folder\gps&gsm\gps&gsm\gps and gsm\gps location to gsm\gps location to gsm.c"
;; Parameters:    Size  Location     Type
;;		None
;; Auto vars:     Size  Location     Type
;;		None
;; Return value:  Size  Location     Type
;;		None               void
;; Registers used:
;;		wreg, fsr0l, fsr0h, status,2, status,0
;; Tracked objects:
;;		On entry : 0/0
;;		On exit  : 0/0
;;		Unchanged: 0/0
;; Data sizes:     COMMON   BANK0   BANK1   BANK3   BANK2
;;      Params:         0       0       0       0       0
;;      Locals:         0       0       0       0       0
;;      Temps:          5       0       0       0       0
;;      Totals:         5       0       0       0       0
;;Total ram usage:        5 bytes
;; Hardware stack levels used:    1
;; This function calls:
;;		Nothing
;; This function is called by:
;;		Interrupt level 1
;; This function uses a non-reentrant model
;;
psect	text462
	file	"C:\Users\TECH\Desktop\madhu pic folder\gps&gsm\gps&gsm\gps and gsm\gps location to gsm\gps location to gsm.c"
	line	84
	global	__size_of_rcx
	__size_of_rcx	equ	__end_of_rcx-_rcx
	
_rcx:	
	opt	stack 3
; Regs used in _rcx: [wreg-fsr0h+status,2+status,0]
psect	intentry,class=CODE,delta=2
global __pintentry
__pintentry:
global interrupt_function
interrupt_function:
	global saved_w
	saved_w	set	btemp+0
	movwf	saved_w
	movf	status,w
	movwf	(??_rcx+1)
	movf	fsr0,w
	movwf	(??_rcx+2)
	movf	pclath,w
	movwf	(??_rcx+3)
	movf	btemp+1,w
	movwf	(??_rcx+4)
	ljmp	_rcx
psect	text462
	line	86
	
i1l2131:	
;gps location to gsm.c: 86: if(RCIF==1)
	bcf	status, 5	;RP0=0, select bank0
	bcf	status, 6	;RP1=0, select bank0
	btfss	(101/8),(101)&7
	goto	u239_21
	goto	u239_20
u239_21:
	goto	i1l615
u239_20:
	line	89
	
i1l2133:	
;gps location to gsm.c: 87: {
;gps location to gsm.c: 89: RCIF=0;
	bcf	(101/8),(101)&7
	line	90
	
i1l2135:	
;gps location to gsm.c: 90: ser=RCREG;
	movf	(26),w	;volatile
	movwf	(??_rcx+0)+0
	movf	(??_rcx+0)+0,w
	movwf	(_ser)
	line	92
;gps location to gsm.c: 92: if((ser==0x52)&&(st==0x01))
	movf	(_ser),w
	xorlw	052h
	skipz
	goto	u240_21
	goto	u240_20
u240_21:
	goto	i1l616
u240_20:
	
i1l2137:	
	movf	(_st),w
	xorlw	01h
	skipz
	goto	u241_21
	goto	u241_20
u241_21:
	goto	i1l616
u241_20:
	line	94
	
i1l2139:	
;gps location to gsm.c: 93: {
;gps location to gsm.c: 94: data_cap=0x01;
	clrf	(_data_cap)
	bsf	status,0
	rlf	(_data_cap),f
	line	95
	
i1l2141:	
;gps location to gsm.c: 95: st=0x00;
	clrc
	movlw	0
	btfsc	status,0
	movlw	1
	movwf	(_st)
	line	96
	
i1l616:	
	line	97
;gps location to gsm.c: 96: }
;gps location to gsm.c: 97: if((data_cap==0x01)&&(i<45))
	movf	(_data_cap),w
	xorlw	01h
	skipz
	goto	u242_21
	goto	u242_20
u242_21:
	goto	i1l617
u242_20:
	
i1l2143:	
	movlw	high(02Dh)
	subwf	(_i+1),w
	movlw	low(02Dh)
	skipnz
	subwf	(_i),w
	skipnc
	goto	u243_21
	goto	u243_20
u243_21:
	goto	i1l617
u243_20:
	line	99
	
i1l2145:	
;gps location to gsm.c: 98: {
;gps location to gsm.c: 99: gpsdata[i]=ser;
	movf	(_ser),w
	movwf	(??_rcx+0)+0
	movf	(_i),w
	addlw	_gpsdata&0ffh
	movwf	fsr0
	movf	(??_rcx+0)+0,w
	bcf	status, 7	;select IRP bank0
	movwf	indf
	line	100
	
i1l2147:	
;gps location to gsm.c: 100: i=i+1;
	movf	(_i),w
	addlw	low(01h)
	movwf	(_i)
	movf	(_i+1),w
	skipnc
	addlw	1
	addlw	high(01h)
	movwf	1+(_i)
	line	101
	
i1l617:	
	line	102
	
i1l615:	
	line	103
	
i1l618:	
	movf	(??_rcx+4),w
	movwf	btemp+1
	movf	(??_rcx+3),w
	movwf	pclath
	movf	(??_rcx+2),w
	movwf	fsr0
	movf	(??_rcx+1),w
	movwf	status
	swapf	saved_w,f
	swapf	saved_w,w
	retfie
	opt stack 0
GLOBAL	__end_of_rcx
	__end_of_rcx:
;; =============== function _rcx ends ============

	signat	_rcx,88
psect	text463,local,class=CODE,delta=2
global __ptext463
__ptext463:
	global	btemp
	btemp set 07Eh

	DABS	1,126,2	;btemp
	global	wtemp0
	wtemp0 set btemp
	end
