opt subtitle "HI-TECH Software Omniscient Code Generator (Lite mode) build 6446"

opt pagewidth 120

	opt lm

	processor	16F877A
clrc	macro
	bcf	3,0
	endm
clrz	macro
	bcf	3,2
	endm
setc	macro
	bsf	3,0
	endm
setz	macro
	bsf	3,2
	endm
skipc	macro
	btfss	3,0
	endm
skipz	macro
	btfss	3,2
	endm
skipnc	macro
	btfsc	3,0
	endm
skipnz	macro
	btfsc	3,2
	endm
indf	equ	0
indf0	equ	0
pc	equ	2
pcl	equ	2
status	equ	3
fsr	equ	4
fsr0	equ	4
c	equ	1
z	equ	0
pclath	equ	10
	FNCALL	_main,_delay
	FNROOT	_main
	global	_PORTB
psect	text60,local,class=CODE,delta=2
global __ptext60
__ptext60:
_PORTB	set	6
	global	_TMR0
_TMR0	set	1
	global	_T0IF
_T0IF	set	90
	global	_TRISB
_TRISB	set	134
	global	_PS0
_PS0	set	1032
	global	_PS1
_PS1	set	1033
	global	_PS2
_PS2	set	1034
	global	_PSA
_PSA	set	1035
	global	_T0CS
_T0CS	set	1037
	global	_T0SE
_T0SE	set	1036
	file	"timer test.as"
	line	#
psect cinit,class=CODE,delta=2
global start_initialization
start_initialization:

psect cinit,class=CODE,delta=2
global end_of_initialization

;End of C runtime variable initialization code

end_of_initialization:
clrf status
ljmp _main	;jump to C main() function
psect	cstackCOMMON,class=COMMON,space=1
global __pcstackCOMMON
__pcstackCOMMON:
	global	?_delay
?_delay:	; 0 bytes @ 0x0
	global	??_delay
??_delay:	; 0 bytes @ 0x0
	global	?_main
?_main:	; 0 bytes @ 0x0
	global	??_main
??_main:	; 0 bytes @ 0x0
;;Data sizes: Strings 0, constant 0, data 0, bss 0, persistent 0 stack 0
;;Auto spaces:   Size  Autos    Used
;; COMMON          14      0       0
;; BANK0           80      0       0
;; BANK1           80      0       0
;; BANK3           96      0       0
;; BANK2           96      0       0

;;
;; Pointer list with targets:



;;
;; Critical Paths under _main in COMMON
;;
;;   None.
;;
;; Critical Paths under _main in BANK0
;;
;;   None.
;;
;; Critical Paths under _main in BANK1
;;
;;   None.
;;
;; Critical Paths under _main in BANK3
;;
;;   None.
;;
;; Critical Paths under _main in BANK2
;;
;;   None.

;;
;;Main: autosize = 0, tempsize = 0, incstack = 0, save=0
;;

;;
;;Call Graph Tables:
;;
;; ---------------------------------------------------------------------------------
;; (Depth) Function   	        Calls       Base Space   Used Autos Params    Refs
;; ---------------------------------------------------------------------------------
;; (0) _main                                                 0     0      0       0
;;                              _delay
;; ---------------------------------------------------------------------------------
;; (1) _delay                                                0     0      0       0
;; ---------------------------------------------------------------------------------
;; Estimated maximum stack depth 1
;; ---------------------------------------------------------------------------------

;; Call Graph Graphs:

;; _main (ROOT)
;;   _delay
;;

;; Address spaces:

;;Name               Size   Autos  Total    Cost      Usage
;;BITCOMMON            E      0       0       0        0.0%
;;EEDATA             100      0       0       0        0.0%
;;NULL                 0      0       0       0        0.0%
;;CODE                 0      0       0       0        0.0%
;;COMMON               E      0       0       1        0.0%
;;BITSFR0              0      0       0       1        0.0%
;;SFR0                 0      0       0       1        0.0%
;;BITSFR1              0      0       0       2        0.0%
;;SFR1                 0      0       0       2        0.0%
;;STACK                0      0       1       2        0.0%
;;ABS                  0      0       0       3        0.0%
;;BITBANK0            50      0       0       4        0.0%
;;BITSFR3              0      0       0       4        0.0%
;;SFR3                 0      0       0       4        0.0%
;;BANK0               50      0       0       5        0.0%
;;BITSFR2              0      0       0       5        0.0%
;;SFR2                 0      0       0       5        0.0%
;;BITBANK1            50      0       0       6        0.0%
;;BANK1               50      0       0       7        0.0%
;;BITBANK3            60      0       0       8        0.0%
;;BANK3               60      0       0       9        0.0%
;;BITBANK2            60      0       0      10        0.0%
;;BANK2               60      0       0      11        0.0%
;;DATA                 0      0       0      12        0.0%

	global	_main
psect	maintext,global,class=CODE,delta=2
global __pmaintext
__pmaintext:

;; *************** function _main *****************
;; Defined at:
;;		line 16 in file "C:\Users\TECH\Desktop\madhu pic folder\timer\timer test\timer test.c"
;; Parameters:    Size  Location     Type
;;		None
;; Auto vars:     Size  Location     Type
;;		None
;; Return value:  Size  Location     Type
;;		None               void
;; Registers used:
;;		wreg, status,2, status,0, pclath, cstack
;; Tracked objects:
;;		On entry : 17F/0
;;		On exit  : 0/0
;;		Unchanged: 0/0
;; Data sizes:     COMMON   BANK0   BANK1   BANK3   BANK2
;;      Params:         0       0       0       0       0
;;      Locals:         0       0       0       0       0
;;      Temps:          0       0       0       0       0
;;      Totals:         0       0       0       0       0
;;Total ram usage:        0 bytes
;; Hardware stack levels required when called:    1
;; This function calls:
;;		_delay
;; This function is called by:
;;		Startup code after reset
;; This function uses a non-reentrant model
;;
psect	maintext
	file	"C:\Users\TECH\Desktop\madhu pic folder\timer\timer test\timer test.c"
	line	16
	global	__size_of_main
	__size_of_main	equ	__end_of_main-_main
	
_main:	
	opt	stack 8
; Regs used in _main: [wreg+status,2+status,0+pclath+cstack]
	line	17
	
l1729:	
;timer test.c: 17: TRISB=0X00;
	bsf	status, 5	;RP0=1, select bank1
	bcf	status, 6	;RP1=0, select bank1
	clrf	(134)^080h	;volatile
	line	18
;timer test.c: 18: PORTB=0X00;
	bcf	status, 5	;RP0=0, select bank0
	bcf	status, 6	;RP1=0, select bank0
	clrf	(6)	;volatile
	line	19
;timer test.c: 19: while(1)
	
l565:	
	line	21
	
l1731:	
;timer test.c: 20: {
;timer test.c: 21: PORTB=0X01;
	movlw	(01h)
	movwf	(6)	;volatile
	line	22
	
l1733:	
;timer test.c: 22: delay();
	fcall	_delay
	line	23
	
l1735:	
;timer test.c: 23: PORTB=0X00;
	bcf	status, 5	;RP0=0, select bank0
	bcf	status, 6	;RP1=0, select bank0
	clrf	(6)	;volatile
	line	24
	
l1737:	
;timer test.c: 24: delay();
	fcall	_delay
	line	25
	
l566:	
	line	19
	goto	l565
	
l567:	
	line	26
	
l568:	
	global	start
	ljmp	start
	opt stack 0
GLOBAL	__end_of_main
	__end_of_main:
;; =============== function _main ends ============

	signat	_main,88
	global	_delay
psect	text61,local,class=CODE,delta=2
global __ptext61
__ptext61:

;; *************** function _delay *****************
;; Defined at:
;;		line 3 in file "C:\Users\TECH\Desktop\madhu pic folder\timer\timer test\timer test.c"
;; Parameters:    Size  Location     Type
;;		None
;; Auto vars:     Size  Location     Type
;;		None
;; Return value:  Size  Location     Type
;;		None               void
;; Registers used:
;;		wreg, status,2
;; Tracked objects:
;;		On entry : 0/0
;;		On exit  : 0/0
;;		Unchanged: 0/0
;; Data sizes:     COMMON   BANK0   BANK1   BANK3   BANK2
;;      Params:         0       0       0       0       0
;;      Locals:         0       0       0       0       0
;;      Temps:          0       0       0       0       0
;;      Totals:         0       0       0       0       0
;;Total ram usage:        0 bytes
;; Hardware stack levels used:    1
;; This function calls:
;;		Nothing
;; This function is called by:
;;		_main
;; This function uses a non-reentrant model
;;
psect	text61
	file	"C:\Users\TECH\Desktop\madhu pic folder\timer\timer test\timer test.c"
	line	3
	global	__size_of_delay
	__size_of_delay	equ	__end_of_delay-_delay
	
_delay:	
	opt	stack 7
; Regs used in _delay: [wreg+status,2]
	line	4
	
l937:	
;timer test.c: 4: T0CS=0;
	bsf	status, 5	;RP0=1, select bank1
	bcf	status, 6	;RP1=0, select bank1
	bcf	(1037/8)^080h,(1037)&7
	line	5
;timer test.c: 5: T0SE=0;
	bcf	(1036/8)^080h,(1036)&7
	line	6
;timer test.c: 6: PSA=0;
	bcf	(1035/8)^080h,(1035)&7
	line	7
;timer test.c: 7: PS0=1;
	bsf	(1032/8)^080h,(1032)&7
	line	8
;timer test.c: 8: PS1=1;
	bsf	(1033/8)^080h,(1033)&7
	line	9
;timer test.c: 9: PS2=1;
	bsf	(1034/8)^080h,(1034)&7
	line	10
	
l939:	
;timer test.c: 10: TMR0=60;
	movlw	(03Ch)
	bcf	status, 5	;RP0=0, select bank0
	bcf	status, 6	;RP1=0, select bank0
	movwf	(1)	;volatile
	line	11
;timer test.c: 11: while(T0IF==0);
	goto	l559
	
l560:	
	
l559:	
	btfss	(90/8),(90)&7
	goto	u11
	goto	u10
u11:
	goto	l560
u10:
	
l561:	
	line	12
;timer test.c: 12: T0IF=0;
	bcf	(90/8),(90)&7
	line	13
	
l941:	
;timer test.c: 13: TMR0=0;
	clrf	(1)	;volatile
	line	14
	
l562:	
	return
	opt stack 0
GLOBAL	__end_of_delay
	__end_of_delay:
;; =============== function _delay ends ============

	signat	_delay,88
psect	text62,local,class=CODE,delta=2
global __ptext62
__ptext62:
	global	btemp
	btemp set 07Eh

	DABS	1,126,2	;btemp
	global	wtemp0
	wtemp0 set btemp
	end
