opt subtitle "HI-TECH Software Omniscient Code Generator (Lite mode) build 6446"

opt pagewidth 120

	opt lm

	processor	16F877A
clrc	macro
	bcf	3,0
	endm
clrz	macro
	bcf	3,2
	endm
setc	macro
	bsf	3,0
	endm
setz	macro
	bsf	3,2
	endm
skipc	macro
	btfss	3,0
	endm
skipz	macro
	btfss	3,2
	endm
skipnc	macro
	btfsc	3,0
	endm
skipnz	macro
	btfsc	3,2
	endm
indf	equ	0
indf0	equ	0
pc	equ	2
pcl	equ	2
status	equ	3
fsr	equ	4
fsr0	equ	4
c	equ	1
z	equ	0
pclath	equ	10
# 2 "E:\Madhu\madhu pic folder\pic task\lcd dispaly\lcd data w\lcd data w.c"
	psect config,class=CONFIG,delta=2 ;#
# 2 "E:\Madhu\madhu pic folder\pic task\lcd dispaly\lcd data w\lcd data w.c"
	dw 0X3F72 ;#
	FNCALL	_main,_lcd_init
	FNCALL	_main,_delay
	FNCALL	_main,_lcd_command
	FNCALL	_main,_lcd_data
	FNCALL	_lcd_init,_lcd_command
	FNCALL	_lcd_data,_delay
	FNCALL	_lcd_command,_delay
	FNROOT	_main
	global	_PORTC
psect	text84,local,class=CODE,delta=2
global __ptext84
__ptext84:
_PORTC	set	7
	global	_PORTD
_PORTD	set	8
	global	_RC0
_RC0	set	56
	global	_RC1
_RC1	set	57
	global	_RC2
_RC2	set	58
	global	_TRISC
_TRISC	set	135
	global	_TRISD
_TRISD	set	136
	file	"lcd data w.as"
	line	#
psect cinit,class=CODE,delta=2
global start_initialization
start_initialization:

psect cinit,class=CODE,delta=2
global end_of_initialization

;End of C runtime variable initialization code

end_of_initialization:
clrf status
ljmp _main	;jump to C main() function
psect	cstackCOMMON,class=COMMON,space=1
global __pcstackCOMMON
__pcstackCOMMON:
	global	?_delay
?_delay:	; 0 bytes @ 0x0
	global	?_lcd_command
?_lcd_command:	; 0 bytes @ 0x0
	global	?_lcd_init
?_lcd_init:	; 0 bytes @ 0x0
	global	?_lcd_data
?_lcd_data:	; 0 bytes @ 0x0
	global	?_main
?_main:	; 0 bytes @ 0x0
	global	delay@x
delay@x:	; 2 bytes @ 0x0
	ds	2
	global	??_delay
??_delay:	; 0 bytes @ 0x2
	global	??_lcd_command
??_lcd_command:	; 0 bytes @ 0x2
	global	??_lcd_data
??_lcd_data:	; 0 bytes @ 0x2
	global	lcd_command@com
lcd_command@com:	; 1 bytes @ 0x2
	global	lcd_data@data
lcd_data@data:	; 1 bytes @ 0x2
	ds	1
	global	??_lcd_init
??_lcd_init:	; 0 bytes @ 0x3
	global	??_main
??_main:	; 0 bytes @ 0x3
;;Data sizes: Strings 0, constant 0, data 0, bss 0, persistent 0 stack 0
;;Auto spaces:   Size  Autos    Used
;; COMMON          14      3       3
;; BANK0           80      0       0
;; BANK1           80      0       0
;; BANK3           96      0       0
;; BANK2           96      0       0

;;
;; Pointer list with targets:



;;
;; Critical Paths under _main in COMMON
;;
;;   _main->_lcd_command
;;   _main->_lcd_data
;;   _lcd_init->_lcd_command
;;   _lcd_data->_delay
;;   _lcd_command->_delay
;;
;; Critical Paths under _main in BANK0
;;
;;   None.
;;
;; Critical Paths under _main in BANK1
;;
;;   None.
;;
;; Critical Paths under _main in BANK3
;;
;;   None.
;;
;; Critical Paths under _main in BANK2
;;
;;   None.

;;
;;Main: autosize = 0, tempsize = 0, incstack = 0, save=0
;;

;;
;;Call Graph Tables:
;;
;; ---------------------------------------------------------------------------------
;; (Depth) Function   	        Calls       Base Space   Used Autos Params    Refs
;; ---------------------------------------------------------------------------------
;; (0) _main                                                 0     0      0     105
;;                           _lcd_init
;;                              _delay
;;                        _lcd_command
;;                           _lcd_data
;; ---------------------------------------------------------------------------------
;; (1) _lcd_init                                             0     0      0      30
;;                        _lcd_command
;; ---------------------------------------------------------------------------------
;; (1) _lcd_data                                             1     1      0      30
;;                                              2 COMMON     1     1      0
;;                              _delay
;; ---------------------------------------------------------------------------------
;; (1) _lcd_command                                          1     1      0      30
;;                                              2 COMMON     1     1      0
;;                              _delay
;; ---------------------------------------------------------------------------------
;; (2) _delay                                                2     0      2      15
;;                                              0 COMMON     2     0      2
;; ---------------------------------------------------------------------------------
;; Estimated maximum stack depth 2
;; ---------------------------------------------------------------------------------

;; Call Graph Graphs:

;; _main (ROOT)
;;   _lcd_init
;;     _lcd_command
;;       _delay
;;   _delay
;;   _lcd_command
;;     _delay
;;   _lcd_data
;;     _delay
;;

;; Address spaces:

;;Name               Size   Autos  Total    Cost      Usage
;;BITCOMMON            E      0       0       0        0.0%
;;EEDATA             100      0       0       0        0.0%
;;NULL                 0      0       0       0        0.0%
;;CODE                 0      0       0       0        0.0%
;;COMMON               E      3       3       1       21.4%
;;BITSFR0              0      0       0       1        0.0%
;;SFR0                 0      0       0       1        0.0%
;;BITSFR1              0      0       0       2        0.0%
;;SFR1                 0      0       0       2        0.0%
;;STACK                0      0       3       2        0.0%
;;ABS                  0      0       0       3        0.0%
;;BITBANK0            50      0       0       4        0.0%
;;BITSFR3              0      0       0       4        0.0%
;;SFR3                 0      0       0       4        0.0%
;;BANK0               50      0       0       5        0.0%
;;BITSFR2              0      0       0       5        0.0%
;;SFR2                 0      0       0       5        0.0%
;;BITBANK1            50      0       0       6        0.0%
;;BANK1               50      0       0       7        0.0%
;;BITBANK3            60      0       0       8        0.0%
;;BANK3               60      0       0       9        0.0%
;;BITBANK2            60      0       0      10        0.0%
;;BANK2               60      0       0      11        0.0%
;;DATA                 0      0       0      12        0.0%

	global	_main
psect	maintext,global,class=CODE,delta=2
global __pmaintext
__pmaintext:

;; *************** function _main *****************
;; Defined at:
;;		line 36 in file "E:\Madhu\madhu pic folder\pic task\lcd dispaly\lcd data w\lcd data w.c"
;; Parameters:    Size  Location     Type
;;		None
;; Auto vars:     Size  Location     Type
;;		None
;; Return value:  Size  Location     Type
;;		None               void
;; Registers used:
;;		wreg, status,2, status,0, pclath, cstack
;; Tracked objects:
;;		On entry : 17F/0
;;		On exit  : 0/0
;;		Unchanged: 0/0
;; Data sizes:     COMMON   BANK0   BANK1   BANK3   BANK2
;;      Params:         0       0       0       0       0
;;      Locals:         0       0       0       0       0
;;      Temps:          0       0       0       0       0
;;      Totals:         0       0       0       0       0
;;Total ram usage:        0 bytes
;; Hardware stack levels required when called:    3
;; This function calls:
;;		_lcd_init
;;		_delay
;;		_lcd_command
;;		_lcd_data
;; This function is called by:
;;		Startup code after reset
;; This function uses a non-reentrant model
;;
psect	maintext
	file	"E:\Madhu\madhu pic folder\pic task\lcd dispaly\lcd data w\lcd data w.c"
	line	36
	global	__size_of_main
	__size_of_main	equ	__end_of_main-_main
	
_main:	
	opt	stack 8
; Regs used in _main: [wreg+status,2+status,0+pclath+cstack]
	line	37
	
l1759:	
;lcd data w.c: 37: TRISD=0x00;
	bsf	status, 5	;RP0=1, select bank1
	bcf	status, 6	;RP1=0, select bank1
	clrf	(136)^080h	;volatile
	line	38
;lcd data w.c: 38: PORTD=0x00;
	bcf	status, 5	;RP0=0, select bank0
	bcf	status, 6	;RP1=0, select bank0
	clrf	(8)	;volatile
	line	40
;lcd data w.c: 40: TRISC=0x00;
	bsf	status, 5	;RP0=1, select bank1
	bcf	status, 6	;RP1=0, select bank1
	clrf	(135)^080h	;volatile
	line	41
;lcd data w.c: 41: PORTC=0x00;
	bcf	status, 5	;RP0=0, select bank0
	bcf	status, 6	;RP1=0, select bank0
	clrf	(7)	;volatile
	line	43
	
l1761:	
;lcd data w.c: 43: lcd_init();
	fcall	_lcd_init
	line	44
	
l1763:	
;lcd data w.c: 44: delay(100);
	movlw	low(064h)
	movwf	(?_delay)
	movlw	high(064h)
	movwf	((?_delay))+1
	fcall	_delay
	line	46
	
l1765:	
;lcd data w.c: 46: lcd_command(0X81);
	movlw	(081h)
	fcall	_lcd_command
	line	47
	
l1767:	
;lcd data w.c: 47: lcd_data('W');
	movlw	(057h)
	fcall	_lcd_data
	line	49
	
l574:	
	global	start
	ljmp	start
	opt stack 0
GLOBAL	__end_of_main
	__end_of_main:
;; =============== function _main ends ============

	signat	_main,88
	global	_lcd_init
psect	text85,local,class=CODE,delta=2
global __ptext85
__ptext85:

;; *************** function _lcd_init *****************
;; Defined at:
;;		line 20 in file "E:\Madhu\madhu pic folder\pic task\lcd dispaly\lcd data w\lcd data w.c"
;; Parameters:    Size  Location     Type
;;		None
;; Auto vars:     Size  Location     Type
;;		None
;; Return value:  Size  Location     Type
;;		None               void
;; Registers used:
;;		wreg, status,2, status,0, pclath, cstack
;; Tracked objects:
;;		On entry : 0/0
;;		On exit  : 0/0
;;		Unchanged: 0/0
;; Data sizes:     COMMON   BANK0   BANK1   BANK3   BANK2
;;      Params:         0       0       0       0       0
;;      Locals:         0       0       0       0       0
;;      Temps:          0       0       0       0       0
;;      Totals:         0       0       0       0       0
;;Total ram usage:        0 bytes
;; Hardware stack levels used:    1
;; Hardware stack levels required when called:    2
;; This function calls:
;;		_lcd_command
;; This function is called by:
;;		_main
;; This function uses a non-reentrant model
;;
psect	text85
	file	"E:\Madhu\madhu pic folder\pic task\lcd dispaly\lcd data w\lcd data w.c"
	line	20
	global	__size_of_lcd_init
	__size_of_lcd_init	equ	__end_of_lcd_init-_lcd_init
	
_lcd_init:	
	opt	stack 7
; Regs used in _lcd_init: [wreg+status,2+status,0+pclath+cstack]
	line	21
	
l1757:	
;lcd data w.c: 21: lcd_command(0x38);
	movlw	(038h)
	fcall	_lcd_command
	line	22
;lcd data w.c: 22: lcd_command(0x06);
	movlw	(06h)
	fcall	_lcd_command
	line	23
;lcd data w.c: 23: lcd_command(0x0C);
	movlw	(0Ch)
	fcall	_lcd_command
	line	25
	
l568:	
	return
	opt stack 0
GLOBAL	__end_of_lcd_init
	__end_of_lcd_init:
;; =============== function _lcd_init ends ============

	signat	_lcd_init,88
	global	_lcd_data
psect	text86,local,class=CODE,delta=2
global __ptext86
__ptext86:

;; *************** function _lcd_data *****************
;; Defined at:
;;		line 27 in file "E:\Madhu\madhu pic folder\pic task\lcd dispaly\lcd data w\lcd data w.c"
;; Parameters:    Size  Location     Type
;;  data            1    wreg     unsigned char 
;; Auto vars:     Size  Location     Type
;;  data            1    2[COMMON] unsigned char 
;; Return value:  Size  Location     Type
;;		None               void
;; Registers used:
;;		wreg, status,2, status,0, pclath, cstack
;; Tracked objects:
;;		On entry : 0/0
;;		On exit  : 0/0
;;		Unchanged: 0/0
;; Data sizes:     COMMON   BANK0   BANK1   BANK3   BANK2
;;      Params:         0       0       0       0       0
;;      Locals:         1       0       0       0       0
;;      Temps:          0       0       0       0       0
;;      Totals:         1       0       0       0       0
;;Total ram usage:        1 bytes
;; Hardware stack levels used:    1
;; Hardware stack levels required when called:    1
;; This function calls:
;;		_delay
;; This function is called by:
;;		_main
;; This function uses a non-reentrant model
;;
psect	text86
	file	"E:\Madhu\madhu pic folder\pic task\lcd dispaly\lcd data w\lcd data w.c"
	line	27
	global	__size_of_lcd_data
	__size_of_lcd_data	equ	__end_of_lcd_data-_lcd_data
	
_lcd_data:	
	opt	stack 7
; Regs used in _lcd_data: [wreg+status,2+status,0+pclath+cstack]
;lcd_data@data stored from wreg
	movwf	(lcd_data@data)
	line	28
	
l1745:	
;lcd data w.c: 28: PORTD=data;
	movf	(lcd_data@data),w
	bcf	status, 5	;RP0=0, select bank0
	bcf	status, 6	;RP1=0, select bank0
	movwf	(8)	;volatile
	line	29
	
l1747:	
;lcd data w.c: 29: RC0=1;
	bsf	(56/8),(56)&7
	line	30
	
l1749:	
;lcd data w.c: 30: RC1=0;
	bcf	(57/8),(57)&7
	line	31
	
l1751:	
;lcd data w.c: 31: RC2=1;
	bsf	(58/8),(58)&7
	line	32
	
l1753:	
;lcd data w.c: 32: delay(100);
	movlw	low(064h)
	movwf	(?_delay)
	movlw	high(064h)
	movwf	((?_delay))+1
	fcall	_delay
	line	33
	
l1755:	
;lcd data w.c: 33: RC2=0;
	bcf	status, 5	;RP0=0, select bank0
	bcf	status, 6	;RP1=0, select bank0
	bcf	(58/8),(58)&7
	line	34
	
l571:	
	return
	opt stack 0
GLOBAL	__end_of_lcd_data
	__end_of_lcd_data:
;; =============== function _lcd_data ends ============

	signat	_lcd_data,4216
	global	_lcd_command
psect	text87,local,class=CODE,delta=2
global __ptext87
__ptext87:

;; *************** function _lcd_command *****************
;; Defined at:
;;		line 11 in file "E:\Madhu\madhu pic folder\pic task\lcd dispaly\lcd data w\lcd data w.c"
;; Parameters:    Size  Location     Type
;;  com             1    wreg     unsigned char 
;; Auto vars:     Size  Location     Type
;;  com             1    2[COMMON] unsigned char 
;; Return value:  Size  Location     Type
;;		None               void
;; Registers used:
;;		wreg, status,2, status,0, pclath, cstack
;; Tracked objects:
;;		On entry : 0/0
;;		On exit  : 0/0
;;		Unchanged: 0/0
;; Data sizes:     COMMON   BANK0   BANK1   BANK3   BANK2
;;      Params:         0       0       0       0       0
;;      Locals:         1       0       0       0       0
;;      Temps:          0       0       0       0       0
;;      Totals:         1       0       0       0       0
;;Total ram usage:        1 bytes
;; Hardware stack levels used:    1
;; Hardware stack levels required when called:    1
;; This function calls:
;;		_delay
;; This function is called by:
;;		_lcd_init
;;		_main
;; This function uses a non-reentrant model
;;
psect	text87
	file	"E:\Madhu\madhu pic folder\pic task\lcd dispaly\lcd data w\lcd data w.c"
	line	11
	global	__size_of_lcd_command
	__size_of_lcd_command	equ	__end_of_lcd_command-_lcd_command
	
_lcd_command:	
	opt	stack 7
; Regs used in _lcd_command: [wreg+status,2+status,0+pclath+cstack]
;lcd_command@com stored from wreg
	movwf	(lcd_command@com)
	line	12
	
l1733:	
;lcd data w.c: 12: PORTD=com;
	movf	(lcd_command@com),w
	bcf	status, 5	;RP0=0, select bank0
	bcf	status, 6	;RP1=0, select bank0
	movwf	(8)	;volatile
	line	13
	
l1735:	
;lcd data w.c: 13: RC0=0;
	bcf	(56/8),(56)&7
	line	14
	
l1737:	
;lcd data w.c: 14: RC1=0;
	bcf	(57/8),(57)&7
	line	15
	
l1739:	
;lcd data w.c: 15: RC2=1;
	bsf	(58/8),(58)&7
	line	16
	
l1741:	
;lcd data w.c: 16: delay(100);
	movlw	low(064h)
	movwf	(?_delay)
	movlw	high(064h)
	movwf	((?_delay))+1
	fcall	_delay
	line	17
	
l1743:	
;lcd data w.c: 17: RC2=0;
	bcf	status, 5	;RP0=0, select bank0
	bcf	status, 6	;RP1=0, select bank0
	bcf	(58/8),(58)&7
	line	18
	
l565:	
	return
	opt stack 0
GLOBAL	__end_of_lcd_command
	__end_of_lcd_command:
;; =============== function _lcd_command ends ============

	signat	_lcd_command,4216
	global	_delay
psect	text88,local,class=CODE,delta=2
global __ptext88
__ptext88:

;; *************** function _delay *****************
;; Defined at:
;;		line 7 in file "E:\Madhu\madhu pic folder\pic task\lcd dispaly\lcd data w\lcd data w.c"
;; Parameters:    Size  Location     Type
;;  x               2    0[COMMON] unsigned int 
;; Auto vars:     Size  Location     Type
;;		None
;; Return value:  Size  Location     Type
;;		None               void
;; Registers used:
;;		wreg
;; Tracked objects:
;;		On entry : 0/0
;;		On exit  : 0/0
;;		Unchanged: 0/0
;; Data sizes:     COMMON   BANK0   BANK1   BANK3   BANK2
;;      Params:         2       0       0       0       0
;;      Locals:         0       0       0       0       0
;;      Temps:          0       0       0       0       0
;;      Totals:         2       0       0       0       0
;;Total ram usage:        2 bytes
;; Hardware stack levels used:    1
;; This function calls:
;;		Nothing
;; This function is called by:
;;		_lcd_command
;;		_lcd_data
;;		_main
;; This function uses a non-reentrant model
;;
psect	text88
	file	"E:\Madhu\madhu pic folder\pic task\lcd dispaly\lcd data w\lcd data w.c"
	line	7
	global	__size_of_delay
	__size_of_delay	equ	__end_of_delay-_delay
	
_delay:	
	opt	stack 6
; Regs used in _delay: [wreg]
	line	8
	
l943:	
;lcd data w.c: 8: while(x--);
	goto	l559
	
l560:	
	
l559:	
	
l945:	
	movlw	low(01h)
	subwf	(delay@x),f
	movlw	high(01h)
	skipc
	decf	(delay@x+1),f
	subwf	(delay@x+1),f
	movlw	high(0FFFFh)
	xorwf	((delay@x+1)),w
	skipz
	goto	u15
	movlw	low(0FFFFh)
	xorwf	((delay@x)),w
u15:

	skipz
	goto	u11
	goto	u10
u11:
	goto	l560
u10:
	
l561:	
	line	9
	
l562:	
	return
	opt stack 0
GLOBAL	__end_of_delay
	__end_of_delay:
;; =============== function _delay ends ============

	signat	_delay,4216
psect	text89,local,class=CODE,delta=2
global __ptext89
__ptext89:
	global	btemp
	btemp set 07Eh

	DABS	1,126,2	;btemp
	global	wtemp0
	wtemp0 set btemp
	end
