opt subtitle "HI-TECH Software Omniscient Code Generator (Lite mode) build 6446"

opt pagewidth 120

	opt lm

	processor	16F877A
clrc	macro
	bcf	3,0
	endm
clrz	macro
	bcf	3,2
	endm
setc	macro
	bsf	3,0
	endm
setz	macro
	bsf	3,2
	endm
skipc	macro
	btfss	3,0
	endm
skipz	macro
	btfss	3,2
	endm
skipnc	macro
	btfsc	3,0
	endm
skipnz	macro
	btfsc	3,2
	endm
indf	equ	0
indf0	equ	0
pc	equ	2
pcl	equ	2
status	equ	3
fsr	equ	4
fsr0	equ	4
c	equ	1
z	equ	0
pclath	equ	10
# 2 "D:\Madhu\madhu pic folder\test coading\gps coading.c"
	psect config,class=CONFIG,delta=2 ;#
# 2 "D:\Madhu\madhu pic folder\test coading\gps coading.c"
	dw 0X3F72 ;#
	FNCALL	_main,_lcd_init
	FNCALL	_main,_delay
	FNCALL	_main,_gps_init
	FNCALL	_main,_lcd_cmd
	FNCALL	_main,_lcd_display
	FNCALL	_main,_serial
	FNCALL	_main,_txs
	FNCALL	_main,_gps_send
	FNCALL	_main,_sms1
	FNCALL	_gps_send,_lcd_cmd
	FNCALL	_gps_send,_delay
	FNCALL	_gps_send,_lcd_display
	FNCALL	_gps_send,_lcd_data
	FNCALL	_sms1,_txs
	FNCALL	_sms1,_delay
	FNCALL	_sms1,_gsm_command
	FNCALL	_sms1,_lcd_cmd
	FNCALL	_lcd_init,_lcd_cmd
	FNCALL	_lcd_display,_lcd_data
	FNCALL	_serial,_delay
	FNCALL	_lcd_data,_delay
	FNCALL	_lcd_cmd,_delay
	FNROOT	_main
	FNCALL	intlevel1,_rcx
	global	intlevel1
	FNROOT	intlevel1
	global	_ser
	global	_st
psect	idataBANK0,class=CODE,space=0,delta=2
global __pidataBANK0
__pidataBANK0:
	file	"D:\Madhu\madhu pic folder\test coading\gps coading.c"
	line	8

;initializer for _ser
	retlw	037h

;initializer for _st
	retlw	01h
	global	_gpsdata
	global	_i
	global	_j
	global	_data_cap
	global	_temp
	global	_PORTB
_PORTB	set	6
	global	_PORTC
_PORTC	set	7
	global	_PORTD
_PORTD	set	8
	global	_RCREG
_RCREG	set	26
	global	_RCSTA
_RCSTA	set	24
	global	_TXREG
_TXREG	set	25
	global	_GIE
_GIE	set	95
	global	_OERR
_OERR	set	193
	global	_PEIE
_PEIE	set	94
	global	_RB0
_RB0	set	48
	global	_RCIF
_RCIF	set	101
	global	_RD1
_RD1	set	65
	global	_RD2
_RD2	set	66
	global	_RD3
_RD3	set	67
	global	_TXIF
_TXIF	set	100
	global	_SPBRG
_SPBRG	set	153
	global	_TRISB
_TRISB	set	134
	global	_TRISC
_TRISC	set	135
	global	_TRISD
_TRISD	set	136
	global	_TXSTA
_TXSTA	set	152
	global	_BRGH
_BRGH	set	1218
	global	_RCIE
_RCIE	set	1125
psect	strings,class=STRING,delta=2
global __pstrings
__pstrings:
;	global	stringdir,stringtab,__stringbase
stringtab:
;	String table - string pointers are 1 byte each
stringcode:stringdir:
movlw high(stringdir)
movwf pclath
movf fsr,w
incf fsr
	addwf pc
__stringbase:
	retlw	0
psect	strings
	
STR_2:	
	retlw	103	;'g'
	retlw	112	;'p'
	retlw	115	;'s'
	retlw	32	;' '
	retlw	108	;'l'
	retlw	111	;'o'
	retlw	99	;'c'
	retlw	97	;'a'
	retlw	116	;'t'
	retlw	105	;'i'
	retlw	111	;'o'
	retlw	110	;'n'
	retlw	0
psect	strings
	
STR_4:	
	retlw	77	;'M'
	retlw	115	;'s'
	retlw	103	;'g'
	retlw	32	;' '
	retlw	115	;'s'
	retlw	101	;'e'
	retlw	110	;'n'
	retlw	100	;'d'
	retlw	105	;'i'
	retlw	110	;'n'
	retlw	103	;'g'
	retlw	0
psect	strings
	
STR_6:	
	retlw	65	;'A'
	retlw	84	;'T'
	retlw	43	;'+'
	retlw	67	;'C'
	retlw	77	;'M'
	retlw	71	;'G'
	retlw	70	;'F'
	retlw	61	;'='
	retlw	49	;'1'
	retlw	0
psect	strings
	
STR_3:	
	retlw	87	;'W'
	retlw	69	;'E'
	retlw	76	;'L'
	retlw	67	;'C'
	retlw	79	;'O'
	retlw	77	;'M'
	retlw	69	;'E'
	retlw	0
psect	strings
	
STR_1:	
	retlw	103	;'g'
	retlw	112	;'p'
	retlw	115	;'s'
	retlw	0
psect	strings
	
STR_5:	
	retlw	65	;'A'
	retlw	84	;'T'
	retlw	0
psect	strings
	file	"gps coading.as"
	line	#
psect cinit,class=CODE,delta=2
global start_initialization
start_initialization:

psect	bssCOMMON,class=COMMON,space=1
global __pbssCOMMON
__pbssCOMMON:
_temp:
       ds      2

psect	bssBANK0,class=BANK0,space=1
global __pbssBANK0
__pbssBANK0:
_gpsdata:
       ds      50

_i:
       ds      2

_j:
       ds      2

_data_cap:
       ds      1

psect	dataBANK0,class=BANK0,space=1
global __pdataBANK0
__pdataBANK0:
	file	"D:\Madhu\madhu pic folder\test coading\gps coading.c"
_ser:
       ds      1

psect	dataBANK0
	file	"D:\Madhu\madhu pic folder\test coading\gps coading.c"
_st:
       ds      1

psect clrtext,class=CODE,delta=2
global clear_ram
;	Called with FSR containing the base address, and
;	W with the last address+1
clear_ram:
	clrwdt			;clear the watchdog before getting into this loop
clrloop:
	clrf	indf		;clear RAM location pointed to by FSR
	incf	fsr,f		;increment pointer
	xorwf	fsr,w		;XOR with final address
	btfsc	status,2	;have we reached the end yet?
	retlw	0		;all done for this memory range, return
	xorwf	fsr,w		;XOR again to restore value
	goto	clrloop		;do the next byte

; Clear objects allocated to COMMON
psect cinit,class=CODE,delta=2
	clrf	((__pbssCOMMON)+0)&07Fh
	clrf	((__pbssCOMMON)+1)&07Fh
; Clear objects allocated to BANK0
psect cinit,class=CODE,delta=2
	bcf	status, 7	;select IRP bank0
	movlw	low(__pbssBANK0)
	movwf	fsr
	movlw	low((__pbssBANK0)+037h)
	fcall	clear_ram
; Initialize objects allocated to BANK0
	global __pidataBANK0
psect cinit,class=CODE,delta=2
	fcall	__pidataBANK0+0		;fetch initializer
	movwf	__pdataBANK0+0&07fh		
	fcall	__pidataBANK0+1		;fetch initializer
	movwf	__pdataBANK0+1&07fh		
psect cinit,class=CODE,delta=2
global end_of_initialization

;End of C runtime variable initialization code

end_of_initialization:
clrf status
ljmp _main	;jump to C main() function
psect	cstackCOMMON,class=COMMON,space=1
global __pcstackCOMMON
__pcstackCOMMON:
	global	?_gps_init
?_gps_init:	; 0 bytes @ 0x0
	global	?_lcd_cmd
?_lcd_cmd:	; 0 bytes @ 0x0
	global	?_lcd_data
?_lcd_data:	; 0 bytes @ 0x0
	global	?_lcd_display
?_lcd_display:	; 0 bytes @ 0x0
	global	?_lcd_init
?_lcd_init:	; 0 bytes @ 0x0
	global	?_rcx
?_rcx:	; 0 bytes @ 0x0
	global	??_rcx
??_rcx:	; 0 bytes @ 0x0
	global	?_gps_send
?_gps_send:	; 0 bytes @ 0x0
	global	?_gsm_command
?_gsm_command:	; 0 bytes @ 0x0
	global	?_txs
?_txs:	; 0 bytes @ 0x0
	global	?_sms1
?_sms1:	; 0 bytes @ 0x0
	global	?_serial
?_serial:	; 0 bytes @ 0x0
	global	?_main
?_main:	; 0 bytes @ 0x0
	ds	5
	global	?_delay
?_delay:	; 0 bytes @ 0x5
	global	??_gps_init
??_gps_init:	; 0 bytes @ 0x5
	global	??_gsm_command
??_gsm_command:	; 0 bytes @ 0x5
	global	??_txs
??_txs:	; 0 bytes @ 0x5
	global	txs@val
txs@val:	; 1 bytes @ 0x5
	global	delay@x
delay@x:	; 2 bytes @ 0x5
	ds	2
	global	??_delay
??_delay:	; 0 bytes @ 0x7
	global	??_lcd_display
??_lcd_display:	; 0 bytes @ 0x7
	global	??_lcd_init
??_lcd_init:	; 0 bytes @ 0x7
	global	??_main
??_main:	; 0 bytes @ 0x7
psect	cstackBANK0,class=BANK0,space=1
global __pcstackBANK0
__pcstackBANK0:
	global	??_lcd_cmd
??_lcd_cmd:	; 0 bytes @ 0x0
	global	??_lcd_data
??_lcd_data:	; 0 bytes @ 0x0
	global	??_serial
??_serial:	; 0 bytes @ 0x0
	global	gsm_command@da
gsm_command@da:	; 1 bytes @ 0x0
	ds	1
	global	serial@a
serial@a:	; 1 bytes @ 0x1
	global	gsm_command@s
gsm_command@s:	; 2 bytes @ 0x1
	ds	1
	global	lcd_cmd@com
lcd_cmd@com:	; 1 bytes @ 0x2
	global	lcd_data@dat
lcd_data@dat:	; 1 bytes @ 0x2
	global	serial@B
serial@B:	; 1 bytes @ 0x2
	ds	1
	global	??_sms1
??_sms1:	; 0 bytes @ 0x3
	global	lcd_display@m
lcd_display@m:	; 1 bytes @ 0x3
	ds	1
	global	lcd_display@k
lcd_display@k:	; 2 bytes @ 0x4
	ds	2
	global	??_gps_send
??_gps_send:	; 0 bytes @ 0x6
	ds	1
;;Data sizes: Strings 50, constant 0, data 2, bss 57, persistent 0 stack 0
;;Auto spaces:   Size  Autos    Used
;; COMMON          14      7       9
;; BANK0           80      7      64
;; BANK1           80      0       0
;; BANK3           96      0       0
;; BANK2           96      0       0

;;
;; Pointer list with targets:

;; serial@a	PTR const unsigned char  size(1) Largest target is 10
;;		 -> STR_6(CODE[10]), STR_5(CODE[3]), 
;;
;; gsm_command@da	PTR const unsigned char  size(1) Largest target is 13
;;		 -> STR_2(CODE[13]), 
;;
;; lcd_display@m	PTR const unsigned char  size(1) Largest target is 12
;;		 -> STR_4(CODE[12]), STR_3(CODE[8]), STR_1(CODE[4]), 
;;


;;
;; Critical Paths under _main in COMMON
;;
;;   _main->_delay
;;   _gps_send->_delay
;;   _sms1->_delay
;;   _serial->_delay
;;   _lcd_data->_delay
;;   _lcd_cmd->_delay
;;
;; Critical Paths under _rcx in COMMON
;;
;;   None.
;;
;; Critical Paths under _main in BANK0
;;
;;   _main->_gps_send
;;   _gps_send->_lcd_display
;;   _sms1->_gsm_command
;;   _sms1->_lcd_cmd
;;   _lcd_init->_lcd_cmd
;;   _lcd_display->_lcd_data
;;
;; Critical Paths under _rcx in BANK0
;;
;;   None.
;;
;; Critical Paths under _main in BANK1
;;
;;   None.
;;
;; Critical Paths under _rcx in BANK1
;;
;;   None.
;;
;; Critical Paths under _main in BANK3
;;
;;   None.
;;
;; Critical Paths under _rcx in BANK3
;;
;;   None.
;;
;; Critical Paths under _main in BANK2
;;
;;   None.
;;
;; Critical Paths under _rcx in BANK2
;;
;;   None.

;;
;;Main: autosize = 0, tempsize = 0, incstack = 0, save=0
;;

;;
;;Call Graph Tables:
;;
;; ---------------------------------------------------------------------------------
;; (Depth) Function   	        Calls       Base Space   Used Autos Params    Refs
;; ---------------------------------------------------------------------------------
;; (0) _main                                                 0     0      0    1240
;;                           _lcd_init
;;                              _delay
;;                           _gps_init
;;                            _lcd_cmd
;;                        _lcd_display
;;                             _serial
;;                                _txs
;;                           _gps_send
;;                               _sms1
;; ---------------------------------------------------------------------------------
;; (1) _gps_send                                             1     1      0     404
;;                                              6 BANK0      1     1      0
;;                            _lcd_cmd
;;                              _delay
;;                        _lcd_display
;;                           _lcd_data
;; ---------------------------------------------------------------------------------
;; (1) _sms1                                                 1     1      0     258
;;                                              3 BANK0      1     1      0
;;                                _txs
;;                              _delay
;;                        _gsm_command
;;                            _lcd_cmd
;; ---------------------------------------------------------------------------------
;; (1) _lcd_init                                             0     0      0      84
;;                            _lcd_cmd
;; ---------------------------------------------------------------------------------
;; (2) _lcd_display                                          3     3      0     214
;;                                              3 BANK0      3     3      0
;;                           _lcd_data
;; ---------------------------------------------------------------------------------
;; (1) _serial                                               3     3      0     152
;;                                              0 BANK0      3     3      0
;;                              _delay
;; ---------------------------------------------------------------------------------
;; (2) _lcd_data                                             3     3      0      84
;;                                              0 BANK0      3     3      0
;;                              _delay
;; ---------------------------------------------------------------------------------
;; (2) _lcd_cmd                                              3     3      0      84
;;                                              0 BANK0      3     3      0
;;                              _delay
;; ---------------------------------------------------------------------------------
;; (2) _txs                                                  1     1      0      22
;;                                              5 COMMON     1     1      0
;; ---------------------------------------------------------------------------------
;; (3) _gsm_command                                          3     3      0     130
;;                                              0 BANK0      3     3      0
;; ---------------------------------------------------------------------------------
;; (1) _gps_init                                             0     0      0       0
;; ---------------------------------------------------------------------------------
;; (3) _delay                                                2     0      2      22
;;                                              5 COMMON     2     0      2
;; ---------------------------------------------------------------------------------
;; Estimated maximum stack depth 3
;; ---------------------------------------------------------------------------------
;; (Depth) Function   	        Calls       Base Space   Used Autos Params    Refs
;; ---------------------------------------------------------------------------------
;; (5) _rcx                                                  5     5      0       0
;;                                              0 COMMON     5     5      0
;; ---------------------------------------------------------------------------------
;; Estimated maximum stack depth 5
;; ---------------------------------------------------------------------------------

;; Call Graph Graphs:

;; _main (ROOT)
;;   _lcd_init
;;     _lcd_cmd
;;       _delay
;;   _delay
;;   _gps_init
;;   _lcd_cmd
;;     _delay
;;   _lcd_display
;;     _lcd_data
;;       _delay
;;   _serial
;;     _delay
;;   _txs
;;   _gps_send
;;     _lcd_cmd
;;       _delay
;;     _delay
;;     _lcd_display
;;       _lcd_data
;;         _delay
;;     _lcd_data
;;       _delay
;;   _sms1
;;     _txs
;;     _delay
;;     _gsm_command
;;     _lcd_cmd
;;       _delay
;;
;; _rcx (ROOT)
;;

;; Address spaces:

;;Name               Size   Autos  Total    Cost      Usage
;;BANK3               60      0       0       9        0.0%
;;BITBANK3            60      0       0       8        0.0%
;;SFR3                 0      0       0       4        0.0%
;;BITSFR3              0      0       0       4        0.0%
;;BANK2               60      0       0      11        0.0%
;;BITBANK2            60      0       0      10        0.0%
;;SFR2                 0      0       0       5        0.0%
;;BITSFR2              0      0       0       5        0.0%
;;SFR1                 0      0       0       2        0.0%
;;BITSFR1              0      0       0       2        0.0%
;;BANK1               50      0       0       7        0.0%
;;BITBANK1            50      0       0       6        0.0%
;;CODE                 0      0       0       0        0.0%
;;DATA                 0      0      4D      12        0.0%
;;ABS                  0      0      49       3        0.0%
;;NULL                 0      0       0       0        0.0%
;;STACK                0      0       4       2        0.0%
;;BANK0               50      7      40       5       80.0%
;;BITBANK0            50      0       0       4        0.0%
;;SFR0                 0      0       0       1        0.0%
;;BITSFR0              0      0       0       1        0.0%
;;COMMON               E      7       9       1       64.3%
;;BITCOMMON            E      0       0       0        0.0%
;;EEDATA             100      0       0       0        0.0%

	global	_main
psect	maintext,global,class=CODE,delta=2
global __pmaintext
__pmaintext:

;; *************** function _main *****************
;; Defined at:
;;		line 261 in file "D:\Madhu\madhu pic folder\test coading\gps coading.c"
;; Parameters:    Size  Location     Type
;;		None
;; Auto vars:     Size  Location     Type
;;		None
;; Return value:  Size  Location     Type
;;		None               void
;; Registers used:
;;		wreg, fsr0l, fsr0h, status,2, status,0, btemp+0, pclath, cstack
;; Tracked objects:
;;		On entry : 17F/0
;;		On exit  : 0/0
;;		Unchanged: 0/0
;; Data sizes:     COMMON   BANK0   BANK1   BANK3   BANK2
;;      Params:         0       0       0       0       0
;;      Locals:         0       0       0       0       0
;;      Temps:          0       0       0       0       0
;;      Totals:         0       0       0       0       0
;;Total ram usage:        0 bytes
;; Hardware stack levels required when called:    5
;; This function calls:
;;		_lcd_init
;;		_delay
;;		_gps_init
;;		_lcd_cmd
;;		_lcd_display
;;		_serial
;;		_txs
;;		_gps_send
;;		_sms1
;; This function is called by:
;;		Startup code after reset
;; This function uses a non-reentrant model
;;
psect	maintext
	file	"D:\Madhu\madhu pic folder\test coading\gps coading.c"
	line	261
	global	__size_of_main
	__size_of_main	equ	__end_of_main-_main
	
_main:	
	opt	stack 8
; Regs used in _main: [wreg-fsr0h+status,2-btemp+0+pclath+cstack]
	line	262
	
l2558:	
;gps coading.c: 262: TRISB=0x00;
	bsf	status, 5	;RP0=1, select bank1
	bcf	status, 6	;RP1=0, select bank1
	clrf	(134)^080h	;volatile
	line	263
;gps coading.c: 263: PORTB=0x00;
	bcf	status, 5	;RP0=0, select bank0
	bcf	status, 6	;RP1=0, select bank0
	clrf	(6)	;volatile
	line	265
;gps coading.c: 265: TRISD=0x00;
	bsf	status, 5	;RP0=1, select bank1
	bcf	status, 6	;RP1=0, select bank1
	clrf	(136)^080h	;volatile
	line	266
;gps coading.c: 266: PORTD=0x00;
	bcf	status, 5	;RP0=0, select bank0
	bcf	status, 6	;RP1=0, select bank0
	clrf	(8)	;volatile
	line	268
	
l2560:	
;gps coading.c: 268: TRISC=0x80;
	movlw	(080h)
	bsf	status, 5	;RP0=1, select bank1
	bcf	status, 6	;RP1=0, select bank1
	movwf	(135)^080h	;volatile
	line	269
	
l2562:	
;gps coading.c: 269: PORTC=0x00;
	bcf	status, 5	;RP0=0, select bank0
	bcf	status, 6	;RP1=0, select bank0
	clrf	(7)	;volatile
	line	271
	
l2564:	
;gps coading.c: 271: lcd_init();
	fcall	_lcd_init
	line	272
	
l2566:	
;gps coading.c: 272: delay(500);
	movlw	low(01F4h)
	movwf	(?_delay)
	movlw	high(01F4h)
	movwf	((?_delay))+1
	fcall	_delay
	line	274
	
l2568:	
;gps coading.c: 274: gps_init();
	fcall	_gps_init
	line	275
	
l2570:	
;gps coading.c: 275: delay(50000);
	movlw	low(0C350h)
	movwf	(?_delay)
	movlw	high(0C350h)
	movwf	((?_delay))+1
	fcall	_delay
	line	276
	
l2572:	
;gps coading.c: 276: delay(100);
	movlw	low(064h)
	movwf	(?_delay)
	movlw	high(064h)
	movwf	((?_delay))+1
	fcall	_delay
	line	277
	
l2574:	
;gps coading.c: 277: lcd_cmd(0x80);
	movlw	(080h)
	fcall	_lcd_cmd
	line	278
	
l2576:	
;gps coading.c: 278: lcd_cmd(0x01);
	movlw	(01h)
	fcall	_lcd_cmd
	line	279
	
l2578:	
;gps coading.c: 279: lcd_display("WELCOME");
	movlw	((STR_3-__stringbase))&0ffh
	fcall	_lcd_display
	line	280
	
l2580:	
;gps coading.c: 280: delay(50000);delay(50000);delay(50000);
	movlw	low(0C350h)
	movwf	(?_delay)
	movlw	high(0C350h)
	movwf	((?_delay))+1
	fcall	_delay
	
l2582:	
	movlw	low(0C350h)
	movwf	(?_delay)
	movlw	high(0C350h)
	movwf	((?_delay))+1
	fcall	_delay
	
l2584:	
	movlw	low(0C350h)
	movwf	(?_delay)
	movlw	high(0C350h)
	movwf	((?_delay))+1
	fcall	_delay
	line	281
	
l2586:	
;gps coading.c: 281: delay(50000);delay(50000);delay(50000);
	movlw	low(0C350h)
	movwf	(?_delay)
	movlw	high(0C350h)
	movwf	((?_delay))+1
	fcall	_delay
	
l2588:	
	movlw	low(0C350h)
	movwf	(?_delay)
	movlw	high(0C350h)
	movwf	((?_delay))+1
	fcall	_delay
	
l2590:	
	movlw	low(0C350h)
	movwf	(?_delay)
	movlw	high(0C350h)
	movwf	((?_delay))+1
	fcall	_delay
	line	283
;gps coading.c: 283: while(1)
	
l639:	
	line	286
	
l2592:	
;gps coading.c: 284: {
;gps coading.c: 286: if(RB0==1)
	bcf	status, 5	;RP0=0, select bank0
	bcf	status, 6	;RP1=0, select bank0
	btfss	(48/8),(48)&7
	goto	u2751
	goto	u2750
u2751:
	goto	l640
u2750:
	line	290
	
l2594:	
;gps coading.c: 287: {
;gps coading.c: 290: lcd_cmd(0x01);
	movlw	(01h)
	fcall	_lcd_cmd
	line	291
;gps coading.c: 291: lcd_cmd(0x80);
	movlw	(080h)
	fcall	_lcd_cmd
	line	292
	
l2596:	
;gps coading.c: 292: lcd_display("Msg sending");
	movlw	((STR_4-__stringbase))&0ffh
	fcall	_lcd_display
	line	293
	
l2598:	
;gps coading.c: 293: delay(50000);delay(50000);
	movlw	low(0C350h)
	movwf	(?_delay)
	movlw	high(0C350h)
	movwf	((?_delay))+1
	fcall	_delay
	
l2600:	
	movlw	low(0C350h)
	movwf	(?_delay)
	movlw	high(0C350h)
	movwf	((?_delay))+1
	fcall	_delay
	line	295
	
l2602:	
;gps coading.c: 295: serial("AT");
	movlw	((STR_5-__stringbase))&0ffh
	fcall	_serial
	line	296
;gps coading.c: 296: txs(13);delay(60000);delay(60000);
	movlw	(0Dh)
	fcall	_txs
	movlw	low(0EA60h)
	movwf	(?_delay)
	movlw	high(0EA60h)
	movwf	((?_delay))+1
	fcall	_delay
	movlw	low(0EA60h)
	movwf	(?_delay)
	movlw	high(0EA60h)
	movwf	((?_delay))+1
	fcall	_delay
	line	297
;gps coading.c: 297: txs(10);
	movlw	(0Ah)
	fcall	_txs
	line	298
;gps coading.c: 298: delay(10000);
	movlw	low(02710h)
	movwf	(?_delay)
	movlw	high(02710h)
	movwf	((?_delay))+1
	fcall	_delay
	line	299
;gps coading.c: 299: delay(10000);
	movlw	low(02710h)
	movwf	(?_delay)
	movlw	high(02710h)
	movwf	((?_delay))+1
	fcall	_delay
	line	300
	
l2604:	
;gps coading.c: 300: serial("AT+CMGF=1");
	movlw	((STR_6-__stringbase))&0ffh
	fcall	_serial
	line	301
	
l2606:	
;gps coading.c: 301: txs(13);delay(60000);delay(60000);
	movlw	(0Dh)
	fcall	_txs
	
l2608:	
	movlw	low(0EA60h)
	movwf	(?_delay)
	movlw	high(0EA60h)
	movwf	((?_delay))+1
	fcall	_delay
	
l2610:	
	movlw	low(0EA60h)
	movwf	(?_delay)
	movlw	high(0EA60h)
	movwf	((?_delay))+1
	fcall	_delay
	line	302
	
l2612:	
;gps coading.c: 302: txs(10);
	movlw	(0Ah)
	fcall	_txs
	line	303
	
l2614:	
;gps coading.c: 303: delay(10000);delay(50000);gps_send();
	movlw	low(02710h)
	movwf	(?_delay)
	movlw	high(02710h)
	movwf	((?_delay))+1
	fcall	_delay
	
l2616:	
	movlw	low(0C350h)
	movwf	(?_delay)
	movlw	high(0C350h)
	movwf	((?_delay))+1
	fcall	_delay
	
l2618:	
	fcall	_gps_send
	line	304
	
l2620:	
;gps coading.c: 304: delay(50000);delay(50000);
	movlw	low(0C350h)
	movwf	(?_delay)
	movlw	high(0C350h)
	movwf	((?_delay))+1
	fcall	_delay
	
l2622:	
	movlw	low(0C350h)
	movwf	(?_delay)
	movlw	high(0C350h)
	movwf	((?_delay))+1
	fcall	_delay
	line	305
	
l2624:	
;gps coading.c: 305: sms1();
	fcall	_sms1
	line	306
	
l640:	
	line	307
	
l641:	
	line	283
	goto	l639
	
l642:	
	line	308
	
l643:	
	global	start
	ljmp	start
	opt stack 0
GLOBAL	__end_of_main
	__end_of_main:
;; =============== function _main ends ============

	signat	_main,88
	global	_gps_send
psect	text448,local,class=CODE,delta=2
global __ptext448
__ptext448:

;; *************** function _gps_send *****************
;; Defined at:
;;		line 116 in file "D:\Madhu\madhu pic folder\test coading\gps coading.c"
;; Parameters:    Size  Location     Type
;;		None
;; Auto vars:     Size  Location     Type
;;		None
;; Return value:  Size  Location     Type
;;		None               void
;; Registers used:
;;		wreg, fsr0l, fsr0h, status,2, status,0, btemp+0, pclath, cstack
;; Tracked objects:
;;		On entry : 0/0
;;		On exit  : 0/0
;;		Unchanged: 0/0
;; Data sizes:     COMMON   BANK0   BANK1   BANK3   BANK2
;;      Params:         0       0       0       0       0
;;      Locals:         0       0       0       0       0
;;      Temps:          0       1       0       0       0
;;      Totals:         0       1       0       0       0
;;Total ram usage:        1 bytes
;; Hardware stack levels used:    1
;; Hardware stack levels required when called:    4
;; This function calls:
;;		_lcd_cmd
;;		_delay
;;		_lcd_display
;;		_lcd_data
;; This function is called by:
;;		_main
;; This function uses a non-reentrant model
;;
psect	text448
	file	"D:\Madhu\madhu pic folder\test coading\gps coading.c"
	line	116
	global	__size_of_gps_send
	__size_of_gps_send	equ	__end_of_gps_send-_gps_send
	
_gps_send:	
	opt	stack 7
; Regs used in _gps_send: [wreg-fsr0h+status,2-btemp+0+pclath+cstack]
	line	117
	
l2496:	
;gps coading.c: 117: lcd_cmd(0x01);
	movlw	(01h)
	fcall	_lcd_cmd
	line	118
;gps coading.c: 118: lcd_cmd(0x87);
	movlw	(087h)
	fcall	_lcd_cmd
	line	119
	
l2498:	
;gps coading.c: 119: delay(100);
	movlw	low(064h)
	movwf	(?_delay)
	movlw	high(064h)
	movwf	((?_delay))+1
	fcall	_delay
	line	120
	
l2500:	
;gps coading.c: 120: lcd_display("gps");
	movlw	((STR_1-__stringbase))&0ffh
	fcall	_lcd_display
	line	122
	
l2502:	
;gps coading.c: 122: delay(50000);delay(50000);
	movlw	low(0C350h)
	movwf	(?_delay)
	movlw	high(0C350h)
	movwf	((?_delay))+1
	fcall	_delay
	
l2504:	
	movlw	low(0C350h)
	movwf	(?_delay)
	movlw	high(0C350h)
	movwf	((?_delay))+1
	fcall	_delay
	line	123
	
l2506:	
;gps coading.c: 123: lcd_cmd(0x01);
	movlw	(01h)
	fcall	_lcd_cmd
	line	124
	
l2508:	
;gps coading.c: 124: delay(100);
	movlw	low(064h)
	movwf	(?_delay)
	movlw	high(064h)
	movwf	((?_delay))+1
	fcall	_delay
	line	132
	
l2510:	
;gps coading.c: 132: if(i>43)
	movlw	high(02Ch)
	bcf	status, 5	;RP0=0, select bank0
	bcf	status, 6	;RP1=0, select bank0
	subwf	(_i+1),w
	movlw	low(02Ch)
	skipnz
	subwf	(_i),w
	skipc
	goto	u2701
	goto	u2700
u2701:
	goto	l603
u2700:
	line	135
	
l2512:	
;gps coading.c: 133: {
;gps coading.c: 135: lcd_cmd(0x80);
	movlw	(080h)
	fcall	_lcd_cmd
	line	136
	
l2514:	
;gps coading.c: 136: delay(1000);
	movlw	low(03E8h)
	movwf	(?_delay)
	movlw	high(03E8h)
	movwf	((?_delay))+1
	fcall	_delay
	line	138
	
l2516:	
;gps coading.c: 138: for(j=16;j<28;j++)
	movlw	low(010h)
	bcf	status, 5	;RP0=0, select bank0
	bcf	status, 6	;RP1=0, select bank0
	movwf	(_j)
	movlw	high(010h)
	movwf	((_j))+1
	
l2518:	
	movlw	high(01Ch)
	subwf	(_j+1),w
	movlw	low(01Ch)
	skipnz
	subwf	(_j),w
	skipc
	goto	u2711
	goto	u2710
u2711:
	goto	l604
u2710:
	
l2520:	
	goto	l605
	line	139
	
l604:	
	line	141
	
l2522:	
;gps coading.c: 139: {
;gps coading.c: 141: ser=(gpsdata[j]);
	movf	(_j),w
	addlw	_gpsdata&0ffh
	movwf	fsr0
	bcf	status, 7	;select IRP bank0
	movf	indf,w
	movwf	(??_gps_send+0)+0
	movf	(??_gps_send+0)+0,w
	movwf	(_ser)
	line	142
	
l2524:	
;gps coading.c: 142: lcd_data(ser);
	movf	(_ser),w
	fcall	_lcd_data
	line	144
	
l2526:	
;gps coading.c: 144: delay(600);
	movlw	low(0258h)
	movwf	(?_delay)
	movlw	high(0258h)
	movwf	((?_delay))+1
	fcall	_delay
	line	138
	
l2528:	
	movlw	low(01h)
	bcf	status, 5	;RP0=0, select bank0
	bcf	status, 6	;RP1=0, select bank0
	addwf	(_j),f
	skipnc
	incf	(_j+1),f
	movlw	high(01h)
	addwf	(_j+1),f
	
l2530:	
	movlw	high(01Ch)
	subwf	(_j+1),w
	movlw	low(01Ch)
	skipnz
	subwf	(_j),w
	skipc
	goto	u2721
	goto	u2720
u2721:
	goto	l604
u2720:
	
l605:	
	line	146
	
l2532:	
;gps coading.c: 145: }
;gps coading.c: 146: lcd_cmd(0xc0);
	movlw	(0C0h)
	fcall	_lcd_cmd
	line	148
	
l2534:	
;gps coading.c: 148: for(j=30;j<41;j++)
	movlw	low(01Eh)
	bcf	status, 5	;RP0=0, select bank0
	bcf	status, 6	;RP1=0, select bank0
	movwf	(_j)
	movlw	high(01Eh)
	movwf	((_j))+1
	
l2536:	
	movlw	high(029h)
	subwf	(_j+1),w
	movlw	low(029h)
	skipnz
	subwf	(_j),w
	skipc
	goto	u2731
	goto	u2730
u2731:
	goto	l606
u2730:
	
l2538:	
	goto	l607
	line	149
	
l606:	
	line	151
	
l2540:	
;gps coading.c: 149: {
;gps coading.c: 151: ser=(gpsdata[j]);
	movf	(_j),w
	addlw	_gpsdata&0ffh
	movwf	fsr0
	bcf	status, 7	;select IRP bank0
	movf	indf,w
	movwf	(??_gps_send+0)+0
	movf	(??_gps_send+0)+0,w
	movwf	(_ser)
	line	152
	
l2542:	
;gps coading.c: 152: lcd_data(ser);
	movf	(_ser),w
	fcall	_lcd_data
	line	154
	
l2544:	
;gps coading.c: 154: delay(600);
	movlw	low(0258h)
	movwf	(?_delay)
	movlw	high(0258h)
	movwf	((?_delay))+1
	fcall	_delay
	line	148
	
l2546:	
	movlw	low(01h)
	bcf	status, 5	;RP0=0, select bank0
	bcf	status, 6	;RP1=0, select bank0
	addwf	(_j),f
	skipnc
	incf	(_j+1),f
	movlw	high(01h)
	addwf	(_j+1),f
	
l2548:	
	movlw	high(029h)
	subwf	(_j+1),w
	movlw	low(029h)
	skipnz
	subwf	(_j),w
	skipc
	goto	u2741
	goto	u2740
u2741:
	goto	l606
u2740:
	
l607:	
	line	157
	
l2550:	
;gps coading.c: 155: }
;gps coading.c: 157: delay(50000);delay(50000);
	movlw	low(0C350h)
	movwf	(?_delay)
	movlw	high(0C350h)
	movwf	((?_delay))+1
	fcall	_delay
	movlw	low(0C350h)
	movwf	(?_delay)
	movlw	high(0C350h)
	movwf	((?_delay))+1
	fcall	_delay
	line	158
;gps coading.c: 158: delay(50000);delay(50000);
	movlw	low(0C350h)
	movwf	(?_delay)
	movlw	high(0C350h)
	movwf	((?_delay))+1
	fcall	_delay
	movlw	low(0C350h)
	movwf	(?_delay)
	movlw	high(0C350h)
	movwf	((?_delay))+1
	fcall	_delay
	line	160
	
l2552:	
;gps coading.c: 160: data_cap=0x00;
	clrc
	movlw	0
	btfsc	status,0
	movlw	1
	bcf	status, 5	;RP0=0, select bank0
	bcf	status, 6	;RP1=0, select bank0
	movwf	(_data_cap)
	line	161
	
l2554:	
;gps coading.c: 161: st=0x01;
	clrf	(_st)
	bsf	status,0
	rlf	(_st),f
	line	162
	
l2556:	
;gps coading.c: 162: i=0x00;
	movlw	low(0)
	movwf	(_i)
	movlw	high(0)
	movwf	((_i))+1
	line	164
;gps coading.c: 164: delay(35000);
	movlw	low(088B8h)
	movwf	(?_delay)
	movlw	high(088B8h)
	movwf	((?_delay))+1
	fcall	_delay
	line	166
	
l603:	
	line	167
	
l608:	
	return
	opt stack 0
GLOBAL	__end_of_gps_send
	__end_of_gps_send:
;; =============== function _gps_send ends ============

	signat	_gps_send,88
	global	_sms1
psect	text449,local,class=CODE,delta=2
global __ptext449
__ptext449:

;; *************** function _sms1 *****************
;; Defined at:
;;		line 194 in file "D:\Madhu\madhu pic folder\test coading\gps coading.c"
;; Parameters:    Size  Location     Type
;;		None
;; Auto vars:     Size  Location     Type
;;		None
;; Return value:  Size  Location     Type
;;		None               void
;; Registers used:
;;		wreg, fsr0l, fsr0h, status,2, status,0, btemp+0, pclath, cstack
;; Tracked objects:
;;		On entry : 0/0
;;		On exit  : 0/0
;;		Unchanged: 0/0
;; Data sizes:     COMMON   BANK0   BANK1   BANK3   BANK2
;;      Params:         0       0       0       0       0
;;      Locals:         0       0       0       0       0
;;      Temps:          0       1       0       0       0
;;      Totals:         0       1       0       0       0
;;Total ram usage:        1 bytes
;; Hardware stack levels used:    1
;; Hardware stack levels required when called:    3
;; This function calls:
;;		_txs
;;		_delay
;;		_gsm_command
;;		_lcd_cmd
;; This function is called by:
;;		_main
;; This function uses a non-reentrant model
;;
psect	text449
	file	"D:\Madhu\madhu pic folder\test coading\gps coading.c"
	line	194
	global	__size_of_sms1
	__size_of_sms1	equ	__end_of_sms1-_sms1
	
_sms1:	
	opt	stack 7
; Regs used in _sms1: [wreg-fsr0h+status,2-btemp+0+pclath+cstack]
	line	195
	
l2452:	
;gps coading.c: 195: txs('A');txs('T');txs('+');txs('C');txs('M');txs('G');
	movlw	(041h)
	fcall	_txs
	movlw	(054h)
	fcall	_txs
	movlw	(02Bh)
	fcall	_txs
	movlw	(043h)
	fcall	_txs
	movlw	(04Dh)
	fcall	_txs
	movlw	(047h)
	fcall	_txs
	line	196
;gps coading.c: 196: txs('S');txs('=');
	movlw	(053h)
	fcall	_txs
	movlw	(03Dh)
	fcall	_txs
	line	197
;gps coading.c: 197: txs('"');
	movlw	(022h)
	fcall	_txs
	line	198
;gps coading.c: 198: txs('9');txs('7');txs('5');txs('1');txs('5');
	movlw	(039h)
	fcall	_txs
	movlw	(037h)
	fcall	_txs
	movlw	(035h)
	fcall	_txs
	movlw	(031h)
	fcall	_txs
	movlw	(035h)
	fcall	_txs
	line	199
;gps coading.c: 199: txs('0');txs('5');txs('7');txs('0');txs('6');
	movlw	(030h)
	fcall	_txs
	movlw	(035h)
	fcall	_txs
	movlw	(037h)
	fcall	_txs
	movlw	(030h)
	fcall	_txs
	movlw	(036h)
	fcall	_txs
	line	200
;gps coading.c: 200: txs('"');
	movlw	(022h)
	fcall	_txs
	line	201
;gps coading.c: 201: txs(13); delay(10000);txs(10);
	movlw	(0Dh)
	fcall	_txs
	movlw	low(02710h)
	movwf	(?_delay)
	movlw	high(02710h)
	movwf	((?_delay))+1
	fcall	_delay
	movlw	(0Ah)
	fcall	_txs
	line	203
;gps coading.c: 203: delay(600);
	movlw	low(0258h)
	movwf	(?_delay)
	movlw	high(0258h)
	movwf	((?_delay))+1
	fcall	_delay
	line	204
;gps coading.c: 204: delay(600);
	movlw	low(0258h)
	movwf	(?_delay)
	movlw	high(0258h)
	movwf	((?_delay))+1
	fcall	_delay
	line	207
	
l2454:	
;gps coading.c: 207: gsm_command("gps location");
	movlw	((STR_2-__stringbase))&0ffh
	fcall	_gsm_command
	line	210
	
l2456:	
;gps coading.c: 210: lcd_cmd(0x80);
	movlw	(080h)
	fcall	_lcd_cmd
	line	211
	
l2458:	
;gps coading.c: 211: delay(1000);
	movlw	low(03E8h)
	movwf	(?_delay)
	movlw	high(03E8h)
	movwf	((?_delay))+1
	fcall	_delay
	line	213
	
l2460:	
;gps coading.c: 213: for(j=16;j<28;j++)
	movlw	low(010h)
	bcf	status, 5	;RP0=0, select bank0
	bcf	status, 6	;RP1=0, select bank0
	movwf	(_j)
	movlw	high(010h)
	movwf	((_j))+1
	
l2462:	
	movlw	high(01Ch)
	subwf	(_j+1),w
	movlw	low(01Ch)
	skipnz
	subwf	(_j),w
	skipc
	goto	u2661
	goto	u2660
u2661:
	goto	l626
u2660:
	
l2464:	
	goto	l627
	line	214
	
l626:	
	line	216
	
l2466:	
;gps coading.c: 214: {
;gps coading.c: 216: ser=(gpsdata[j]);
	movf	(_j),w
	addlw	_gpsdata&0ffh
	movwf	fsr0
	bcf	status, 7	;select IRP bank0
	movf	indf,w
	movwf	(??_sms1+0)+0
	movf	(??_sms1+0)+0,w
	movwf	(_ser)
	line	218
	
l2468:	
;gps coading.c: 218: TXREG=ser;
	movf	(_ser),w
	movwf	(25)	;volatile
	line	220
	
l2470:	
;gps coading.c: 220: delay(10000);
	movlw	low(02710h)
	movwf	(?_delay)
	movlw	high(02710h)
	movwf	((?_delay))+1
	fcall	_delay
	line	213
	
l2472:	
	movlw	low(01h)
	bcf	status, 5	;RP0=0, select bank0
	bcf	status, 6	;RP1=0, select bank0
	addwf	(_j),f
	skipnc
	incf	(_j+1),f
	movlw	high(01h)
	addwf	(_j+1),f
	
l2474:	
	movlw	high(01Ch)
	subwf	(_j+1),w
	movlw	low(01Ch)
	skipnz
	subwf	(_j),w
	skipc
	goto	u2671
	goto	u2670
u2671:
	goto	l626
u2670:
	
l627:	
	line	222
	
l2476:	
;gps coading.c: 221: }
;gps coading.c: 222: lcd_cmd(0xc0);
	movlw	(0C0h)
	fcall	_lcd_cmd
	line	224
	
l2478:	
;gps coading.c: 224: for(j=30;j<41;j++)
	movlw	low(01Eh)
	bcf	status, 5	;RP0=0, select bank0
	bcf	status, 6	;RP1=0, select bank0
	movwf	(_j)
	movlw	high(01Eh)
	movwf	((_j))+1
	
l2480:	
	movlw	high(029h)
	subwf	(_j+1),w
	movlw	low(029h)
	skipnz
	subwf	(_j),w
	skipc
	goto	u2681
	goto	u2680
u2681:
	goto	l628
u2680:
	
l2482:	
	goto	l629
	line	225
	
l628:	
	line	227
	
l2484:	
;gps coading.c: 225: {
;gps coading.c: 227: ser=(gpsdata[j]);
	movf	(_j),w
	addlw	_gpsdata&0ffh
	movwf	fsr0
	bcf	status, 7	;select IRP bank0
	movf	indf,w
	movwf	(??_sms1+0)+0
	movf	(??_sms1+0)+0,w
	movwf	(_ser)
	line	229
	
l2486:	
;gps coading.c: 229: TXREG=ser;
	movf	(_ser),w
	movwf	(25)	;volatile
	line	231
	
l2488:	
;gps coading.c: 231: delay(10000);
	movlw	low(02710h)
	movwf	(?_delay)
	movlw	high(02710h)
	movwf	((?_delay))+1
	fcall	_delay
	line	224
	
l2490:	
	movlw	low(01h)
	bcf	status, 5	;RP0=0, select bank0
	bcf	status, 6	;RP1=0, select bank0
	addwf	(_j),f
	skipnc
	incf	(_j+1),f
	movlw	high(01h)
	addwf	(_j+1),f
	
l2492:	
	movlw	high(029h)
	subwf	(_j+1),w
	movlw	low(029h)
	skipnz
	subwf	(_j),w
	skipc
	goto	u2691
	goto	u2690
u2691:
	goto	l628
u2690:
	
l629:	
	line	235
	
l2494:	
;gps coading.c: 232: }
;gps coading.c: 235: delay(600);
	movlw	low(0258h)
	movwf	(?_delay)
	movlw	high(0258h)
	movwf	((?_delay))+1
	fcall	_delay
	line	236
;gps coading.c: 236: txs(13);delay(60000);
	movlw	(0Dh)
	fcall	_txs
	movlw	low(0EA60h)
	movwf	(?_delay)
	movlw	high(0EA60h)
	movwf	((?_delay))+1
	fcall	_delay
	line	237
;gps coading.c: 237: txs(10);
	movlw	(0Ah)
	fcall	_txs
	line	238
;gps coading.c: 238: delay(10000);
	movlw	low(02710h)
	movwf	(?_delay)
	movlw	high(02710h)
	movwf	((?_delay))+1
	fcall	_delay
	line	240
;gps coading.c: 240: txs(26);
	movlw	(01Ah)
	fcall	_txs
	line	241
;gps coading.c: 241: delay(50000);delay(50000);
	movlw	low(0C350h)
	movwf	(?_delay)
	movlw	high(0C350h)
	movwf	((?_delay))+1
	fcall	_delay
	movlw	low(0C350h)
	movwf	(?_delay)
	movlw	high(0C350h)
	movwf	((?_delay))+1
	fcall	_delay
	line	242
;gps coading.c: 242: delay(50000);delay(50000);
	movlw	low(0C350h)
	movwf	(?_delay)
	movlw	high(0C350h)
	movwf	((?_delay))+1
	fcall	_delay
	movlw	low(0C350h)
	movwf	(?_delay)
	movlw	high(0C350h)
	movwf	((?_delay))+1
	fcall	_delay
	line	243
	
l630:	
	return
	opt stack 0
GLOBAL	__end_of_sms1
	__end_of_sms1:
;; =============== function _sms1 ends ============

	signat	_sms1,88
	global	_lcd_init
psect	text450,local,class=CODE,delta=2
global __ptext450
__ptext450:

;; *************** function _lcd_init *****************
;; Defined at:
;;		line 82 in file "D:\Madhu\madhu pic folder\test coading\gps coading.c"
;; Parameters:    Size  Location     Type
;;		None
;; Auto vars:     Size  Location     Type
;;		None
;; Return value:  Size  Location     Type
;;		None               void
;; Registers used:
;;		wreg, status,2, status,0, btemp+0, pclath, cstack
;; Tracked objects:
;;		On entry : 0/0
;;		On exit  : 0/0
;;		Unchanged: 0/0
;; Data sizes:     COMMON   BANK0   BANK1   BANK3   BANK2
;;      Params:         0       0       0       0       0
;;      Locals:         0       0       0       0       0
;;      Temps:          0       0       0       0       0
;;      Totals:         0       0       0       0       0
;;Total ram usage:        0 bytes
;; Hardware stack levels used:    1
;; Hardware stack levels required when called:    3
;; This function calls:
;;		_lcd_cmd
;; This function is called by:
;;		_main
;; This function uses a non-reentrant model
;;
psect	text450
	file	"D:\Madhu\madhu pic folder\test coading\gps coading.c"
	line	82
	global	__size_of_lcd_init
	__size_of_lcd_init	equ	__end_of_lcd_init-_lcd_init
	
_lcd_init:	
	opt	stack 7
; Regs used in _lcd_init: [wreg+status,2-btemp+0+pclath+cstack]
	line	83
	
l2450:	
;gps coading.c: 83: lcd_cmd(0x02);
	movlw	(02h)
	fcall	_lcd_cmd
	line	84
;gps coading.c: 84: lcd_cmd(0x2c);
	movlw	(02Ch)
	fcall	_lcd_cmd
	line	85
;gps coading.c: 85: lcd_cmd(0x06);
	movlw	(06h)
	fcall	_lcd_cmd
	line	86
;gps coading.c: 86: lcd_cmd(0x01);
	movlw	(01h)
	fcall	_lcd_cmd
	line	87
;gps coading.c: 87: lcd_cmd(0x0c);
	movlw	(0Ch)
	fcall	_lcd_cmd
	line	88
;gps coading.c: 88: lcd_cmd(0x80);
	movlw	(080h)
	fcall	_lcd_cmd
	line	89
	
l594:	
	return
	opt stack 0
GLOBAL	__end_of_lcd_init
	__end_of_lcd_init:
;; =============== function _lcd_init ends ============

	signat	_lcd_init,88
	global	_lcd_display
psect	text451,local,class=CODE,delta=2
global __ptext451
__ptext451:

;; *************** function _lcd_display *****************
;; Defined at:
;;		line 72 in file "D:\Madhu\madhu pic folder\test coading\gps coading.c"
;; Parameters:    Size  Location     Type
;;  m               1    wreg     PTR const unsigned char 
;;		 -> STR_4(12), STR_3(8), STR_1(4), 
;; Auto vars:     Size  Location     Type
;;  m               1    3[BANK0 ] PTR const unsigned char 
;;		 -> STR_4(12), STR_3(8), STR_1(4), 
;;  k               2    4[BANK0 ] int 
;; Return value:  Size  Location     Type
;;		None               void
;; Registers used:
;;		wreg, fsr0l, fsr0h, status,2, status,0, btemp+0, pclath, cstack
;; Tracked objects:
;;		On entry : 0/0
;;		On exit  : 0/0
;;		Unchanged: 0/0
;; Data sizes:     COMMON   BANK0   BANK1   BANK3   BANK2
;;      Params:         0       0       0       0       0
;;      Locals:         0       3       0       0       0
;;      Temps:          0       0       0       0       0
;;      Totals:         0       3       0       0       0
;;Total ram usage:        3 bytes
;; Hardware stack levels used:    1
;; Hardware stack levels required when called:    3
;; This function calls:
;;		_lcd_data
;; This function is called by:
;;		_gps_send
;;		_main
;; This function uses a non-reentrant model
;;
psect	text451
	file	"D:\Madhu\madhu pic folder\test coading\gps coading.c"
	line	72
	global	__size_of_lcd_display
	__size_of_lcd_display	equ	__end_of_lcd_display-_lcd_display
	
_lcd_display:	
	opt	stack 6
; Regs used in _lcd_display: [wreg-fsr0h+status,2-btemp+0+pclath+cstack]
;lcd_display@m stored from wreg
	bcf	status, 5	;RP0=0, select bank0
	bcf	status, 6	;RP1=0, select bank0
	movwf	(lcd_display@m)
	line	73
	
l2442:	
;gps coading.c: 73: for(int k=0;m[k]!=0;k++)
	movlw	low(0)
	movwf	(lcd_display@k)
	movlw	high(0)
	movwf	((lcd_display@k))+1
	goto	l588
	line	74
	
l589:	
	line	75
	
l2444:	
;gps coading.c: 74: {
;gps coading.c: 75: lcd_data(m[k]);
	movf	(lcd_display@k),w
	addwf	(lcd_display@m),w
	movwf	fsr0
	fcall	stringdir
	fcall	_lcd_data
	line	73
	
l2446:	
	movlw	low(01h)
	bcf	status, 5	;RP0=0, select bank0
	bcf	status, 6	;RP1=0, select bank0
	addwf	(lcd_display@k),f
	skipnc
	incf	(lcd_display@k+1),f
	movlw	high(01h)
	addwf	(lcd_display@k+1),f
	
l588:	
	
l2448:	
	movf	(lcd_display@k),w
	addwf	(lcd_display@m),w
	movwf	fsr0
	fcall	stringdir
	iorlw	0
	skipz
	goto	u2651
	goto	u2650
u2651:
	goto	l589
u2650:
	
l590:	
	line	77
	
l591:	
	return
	opt stack 0
GLOBAL	__end_of_lcd_display
	__end_of_lcd_display:
;; =============== function _lcd_display ends ============

	signat	_lcd_display,4216
	global	_serial
psect	text452,local,class=CODE,delta=2
global __ptext452
__ptext452:

;; *************** function _serial *****************
;; Defined at:
;;		line 245 in file "D:\Madhu\madhu pic folder\test coading\gps coading.c"
;; Parameters:    Size  Location     Type
;;  a               1    wreg     PTR const unsigned char 
;;		 -> STR_6(10), STR_5(3), 
;; Auto vars:     Size  Location     Type
;;  a               1    1[BANK0 ] PTR const unsigned char 
;;		 -> STR_6(10), STR_5(3), 
;;  B               1    2[BANK0 ] unsigned char 
;; Return value:  Size  Location     Type
;;		None               void
;; Registers used:
;;		wreg, fsr0l, fsr0h, status,2, status,0, pclath, cstack
;; Tracked objects:
;;		On entry : 0/0
;;		On exit  : 0/0
;;		Unchanged: 0/0
;; Data sizes:     COMMON   BANK0   BANK1   BANK3   BANK2
;;      Params:         0       0       0       0       0
;;      Locals:         0       2       0       0       0
;;      Temps:          0       1       0       0       0
;;      Totals:         0       3       0       0       0
;;Total ram usage:        3 bytes
;; Hardware stack levels used:    1
;; Hardware stack levels required when called:    2
;; This function calls:
;;		_delay
;; This function is called by:
;;		_main
;; This function uses a non-reentrant model
;;
psect	text452
	file	"D:\Madhu\madhu pic folder\test coading\gps coading.c"
	line	245
	global	__size_of_serial
	__size_of_serial	equ	__end_of_serial-_serial
	
_serial:	
	opt	stack 7
; Regs used in _serial: [wreg-fsr0h+status,2+status,0+pclath+cstack]
;serial@a stored from wreg
	line	247
	bcf	status, 5	;RP0=0, select bank0
	bcf	status, 6	;RP1=0, select bank0
	movwf	(serial@a)
	
l2432:	
;gps coading.c: 246: unsigned char B;
;gps coading.c: 247: for(B=0;a[B]!=0;B++)
	clrc
	movlw	0
	btfsc	status,0
	movlw	1
	movwf	(serial@B)
	goto	l633
	line	248
	
l634:	
	line	249
	
l2434:	
;gps coading.c: 248: {
;gps coading.c: 249: TXREG=a[B];
	movf	(serial@B),w
	addwf	(serial@a),w
	movwf	fsr0
	fcall	stringdir
	movwf	(25)	;volatile
	line	250
	
l2436:	
;gps coading.c: 250: delay(20000);
	movlw	low(04E20h)
	movwf	(?_delay)
	movlw	high(04E20h)
	movwf	((?_delay))+1
	fcall	_delay
	line	247
	
l2438:	
	movlw	(01h)
	bcf	status, 5	;RP0=0, select bank0
	bcf	status, 6	;RP1=0, select bank0
	movwf	(??_serial+0)+0
	movf	(??_serial+0)+0,w
	addwf	(serial@B),f
	
l633:	
	
l2440:	
	movf	(serial@B),w
	addwf	(serial@a),w
	movwf	fsr0
	fcall	stringdir
	iorlw	0
	skipz
	goto	u2641
	goto	u2640
u2641:
	goto	l634
u2640:
	
l635:	
	line	253
	
l636:	
	return
	opt stack 0
GLOBAL	__end_of_serial
	__end_of_serial:
;; =============== function _serial ends ============

	signat	_serial,4216
	global	_lcd_data
psect	text453,local,class=CODE,delta=2
global __ptext453
__ptext453:

;; *************** function _lcd_data *****************
;; Defined at:
;;		line 53 in file "D:\Madhu\madhu pic folder\test coading\gps coading.c"
;; Parameters:    Size  Location     Type
;;  dat             1    wreg     unsigned char 
;; Auto vars:     Size  Location     Type
;;  dat             1    2[BANK0 ] unsigned char 
;; Return value:  Size  Location     Type
;;		None               void
;; Registers used:
;;		wreg, status,2, status,0, btemp+0, pclath, cstack
;; Tracked objects:
;;		On entry : 0/0
;;		On exit  : 0/0
;;		Unchanged: 0/0
;; Data sizes:     COMMON   BANK0   BANK1   BANK3   BANK2
;;      Params:         0       0       0       0       0
;;      Locals:         0       1       0       0       0
;;      Temps:          0       2       0       0       0
;;      Totals:         0       3       0       0       0
;;Total ram usage:        3 bytes
;; Hardware stack levels used:    1
;; Hardware stack levels required when called:    2
;; This function calls:
;;		_delay
;; This function is called by:
;;		_lcd_display
;;		_gps_send
;; This function uses a non-reentrant model
;;
psect	text453
	file	"D:\Madhu\madhu pic folder\test coading\gps coading.c"
	line	53
	global	__size_of_lcd_data
	__size_of_lcd_data	equ	__end_of_lcd_data-_lcd_data
	
_lcd_data:	
	opt	stack 6
; Regs used in _lcd_data: [wreg+status,2-btemp+0+pclath+cstack]
;lcd_data@dat stored from wreg
	bcf	status, 5	;RP0=0, select bank0
	bcf	status, 6	;RP1=0, select bank0
	movwf	(lcd_data@dat)
	line	54
	
l2406:	
;gps coading.c: 54: PORTD=(dat&0xf0);
	movf	(lcd_data@dat),w
	andlw	0F0h
	movwf	(8)	;volatile
	line	55
	
l2408:	
;gps coading.c: 55: RD1=1;
	bsf	(65/8),(65)&7
	line	56
	
l2410:	
;gps coading.c: 56: RD2=0;
	bcf	(66/8),(66)&7
	line	57
	
l2412:	
;gps coading.c: 57: RD3=1;
	bsf	(67/8),(67)&7
	line	58
	
l2414:	
;gps coading.c: 58: delay(200);
	movlw	low(0C8h)
	movwf	(?_delay)
	movlw	high(0C8h)
	movwf	((?_delay))+1
	fcall	_delay
	line	59
	
l2416:	
;gps coading.c: 59: RD3=0;
	bcf	status, 5	;RP0=0, select bank0
	bcf	status, 6	;RP1=0, select bank0
	bcf	(67/8),(67)&7
	line	60
	
l2418:	
;gps coading.c: 60: temp=dat<<4;
	movf	(lcd_data@dat),w
	movwf	(??_lcd_data+0)+0
	clrf	(??_lcd_data+0)+0+1
	movlw	04h
	movwf	btemp+0
u2635:
	clrc
	rlf	(??_lcd_data+0)+0,f
	rlf	(??_lcd_data+0)+1,f
	decfsz	btemp+0,f
	goto	u2635
	movf	0+(??_lcd_data+0)+0,w
	movwf	(_temp)
	movf	1+(??_lcd_data+0)+0,w
	movwf	(_temp+1)
	line	61
	
l2420:	
;gps coading.c: 61: PORTD=(temp&0xf0);
	movf	(_temp),w
	andlw	0F0h
	movwf	(8)	;volatile
	line	62
	
l2422:	
;gps coading.c: 62: RD1=1;
	bsf	(65/8),(65)&7
	line	63
	
l2424:	
;gps coading.c: 63: RD2=0;
	bcf	(66/8),(66)&7
	line	64
	
l2426:	
;gps coading.c: 64: RD3=1;
	bsf	(67/8),(67)&7
	line	65
	
l2428:	
;gps coading.c: 65: delay(200);
	movlw	low(0C8h)
	movwf	(?_delay)
	movlw	high(0C8h)
	movwf	((?_delay))+1
	fcall	_delay
	line	66
	
l2430:	
;gps coading.c: 66: RD3=0;
	bcf	status, 5	;RP0=0, select bank0
	bcf	status, 6	;RP1=0, select bank0
	bcf	(67/8),(67)&7
	line	67
	
l585:	
	return
	opt stack 0
GLOBAL	__end_of_lcd_data
	__end_of_lcd_data:
;; =============== function _lcd_data ends ============

	signat	_lcd_data,4216
	global	_lcd_cmd
psect	text454,local,class=CODE,delta=2
global __ptext454
__ptext454:

;; *************** function _lcd_cmd *****************
;; Defined at:
;;		line 34 in file "D:\Madhu\madhu pic folder\test coading\gps coading.c"
;; Parameters:    Size  Location     Type
;;  com             1    wreg     unsigned char 
;; Auto vars:     Size  Location     Type
;;  com             1    2[BANK0 ] unsigned char 
;; Return value:  Size  Location     Type
;;		None               void
;; Registers used:
;;		wreg, status,2, status,0, btemp+0, pclath, cstack
;; Tracked objects:
;;		On entry : 0/0
;;		On exit  : 0/0
;;		Unchanged: 0/0
;; Data sizes:     COMMON   BANK0   BANK1   BANK3   BANK2
;;      Params:         0       0       0       0       0
;;      Locals:         0       1       0       0       0
;;      Temps:          0       2       0       0       0
;;      Totals:         0       3       0       0       0
;;Total ram usage:        3 bytes
;; Hardware stack levels used:    1
;; Hardware stack levels required when called:    2
;; This function calls:
;;		_delay
;; This function is called by:
;;		_lcd_init
;;		_gps_send
;;		_sms1
;;		_main
;; This function uses a non-reentrant model
;;
psect	text454
	file	"D:\Madhu\madhu pic folder\test coading\gps coading.c"
	line	34
	global	__size_of_lcd_cmd
	__size_of_lcd_cmd	equ	__end_of_lcd_cmd-_lcd_cmd
	
_lcd_cmd:	
	opt	stack 6
; Regs used in _lcd_cmd: [wreg+status,2-btemp+0+pclath+cstack]
;lcd_cmd@com stored from wreg
	bcf	status, 5	;RP0=0, select bank0
	bcf	status, 6	;RP1=0, select bank0
	movwf	(lcd_cmd@com)
	line	35
	
l2380:	
;gps coading.c: 35: PORTD=(com&0xf0);
	movf	(lcd_cmd@com),w
	andlw	0F0h
	movwf	(8)	;volatile
	line	36
	
l2382:	
;gps coading.c: 36: RD1=0;
	bcf	(65/8),(65)&7
	line	37
	
l2384:	
;gps coading.c: 37: RD2=0;
	bcf	(66/8),(66)&7
	line	38
	
l2386:	
;gps coading.c: 38: RD3=1;
	bsf	(67/8),(67)&7
	line	39
	
l2388:	
;gps coading.c: 39: delay(200);
	movlw	low(0C8h)
	movwf	(?_delay)
	movlw	high(0C8h)
	movwf	((?_delay))+1
	fcall	_delay
	line	40
	
l2390:	
;gps coading.c: 40: RD3=0;
	bcf	status, 5	;RP0=0, select bank0
	bcf	status, 6	;RP1=0, select bank0
	bcf	(67/8),(67)&7
	line	41
	
l2392:	
;gps coading.c: 41: temp=com<<4;
	movf	(lcd_cmd@com),w
	movwf	(??_lcd_cmd+0)+0
	clrf	(??_lcd_cmd+0)+0+1
	movlw	04h
	movwf	btemp+0
u2625:
	clrc
	rlf	(??_lcd_cmd+0)+0,f
	rlf	(??_lcd_cmd+0)+1,f
	decfsz	btemp+0,f
	goto	u2625
	movf	0+(??_lcd_cmd+0)+0,w
	movwf	(_temp)
	movf	1+(??_lcd_cmd+0)+0,w
	movwf	(_temp+1)
	line	42
	
l2394:	
;gps coading.c: 42: PORTD=(temp&0xf0);
	movf	(_temp),w
	andlw	0F0h
	movwf	(8)	;volatile
	line	43
	
l2396:	
;gps coading.c: 43: RD1=0;
	bcf	(65/8),(65)&7
	line	44
	
l2398:	
;gps coading.c: 44: RD2=0;
	bcf	(66/8),(66)&7
	line	45
	
l2400:	
;gps coading.c: 45: RD3=1;
	bsf	(67/8),(67)&7
	line	46
	
l2402:	
;gps coading.c: 46: delay(200);
	movlw	low(0C8h)
	movwf	(?_delay)
	movlw	high(0C8h)
	movwf	((?_delay))+1
	fcall	_delay
	line	47
	
l2404:	
;gps coading.c: 47: RD3=0;
	bcf	status, 5	;RP0=0, select bank0
	bcf	status, 6	;RP1=0, select bank0
	bcf	(67/8),(67)&7
	line	48
	
l582:	
	return
	opt stack 0
GLOBAL	__end_of_lcd_cmd
	__end_of_lcd_cmd:
;; =============== function _lcd_cmd ends ============

	signat	_lcd_cmd,4216
	global	_txs
psect	text455,local,class=CODE,delta=2
global __ptext455
__ptext455:

;; *************** function _txs *****************
;; Defined at:
;;		line 185 in file "D:\Madhu\madhu pic folder\test coading\gps coading.c"
;; Parameters:    Size  Location     Type
;;  val             1    wreg     unsigned char 
;; Auto vars:     Size  Location     Type
;;  val             1    5[COMMON] unsigned char 
;; Return value:  Size  Location     Type
;;		None               void
;; Registers used:
;;		wreg
;; Tracked objects:
;;		On entry : 0/0
;;		On exit  : 0/0
;;		Unchanged: 0/0
;; Data sizes:     COMMON   BANK0   BANK1   BANK3   BANK2
;;      Params:         0       0       0       0       0
;;      Locals:         1       0       0       0       0
;;      Temps:          0       0       0       0       0
;;      Totals:         1       0       0       0       0
;;Total ram usage:        1 bytes
;; Hardware stack levels used:    1
;; Hardware stack levels required when called:    1
;; This function calls:
;;		Nothing
;; This function is called by:
;;		_sms1
;;		_main
;; This function uses a non-reentrant model
;;
psect	text455
	file	"D:\Madhu\madhu pic folder\test coading\gps coading.c"
	line	185
	global	__size_of_txs
	__size_of_txs	equ	__end_of_txs-_txs
	
_txs:	
	opt	stack 6
; Regs used in _txs: [wreg]
;txs@val stored from wreg
	movwf	(txs@val)
	line	186
	
l2122:	
;gps coading.c: 186: while(!TXIF)
	goto	l620
	
l621:	
	line	188
;gps coading.c: 187: {
	
l620:	
	line	186
	bcf	status, 5	;RP0=0, select bank0
	bcf	status, 6	;RP1=0, select bank0
	btfss	(100/8),(100)&7
	goto	u2451
	goto	u2450
u2451:
	goto	l621
u2450:
	
l622:	
	line	189
;gps coading.c: 188: }
;gps coading.c: 189: OERR=0;
	bcf	(193/8),(193)&7
	line	190
	
l2124:	
;gps coading.c: 190: TXREG=val;
	movf	(txs@val),w
	movwf	(25)	;volatile
	line	191
	
l623:	
	return
	opt stack 0
GLOBAL	__end_of_txs
	__end_of_txs:
;; =============== function _txs ends ============

	signat	_txs,4216
	global	_gsm_command
psect	text456,local,class=CODE,delta=2
global __ptext456
__ptext456:

;; *************** function _gsm_command *****************
;; Defined at:
;;		line 172 in file "D:\Madhu\madhu pic folder\test coading\gps coading.c"
;; Parameters:    Size  Location     Type
;;  da              1    wreg     PTR const unsigned char 
;;		 -> STR_2(13), 
;; Auto vars:     Size  Location     Type
;;  da              1    0[BANK0 ] PTR const unsigned char 
;;		 -> STR_2(13), 
;;  s               2    1[BANK0 ] unsigned int 
;; Return value:  Size  Location     Type
;;		None               void
;; Registers used:
;;		wreg, fsr0l, fsr0h, status,2, status,0, pclath
;; Tracked objects:
;;		On entry : 0/0
;;		On exit  : 0/0
;;		Unchanged: 0/0
;; Data sizes:     COMMON   BANK0   BANK1   BANK3   BANK2
;;      Params:         0       0       0       0       0
;;      Locals:         0       3       0       0       0
;;      Temps:          0       0       0       0       0
;;      Totals:         0       3       0       0       0
;;Total ram usage:        3 bytes
;; Hardware stack levels used:    2
;; Hardware stack levels required when called:    1
;; This function calls:
;;		Nothing
;; This function is called by:
;;		_sms1
;; This function uses a non-reentrant model
;;
psect	text456
	file	"D:\Madhu\madhu pic folder\test coading\gps coading.c"
	line	172
	global	__size_of_gsm_command
	__size_of_gsm_command	equ	__end_of_gsm_command-_gsm_command
	
_gsm_command:	
	opt	stack 5
; Regs used in _gsm_command: [wreg-fsr0h+status,2+status,0+pclath]
;gsm_command@da stored from wreg
	line	174
	bcf	status, 5	;RP0=0, select bank0
	bcf	status, 6	;RP1=0, select bank0
	movwf	(gsm_command@da)
	
l2372:	
;gps coading.c: 173: unsigned int s;
;gps coading.c: 174: for(s=0;da[s]!=0;s++)
	movlw	low(0)
	movwf	(gsm_command@s)
	movlw	high(0)
	movwf	((gsm_command@s))+1
	goto	l611
	line	175
	
l612:	
	line	176
;gps coading.c: 175: {
;gps coading.c: 176: while(!TXIF)
	goto	l613
	
l614:	
	line	178
;gps coading.c: 177: {
	
l613:	
	line	176
	btfss	(100/8),(100)&7
	goto	u2601
	goto	u2600
u2601:
	goto	l614
u2600:
	
l615:	
	line	179
;gps coading.c: 178: }
;gps coading.c: 179: OERR=0;
	bcf	(193/8),(193)&7
	line	180
	
l2374:	
;gps coading.c: 180: TXREG=da[s];
	movf	(gsm_command@s),w
	addwf	(gsm_command@da),w
	movwf	fsr0
	fcall	stringdir
	movwf	(25)	;volatile
	line	174
	
l2376:	
	movlw	low(01h)
	addwf	(gsm_command@s),f
	skipnc
	incf	(gsm_command@s+1),f
	movlw	high(01h)
	addwf	(gsm_command@s+1),f
	
l611:	
	
l2378:	
	movf	(gsm_command@s),w
	addwf	(gsm_command@da),w
	movwf	fsr0
	fcall	stringdir
	iorlw	0
	skipz
	goto	u2611
	goto	u2610
u2611:
	goto	l612
u2610:
	
l616:	
	line	182
	
l617:	
	return
	opt stack 0
GLOBAL	__end_of_gsm_command
	__end_of_gsm_command:
;; =============== function _gsm_command ends ============

	signat	_gsm_command,4216
	global	_gps_init
psect	text457,local,class=CODE,delta=2
global __ptext457
__ptext457:

;; *************** function _gps_init *****************
;; Defined at:
;;		line 18 in file "D:\Madhu\madhu pic folder\test coading\gps coading.c"
;; Parameters:    Size  Location     Type
;;		None
;; Auto vars:     Size  Location     Type
;;		None
;; Return value:  Size  Location     Type
;;		None               void
;; Registers used:
;;		wreg
;; Tracked objects:
;;		On entry : 0/0
;;		On exit  : 0/0
;;		Unchanged: 0/0
;; Data sizes:     COMMON   BANK0   BANK1   BANK3   BANK2
;;      Params:         0       0       0       0       0
;;      Locals:         0       0       0       0       0
;;      Temps:          0       0       0       0       0
;;      Totals:         0       0       0       0       0
;;Total ram usage:        0 bytes
;; Hardware stack levels used:    1
;; Hardware stack levels required when called:    1
;; This function calls:
;;		Nothing
;; This function is called by:
;;		_main
;; This function uses a non-reentrant model
;;
psect	text457
	file	"D:\Madhu\madhu pic folder\test coading\gps coading.c"
	line	18
	global	__size_of_gps_init
	__size_of_gps_init	equ	__end_of_gps_init-_gps_init
	
_gps_init:	
	opt	stack 7
; Regs used in _gps_init: [wreg]
	line	19
	
l1020:	
;gps coading.c: 19: TXSTA=0X24;
	movlw	(024h)
	bsf	status, 5	;RP0=1, select bank1
	bcf	status, 6	;RP1=0, select bank1
	movwf	(152)^080h	;volatile
	line	20
;gps coading.c: 20: RCSTA=0X90;
	movlw	(090h)
	bcf	status, 5	;RP0=0, select bank0
	bcf	status, 6	;RP1=0, select bank0
	movwf	(24)	;volatile
	line	21
;gps coading.c: 21: SPBRG=25;
	movlw	(019h)
	bsf	status, 5	;RP0=1, select bank1
	bcf	status, 6	;RP1=0, select bank1
	movwf	(153)^080h	;volatile
	line	22
	
l1022:	
;gps coading.c: 22: BRGH=1;
	bsf	(1218/8)^080h,(1218)&7
	line	23
	
l1024:	
;gps coading.c: 23: GIE=1;
	bsf	(95/8),(95)&7
	line	24
	
l1026:	
;gps coading.c: 24: PEIE=1;
	bsf	(94/8),(94)&7
	line	25
	
l1028:	
;gps coading.c: 25: RCIE=1;
	bsf	(1125/8)^080h,(1125)&7
	line	27
	
l579:	
	return
	opt stack 0
GLOBAL	__end_of_gps_init
	__end_of_gps_init:
;; =============== function _gps_init ends ============

	signat	_gps_init,88
	global	_delay
psect	text458,local,class=CODE,delta=2
global __ptext458
__ptext458:

;; *************** function _delay *****************
;; Defined at:
;;		line 11 in file "D:\Madhu\madhu pic folder\test coading\gps coading.c"
;; Parameters:    Size  Location     Type
;;  x               2    5[COMMON] unsigned int 
;; Auto vars:     Size  Location     Type
;;		None
;; Return value:  Size  Location     Type
;;		None               void
;; Registers used:
;;		wreg
;; Tracked objects:
;;		On entry : 0/0
;;		On exit  : 0/0
;;		Unchanged: 0/0
;; Data sizes:     COMMON   BANK0   BANK1   BANK3   BANK2
;;      Params:         2       0       0       0       0
;;      Locals:         0       0       0       0       0
;;      Temps:          0       0       0       0       0
;;      Totals:         2       0       0       0       0
;;Total ram usage:        2 bytes
;; Hardware stack levels used:    1
;; Hardware stack levels required when called:    1
;; This function calls:
;;		Nothing
;; This function is called by:
;;		_lcd_cmd
;;		_lcd_data
;;		_gps_send
;;		_sms1
;;		_serial
;;		_main
;; This function uses a non-reentrant model
;;
psect	text458
	file	"D:\Madhu\madhu pic folder\test coading\gps coading.c"
	line	11
	global	__size_of_delay
	__size_of_delay	equ	__end_of_delay-_delay
	
_delay:	
	opt	stack 5
; Regs used in _delay: [wreg]
	line	12
	
l2092:	
;gps coading.c: 12: while (x--);
	goto	l573
	
l574:	
	
l573:	
	
l2094:	
	movlw	low(01h)
	subwf	(delay@x),f
	movlw	high(01h)
	skipc
	decf	(delay@x+1),f
	subwf	(delay@x+1),f
	movlw	high(0FFFFh)
	xorwf	((delay@x+1)),w
	skipz
	goto	u2375
	movlw	low(0FFFFh)
	xorwf	((delay@x)),w
u2375:

	skipz
	goto	u2371
	goto	u2370
u2371:
	goto	l574
u2370:
	
l575:	
	line	13
	
l576:	
	return
	opt stack 0
GLOBAL	__end_of_delay
	__end_of_delay:
;; =============== function _delay ends ============

	signat	_delay,4216
	global	_rcx
psect	text459,local,class=CODE,delta=2
global __ptext459
__ptext459:

;; *************** function _rcx *****************
;; Defined at:
;;		line 94 in file "D:\Madhu\madhu pic folder\test coading\gps coading.c"
;; Parameters:    Size  Location     Type
;;		None
;; Auto vars:     Size  Location     Type
;;		None
;; Return value:  Size  Location     Type
;;		None               void
;; Registers used:
;;		wreg, fsr0l, fsr0h, status,2, status,0
;; Tracked objects:
;;		On entry : 0/0
;;		On exit  : 0/0
;;		Unchanged: 0/0
;; Data sizes:     COMMON   BANK0   BANK1   BANK3   BANK2
;;      Params:         0       0       0       0       0
;;      Locals:         0       0       0       0       0
;;      Temps:          5       0       0       0       0
;;      Totals:         5       0       0       0       0
;;Total ram usage:        5 bytes
;; Hardware stack levels used:    1
;; This function calls:
;;		Nothing
;; This function is called by:
;;		Interrupt level 1
;; This function uses a non-reentrant model
;;
psect	text459
	file	"D:\Madhu\madhu pic folder\test coading\gps coading.c"
	line	94
	global	__size_of_rcx
	__size_of_rcx	equ	__end_of_rcx-_rcx
	
_rcx:	
	opt	stack 3
; Regs used in _rcx: [wreg-fsr0h+status,2+status,0]
psect	intentry,class=CODE,delta=2
global __pintentry
__pintentry:
global interrupt_function
interrupt_function:
	global saved_w
	saved_w	set	btemp+0
	movwf	saved_w
	movf	status,w
	movwf	(??_rcx+1)
	movf	fsr0,w
	movwf	(??_rcx+2)
	movf	pclath,w
	movwf	(??_rcx+3)
	movf	btemp+1,w
	movwf	(??_rcx+4)
	ljmp	_rcx
psect	text459
	line	96
	
i1l2096:	
;gps coading.c: 96: if(RCIF==1)
	bcf	status, 5	;RP0=0, select bank0
	bcf	status, 6	;RP1=0, select bank0
	btfss	(101/8),(101)&7
	goto	u238_21
	goto	u238_20
u238_21:
	goto	i1l597
u238_20:
	line	99
	
i1l2098:	
;gps coading.c: 97: {
;gps coading.c: 99: RCIF=0;
	bcf	(101/8),(101)&7
	line	100
	
i1l2100:	
;gps coading.c: 100: ser=RCREG;
	movf	(26),w	;volatile
	movwf	(??_rcx+0)+0
	movf	(??_rcx+0)+0,w
	movwf	(_ser)
	line	102
;gps coading.c: 102: if((ser==0x52)&&(st==0x01))
	movf	(_ser),w
	xorlw	052h
	skipz
	goto	u239_21
	goto	u239_20
u239_21:
	goto	i1l598
u239_20:
	
i1l2102:	
	movf	(_st),w
	xorlw	01h
	skipz
	goto	u240_21
	goto	u240_20
u240_21:
	goto	i1l598
u240_20:
	line	104
	
i1l2104:	
;gps coading.c: 103: {
;gps coading.c: 104: data_cap=0x01;
	clrf	(_data_cap)
	bsf	status,0
	rlf	(_data_cap),f
	line	105
	
i1l2106:	
;gps coading.c: 105: st=0x00;
	clrc
	movlw	0
	btfsc	status,0
	movlw	1
	movwf	(_st)
	line	106
	
i1l598:	
	line	107
;gps coading.c: 106: }
;gps coading.c: 107: if((data_cap==0x01)&&(i<45))
	movf	(_data_cap),w
	xorlw	01h
	skipz
	goto	u241_21
	goto	u241_20
u241_21:
	goto	i1l599
u241_20:
	
i1l2108:	
	movlw	high(02Dh)
	subwf	(_i+1),w
	movlw	low(02Dh)
	skipnz
	subwf	(_i),w
	skipnc
	goto	u242_21
	goto	u242_20
u242_21:
	goto	i1l599
u242_20:
	line	109
	
i1l2110:	
;gps coading.c: 108: {
;gps coading.c: 109: gpsdata[i]=ser;
	movf	(_ser),w
	movwf	(??_rcx+0)+0
	movf	(_i),w
	addlw	_gpsdata&0ffh
	movwf	fsr0
	movf	(??_rcx+0)+0,w
	bcf	status, 7	;select IRP bank0
	movwf	indf
	line	110
	
i1l2112:	
;gps coading.c: 110: i=i+1;
	movf	(_i),w
	addlw	low(01h)
	movwf	(_i)
	movf	(_i+1),w
	skipnc
	addlw	1
	addlw	high(01h)
	movwf	1+(_i)
	line	111
	
i1l599:	
	line	112
	
i1l597:	
	line	113
	
i1l600:	
	movf	(??_rcx+4),w
	movwf	btemp+1
	movf	(??_rcx+3),w
	movwf	pclath
	movf	(??_rcx+2),w
	movwf	fsr0
	movf	(??_rcx+1),w
	movwf	status
	swapf	saved_w,f
	swapf	saved_w,w
	retfie
	opt stack 0
GLOBAL	__end_of_rcx
	__end_of_rcx:
;; =============== function _rcx ends ============

	signat	_rcx,88
psect	text460,local,class=CODE,delta=2
global __ptext460
__ptext460:
	global	btemp
	btemp set 07Eh

	DABS	1,126,2	;btemp
	global	wtemp0
	wtemp0 set btemp
	end
