

HI-TECH Software PIC LITE Macro Assembler V9.71a build 6446 
                                                                                               Mon Jan 23 19:28:31 2023

HI-TECH Software Omniscient Code Generator (Lite mode) build 6446
     1  0000                     opt subtitle "HI-TECH Software Omniscient Code Generator (Lite mode) build 6446"
     2                           
     3                           opt pagewidth 120
     4                           
     5                           	opt lm
     6                           
     7                           	processor	16F877A
     8                           clrc	macro
     9                           	bcf	3,0
    10  0000                     	endm
    11                           clrz	macro
    12                           	bcf	3,2
    13  0000                     	endm
    14                           setc	macro
    15                           	bsf	3,0
    16  0000                     	endm
    17                           setz	macro
    18                           	bsf	3,2
    19  0000                     	endm
    20                           skipc	macro
    21                           	btfss	3,0
    22  0000                     	endm
    23                           skipz	macro
    24                           	btfss	3,2
    25  0000                     	endm
    26                           skipnc	macro
    27                           	btfsc	3,0
    28  0000                     	endm
    29                           skipnz	macro
    30                           	btfsc	3,2
    31  0000                     	endm
    32  0000                     indf	equ	0
    33  0000                     indf0	equ	0
    34  0002                     pc	equ	2
    35  0002                     pcl	equ	2
    36  0003                     status	equ	3
    37  0004                     fsr	equ	4
    38  0004                     fsr0	equ	4
    39  0001                     c	equ	1
    40  0000                     z	equ	0
    41  000A                     pclath	equ	10
    42                           	FNCALL	_main,_lcd_init
    43                           	FNCALL	_main,_delay
    44                           	FNCALL	_main,_lcd_command
    45                           	FNCALL	_main,_lcd_display
    46                           	FNCALL	_main,_password
    47                           	FNCALL	_password,_lcd_data
    48                           	FNCALL	_password,_delay
    49                           	FNCALL	_lcd_display,_lcd_data
    50                           	FNCALL	_lcd_init,_lcd_command
    51                           	FNCALL	_lcd_data,_delay
    52                           	FNCALL	_lcd_command,_delay
    53                           	FNROOT	_main
    54                           	global	_b
    55                           psect	idataBANK0,class=CODE,space=0,delta=2
    56                           global __pidataBANK0
    57  044F                     __pidataBANK0:
    58                           	file	"D:\Madhu\madhu pic folder\pic task\keypad\keypad task\password\password matchinng
                                 .c"
    59                           	line	17
    60                           
    61                           ;initializer for _b
    62  044F  3401               	retlw	01h
    63  0450  3400               	retlw	0
    64                           
    65  0451  3402               	retlw	02h
    66  0452  3400               	retlw	0
    67                           
    68                           	global	_a
    69                           	global	_i
    70                           	global	_PORTB
    71  0006                     _PORTB	set	6
    72                           	global	_PORTC
    73  0007                     _PORTC	set	7
    74                           	global	_PORTD
    75  0008                     _PORTD	set	8
    76                           	global	_RB0
    77  0030                     _RB0	set	48
    78                           	global	_RB1
    79  0031                     _RB1	set	49
    80                           	global	_RB2
    81  0032                     _RB2	set	50
    82                           	global	_RB3
    83  0033                     _RB3	set	51
    84                           	global	_RB4
    85  0034                     _RB4	set	52
    86                           	global	_RB5
    87  0035                     _RB5	set	53
    88                           	global	_RB6
    89  0036                     _RB6	set	54
    90                           	global	_RC0
    91  0038                     _RC0	set	56
    92                           	global	_RC1
    93  0039                     _RC1	set	57
    94                           	global	_RC2
    95  003A                     _RC2	set	58
    96                           	global	_TRISB
    97  0086                     _TRISB	set	134
    98                           	global	_TRISC
    99  0087                     _TRISC	set	135
   100                           	global	_TRISD
   101  0088                     _TRISD	set	136
   102                           psect	strings,class=STRING,delta=2
   103                           global __pstrings
   104  0003                     __pstrings:
   105                           ;	global	stringdir,stringtab,__stringbase
   106  0003                     stringtab:
   107                           ;	String table - string pointers are 1 byte each
   108  0003                     stringcode:stringdir:
      + 0003                     stringdir:	
   109  0003  3000               movlw high(stringdir)
   110  0004  008A               movwf pclath
   111  0005  0804               movf fsr,w
   112  0006  0A84               incf fsr
   113  0007  0782               	addwf pc
   114  0008                     __stringbase:
   115  0008  3400               	retlw	0
   116                           psect	strings
   117                           	
   118  0009                     STR_1:	
   119  0009  3445               	retlw	69	;'E'
   120  000A  346E               	retlw	110	;'n'
   121  000B  3474               	retlw	116	;'t'
   122  000C  3465               	retlw	101	;'e'
   123  000D  3472               	retlw	114	;'r'
   124  000E  3420               	retlw	32	;' '
   125  000F  3474               	retlw	116	;'t'
   126  0010  3468               	retlw	104	;'h'
   127  0011  3465               	retlw	101	;'e'
   128  0012  3420               	retlw	32	;' '
   129  0013  3470               	retlw	112	;'p'
   130  0014  3461               	retlw	97	;'a'
   131  0015  3473               	retlw	115	;'s'
   132  0016  3473               	retlw	115	;'s'
   133  0017  3477               	retlw	119	;'w'
   134  0018  346F               	retlw	111	;'o'
   135  0019  3472               	retlw	114	;'r'
   136  001A  3464               	retlw	100	;'d'
   137  001B  3400               	retlw	0
   138                           psect	strings
   139                           	
   140  001C                     STR_3:	
   141  001C  3449               	retlw	73	;'I'
   142  001D  346E               	retlw	110	;'n'
   143  001E  3463               	retlw	99	;'c'
   144  001F  346F               	retlw	111	;'o'
   145  0020  3472               	retlw	114	;'r'
   146  0021  3472               	retlw	114	;'r'
   147  0022  3465               	retlw	101	;'e'
   148  0023  3463               	retlw	99	;'c'
   149  0024  3474               	retlw	116	;'t'
   150  0025  3420               	retlw	32	;' '
   151  0026  3470               	retlw	112	;'p'
   152  0027  3461               	retlw	97	;'a'
   153  0028  3473               	retlw	115	;'s'
   154  0029  3473               	retlw	115	;'s'
   155  002A  3477               	retlw	119	;'w'
   156  002B  346F               	retlw	111	;'o'
   157  002C  3472               	retlw	114	;'r'
   158  002D  3464               	retlw	100	;'d'
   159  002E  3400               	retlw	0
   160                           psect	strings
   161                           	
   162  002F                     STR_2:	
   163  002F  3450               	retlw	80	;'P'
   164  0030  3461               	retlw	97	;'a'
   165  0031  3473               	retlw	115	;'s'
   166  0032  3473               	retlw	115	;'s'
   167  0033  3477               	retlw	119	;'w'
   168  0034  346F               	retlw	111	;'o'
   169  0035  3472               	retlw	114	;'r'
   170  0036  3464               	retlw	100	;'d'
   171  0037  3420               	retlw	32	;' '
   172  0038  3463               	retlw	99	;'c'
   173  0039  346F               	retlw	111	;'o'
   174  003A  3472               	retlw	114	;'r'
   175  003B  3472               	retlw	114	;'r'
   176  003C  3465               	retlw	101	;'e'
   177  003D  3463               	retlw	99	;'c'
   178  003E  3474               	retlw	116	;'t'
   179  003F  3400               	retlw	0
   180                           psect	strings
   181                           	file	"password matchinng.as"
   182                           	line	#
   183                           psect cinit,class=CODE,delta=2
   184                           global start_initialization
   185  04A8                     start_initialization:
   186                           
   187                           psect	bssCOMMON,class=COMMON,space=1
   188                           global __pbssCOMMON
   189  0070                     __pbssCOMMON:
   190  0070                     _a:
   191  0070                            ds      4
   192                           
   193  0074                     _i:
   194  0074                            ds      2
   195                           
   196                           psect	dataBANK0,class=BANK0,space=1
   197                           global __pdataBANK0
   198  0020                     __pdataBANK0:
   199                           	file	"D:\Madhu\madhu pic folder\pic task\keypad\keypad task\password\password matchinng
                                 .c"
   200  0020                     _b:
   201  0020                            ds      4
   202                           
   203                           ; Clear objects allocated to COMMON
   204                           psect cinit,class=CODE,delta=2
   205  04A8  01F0               	clrf	((__pbssCOMMON)+0)&07Fh
   206  04A9  01F1               	clrf	((__pbssCOMMON)+1)&07Fh
   207  04AA  01F2               	clrf	((__pbssCOMMON)+2)&07Fh
   208  04AB  01F3               	clrf	((__pbssCOMMON)+3)&07Fh
   209  04AC  01F4               	clrf	((__pbssCOMMON)+4)&07Fh
   210  04AD  01F5               	clrf	((__pbssCOMMON)+5)&07Fh
   211                           ; Initialize objects allocated to BANK0
   212                           	global __pidataBANK0
   213                           psect cinit,class=CODE,delta=2
   214  04AE  120A  118A  244F   	fcall	__pidataBANK0+0		;fetch initializer
              120A  118A         
   215  04B3  00A0               	movwf	__pdataBANK0+0&07fh		
   216  04B4  120A  118A  2450   	fcall	__pidataBANK0+1		;fetch initializer
              120A  118A         
   217  04B9  00A1               	movwf	__pdataBANK0+1&07fh		
   218  04BA  120A  118A  2451   	fcall	__pidataBANK0+2		;fetch initializer
              120A  118A         
   219  04BF  00A2               	movwf	__pdataBANK0+2&07fh		
   220  04C0  120A  118A  2452   	fcall	__pidataBANK0+3		;fetch initializer
              120A  118A         
   221  04C5  00A3               	movwf	__pdataBANK0+3&07fh		
   222                           psect cinit,class=CODE,delta=2
   223                           global end_of_initialization
   224                           
   225                           ;End of C runtime variable initialization code
   226                           
   227  04C6                     end_of_initialization:
   228  04C6  0183               clrf status
   229  04C7  120A  118A  2CF1   ljmp _main	;jump to C main() function
   230                           psect	cstackCOMMON,class=COMMON,space=1
   231                           global __pcstackCOMMON
   232  0076                     __pcstackCOMMON:
   233                           	global	?_delay
   234  0076                     ?_delay:	; 0 bytes @ 0x0
   235                           	global	?_lcd_command
   236  0076                     ?_lcd_command:	; 0 bytes @ 0x0
   237                           	global	?_lcd_data
   238  0076                     ?_lcd_data:	; 0 bytes @ 0x0
   239                           	global	?_lcd_init
   240  0076                     ?_lcd_init:	; 0 bytes @ 0x0
   241                           	global	?_lcd_display
   242  0076                     ?_lcd_display:	; 0 bytes @ 0x0
   243                           	global	?_password
   244  0076                     ?_password:	; 0 bytes @ 0x0
   245                           	global	?_main
   246  0076                     ?_main:	; 0 bytes @ 0x0
   247                           	global	delay@x
   248  0076                     delay@x:	; 2 bytes @ 0x0
   249  0076                     	ds	2
   250                           	global	??_delay
   251  0078                     ??_delay:	; 0 bytes @ 0x2
   252                           	global	??_lcd_command
   253  0078                     ??_lcd_command:	; 0 bytes @ 0x2
   254                           	global	??_lcd_data
   255  0078                     ??_lcd_data:	; 0 bytes @ 0x2
   256                           	global	lcd_command@com
   257  0078                     lcd_command@com:	; 1 bytes @ 0x2
   258                           	global	lcd_data@data
   259  0078                     lcd_data@data:	; 1 bytes @ 0x2
   260  0078                     	ds	1
   261                           	global	??_lcd_init
   262  0079                     ??_lcd_init:	; 0 bytes @ 0x3
   263                           	global	??_lcd_display
   264  0079                     ??_lcd_display:	; 0 bytes @ 0x3
   265                           	global	??_password
   266  0079                     ??_password:	; 0 bytes @ 0x3
   267                           	global	lcd_display@m
   268  0079                     lcd_display@m:	; 1 bytes @ 0x3
   269  0079                     	ds	1
   270                           	global	lcd_display@j
   271  007A                     lcd_display@j:	; 2 bytes @ 0x4
   272  007A                     	ds	2
   273                           	global	??_main
   274  007C                     ??_main:	; 0 bytes @ 0x6
   275 ;;Data sizes: Strings 55, constant 0, data 4, bss 6, persistent 0 stack 0
   276 ;;Auto spaces:   Size  Autos    Used
   277 ;; COMMON          14      6      12
   278 ;; BANK0           80      0       4
   279 ;; BANK1           80      0       0
   280 ;; BANK3           96      0       0
   281 ;; BANK2           96      0       0
   282                           
   283 ;;
   284 ;; Pointer list with targets:
   285                           
   286 ;; lcd_display@m	PTR unsigned char  size(1) Largest target is 19
   287 ;;		 -> STR_3(CODE[19]), STR_2(CODE[17]), STR_1(CODE[19]), 
   288 ;;
   289                           
   290                           
   291 ;;
   292 ;; Critical Paths under _main in COMMON
   293 ;;
   294 ;;   _main->_lcd_display
   295 ;;   _password->_lcd_data
   296 ;;   _lcd_display->_lcd_data
   297 ;;   _lcd_init->_lcd_command
   298 ;;   _lcd_data->_delay
   299 ;;   _lcd_command->_delay
   300 ;;
   301 ;; Critical Paths under _main in BANK0
   302 ;;
   303 ;;   None.
   304 ;;
   305 ;; Critical Paths under _main in BANK1
   306 ;;
   307 ;;   None.
   308 ;;
   309 ;; Critical Paths under _main in BANK3
   310 ;;
   311 ;;   None.
   312 ;;
   313 ;; Critical Paths under _main in BANK2
   314 ;;
   315 ;;   None.
   316                           
   317 ;;
   318 ;;Main: autosize = 0, tempsize = 0, incstack = 0, save=0
   319 ;;
   320                           
   321 ;;
   322 ;;Call Graph Tables:
   323 ;;
   324 ;; ---------------------------------------------------------------------------------
   325 ;; (Depth) Function   	        Calls       Base Space   Used Autos Params    Refs
   326 ;; ---------------------------------------------------------------------------------
   327 ;; (0) _main                                                 0     0      0     310
   328 ;;                           _lcd_init
   329 ;;                              _delay
   330 ;;                        _lcd_command
   331 ;;                        _lcd_display
   332 ;;                           _password
   333 ;; ---------------------------------------------------------------------------------
   334 ;; (1) _password                                             1     1      0      66
   335 ;;                                              3 COMMON     1     1      0
   336 ;;                           _lcd_data
   337 ;;                              _delay
   338 ;; ---------------------------------------------------------------------------------
   339 ;; (1) _lcd_display                                          3     3      0     134
   340 ;;                                              3 COMMON     3     3      0
   341 ;;                           _lcd_data
   342 ;; ---------------------------------------------------------------------------------
   343 ;; (1) _lcd_init                                             0     0      0      44
   344 ;;                        _lcd_command
   345 ;; ---------------------------------------------------------------------------------
   346 ;; (2) _lcd_data                                             1     1      0      44
   347 ;;                                              2 COMMON     1     1      0
   348 ;;                              _delay
   349 ;; ---------------------------------------------------------------------------------
   350 ;; (1) _lcd_command                                          1     1      0      44
   351 ;;                                              2 COMMON     1     1      0
   352 ;;                              _delay
   353 ;; ---------------------------------------------------------------------------------
   354 ;; (2) _delay                                                2     0      2      22
   355 ;;                                              0 COMMON     2     0      2
   356 ;; ---------------------------------------------------------------------------------
   357 ;; Estimated maximum stack depth 2
   358 ;; ---------------------------------------------------------------------------------
   359                           
   360 ;; Call Graph Graphs:
   361                           
   362 ;; _main (ROOT)
   363 ;;   _lcd_init
   364 ;;     _lcd_command
   365 ;;       _delay
   366 ;;   _delay
   367 ;;   _lcd_command
   368 ;;     _delay
   369 ;;   _lcd_display
   370 ;;     _lcd_data
   371 ;;       _delay
   372 ;;   _password
   373 ;;     _lcd_data
   374 ;;       _delay
   375 ;;     _delay
   376 ;;
   377                           
   378 ;; Address spaces:
   379                           
   380 ;;Name               Size   Autos  Total    Cost      Usage
   381 ;;BANK3               60      0       0       9        0.0%
   382 ;;BITBANK3            60      0       0       8        0.0%
   383 ;;SFR3                 0      0       0       4        0.0%
   384 ;;BITSFR3              0      0       0       4        0.0%
   385 ;;BANK2               60      0       0      11        0.0%
   386 ;;BITBANK2            60      0       0      10        0.0%
   387 ;;SFR2                 0      0       0       5        0.0%
   388 ;;BITSFR2              0      0       0       5        0.0%
   389 ;;SFR1                 0      0       0       2        0.0%
   390 ;;BITSFR1              0      0       0       2        0.0%
   391 ;;BANK1               50      0       0       7        0.0%
   392 ;;BITBANK1            50      0       0       6        0.0%
   393 ;;CODE                 0      0       0       0        0.0%
   394 ;;DATA                 0      0      13      12        0.0%
   395 ;;ABS                  0      0      10       3        0.0%
   396 ;;NULL                 0      0       0       0        0.0%
   397 ;;STACK                0      0       3       2        0.0%
   398 ;;BANK0               50      0       4       5        5.0%
   399 ;;BITBANK0            50      0       0       4        0.0%
   400 ;;SFR0                 0      0       0       1        0.0%
   401 ;;BITSFR0              0      0       0       1        0.0%
   402 ;;COMMON               E      6       C       1       85.7%
   403 ;;BITCOMMON            E      0       0       0        0.0%
   404 ;;EEDATA             100      0       0       0        0.0%
   405                           
   406                           	global	_main
   407                           psect	maintext,global,class=CODE,delta=2
   408                           global __pmaintext
   409  04F1                     __pmaintext:
   410                           
   411 ;; *************** function _main *****************
   412 ;; Defined at:
   413 ;;		line 170 in file "D:\Madhu\madhu pic folder\pic task\keypad\keypad task\password\password matchinng.c"
   414 ;; Parameters:    Size  Location     Type
   415 ;;		None
   416 ;; Auto vars:     Size  Location     Type
   417 ;;		None
   418 ;; Return value:  Size  Location     Type
   419 ;;		None               void
   420 ;; Registers used:
   421 ;;		wreg, fsr0l, fsr0h, status,2, status,0, btemp+0, pclath, cstack
   422 ;; Tracked objects:
   423 ;;		On entry : 17F/0
   424 ;;		On exit  : 0/0
   425 ;;		Unchanged: 0/0
   426 ;; Data sizes:     COMMON   BANK0   BANK1   BANK3   BANK2
   427 ;;      Params:         0       0       0       0       0
   428 ;;      Locals:         0       0       0       0       0
   429 ;;      Temps:          0       0       0       0       0
   430 ;;      Totals:         0       0       0       0       0
   431 ;;Total ram usage:        0 bytes
   432 ;; Hardware stack levels required when called:    3
   433 ;; This function calls:
   434 ;;		_lcd_init
   435 ;;		_delay
   436 ;;		_lcd_command
   437 ;;		_lcd_display
   438 ;;		_password
   439 ;; This function is called by:
   440 ;;		Startup code after reset
   441 ;; This function uses a non-reentrant model
   442 ;;
   443                           psect	maintext
   444                           	file	"D:\Madhu\madhu pic folder\pic task\keypad\keypad task\password\password matchinng
                                 .c"
   445                           	line	170
   446                           	global	__size_of_main
   447  00C3                     	__size_of_main	equ	__end_of_main-_main
   448                           	
   449  04F1                     _main:	
   450                           	opt	stack 8
   451                           ; Regs used in _main: [wreg-fsr0h+status,2-btemp+0+pclath+cstack]
   452                           	line	171
   453                           	
   454  04F1                     l2225:	
   455                           ;password matchinng.c: 171: TRISD=0x00;
   456  04F1  1683               	bsf	status, 5	;RP0=1, select bank1
   457  04F2  1303               	bcf	status, 6	;RP1=0, select bank1
   458  04F3  0188               	clrf	(136)^080h	;volatile
   459                           	line	172
   460                           ;password matchinng.c: 172: PORTD=0x00;
   461  04F4  1283               	bcf	status, 5	;RP0=0, select bank0
   462  04F5  1303               	bcf	status, 6	;RP1=0, select bank0
   463  04F6  0188               	clrf	(8)	;volatile
   464                           	line	174
   465                           ;password matchinng.c: 174: TRISC=0x00;
   466  04F7  1683               	bsf	status, 5	;RP0=1, select bank1
   467  04F8  1303               	bcf	status, 6	;RP1=0, select bank1
   468  04F9  0187               	clrf	(135)^080h	;volatile
   469                           	line	175
   470                           ;password matchinng.c: 175: PORTC=0x00;
   471  04FA  1283               	bcf	status, 5	;RP0=0, select bank0
   472  04FB  1303               	bcf	status, 6	;RP1=0, select bank0
   473  04FC  0187               	clrf	(7)	;volatile
   474                           	line	177
   475                           	
   476  04FD                     l2227:	
   477                           ;password matchinng.c: 177: TRISB=0X07;
   478  04FD  3007               	movlw	(07h)
   479  04FE  1683               	bsf	status, 5	;RP0=1, select bank1
   480  04FF  1303               	bcf	status, 6	;RP1=0, select bank1
   481  0500  0086               	movwf	(134)^080h	;volatile
   482                           	line	179
   483                           	
   484  0501                     l2229:	
   485                           ;password matchinng.c: 179: PORTB=0X00;
   486  0501  1283               	bcf	status, 5	;RP0=0, select bank0
   487  0502  1303               	bcf	status, 6	;RP1=0, select bank0
   488  0503  0186               	clrf	(6)	;volatile
   489                           	line	181
   490                           	
   491  0504                     l2231:	
   492                           ;password matchinng.c: 181: lcd_init();
   493  0504  120A  118A  248F   	fcall	_lcd_init
              120A  118A         
   494                           	line	182
   495                           	
   496  0509                     l2233:	
   497                           ;password matchinng.c: 182: delay(100);
   498  0509  3064               	movlw	low(064h)
   499  050A  00F6               	movwf	(?_delay)
   500  050B  3000               	movlw	high(064h)
   501  050C  00F7               	movwf	((?_delay))+1
   502  050D  120A  118A  2453   	fcall	_delay
              120A  118A         
   503                           	line	184
   504                           ;password matchinng.c: 184: while(1)
   505                           	
   506  0512                     l605:	
   507                           	line	186
   508                           ;password matchinng.c: 185: {
   509                           ;password matchinng.c: 186: i=0;
   510  0512  3000               	movlw	low(0)
   511  0513  00F4               	movwf	(_i)
   512  0514  3000               	movlw	high(0)
   513  0515  00F5               	movwf	((_i))+1
   514                           	line	187
   515                           	
   516  0516                     l2235:	
   517                           ;password matchinng.c: 187: lcd_command(0x80);
   518  0516  3080               	movlw	(080h)
   519  0517  120A  118A  2465   	fcall	_lcd_command
              120A  118A         
   520                           	line	188
   521                           	
   522  051C                     l2237:	
   523                           ;password matchinng.c: 188: lcd_display("Enter the password");
   524  051C  3001               	movlw	((STR_1-__stringbase))&0ffh
   525  051D  120A  118A  24CA   	fcall	_lcd_display
              120A  118A         
   526                           	line	189
   527                           	
   528  0522                     l2239:	
   529                           ;password matchinng.c: 189: delay(10000);delay(10000);
   530  0522  3010               	movlw	low(02710h)
   531  0523  00F6               	movwf	(?_delay)
   532  0524  3027               	movlw	high(02710h)
   533  0525  00F7               	movwf	((?_delay))+1
   534  0526  120A  118A  2453   	fcall	_delay
              120A  118A         
   535                           	
   536  052B                     l2241:	
   537  052B  3010               	movlw	low(02710h)
   538  052C  00F6               	movwf	(?_delay)
   539  052D  3027               	movlw	high(02710h)
   540  052E  00F7               	movwf	((?_delay))+1
   541  052F  120A  118A  2453   	fcall	_delay
              120A  118A         
   542                           	line	190
   543                           	
   544  0534                     l2243:	
   545                           ;password matchinng.c: 190: lcd_command(0x01);lcd_command(0x80);
   546  0534  3001               	movlw	(01h)
   547  0535  120A  118A  2465   	fcall	_lcd_command
              120A  118A         
   548                           	
   549  053A                     l2245:	
   550  053A  3080               	movlw	(080h)
   551  053B  120A  118A  2465   	fcall	_lcd_command
              120A  118A         
   552                           	line	191
   553                           	
   554  0540                     l2247:	
   555                           ;password matchinng.c: 191: password();
   556  0540  120A  118A  25B4   	fcall	_password
              120A  118A         
   557                           	line	194
   558                           	
   559  0545                     l2249:	
   560                           ;password matchinng.c: 194: if((b[0]==a[0])&&(b[1]==a[1]))
   561  0545  0871               	movf	(_a+1),w
   562  0546  1283               	bcf	status, 5	;RP0=0, select bank0
   563  0547  1303               	bcf	status, 6	;RP1=0, select bank0
   564  0548  0621               	xorwf	(_b+1),w
   565  0549  1D03               	skipz
   566  054A  2D4D               	goto	u2465
   567  054B  0870               	movf	(_a),w
   568  054C  0620               	xorwf	(_b),w
   569  054D                     u2465:
   570                           
   571  054D  1D03               	skipz
   572  054E  2D50               	goto	u2461
   573  054F  2D51               	goto	u2460
   574  0550                     u2461:
   575  0550  2D62               	goto	l606
   576  0551                     u2460:
   577                           	
   578  0551                     l2251:	
   579  0551  0873               	movf	1+(_a)+02h,w
   580  0552  0623               	xorwf	1+(_b)+02h,w
   581  0553  1D03               	skipz
   582  0554  2D57               	goto	u2475
   583  0555  0872               	movf	0+(_a)+02h,w
   584  0556  0622               	xorwf	0+(_b)+02h,w
   585  0557                     u2475:
   586                           
   587  0557  1D03               	skipz
   588  0558  2D5A               	goto	u2471
   589  0559  2D5B               	goto	u2470
   590  055A                     u2471:
   591  055A  2D62               	goto	l606
   592  055B                     u2470:
   593                           	line	196
   594                           	
   595  055B                     l2253:	
   596                           ;password matchinng.c: 195: {
   597                           ;password matchinng.c: 196: lcd_display("Password correct");
   598  055B  3027               	movlw	((STR_2-__stringbase))&0ffh
   599  055C  120A  118A  24CA   	fcall	_lcd_display
              120A  118A         
   600                           	line	197
   601                           ;password matchinng.c: 197: }
   602  0561  2D68               	goto	l607
   603                           	line	198
   604                           	
   605  0562                     l606:	
   606                           	line	200
   607                           	
   608  0562                     l2255:	
   609                           ;password matchinng.c: 198: else
   610                           ;password matchinng.c: 199: {
   611                           ;password matchinng.c: 200: lcd_display("Incorrect password");
   612  0562  3014               	movlw	((STR_3-__stringbase))&0ffh
   613  0563  120A  118A  24CA   	fcall	_lcd_display
              120A  118A         
   614                           	line	201
   615                           	
   616  0568                     l607:	
   617                           	line	202
   618                           	
   619  0568                     l2257:	
   620                           ;password matchinng.c: 201: }
   621                           ;password matchinng.c: 202: delay(10000);delay(10000);delay(10000);delay(10000);
   622  0568  3010               	movlw	low(02710h)
   623  0569  00F6               	movwf	(?_delay)
   624  056A  3027               	movlw	high(02710h)
   625  056B  00F7               	movwf	((?_delay))+1
   626  056C  120A  118A  2453   	fcall	_delay
              120A  118A         
   627                           	
   628  0571                     l2259:	
   629  0571  3010               	movlw	low(02710h)
   630  0572  00F6               	movwf	(?_delay)
   631  0573  3027               	movlw	high(02710h)
   632  0574  00F7               	movwf	((?_delay))+1
   633  0575  120A  118A  2453   	fcall	_delay
              120A  118A         
   634                           	
   635  057A                     l2261:	
   636  057A  3010               	movlw	low(02710h)
   637  057B  00F6               	movwf	(?_delay)
   638  057C  3027               	movlw	high(02710h)
   639  057D  00F7               	movwf	((?_delay))+1
   640  057E  120A  118A  2453   	fcall	_delay
              120A  118A         
   641                           	
   642  0583                     l2263:	
   643  0583  3010               	movlw	low(02710h)
   644  0584  00F6               	movwf	(?_delay)
   645  0585  3027               	movlw	high(02710h)
   646  0586  00F7               	movwf	((?_delay))+1
   647  0587  120A  118A  2453   	fcall	_delay
              120A  118A         
   648                           	line	203
   649                           	
   650  058C                     l2265:	
   651                           ;password matchinng.c: 203: delay(10000);delay(10000);delay(10000);delay(10000);
   652  058C  3010               	movlw	low(02710h)
   653  058D  00F6               	movwf	(?_delay)
   654  058E  3027               	movlw	high(02710h)
   655  058F  00F7               	movwf	((?_delay))+1
   656  0590  120A  118A  2453   	fcall	_delay
              120A  118A         
   657                           	
   658  0595                     l2267:	
   659  0595  3010               	movlw	low(02710h)
   660  0596  00F6               	movwf	(?_delay)
   661  0597  3027               	movlw	high(02710h)
   662  0598  00F7               	movwf	((?_delay))+1
   663  0599  120A  118A  2453   	fcall	_delay
              120A  118A         
   664                           	
   665  059E                     l2269:	
   666  059E  3010               	movlw	low(02710h)
   667  059F  00F6               	movwf	(?_delay)
   668  05A0  3027               	movlw	high(02710h)
   669  05A1  00F7               	movwf	((?_delay))+1
   670  05A2  120A  118A  2453   	fcall	_delay
              120A  118A         
   671                           	
   672  05A7                     l2271:	
   673  05A7  3010               	movlw	low(02710h)
   674  05A8  00F6               	movwf	(?_delay)
   675  05A9  3027               	movlw	high(02710h)
   676  05AA  00F7               	movwf	((?_delay))+1
   677  05AB  120A  118A  2453   	fcall	_delay
              120A  118A         
   678                           	line	204
   679                           	
   680  05B0                     l608:	
   681                           	line	184
   682  05B0  2D12               	goto	l605
   683                           	
   684  05B1                     l609:	
   685                           	line	205
   686                           	
   687  05B1                     l610:	
   688                           	global	start
   689  05B1  120A  118A  2800   	ljmp	start
   690                           	opt stack 0
   691                           GLOBAL	__end_of_main
   692  05B4                     	__end_of_main:
   693 ;; =============== function _main ends ============
   694                           
   695                           	signat	_main,88
   696                           	global	_password
   697                           psect	text169,local,class=CODE,delta=2
   698                           global __ptext169
   699  05B4                     __ptext169:
   700                           
   701 ;; *************** function _password *****************
   702 ;; Defined at:
   703 ;;		line 55 in file "D:\Madhu\madhu pic folder\pic task\keypad\keypad task\password\password matchinng.c"
   704 ;; Parameters:    Size  Location     Type
   705 ;;		None
   706 ;; Auto vars:     Size  Location     Type
   707 ;;		None
   708 ;; Return value:  Size  Location     Type
   709 ;;		None               void
   710 ;; Registers used:
   711 ;;		wreg, fsr0l, fsr0h, status,2, status,0, btemp+0, pclath, cstack
   712 ;; Tracked objects:
   713 ;;		On entry : 0/0
   714 ;;		On exit  : 0/0
   715 ;;		Unchanged: 0/0
   716 ;; Data sizes:     COMMON   BANK0   BANK1   BANK3   BANK2
   717 ;;      Params:         0       0       0       0       0
   718 ;;      Locals:         0       0       0       0       0
   719 ;;      Temps:          1       0       0       0       0
   720 ;;      Totals:         1       0       0       0       0
   721 ;;Total ram usage:        1 bytes
   722 ;; Hardware stack levels used:    1
   723 ;; Hardware stack levels required when called:    2
   724 ;; This function calls:
   725 ;;		_lcd_data
   726 ;;		_delay
   727 ;; This function is called by:
   728 ;;		_main
   729 ;; This function uses a non-reentrant model
   730 ;;
   731                           psect	text169
   732                           	file	"D:\Madhu\madhu pic folder\pic task\keypad\keypad task\password\password matchinng
                                 .c"
   733                           	line	55
   734                           	global	__size_of_password
   735  024C                     	__size_of_password	equ	__end_of_password-_password
   736                           	
   737  05B4                     _password:	
   738                           	opt	stack 7
   739                           ; Regs used in _password: [wreg-fsr0h+status,2-btemp+0+pclath+cstack]
   740                           	line	57
   741                           ;password matchinng.c: 57: while(1)
   742                           	
   743  05B4                     l586:	
   744                           	line	60
   745                           ;password matchinng.c: 58: {
   746                           ;password matchinng.c: 60: RB3=1;
   747  05B4  1283               	bcf	status, 5	;RP0=0, select bank0
   748  05B5  1303               	bcf	status, 6	;RP1=0, select bank0
   749  05B6  1586               	bsf	(51/8),(51)&7
   750                           	line	61
   751                           ;password matchinng.c: 61: RB4=0;
   752  05B7  1206               	bcf	(52/8),(52)&7
   753                           	line	62
   754                           ;password matchinng.c: 62: RB5=0;
   755  05B8  1286               	bcf	(53/8),(53)&7
   756                           	line	63
   757                           ;password matchinng.c: 63: RB6=0;
   758  05B9  1306               	bcf	(54/8),(54)&7
   759                           	line	64
   760                           ;password matchinng.c: 64: if(RB0==1)
   761  05BA  1C06               	btfss	(48/8),(48)&7
   762  05BB  2DBD               	goto	u2331
   763  05BC  2DBE               	goto	u2330
   764  05BD                     u2331:
   765  05BD  2DE8               	goto	l587
   766  05BE                     u2330:
   767                           	line	67
   768                           	
   769  05BE                     l2059:	
   770                           ;password matchinng.c: 65: {
   771                           ;password matchinng.c: 67: lcd_data('1');
   772  05BE  3031               	movlw	(031h)
   773  05BF  120A  118A  247A   	fcall	_lcd_data
              120A  118A         
   774                           	line	68
   775                           	
   776  05C4                     l2061:	
   777                           ;password matchinng.c: 68: a[i]=1;
   778  05C4  0874               	movf	(_i),w
   779  05C5  00F9               	movwf	(??_password+0)+0
   780  05C6  0779               	addwf	(??_password+0)+0,w
   781  05C7  3E70               	addlw	_a&0ffh
   782  05C8  0084               	movwf	fsr0
   783  05C9  3001               	movlw	low(01h)
   784  05CA  0080               	movwf	indf
   785  05CB  0A84               	incf	fsr0,f
   786  05CC  3000               	movlw	high(01h)
   787  05CD  0080               	movwf	indf
   788                           	line	69
   789                           	
   790  05CE                     l2063:	
   791                           ;password matchinng.c: 69: i=i+1;delay(50000);delay(50000);
   792  05CE  0874               	movf	(_i),w
   793  05CF  3E01               	addlw	low(01h)
   794  05D0  00F4               	movwf	(_i)
   795  05D1  0875               	movf	(_i+1),w
   796  05D2  1803               	skipnc
   797  05D3  3E01               	addlw	1
   798  05D4  3E00               	addlw	high(01h)
   799  05D5  00F5               	movwf	1+(_i)
   800                           	
   801  05D6                     l2065:	
   802  05D6  3050               	movlw	low(0C350h)
   803  05D7  00F6               	movwf	(?_delay)
   804  05D8  30C3               	movlw	high(0C350h)
   805  05D9  00F7               	movwf	((?_delay))+1
   806  05DA  120A  118A  2453   	fcall	_delay
              120A  118A         
   807                           	
   808  05DF                     l2067:	
   809  05DF  3050               	movlw	low(0C350h)
   810  05E0  00F6               	movwf	(?_delay)
   811  05E1  30C3               	movlw	high(0C350h)
   812  05E2  00F7               	movwf	((?_delay))+1
   813  05E3  120A  118A  2453   	fcall	_delay
              120A  118A         
   814                           	line	70
   815                           	
   816  05E8                     l587:	
   817                           	line	71
   818                           	
   819  05E8                     l2069:	
   820                           ;password matchinng.c: 70: }
   821                           ;password matchinng.c: 71: if(RB1==1)
   822  05E8  1283               	bcf	status, 5	;RP0=0, select bank0
   823  05E9  1303               	bcf	status, 6	;RP1=0, select bank0
   824  05EA  1C86               	btfss	(49/8),(49)&7
   825  05EB  2DED               	goto	u2341
   826  05EC  2DEE               	goto	u2340
   827  05ED                     u2341:
   828  05ED  2E18               	goto	l588
   829  05EE                     u2340:
   830                           	line	73
   831                           	
   832  05EE                     l2071:	
   833                           ;password matchinng.c: 72: {
   834                           ;password matchinng.c: 73: lcd_data('2');
   835  05EE  3032               	movlw	(032h)
   836  05EF  120A  118A  247A   	fcall	_lcd_data
              120A  118A         
   837                           	line	74
   838                           	
   839  05F4                     l2073:	
   840                           ;password matchinng.c: 74: a[i]=2;
   841  05F4  0874               	movf	(_i),w
   842  05F5  00F9               	movwf	(??_password+0)+0
   843  05F6  0779               	addwf	(??_password+0)+0,w
   844  05F7  3E70               	addlw	_a&0ffh
   845  05F8  0084               	movwf	fsr0
   846  05F9  3002               	movlw	low(02h)
   847  05FA  0080               	movwf	indf
   848  05FB  0A84               	incf	fsr0,f
   849  05FC  3000               	movlw	high(02h)
   850  05FD  0080               	movwf	indf
   851                           	line	75
   852                           	
   853  05FE                     l2075:	
   854                           ;password matchinng.c: 75: i=i+1;delay(50000);delay(50000);
   855  05FE  0874               	movf	(_i),w
   856  05FF  3E01               	addlw	low(01h)
   857  0600  00F4               	movwf	(_i)
   858  0601  0875               	movf	(_i+1),w
   859  0602  1803               	skipnc
   860  0603  3E01               	addlw	1
   861  0604  3E00               	addlw	high(01h)
   862  0605  00F5               	movwf	1+(_i)
   863                           	
   864  0606                     l2077:	
   865  0606  3050               	movlw	low(0C350h)
   866  0607  00F6               	movwf	(?_delay)
   867  0608  30C3               	movlw	high(0C350h)
   868  0609  00F7               	movwf	((?_delay))+1
   869  060A  120A  118A  2453   	fcall	_delay
              120A  118A         
   870                           	
   871  060F                     l2079:	
   872  060F  3050               	movlw	low(0C350h)
   873  0610  00F6               	movwf	(?_delay)
   874  0611  30C3               	movlw	high(0C350h)
   875  0612  00F7               	movwf	((?_delay))+1
   876  0613  120A  118A  2453   	fcall	_delay
              120A  118A         
   877                           	line	76
   878                           	
   879  0618                     l588:	
   880                           	line	77
   881                           	
   882  0618                     l2081:	
   883                           ;password matchinng.c: 76: }
   884                           ;password matchinng.c: 77: if(RB2==1)
   885  0618  1283               	bcf	status, 5	;RP0=0, select bank0
   886  0619  1303               	bcf	status, 6	;RP1=0, select bank0
   887  061A  1D06               	btfss	(50/8),(50)&7
   888  061B  2E1D               	goto	u2351
   889  061C  2E1E               	goto	u2350
   890  061D                     u2351:
   891  061D  2E48               	goto	l589
   892  061E                     u2350:
   893                           	line	79
   894                           	
   895  061E                     l2083:	
   896                           ;password matchinng.c: 78: {
   897                           ;password matchinng.c: 79: lcd_data('3');
   898  061E  3033               	movlw	(033h)
   899  061F  120A  118A  247A   	fcall	_lcd_data
              120A  118A         
   900                           	line	80
   901                           	
   902  0624                     l2085:	
   903                           ;password matchinng.c: 80: a[i]=3;
   904  0624  0874               	movf	(_i),w
   905  0625  00F9               	movwf	(??_password+0)+0
   906  0626  0779               	addwf	(??_password+0)+0,w
   907  0627  3E70               	addlw	_a&0ffh
   908  0628  0084               	movwf	fsr0
   909  0629  3003               	movlw	low(03h)
   910  062A  0080               	movwf	indf
   911  062B  0A84               	incf	fsr0,f
   912  062C  3000               	movlw	high(03h)
   913  062D  0080               	movwf	indf
   914                           	line	81
   915                           	
   916  062E                     l2087:	
   917                           ;password matchinng.c: 81: i=i+1;delay(50000);delay(50000);
   918  062E  0874               	movf	(_i),w
   919  062F  3E01               	addlw	low(01h)
   920  0630  00F4               	movwf	(_i)
   921  0631  0875               	movf	(_i+1),w
   922  0632  1803               	skipnc
   923  0633  3E01               	addlw	1
   924  0634  3E00               	addlw	high(01h)
   925  0635  00F5               	movwf	1+(_i)
   926                           	
   927  0636                     l2089:	
   928  0636  3050               	movlw	low(0C350h)
   929  0637  00F6               	movwf	(?_delay)
   930  0638  30C3               	movlw	high(0C350h)
   931  0639  00F7               	movwf	((?_delay))+1
   932  063A  120A  118A  2453   	fcall	_delay
              120A  118A         
   933                           	
   934  063F                     l2091:	
   935  063F  3050               	movlw	low(0C350h)
   936  0640  00F6               	movwf	(?_delay)
   937  0641  30C3               	movlw	high(0C350h)
   938  0642  00F7               	movwf	((?_delay))+1
   939  0643  120A  118A  2453   	fcall	_delay
              120A  118A         
   940                           	line	82
   941                           	
   942  0648                     l589:	
   943                           	line	84
   944                           	
   945  0648                     l2093:	
   946                           ;password matchinng.c: 82: }
   947                           ;password matchinng.c: 84: RB3=0;
   948  0648  1283               	bcf	status, 5	;RP0=0, select bank0
   949  0649  1303               	bcf	status, 6	;RP1=0, select bank0
   950  064A  1186               	bcf	(51/8),(51)&7
   951                           	line	85
   952                           	
   953  064B                     l2095:	
   954                           ;password matchinng.c: 85: RB4=1;
   955  064B  1606               	bsf	(52/8),(52)&7
   956                           	line	86
   957                           	
   958  064C                     l2097:	
   959                           ;password matchinng.c: 86: RB5=0;
   960  064C  1286               	bcf	(53/8),(53)&7
   961                           	line	87
   962                           	
   963  064D                     l2099:	
   964                           ;password matchinng.c: 87: RB6=0;
   965  064D  1306               	bcf	(54/8),(54)&7
   966                           	line	88
   967                           	
   968  064E                     l2101:	
   969                           ;password matchinng.c: 88: if(RB0==1)
   970  064E  1C06               	btfss	(48/8),(48)&7
   971  064F  2E51               	goto	u2361
   972  0650  2E52               	goto	u2360
   973  0651                     u2361:
   974  0651  2E7C               	goto	l590
   975  0652                     u2360:
   976                           	line	90
   977                           	
   978  0652                     l2103:	
   979                           ;password matchinng.c: 89: {
   980                           ;password matchinng.c: 90: lcd_data('4');a[i]=4;
   981  0652  3034               	movlw	(034h)
   982  0653  120A  118A  247A   	fcall	_lcd_data
              120A  118A         
   983                           	
   984  0658                     l2105:	
   985  0658  0874               	movf	(_i),w
   986  0659  00F9               	movwf	(??_password+0)+0
   987  065A  0779               	addwf	(??_password+0)+0,w
   988  065B  3E70               	addlw	_a&0ffh
   989  065C  0084               	movwf	fsr0
   990  065D  3004               	movlw	low(04h)
   991  065E  0080               	movwf	indf
   992  065F  0A84               	incf	fsr0,f
   993  0660  3000               	movlw	high(04h)
   994  0661  0080               	movwf	indf
   995                           	line	91
   996                           	
   997  0662                     l2107:	
   998                           ;password matchinng.c: 91: i=i+1;delay(50000);delay(50000);
   999  0662  0874               	movf	(_i),w
  1000  0663  3E01               	addlw	low(01h)
  1001  0664  00F4               	movwf	(_i)
  1002  0665  0875               	movf	(_i+1),w
  1003  0666  1803               	skipnc
  1004  0667  3E01               	addlw	1
  1005  0668  3E00               	addlw	high(01h)
  1006  0669  00F5               	movwf	1+(_i)
  1007                           	
  1008  066A                     l2109:	
  1009  066A  3050               	movlw	low(0C350h)
  1010  066B  00F6               	movwf	(?_delay)
  1011  066C  30C3               	movlw	high(0C350h)
  1012  066D  00F7               	movwf	((?_delay))+1
  1013  066E  120A  118A  2453   	fcall	_delay
              120A  118A         
  1014                           	
  1015  0673                     l2111:	
  1016  0673  3050               	movlw	low(0C350h)
  1017  0674  00F6               	movwf	(?_delay)
  1018  0675  30C3               	movlw	high(0C350h)
  1019  0676  00F7               	movwf	((?_delay))+1
  1020  0677  120A  118A  2453   	fcall	_delay
              120A  118A         
  1021                           	line	92
  1022                           	
  1023  067C                     l590:	
  1024                           	line	93
  1025                           	
  1026  067C                     l2113:	
  1027                           ;password matchinng.c: 92: }
  1028                           ;password matchinng.c: 93: if(RB1==1)
  1029  067C  1283               	bcf	status, 5	;RP0=0, select bank0
  1030  067D  1303               	bcf	status, 6	;RP1=0, select bank0
  1031  067E  1C86               	btfss	(49/8),(49)&7
  1032  067F  2E81               	goto	u2371
  1033  0680  2E82               	goto	u2370
  1034  0681                     u2371:
  1035  0681  2EAC               	goto	l591
  1036  0682                     u2370:
  1037                           	line	96
  1038                           	
  1039  0682                     l2115:	
  1040                           ;password matchinng.c: 94: {
  1041                           ;password matchinng.c: 96: lcd_data('5');
  1042  0682  3035               	movlw	(035h)
  1043  0683  120A  118A  247A   	fcall	_lcd_data
              120A  118A         
  1044                           	line	97
  1045                           	
  1046  0688                     l2117:	
  1047                           ;password matchinng.c: 97: a[i]=5;
  1048  0688  0874               	movf	(_i),w
  1049  0689  00F9               	movwf	(??_password+0)+0
  1050  068A  0779               	addwf	(??_password+0)+0,w
  1051  068B  3E70               	addlw	_a&0ffh
  1052  068C  0084               	movwf	fsr0
  1053  068D  3005               	movlw	low(05h)
  1054  068E  0080               	movwf	indf
  1055  068F  0A84               	incf	fsr0,f
  1056  0690  3000               	movlw	high(05h)
  1057  0691  0080               	movwf	indf
  1058                           	line	98
  1059                           	
  1060  0692                     l2119:	
  1061                           ;password matchinng.c: 98: i=i+1;delay(50000);delay(50000);
  1062  0692  0874               	movf	(_i),w
  1063  0693  3E01               	addlw	low(01h)
  1064  0694  00F4               	movwf	(_i)
  1065  0695  0875               	movf	(_i+1),w
  1066  0696  1803               	skipnc
  1067  0697  3E01               	addlw	1
  1068  0698  3E00               	addlw	high(01h)
  1069  0699  00F5               	movwf	1+(_i)
  1070                           	
  1071  069A                     l2121:	
  1072  069A  3050               	movlw	low(0C350h)
  1073  069B  00F6               	movwf	(?_delay)
  1074  069C  30C3               	movlw	high(0C350h)
  1075  069D  00F7               	movwf	((?_delay))+1
  1076  069E  120A  118A  2453   	fcall	_delay
              120A  118A         
  1077                           	
  1078  06A3                     l2123:	
  1079  06A3  3050               	movlw	low(0C350h)
  1080  06A4  00F6               	movwf	(?_delay)
  1081  06A5  30C3               	movlw	high(0C350h)
  1082  06A6  00F7               	movwf	((?_delay))+1
  1083  06A7  120A  118A  2453   	fcall	_delay
              120A  118A         
  1084                           	line	99
  1085                           	
  1086  06AC                     l591:	
  1087                           	line	100
  1088                           	
  1089  06AC                     l2125:	
  1090                           ;password matchinng.c: 99: }
  1091                           ;password matchinng.c: 100: if(RB2==1)
  1092  06AC  1283               	bcf	status, 5	;RP0=0, select bank0
  1093  06AD  1303               	bcf	status, 6	;RP1=0, select bank0
  1094  06AE  1D06               	btfss	(50/8),(50)&7
  1095  06AF  2EB1               	goto	u2381
  1096  06B0  2EB2               	goto	u2380
  1097  06B1                     u2381:
  1098  06B1  2EDC               	goto	l592
  1099  06B2                     u2380:
  1100                           	line	103
  1101                           	
  1102  06B2                     l2127:	
  1103                           ;password matchinng.c: 101: {
  1104                           ;password matchinng.c: 103: lcd_data('6');
  1105  06B2  3036               	movlw	(036h)
  1106  06B3  120A  118A  247A   	fcall	_lcd_data
              120A  118A         
  1107                           	line	104
  1108                           	
  1109  06B8                     l2129:	
  1110                           ;password matchinng.c: 104: a[i]=6;
  1111  06B8  0874               	movf	(_i),w
  1112  06B9  00F9               	movwf	(??_password+0)+0
  1113  06BA  0779               	addwf	(??_password+0)+0,w
  1114  06BB  3E70               	addlw	_a&0ffh
  1115  06BC  0084               	movwf	fsr0
  1116  06BD  3006               	movlw	low(06h)
  1117  06BE  0080               	movwf	indf
  1118  06BF  0A84               	incf	fsr0,f
  1119  06C0  3000               	movlw	high(06h)
  1120  06C1  0080               	movwf	indf
  1121                           	line	105
  1122                           	
  1123  06C2                     l2131:	
  1124                           ;password matchinng.c: 105: i=i+1;delay(50000);delay(50000);
  1125  06C2  0874               	movf	(_i),w
  1126  06C3  3E01               	addlw	low(01h)
  1127  06C4  00F4               	movwf	(_i)
  1128  06C5  0875               	movf	(_i+1),w
  1129  06C6  1803               	skipnc
  1130  06C7  3E01               	addlw	1
  1131  06C8  3E00               	addlw	high(01h)
  1132  06C9  00F5               	movwf	1+(_i)
  1133                           	
  1134  06CA                     l2133:	
  1135  06CA  3050               	movlw	low(0C350h)
  1136  06CB  00F6               	movwf	(?_delay)
  1137  06CC  30C3               	movlw	high(0C350h)
  1138  06CD  00F7               	movwf	((?_delay))+1
  1139  06CE  120A  118A  2453   	fcall	_delay
              120A  118A         
  1140                           	
  1141  06D3                     l2135:	
  1142  06D3  3050               	movlw	low(0C350h)
  1143  06D4  00F6               	movwf	(?_delay)
  1144  06D5  30C3               	movlw	high(0C350h)
  1145  06D6  00F7               	movwf	((?_delay))+1
  1146  06D7  120A  118A  2453   	fcall	_delay
              120A  118A         
  1147                           	line	106
  1148                           	
  1149  06DC                     l592:	
  1150                           	line	108
  1151                           	
  1152  06DC                     l2137:	
  1153                           ;password matchinng.c: 106: }
  1154                           ;password matchinng.c: 108: RB3=0;
  1155  06DC  1283               	bcf	status, 5	;RP0=0, select bank0
  1156  06DD  1303               	bcf	status, 6	;RP1=0, select bank0
  1157  06DE  1186               	bcf	(51/8),(51)&7
  1158                           	line	109
  1159                           	
  1160  06DF                     l2139:	
  1161                           ;password matchinng.c: 109: RB4=0;
  1162  06DF  1206               	bcf	(52/8),(52)&7
  1163                           	line	110
  1164                           	
  1165  06E0                     l2141:	
  1166                           ;password matchinng.c: 110: RB5=1;
  1167  06E0  1686               	bsf	(53/8),(53)&7
  1168                           	line	111
  1169                           	
  1170  06E1                     l2143:	
  1171                           ;password matchinng.c: 111: RB6=0;
  1172  06E1  1306               	bcf	(54/8),(54)&7
  1173                           	line	112
  1174                           	
  1175  06E2                     l2145:	
  1176                           ;password matchinng.c: 112: if(RB0==1)
  1177  06E2  1C06               	btfss	(48/8),(48)&7
  1178  06E3  2EE5               	goto	u2391
  1179  06E4  2EE6               	goto	u2390
  1180  06E5                     u2391:
  1181  06E5  2F10               	goto	l593
  1182  06E6                     u2390:
  1183                           	line	115
  1184                           	
  1185  06E6                     l2147:	
  1186                           ;password matchinng.c: 113: {
  1187                           ;password matchinng.c: 115: lcd_data('7');
  1188  06E6  3037               	movlw	(037h)
  1189  06E7  120A  118A  247A   	fcall	_lcd_data
              120A  118A         
  1190                           	line	116
  1191                           	
  1192  06EC                     l2149:	
  1193                           ;password matchinng.c: 116: a[i]=7;
  1194  06EC  0874               	movf	(_i),w
  1195  06ED  00F9               	movwf	(??_password+0)+0
  1196  06EE  0779               	addwf	(??_password+0)+0,w
  1197  06EF  3E70               	addlw	_a&0ffh
  1198  06F0  0084               	movwf	fsr0
  1199  06F1  3007               	movlw	low(07h)
  1200  06F2  0080               	movwf	indf
  1201  06F3  0A84               	incf	fsr0,f
  1202  06F4  3000               	movlw	high(07h)
  1203  06F5  0080               	movwf	indf
  1204                           	line	117
  1205                           	
  1206  06F6                     l2151:	
  1207                           ;password matchinng.c: 117: i=i+1;delay(50000);delay(50000);
  1208  06F6  0874               	movf	(_i),w
  1209  06F7  3E01               	addlw	low(01h)
  1210  06F8  00F4               	movwf	(_i)
  1211  06F9  0875               	movf	(_i+1),w
  1212  06FA  1803               	skipnc
  1213  06FB  3E01               	addlw	1
  1214  06FC  3E00               	addlw	high(01h)
  1215  06FD  00F5               	movwf	1+(_i)
  1216                           	
  1217  06FE                     l2153:	
  1218  06FE  3050               	movlw	low(0C350h)
  1219  06FF  00F6               	movwf	(?_delay)
  1220  0700  30C3               	movlw	high(0C350h)
  1221  0701  00F7               	movwf	((?_delay))+1
  1222  0702  120A  118A  2453   	fcall	_delay
              120A  118A         
  1223                           	
  1224  0707                     l2155:	
  1225  0707  3050               	movlw	low(0C350h)
  1226  0708  00F6               	movwf	(?_delay)
  1227  0709  30C3               	movlw	high(0C350h)
  1228  070A  00F7               	movwf	((?_delay))+1
  1229  070B  120A  118A  2453   	fcall	_delay
              120A  118A         
  1230                           	line	118
  1231                           	
  1232  0710                     l593:	
  1233                           	line	119
  1234                           	
  1235  0710                     l2157:	
  1236                           ;password matchinng.c: 118: }
  1237                           ;password matchinng.c: 119: if(RB1==1)
  1238  0710  1283               	bcf	status, 5	;RP0=0, select bank0
  1239  0711  1303               	bcf	status, 6	;RP1=0, select bank0
  1240  0712  1C86               	btfss	(49/8),(49)&7
  1241  0713  2F15               	goto	u2401
  1242  0714  2F16               	goto	u2400
  1243  0715                     u2401:
  1244  0715  2F40               	goto	l594
  1245  0716                     u2400:
  1246                           	line	122
  1247                           	
  1248  0716                     l2159:	
  1249                           ;password matchinng.c: 120: {
  1250                           ;password matchinng.c: 122: lcd_data('8');
  1251  0716  3038               	movlw	(038h)
  1252  0717  120A  118A  247A   	fcall	_lcd_data
              120A  118A         
  1253                           	line	123
  1254                           	
  1255  071C                     l2161:	
  1256                           ;password matchinng.c: 123: a[i]=8;
  1257  071C  0874               	movf	(_i),w
  1258  071D  00F9               	movwf	(??_password+0)+0
  1259  071E  0779               	addwf	(??_password+0)+0,w
  1260  071F  3E70               	addlw	_a&0ffh
  1261  0720  0084               	movwf	fsr0
  1262  0721  3008               	movlw	low(08h)
  1263  0722  0080               	movwf	indf
  1264  0723  0A84               	incf	fsr0,f
  1265  0724  3000               	movlw	high(08h)
  1266  0725  0080               	movwf	indf
  1267                           	line	124
  1268                           	
  1269  0726                     l2163:	
  1270                           ;password matchinng.c: 124: i=i+1;delay(50000);delay(50000);
  1271  0726  0874               	movf	(_i),w
  1272  0727  3E01               	addlw	low(01h)
  1273  0728  00F4               	movwf	(_i)
  1274  0729  0875               	movf	(_i+1),w
  1275  072A  1803               	skipnc
  1276  072B  3E01               	addlw	1
  1277  072C  3E00               	addlw	high(01h)
  1278  072D  00F5               	movwf	1+(_i)
  1279                           	
  1280  072E                     l2165:	
  1281  072E  3050               	movlw	low(0C350h)
  1282  072F  00F6               	movwf	(?_delay)
  1283  0730  30C3               	movlw	high(0C350h)
  1284  0731  00F7               	movwf	((?_delay))+1
  1285  0732  120A  118A  2453   	fcall	_delay
              120A  118A         
  1286                           	
  1287  0737                     l2167:	
  1288  0737  3050               	movlw	low(0C350h)
  1289  0738  00F6               	movwf	(?_delay)
  1290  0739  30C3               	movlw	high(0C350h)
  1291  073A  00F7               	movwf	((?_delay))+1
  1292  073B  120A  118A  2453   	fcall	_delay
              120A  118A         
  1293                           	line	125
  1294                           	
  1295  0740                     l594:	
  1296                           	line	126
  1297                           	
  1298  0740                     l2169:	
  1299                           ;password matchinng.c: 125: }
  1300                           ;password matchinng.c: 126: if(RB2==1)
  1301  0740  1283               	bcf	status, 5	;RP0=0, select bank0
  1302  0741  1303               	bcf	status, 6	;RP1=0, select bank0
  1303  0742  1D06               	btfss	(50/8),(50)&7
  1304  0743  2F45               	goto	u2411
  1305  0744  2F46               	goto	u2410
  1306  0745                     u2411:
  1307  0745  2F70               	goto	l595
  1308  0746                     u2410:
  1309                           	line	129
  1310                           	
  1311  0746                     l2171:	
  1312                           ;password matchinng.c: 127: {
  1313                           ;password matchinng.c: 129: lcd_data('9');
  1314  0746  3039               	movlw	(039h)
  1315  0747  120A  118A  247A   	fcall	_lcd_data
              120A  118A         
  1316                           	line	130
  1317                           	
  1318  074C                     l2173:	
  1319                           ;password matchinng.c: 130: a[i]=9;
  1320  074C  0874               	movf	(_i),w
  1321  074D  00F9               	movwf	(??_password+0)+0
  1322  074E  0779               	addwf	(??_password+0)+0,w
  1323  074F  3E70               	addlw	_a&0ffh
  1324  0750  0084               	movwf	fsr0
  1325  0751  3009               	movlw	low(09h)
  1326  0752  0080               	movwf	indf
  1327  0753  0A84               	incf	fsr0,f
  1328  0754  3000               	movlw	high(09h)
  1329  0755  0080               	movwf	indf
  1330                           	line	131
  1331                           	
  1332  0756                     l2175:	
  1333                           ;password matchinng.c: 131: i=i+1;delay(50000);delay(50000);
  1334  0756  0874               	movf	(_i),w
  1335  0757  3E01               	addlw	low(01h)
  1336  0758  00F4               	movwf	(_i)
  1337  0759  0875               	movf	(_i+1),w
  1338  075A  1803               	skipnc
  1339  075B  3E01               	addlw	1
  1340  075C  3E00               	addlw	high(01h)
  1341  075D  00F5               	movwf	1+(_i)
  1342                           	
  1343  075E                     l2177:	
  1344  075E  3050               	movlw	low(0C350h)
  1345  075F  00F6               	movwf	(?_delay)
  1346  0760  30C3               	movlw	high(0C350h)
  1347  0761  00F7               	movwf	((?_delay))+1
  1348  0762  120A  118A  2453   	fcall	_delay
              120A  118A         
  1349                           	
  1350  0767                     l2179:	
  1351  0767  3050               	movlw	low(0C350h)
  1352  0768  00F6               	movwf	(?_delay)
  1353  0769  30C3               	movlw	high(0C350h)
  1354  076A  00F7               	movwf	((?_delay))+1
  1355  076B  120A  118A  2453   	fcall	_delay
              120A  118A         
  1356                           	line	132
  1357                           	
  1358  0770                     l595:	
  1359                           	line	135
  1360                           	
  1361  0770                     l2181:	
  1362                           ;password matchinng.c: 132: }
  1363                           ;password matchinng.c: 135: RB3=0;
  1364  0770  1283               	bcf	status, 5	;RP0=0, select bank0
  1365  0771  1303               	bcf	status, 6	;RP1=0, select bank0
  1366  0772  1186               	bcf	(51/8),(51)&7
  1367                           	line	136
  1368                           	
  1369  0773                     l2183:	
  1370                           ;password matchinng.c: 136: RB4=0;
  1371  0773  1206               	bcf	(52/8),(52)&7
  1372                           	line	137
  1373                           	
  1374  0774                     l2185:	
  1375                           ;password matchinng.c: 137: RB5=0;
  1376  0774  1286               	bcf	(53/8),(53)&7
  1377                           	line	138
  1378                           	
  1379  0775                     l2187:	
  1380                           ;password matchinng.c: 138: RB6=1;
  1381  0775  1706               	bsf	(54/8),(54)&7
  1382                           	line	139
  1383                           	
  1384  0776                     l2189:	
  1385                           ;password matchinng.c: 139: if(RB0==1)
  1386  0776  1C06               	btfss	(48/8),(48)&7
  1387  0777  2F79               	goto	u2421
  1388  0778  2F7A               	goto	u2420
  1389  0779                     u2421:
  1390  0779  2F9A               	goto	l596
  1391  077A                     u2420:
  1392                           	line	142
  1393                           	
  1394  077A                     l2191:	
  1395                           ;password matchinng.c: 140: {
  1396                           ;password matchinng.c: 142: lcd_data('*');
  1397  077A  302A               	movlw	(02Ah)
  1398  077B  120A  118A  247A   	fcall	_lcd_data
              120A  118A         
  1399                           	line	144
  1400                           	
  1401  0780                     l2193:	
  1402                           ;password matchinng.c: 144: i=i+1;delay(50000);delay(50000);
  1403  0780  0874               	movf	(_i),w
  1404  0781  3E01               	addlw	low(01h)
  1405  0782  00F4               	movwf	(_i)
  1406  0783  0875               	movf	(_i+1),w
  1407  0784  1803               	skipnc
  1408  0785  3E01               	addlw	1
  1409  0786  3E00               	addlw	high(01h)
  1410  0787  00F5               	movwf	1+(_i)
  1411                           	
  1412  0788                     l2195:	
  1413  0788  3050               	movlw	low(0C350h)
  1414  0789  00F6               	movwf	(?_delay)
  1415  078A  30C3               	movlw	high(0C350h)
  1416  078B  00F7               	movwf	((?_delay))+1
  1417  078C  120A  118A  2453   	fcall	_delay
              120A  118A         
  1418                           	
  1419  0791                     l2197:	
  1420  0791  3050               	movlw	low(0C350h)
  1421  0792  00F6               	movwf	(?_delay)
  1422  0793  30C3               	movlw	high(0C350h)
  1423  0794  00F7               	movwf	((?_delay))+1
  1424  0795  120A  118A  2453   	fcall	_delay
              120A  118A         
  1425                           	line	145
  1426                           	
  1427  079A                     l596:	
  1428                           	line	146
  1429                           	
  1430  079A                     l2199:	
  1431                           ;password matchinng.c: 145: }
  1432                           ;password matchinng.c: 146: if(RB1==1)
  1433  079A  1283               	bcf	status, 5	;RP0=0, select bank0
  1434  079B  1303               	bcf	status, 6	;RP1=0, select bank0
  1435  079C  1C86               	btfss	(49/8),(49)&7
  1436  079D  2F9F               	goto	u2431
  1437  079E  2FA0               	goto	u2430
  1438  079F                     u2431:
  1439  079F  2FCA               	goto	l597
  1440  07A0                     u2430:
  1441                           	line	149
  1442                           	
  1443  07A0                     l2201:	
  1444                           ;password matchinng.c: 147: {
  1445                           ;password matchinng.c: 149: lcd_data('0');
  1446  07A0  3030               	movlw	(030h)
  1447  07A1  120A  118A  247A   	fcall	_lcd_data
              120A  118A         
  1448                           	line	150
  1449                           	
  1450  07A6                     l2203:	
  1451                           ;password matchinng.c: 150: a[i]=0;
  1452  07A6  0874               	movf	(_i),w
  1453  07A7  00F9               	movwf	(??_password+0)+0
  1454  07A8  0779               	addwf	(??_password+0)+0,w
  1455  07A9  3E70               	addlw	_a&0ffh
  1456  07AA  0084               	movwf	fsr0
  1457  07AB  3000               	movlw	low(0)
  1458  07AC  0080               	movwf	indf
  1459  07AD  0A84               	incf	fsr0,f
  1460  07AE  3000               	movlw	high(0)
  1461  07AF  0080               	movwf	indf
  1462                           	line	151
  1463                           	
  1464  07B0                     l2205:	
  1465                           ;password matchinng.c: 151: i=i+1;delay(50000);delay(50000);
  1466  07B0  0874               	movf	(_i),w
  1467  07B1  3E01               	addlw	low(01h)
  1468  07B2  00F4               	movwf	(_i)
  1469  07B3  0875               	movf	(_i+1),w
  1470  07B4  1803               	skipnc
  1471  07B5  3E01               	addlw	1
  1472  07B6  3E00               	addlw	high(01h)
  1473  07B7  00F5               	movwf	1+(_i)
  1474                           	
  1475  07B8                     l2207:	
  1476  07B8  3050               	movlw	low(0C350h)
  1477  07B9  00F6               	movwf	(?_delay)
  1478  07BA  30C3               	movlw	high(0C350h)
  1479  07BB  00F7               	movwf	((?_delay))+1
  1480  07BC  120A  118A  2453   	fcall	_delay
              120A  118A         
  1481                           	
  1482  07C1                     l2209:	
  1483  07C1  3050               	movlw	low(0C350h)
  1484  07C2  00F6               	movwf	(?_delay)
  1485  07C3  30C3               	movlw	high(0C350h)
  1486  07C4  00F7               	movwf	((?_delay))+1
  1487  07C5  120A  118A  2453   	fcall	_delay
              120A  118A         
  1488                           	line	152
  1489                           	
  1490  07CA                     l597:	
  1491                           	line	153
  1492                           	
  1493  07CA                     l2211:	
  1494                           ;password matchinng.c: 152: }
  1495                           ;password matchinng.c: 153: if(RB2==1)
  1496  07CA  1283               	bcf	status, 5	;RP0=0, select bank0
  1497  07CB  1303               	bcf	status, 6	;RP1=0, select bank0
  1498  07CC  1D06               	btfss	(50/8),(50)&7
  1499  07CD  2FCF               	goto	u2441
  1500  07CE  2FD0               	goto	u2440
  1501  07CF                     u2441:
  1502  07CF  2FF0               	goto	l598
  1503  07D0                     u2440:
  1504                           	line	156
  1505                           	
  1506  07D0                     l2213:	
  1507                           ;password matchinng.c: 154: {
  1508                           ;password matchinng.c: 156: lcd_data('#');
  1509  07D0  3023               	movlw	(023h)
  1510  07D1  120A  118A  247A   	fcall	_lcd_data
              120A  118A         
  1511                           	line	158
  1512                           	
  1513  07D6                     l2215:	
  1514                           ;password matchinng.c: 158: i=i+1;delay(50000);delay(50000);
  1515  07D6  0874               	movf	(_i),w
  1516  07D7  3E01               	addlw	low(01h)
  1517  07D8  00F4               	movwf	(_i)
  1518  07D9  0875               	movf	(_i+1),w
  1519  07DA  1803               	skipnc
  1520  07DB  3E01               	addlw	1
  1521  07DC  3E00               	addlw	high(01h)
  1522  07DD  00F5               	movwf	1+(_i)
  1523                           	
  1524  07DE                     l2217:	
  1525  07DE  3050               	movlw	low(0C350h)
  1526  07DF  00F6               	movwf	(?_delay)
  1527  07E0  30C3               	movlw	high(0C350h)
  1528  07E1  00F7               	movwf	((?_delay))+1
  1529  07E2  120A  118A  2453   	fcall	_delay
              120A  118A         
  1530                           	
  1531  07E7                     l2219:	
  1532  07E7  3050               	movlw	low(0C350h)
  1533  07E8  00F6               	movwf	(?_delay)
  1534  07E9  30C3               	movlw	high(0C350h)
  1535  07EA  00F7               	movwf	((?_delay))+1
  1536  07EB  120A  118A  2453   	fcall	_delay
              120A  118A         
  1537                           	line	159
  1538                           	
  1539  07F0                     l598:	
  1540                           	line	162
  1541                           	
  1542  07F0                     l2221:	
  1543                           ;password matchinng.c: 159: }
  1544                           ;password matchinng.c: 162: if(i>1)
  1545  07F0  0875               	movf	(_i+1),w
  1546  07F1  3A80               	xorlw	80h
  1547  07F2  00FE               	movwf	btemp+0
  1548  07F3  3080               	movlw	(high(02h))^80h
  1549  07F4  027E               	subwf	btemp+0,w
  1550  07F5  1D03               	skipz
  1551  07F6  2FF9               	goto	u2455
  1552  07F7  3002               	movlw	low(02h)
  1553  07F8  0274               	subwf	(_i),w
  1554  07F9                     u2455:
  1555                           
  1556  07F9  1C03               	skipc
  1557  07FA  2FFC               	goto	u2451
  1558  07FB  2FFD               	goto	u2450
  1559  07FC                     u2451:
  1560  07FC  2FFE               	goto	l599
  1561  07FD                     u2450:
  1562                           	line	164
  1563                           	
  1564  07FD                     l2223:	
  1565                           ;password matchinng.c: 163: {
  1566                           ;password matchinng.c: 164: break;
  1567  07FD  2FFF               	goto	l600
  1568                           	line	165
  1569                           	
  1570  07FE                     l599:	
  1571                           	line	166
  1572                           	
  1573  07FE                     l601:	
  1574                           	line	57
  1575  07FE  2DB4               	goto	l586
  1576                           	
  1577  07FF                     l600:	
  1578                           	line	168
  1579                           	
  1580  07FF                     l602:	
  1581  07FF  0008               	return
  1582                           	opt stack 0
  1583                           GLOBAL	__end_of_password
  1584  0800                     	__end_of_password:
  1585 ;; =============== function _password ends ============
  1586                           
  1587                           	signat	_password,88
  1588                           	global	_lcd_display
  1589                           psect	text170,local,class=CODE,delta=2
  1590                           global __ptext170
  1591  04CA                     __ptext170:
  1592                           
  1593 ;; *************** function _lcd_display *****************
  1594 ;; Defined at:
  1595 ;;		line 48 in file "D:\Madhu\madhu pic folder\pic task\keypad\keypad task\password\password matchinng.c"
  1596 ;; Parameters:    Size  Location     Type
  1597 ;;  m               1    wreg     PTR unsigned char 
  1598 ;;		 -> STR_3(19), STR_2(17), STR_1(19), 
  1599 ;; Auto vars:     Size  Location     Type
  1600 ;;  m               1    3[COMMON] PTR unsigned char 
  1601 ;;		 -> STR_3(19), STR_2(17), STR_1(19), 
  1602 ;;  j               2    4[COMMON] int 
  1603 ;; Return value:  Size  Location     Type
  1604 ;;		None               void
  1605 ;; Registers used:
  1606 ;;		wreg, fsr0l, fsr0h, status,2, status,0, pclath, cstack
  1607 ;; Tracked objects:
  1608 ;;		On entry : 0/0
  1609 ;;		On exit  : 0/0
  1610 ;;		Unchanged: 0/0
  1611 ;; Data sizes:     COMMON   BANK0   BANK1   BANK3   BANK2
  1612 ;;      Params:         0       0       0       0       0
  1613 ;;      Locals:         3       0       0       0       0
  1614 ;;      Temps:          0       0       0       0       0
  1615 ;;      Totals:         3       0       0       0       0
  1616 ;;Total ram usage:        3 bytes
  1617 ;; Hardware stack levels used:    1
  1618 ;; Hardware stack levels required when called:    2
  1619 ;; This function calls:
  1620 ;;		_lcd_data
  1621 ;; This function is called by:
  1622 ;;		_main
  1623 ;; This function uses a non-reentrant model
  1624 ;;
  1625                           psect	text170
  1626                           	file	"D:\Madhu\madhu pic folder\pic task\keypad\keypad task\password\password matchinng
                                 .c"
  1627                           	line	48
  1628                           	global	__size_of_lcd_display
  1629  0027                     	__size_of_lcd_display	equ	__end_of_lcd_display-_lcd_display
  1630                           	
  1631  04CA                     _lcd_display:	
  1632                           	opt	stack 7
  1633                           ; Regs used in _lcd_display: [wreg-fsr0h+status,2+status,0+pclath+cstack]
  1634                           ;lcd_display@m stored from wreg
  1635  04CA  00F9               	movwf	(lcd_display@m)
  1636                           	line	49
  1637                           	
  1638  04CB                     l2051:	
  1639                           ;password matchinng.c: 49: for(int j=0;m[j]!=0;j++)
  1640  04CB  3000               	movlw	low(0)
  1641  04CC  00FA               	movwf	(lcd_display@j)
  1642  04CD  3000               	movlw	high(0)
  1643  04CE  00FB               	movwf	((lcd_display@j))+1
  1644  04CF  2CE3               	goto	l580
  1645                           	line	50
  1646                           	
  1647  04D0                     l581:	
  1648                           	line	51
  1649                           	
  1650  04D0                     l2053:	
  1651                           ;password matchinng.c: 50: {
  1652                           ;password matchinng.c: 51: lcd_data(m[j]);
  1653  04D0  087A               	movf	(lcd_display@j),w
  1654  04D1  0779               	addwf	(lcd_display@m),w
  1655  04D2  0084               	movwf	fsr0
  1656  04D3  120A  118A  2003   	fcall	stringdir
              120A  118A         
  1657  04D8  120A  118A  247A   	fcall	_lcd_data
              120A  118A         
  1658                           	line	49
  1659                           	
  1660  04DD                     l2055:	
  1661  04DD  3001               	movlw	low(01h)
  1662  04DE  07FA               	addwf	(lcd_display@j),f
  1663  04DF  1803               	skipnc
  1664  04E0  0AFB               	incf	(lcd_display@j+1),f
  1665  04E1  3000               	movlw	high(01h)
  1666  04E2  07FB               	addwf	(lcd_display@j+1),f
  1667                           	
  1668  04E3                     l580:	
  1669                           	
  1670  04E3                     l2057:	
  1671  04E3  087A               	movf	(lcd_display@j),w
  1672  04E4  0779               	addwf	(lcd_display@m),w
  1673  04E5  0084               	movwf	fsr0
  1674  04E6  120A  118A  2003   	fcall	stringdir
              120A  118A         
  1675  04EB  3800               	iorlw	0
  1676  04EC  1D03               	skipz
  1677  04ED  2CEF               	goto	u2321
  1678  04EE  2CF0               	goto	u2320
  1679  04EF                     u2321:
  1680  04EF  2CD0               	goto	l581
  1681  04F0                     u2320:
  1682                           	
  1683  04F0                     l582:	
  1684                           	line	53
  1685                           	
  1686  04F0                     l583:	
  1687  04F0  0008               	return
  1688                           	opt stack 0
  1689                           GLOBAL	__end_of_lcd_display
  1690  04F1                     	__end_of_lcd_display:
  1691 ;; =============== function _lcd_display ends ============
  1692                           
  1693                           	signat	_lcd_display,4216
  1694                           	global	_lcd_init
  1695                           psect	text171,local,class=CODE,delta=2
  1696                           global __ptext171
  1697  048F                     __ptext171:
  1698                           
  1699 ;; *************** function _lcd_init *****************
  1700 ;; Defined at:
  1701 ;;		line 41 in file "D:\Madhu\madhu pic folder\pic task\keypad\keypad task\password\password matchinng.c"
  1702 ;; Parameters:    Size  Location     Type
  1703 ;;		None
  1704 ;; Auto vars:     Size  Location     Type
  1705 ;;		None
  1706 ;; Return value:  Size  Location     Type
  1707 ;;		None               void
  1708 ;; Registers used:
  1709 ;;		wreg, status,2, status,0, pclath, cstack
  1710 ;; Tracked objects:
  1711 ;;		On entry : 0/0
  1712 ;;		On exit  : 0/0
  1713 ;;		Unchanged: 0/0
  1714 ;; Data sizes:     COMMON   BANK0   BANK1   BANK3   BANK2
  1715 ;;      Params:         0       0       0       0       0
  1716 ;;      Locals:         0       0       0       0       0
  1717 ;;      Temps:          0       0       0       0       0
  1718 ;;      Totals:         0       0       0       0       0
  1719 ;;Total ram usage:        0 bytes
  1720 ;; Hardware stack levels used:    1
  1721 ;; Hardware stack levels required when called:    2
  1722 ;; This function calls:
  1723 ;;		_lcd_command
  1724 ;; This function is called by:
  1725 ;;		_main
  1726 ;; This function uses a non-reentrant model
  1727 ;;
  1728                           psect	text171
  1729                           	file	"D:\Madhu\madhu pic folder\pic task\keypad\keypad task\password\password matchinng
                                 .c"
  1730                           	line	41
  1731                           	global	__size_of_lcd_init
  1732  0019                     	__size_of_lcd_init	equ	__end_of_lcd_init-_lcd_init
  1733                           	
  1734  048F                     _lcd_init:	
  1735                           	opt	stack 7
  1736                           ; Regs used in _lcd_init: [wreg+status,2+status,0+pclath+cstack]
  1737                           	line	42
  1738                           	
  1739  048F                     l2049:	
  1740                           ;password matchinng.c: 42: lcd_command(0x38);
  1741  048F  3038               	movlw	(038h)
  1742  0490  120A  118A  2465   	fcall	_lcd_command
              120A  118A         
  1743                           	line	43
  1744                           ;password matchinng.c: 43: lcd_command(0x06);
  1745  0495  3006               	movlw	(06h)
  1746  0496  120A  118A  2465   	fcall	_lcd_command
              120A  118A         
  1747                           	line	44
  1748                           ;password matchinng.c: 44: lcd_command(0x0C);
  1749  049B  300C               	movlw	(0Ch)
  1750  049C  120A  118A  2465   	fcall	_lcd_command
              120A  118A         
  1751                           	line	45
  1752                           ;password matchinng.c: 45: lcd_command(0x01);
  1753  04A1  3001               	movlw	(01h)
  1754  04A2  120A  118A  2465   	fcall	_lcd_command
              120A  118A         
  1755                           	line	46
  1756                           	
  1757  04A7                     l577:	
  1758  04A7  0008               	return
  1759                           	opt stack 0
  1760                           GLOBAL	__end_of_lcd_init
  1761  04A8                     	__end_of_lcd_init:
  1762 ;; =============== function _lcd_init ends ============
  1763                           
  1764                           	signat	_lcd_init,88
  1765                           	global	_lcd_data
  1766                           psect	text172,local,class=CODE,delta=2
  1767                           global __ptext172
  1768  047A                     __ptext172:
  1769                           
  1770 ;; *************** function _lcd_data *****************
  1771 ;; Defined at:
  1772 ;;		line 32 in file "D:\Madhu\madhu pic folder\pic task\keypad\keypad task\password\password matchinng.c"
  1773 ;; Parameters:    Size  Location     Type
  1774 ;;  data            1    wreg     unsigned char 
  1775 ;; Auto vars:     Size  Location     Type
  1776 ;;  data            1    2[COMMON] unsigned char 
  1777 ;; Return value:  Size  Location     Type
  1778 ;;		None               void
  1779 ;; Registers used:
  1780 ;;		wreg, status,2, status,0, pclath, cstack
  1781 ;; Tracked objects:
  1782 ;;		On entry : 0/0
  1783 ;;		On exit  : 0/0
  1784 ;;		Unchanged: 0/0
  1785 ;; Data sizes:     COMMON   BANK0   BANK1   BANK3   BANK2
  1786 ;;      Params:         0       0       0       0       0
  1787 ;;      Locals:         1       0       0       0       0
  1788 ;;      Temps:          0       0       0       0       0
  1789 ;;      Totals:         1       0       0       0       0
  1790 ;;Total ram usage:        1 bytes
  1791 ;; Hardware stack levels used:    1
  1792 ;; Hardware stack levels required when called:    1
  1793 ;; This function calls:
  1794 ;;		_delay
  1795 ;; This function is called by:
  1796 ;;		_lcd_display
  1797 ;;		_password
  1798 ;; This function uses a non-reentrant model
  1799 ;;
  1800                           psect	text172
  1801                           	file	"D:\Madhu\madhu pic folder\pic task\keypad\keypad task\password\password matchinng
                                 .c"
  1802                           	line	32
  1803                           	global	__size_of_lcd_data
  1804  0015                     	__size_of_lcd_data	equ	__end_of_lcd_data-_lcd_data
  1805                           	
  1806  047A                     _lcd_data:	
  1807                           	opt	stack 6
  1808                           ; Regs used in _lcd_data: [wreg+status,2+status,0+pclath+cstack]
  1809                           ;lcd_data@data stored from wreg
  1810  047A  00F8               	movwf	(lcd_data@data)
  1811                           	line	33
  1812                           	
  1813  047B                     l2037:	
  1814                           ;password matchinng.c: 33: PORTD=data;
  1815  047B  0878               	movf	(lcd_data@data),w
  1816  047C  1283               	bcf	status, 5	;RP0=0, select bank0
  1817  047D  1303               	bcf	status, 6	;RP1=0, select bank0
  1818  047E  0088               	movwf	(8)	;volatile
  1819                           	line	34
  1820                           	
  1821  047F                     l2039:	
  1822                           ;password matchinng.c: 34: RC0=1;
  1823  047F  1407               	bsf	(56/8),(56)&7
  1824                           	line	35
  1825                           	
  1826  0480                     l2041:	
  1827                           ;password matchinng.c: 35: RC1=0;
  1828  0480  1087               	bcf	(57/8),(57)&7
  1829                           	line	36
  1830                           	
  1831  0481                     l2043:	
  1832                           ;password matchinng.c: 36: RC2=1;
  1833  0481  1507               	bsf	(58/8),(58)&7
  1834                           	line	37
  1835                           	
  1836  0482                     l2045:	
  1837                           ;password matchinng.c: 37: delay(100);
  1838  0482  3064               	movlw	low(064h)
  1839  0483  00F6               	movwf	(?_delay)
  1840  0484  3000               	movlw	high(064h)
  1841  0485  00F7               	movwf	((?_delay))+1
  1842  0486  120A  118A  2453   	fcall	_delay
              120A  118A         
  1843                           	line	38
  1844                           	
  1845  048B                     l2047:	
  1846                           ;password matchinng.c: 38: RC2=0;
  1847  048B  1283               	bcf	status, 5	;RP0=0, select bank0
  1848  048C  1303               	bcf	status, 6	;RP1=0, select bank0
  1849  048D  1107               	bcf	(58/8),(58)&7
  1850                           	line	39
  1851                           	
  1852  048E                     l574:	
  1853  048E  0008               	return
  1854                           	opt stack 0
  1855                           GLOBAL	__end_of_lcd_data
  1856  048F                     	__end_of_lcd_data:
  1857 ;; =============== function _lcd_data ends ============
  1858                           
  1859                           	signat	_lcd_data,4216
  1860                           	global	_lcd_command
  1861                           psect	text173,local,class=CODE,delta=2
  1862                           global __ptext173
  1863  0465                     __ptext173:
  1864                           
  1865 ;; *************** function _lcd_command *****************
  1866 ;; Defined at:
  1867 ;;		line 23 in file "D:\Madhu\madhu pic folder\pic task\keypad\keypad task\password\password matchinng.c"
  1868 ;; Parameters:    Size  Location     Type
  1869 ;;  com             1    wreg     unsigned char 
  1870 ;; Auto vars:     Size  Location     Type
  1871 ;;  com             1    2[COMMON] unsigned char 
  1872 ;; Return value:  Size  Location     Type
  1873 ;;		None               void
  1874 ;; Registers used:
  1875 ;;		wreg, status,2, status,0, pclath, cstack
  1876 ;; Tracked objects:
  1877 ;;		On entry : 0/0
  1878 ;;		On exit  : 0/0
  1879 ;;		Unchanged: 0/0
  1880 ;; Data sizes:     COMMON   BANK0   BANK1   BANK3   BANK2
  1881 ;;      Params:         0       0       0       0       0
  1882 ;;      Locals:         1       0       0       0       0
  1883 ;;      Temps:          0       0       0       0       0
  1884 ;;      Totals:         1       0       0       0       0
  1885 ;;Total ram usage:        1 bytes
  1886 ;; Hardware stack levels used:    1
  1887 ;; Hardware stack levels required when called:    1
  1888 ;; This function calls:
  1889 ;;		_delay
  1890 ;; This function is called by:
  1891 ;;		_lcd_init
  1892 ;;		_main
  1893 ;; This function uses a non-reentrant model
  1894 ;;
  1895                           psect	text173
  1896                           	file	"D:\Madhu\madhu pic folder\pic task\keypad\keypad task\password\password matchinng
                                 .c"
  1897                           	line	23
  1898                           	global	__size_of_lcd_command
  1899  0015                     	__size_of_lcd_command	equ	__end_of_lcd_command-_lcd_command
  1900                           	
  1901  0465                     _lcd_command:	
  1902                           	opt	stack 7
  1903                           ; Regs used in _lcd_command: [wreg+status,2+status,0+pclath+cstack]
  1904                           ;lcd_command@com stored from wreg
  1905  0465  00F8               	movwf	(lcd_command@com)
  1906                           	line	24
  1907                           	
  1908  0466                     l2025:	
  1909                           ;password matchinng.c: 24: PORTD=com;
  1910  0466  0878               	movf	(lcd_command@com),w
  1911  0467  1283               	bcf	status, 5	;RP0=0, select bank0
  1912  0468  1303               	bcf	status, 6	;RP1=0, select bank0
  1913  0469  0088               	movwf	(8)	;volatile
  1914                           	line	25
  1915                           	
  1916  046A                     l2027:	
  1917                           ;password matchinng.c: 25: RC0=0;
  1918  046A  1007               	bcf	(56/8),(56)&7
  1919                           	line	26
  1920                           	
  1921  046B                     l2029:	
  1922                           ;password matchinng.c: 26: RC1=0;
  1923  046B  1087               	bcf	(57/8),(57)&7
  1924                           	line	27
  1925                           	
  1926  046C                     l2031:	
  1927                           ;password matchinng.c: 27: RC2=1;
  1928  046C  1507               	bsf	(58/8),(58)&7
  1929                           	line	28
  1930                           	
  1931  046D                     l2033:	
  1932                           ;password matchinng.c: 28: delay(100);
  1933  046D  3064               	movlw	low(064h)
  1934  046E  00F6               	movwf	(?_delay)
  1935  046F  3000               	movlw	high(064h)
  1936  0470  00F7               	movwf	((?_delay))+1
  1937  0471  120A  118A  2453   	fcall	_delay
              120A  118A         
  1938                           	line	29
  1939                           	
  1940  0476                     l2035:	
  1941                           ;password matchinng.c: 29: RC2=0;
  1942  0476  1283               	bcf	status, 5	;RP0=0, select bank0
  1943  0477  1303               	bcf	status, 6	;RP1=0, select bank0
  1944  0478  1107               	bcf	(58/8),(58)&7
  1945                           	line	30
  1946                           	
  1947  0479                     l571:	
  1948  0479  0008               	return
  1949                           	opt stack 0
  1950                           GLOBAL	__end_of_lcd_command
  1951  047A                     	__end_of_lcd_command:
  1952 ;; =============== function _lcd_command ends ============
  1953                           
  1954                           	signat	_lcd_command,4216
  1955                           	global	_delay
  1956                           psect	text174,local,class=CODE,delta=2
  1957                           global __ptext174
  1958  0453                     __ptext174:
  1959                           
  1960 ;; *************** function _delay *****************
  1961 ;; Defined at:
  1962 ;;		line 19 in file "D:\Madhu\madhu pic folder\pic task\keypad\keypad task\password\password matchinng.c"
  1963 ;; Parameters:    Size  Location     Type
  1964 ;;  x               2    0[COMMON] unsigned int 
  1965 ;; Auto vars:     Size  Location     Type
  1966 ;;		None
  1967 ;; Return value:  Size  Location     Type
  1968 ;;		None               void
  1969 ;; Registers used:
  1970 ;;		wreg
  1971 ;; Tracked objects:
  1972 ;;		On entry : 0/0
  1973 ;;		On exit  : 0/0
  1974 ;;		Unchanged: 0/0
  1975 ;; Data sizes:     COMMON   BANK0   BANK1   BANK3   BANK2
  1976 ;;      Params:         2       0       0       0       0
  1977 ;;      Locals:         0       0       0       0       0
  1978 ;;      Temps:          0       0       0       0       0
  1979 ;;      Totals:         2       0       0       0       0
  1980 ;;Total ram usage:        2 bytes
  1981 ;; Hardware stack levels used:    1
  1982 ;; This function calls:
  1983 ;;		Nothing
  1984 ;; This function is called by:
  1985 ;;		_lcd_command
  1986 ;;		_lcd_data
  1987 ;;		_password
  1988 ;;		_main
  1989 ;; This function uses a non-reentrant model
  1990 ;;
  1991                           psect	text174
  1992                           	file	"D:\Madhu\madhu pic folder\pic task\keypad\keypad task\password\password matchinng
                                 .c"
  1993                           	line	19
  1994                           	global	__size_of_delay
  1995  0012                     	__size_of_delay	equ	__end_of_delay-_delay
  1996                           	
  1997  0453                     _delay:	
  1998                           	opt	stack 6
  1999                           ; Regs used in _delay: [wreg]
  2000                           	line	20
  2001                           	
  2002  0453                     l2021:	
  2003                           ;password matchinng.c: 20: while(x--);
  2004  0453  2C54               	goto	l565
  2005                           	
  2006  0454                     l566:	
  2007                           	
  2008  0454                     l565:	
  2009                           	
  2010  0454                     l2023:	
  2011  0454  3001               	movlw	low(01h)
  2012  0455  02F6               	subwf	(delay@x),f
  2013  0456  3000               	movlw	high(01h)
  2014  0457  1C03               	skipc
  2015  0458  03F7               	decf	(delay@x+1),f
  2016  0459  02F7               	subwf	(delay@x+1),f
  2017  045A  30FF               	movlw	high(0FFFFh)
  2018  045B  0677               	xorwf	((delay@x+1)),w
  2019  045C  1D03               	skipz
  2020  045D  2C60               	goto	u2315
  2021  045E  30FF               	movlw	low(0FFFFh)
  2022  045F  0676               	xorwf	((delay@x)),w
  2023  0460                     u2315:
  2024                           
  2025  0460  1D03               	skipz
  2026  0461  2C63               	goto	u2311
  2027  0462  2C64               	goto	u2310
  2028  0463                     u2311:
  2029  0463  2C54               	goto	l566
  2030  0464                     u2310:
  2031                           	
  2032  0464                     l567:	
  2033                           	line	21
  2034                           	
  2035  0464                     l568:	
  2036  0464  0008               	return
  2037                           	opt stack 0
  2038                           GLOBAL	__end_of_delay
  2039  0465                     	__end_of_delay:
  2040 ;; =============== function _delay ends ============
  2041                           
  2042                           	signat	_delay,4216
  2043                           psect	text175,local,class=CODE,delta=2
  2044                           global __ptext175
  2045  0000                     __ptext175:
  2046                           	global	btemp
  2047  007E                     	btemp set 07Eh
  2048                           
  2049                           	DABS	1,126,2	;btemp
  2050                           	global	wtemp0
  2051  007E                     	wtemp0 set btemp


HI-TECH Software PICC Macro Assembler V9.71a build 6446 
Symbol Table                                                                                   Mon Jan 23 19:28:31 2023

                   _a 0070                     _b 0020                     _i 0074                     pc 0002  
        lcd_data@data 0078                    fsr 0004                   l600 07FF                   l601 07FE  
                 l602 07FF                   l610 05B1                   l605 0512                   l606 0562  
                 l607 0568                   l608 05B0                   l609 05B1                   l571 0479  
                 l580 04E3                   l565 0454                   l581 04D0                   l566 0454  
                 l574 048E                   l582 04F0                   l590 067C                   l567 0464  
                 l583 04F0                   l591 06AC                   l568 0464                   l592 06DC  
                 l577 04A7                   l593 0710                   l594 0740                   l586 05B4  
                 l595 0770                   l587 05E8                   l596 079A                   l588 0618  
                 l597 07CA                   l589 0648                   l598 07F0                   l599 07FE  
                 _RB0 0030                   _RB1 0031                   _RC0 0038                   _RB2 0032  
                 _RC1 0039                   _RB3 0033                   _RC2 003A                   _RB4 0034  
                 _RB5 0035                   _RB6 0036                   fsr0 0004                   indf 0000  
        lcd_display@j 007A          lcd_display@m 0079                  l2021 0453                  l2101 064E  
                l2023 0454                  l2031 046C                  l2111 0673                  l2103 0652  
                l2033 046D                  l2025 0466                  l2041 0480                  l2201 07A0  
                l2121 069A                  l2113 067C                  l2105 0658                  l2035 0476  
                l2027 046A                  l2043 0481                  l2051 04CB                  l2211 07CA  
                l2203 07A6                  l2131 06C2                  l2123 06A3                  l2115 0682  
                l2107 0662                  l2029 046B                  l2045 0482                  l2037 047B  
                l2053 04D0                  l2221 07F0                  l2213 07D0                  l2205 07B0  
                l2141 06E0                  l2133 06CA                  l2125 06AC                  l2117 0688  
                l2109 066A                  l2061 05C4                  l2047 048B                  l2039 047F  
                l2055 04DD                  l2223 07FD                  l2215 07D6                  l2207 07B8  
                l2151 06F6                  l2143 06E1                  l2135 06D3                  l2127 06B2  
                l2119 0692                  l2071 05EE                  l2063 05CE                  l2231 0504  
                l2049 048F                  l2057 04E3                  l2217 07DE                  l2209 07C1  
                l2161 071C                  l2153 06FE                  l2145 06E2                  l2137 06DC  
                l2129 06B8                  l2081 0618                  l2073 05F4                  l2065 05D6  
                l2241 052B                  l2233 0509                  l2225 04F1                  l2219 07E7  
                l2171 0746                  l2163 0726                  l2155 0707                  l2147 06E6  
                l2139 06DF                  l2091 063F                  l2083 061E                  l2075 05FE  
                l2067 05DF                  l2059 05BE                  l2251 0551                  l2243 0534  
                l2235 0516                  l2227 04FD                  l2181 0770                  l2173 074C  
                l2165 072E                  l2157 0710                  l2149 06EC                  l2093 0648  
                l2085 0624                  l2077 0606                  l2069 05E8                  l2261 057A  
                l2253 055B                  l2245 053A                  l2237 051C                  l2229 0501  
                l2191 077A                  l2183 0773                  l2175 0756                  l2167 0737  
                l2159 0716                  l2095 064B                  l2087 062E                  l2079 060F  
                l2271 05A7                  l2263 0583                  l2255 0562                  l2247 0540  
                l2239 0522                  l2193 0780                  l2185 0774                  l2177 075E  
                l2169 0740                  l2097 064C                  l2089 0636                  l2265 058C  
                l2257 0568                  l2249 0545                  l2195 0788                  l2187 0775  
                l2179 0767                  l2099 064D                  l2267 0595                  l2259 0571  
                l2197 0791                  l2189 0776                  l2269 059E                  l2199 079A  
                STR_1 0009                  STR_2 002F                  STR_3 001C                  u2310 0464  
                u2311 0463                  u2320 04F0                  u2400 0716                  u2321 04EF  
                u2401 0715                  u2410 0746                  u2330 05BE                  u2315 0460  
                u2411 0745                  u2331 05BD                  u2420 077A                  u2340 05EE  
                u2421 0779                  u2341 05ED                  u2430 07A0                  u2350 061E  
                u2431 079F                  u2351 061D                  u2440 07D0                  u2360 0652  
                u2441 07CF                  u2361 0651                  u2450 07FD                  u2370 0682  
                u2451 07FC                  u2371 0681                  u2380 06B2                  u2460 0551  
                u2381 06B1                  u2461 0550                  u2390 06E6                  u2470 055B  
                u2455 07F9                  u2391 06E5                  u2471 055A                  u2465 054D  
                u2475 0557                  _main 04F1                  btemp 007E                  start 0000  
               ?_main 0076                 _PORTB 0006                 _PORTC 0007                 _PORTD 0008  
               _TRISB 0086                 _TRISC 0087                 _TRISD 0088                 _delay 0453  
               pclath 000A                 status 0003                 wtemp0 007E          __end_of_main 05B4  
              ??_main 007C        lcd_command@com 0078                ?_delay 0076      __end_of_lcd_data 048F  
    __end_of_lcd_init 04A8  __size_of_lcd_command 0015  __size_of_lcd_display 0027                delay@x 0076  
    __end_of_password 0800        __pcstackCOMMON 0076          __pidataBANK0 044F         __end_of_delay 0465  
             ??_delay 0078            __pmaintext 04F1             ?_lcd_data 0076             ?_lcd_init 0076  
           ?_password 0076            ??_lcd_data 0078            ??_lcd_init 0079  end_of_initialization 04C6  
          ??_password 0079         ??_lcd_command 0078         ??_lcd_display 0079   start_initialization 04A8  
 __end_of_lcd_command 047A   __end_of_lcd_display 04F1           __pdataBANK0 0020           __pbssCOMMON 0070  
   __size_of_lcd_data 0015     __size_of_lcd_init 0019     __size_of_password 024C             __ptext170 04CA  
           __ptext171 048F             __ptext172 047A             __ptext173 0465             __ptext174 0453  
           __ptext175 0000             __ptext169 05B4             __pstrings 0003        __size_of_delay 0012  
         _lcd_command 0465           _lcd_display 04CA           __stringbase 0008              _lcd_data 047A  
            _lcd_init 048F         __size_of_main 00C3              _password 05B4             stringcode 0003  
            stringdir 0003              stringtab 0003          ?_lcd_command 0076          ?_lcd_display 0076  
