opt subtitle "HI-TECH Software Omniscient Code Generator (Lite mode) build 6446"

opt pagewidth 120

	opt lm

	processor	16F877A
clrc	macro
	bcf	3,0
	endm
clrz	macro
	bcf	3,2
	endm
setc	macro
	bsf	3,0
	endm
setz	macro
	bsf	3,2
	endm
skipc	macro
	btfss	3,0
	endm
skipz	macro
	btfss	3,2
	endm
skipnc	macro
	btfsc	3,0
	endm
skipnz	macro
	btfsc	3,2
	endm
indf	equ	0
indf0	equ	0
pc	equ	2
pcl	equ	2
status	equ	3
fsr	equ	4
fsr0	equ	4
c	equ	1
z	equ	0
pclath	equ	10
	FNCALL	_main,_lcd_init
	FNCALL	_main,_delay
	FNCALL	_main,_lcd_command
	FNCALL	_main,_lcd_display
	FNCALL	_main,_password
	FNCALL	_password,_lcd_data
	FNCALL	_password,_delay
	FNCALL	_lcd_display,_lcd_data
	FNCALL	_lcd_init,_lcd_command
	FNCALL	_lcd_data,_delay
	FNCALL	_lcd_command,_delay
	FNROOT	_main
	global	_b
psect	idataBANK0,class=CODE,space=0,delta=2
global __pidataBANK0
__pidataBANK0:
	file	"D:\Madhu\madhu pic folder\pic task\keypad\keypad task\password\password matchinng.c"
	line	17

;initializer for _b
	retlw	01h
	retlw	0

	retlw	02h
	retlw	0

	global	_a
	global	_i
	global	_PORTB
_PORTB	set	6
	global	_PORTC
_PORTC	set	7
	global	_PORTD
_PORTD	set	8
	global	_RB0
_RB0	set	48
	global	_RB1
_RB1	set	49
	global	_RB2
_RB2	set	50
	global	_RB3
_RB3	set	51
	global	_RB4
_RB4	set	52
	global	_RB5
_RB5	set	53
	global	_RB6
_RB6	set	54
	global	_RC0
_RC0	set	56
	global	_RC1
_RC1	set	57
	global	_RC2
_RC2	set	58
	global	_TRISB
_TRISB	set	134
	global	_TRISC
_TRISC	set	135
	global	_TRISD
_TRISD	set	136
psect	strings,class=STRING,delta=2
global __pstrings
__pstrings:
;	global	stringdir,stringtab,__stringbase
stringtab:
;	String table - string pointers are 1 byte each
stringcode:stringdir:
movlw high(stringdir)
movwf pclath
movf fsr,w
incf fsr
	addwf pc
__stringbase:
	retlw	0
psect	strings
	
STR_1:	
	retlw	69	;'E'
	retlw	110	;'n'
	retlw	116	;'t'
	retlw	101	;'e'
	retlw	114	;'r'
	retlw	32	;' '
	retlw	116	;'t'
	retlw	104	;'h'
	retlw	101	;'e'
	retlw	32	;' '
	retlw	112	;'p'
	retlw	97	;'a'
	retlw	115	;'s'
	retlw	115	;'s'
	retlw	119	;'w'
	retlw	111	;'o'
	retlw	114	;'r'
	retlw	100	;'d'
	retlw	0
psect	strings
	
STR_3:	
	retlw	73	;'I'
	retlw	110	;'n'
	retlw	99	;'c'
	retlw	111	;'o'
	retlw	114	;'r'
	retlw	114	;'r'
	retlw	101	;'e'
	retlw	99	;'c'
	retlw	116	;'t'
	retlw	32	;' '
	retlw	112	;'p'
	retlw	97	;'a'
	retlw	115	;'s'
	retlw	115	;'s'
	retlw	119	;'w'
	retlw	111	;'o'
	retlw	114	;'r'
	retlw	100	;'d'
	retlw	0
psect	strings
	
STR_2:	
	retlw	80	;'P'
	retlw	97	;'a'
	retlw	115	;'s'
	retlw	115	;'s'
	retlw	119	;'w'
	retlw	111	;'o'
	retlw	114	;'r'
	retlw	100	;'d'
	retlw	32	;' '
	retlw	99	;'c'
	retlw	111	;'o'
	retlw	114	;'r'
	retlw	114	;'r'
	retlw	101	;'e'
	retlw	99	;'c'
	retlw	116	;'t'
	retlw	0
psect	strings
	file	"password matchinng.as"
	line	#
psect cinit,class=CODE,delta=2
global start_initialization
start_initialization:

psect	bssCOMMON,class=COMMON,space=1
global __pbssCOMMON
__pbssCOMMON:
_a:
       ds      4

_i:
       ds      2

psect	dataBANK0,class=BANK0,space=1
global __pdataBANK0
__pdataBANK0:
	file	"D:\Madhu\madhu pic folder\pic task\keypad\keypad task\password\password matchinng.c"
_b:
       ds      4

; Clear objects allocated to COMMON
psect cinit,class=CODE,delta=2
	clrf	((__pbssCOMMON)+0)&07Fh
	clrf	((__pbssCOMMON)+1)&07Fh
	clrf	((__pbssCOMMON)+2)&07Fh
	clrf	((__pbssCOMMON)+3)&07Fh
	clrf	((__pbssCOMMON)+4)&07Fh
	clrf	((__pbssCOMMON)+5)&07Fh
; Initialize objects allocated to BANK0
	global __pidataBANK0
psect cinit,class=CODE,delta=2
	fcall	__pidataBANK0+0		;fetch initializer
	movwf	__pdataBANK0+0&07fh		
	fcall	__pidataBANK0+1		;fetch initializer
	movwf	__pdataBANK0+1&07fh		
	fcall	__pidataBANK0+2		;fetch initializer
	movwf	__pdataBANK0+2&07fh		
	fcall	__pidataBANK0+3		;fetch initializer
	movwf	__pdataBANK0+3&07fh		
psect cinit,class=CODE,delta=2
global end_of_initialization

;End of C runtime variable initialization code

end_of_initialization:
clrf status
ljmp _main	;jump to C main() function
psect	cstackCOMMON,class=COMMON,space=1
global __pcstackCOMMON
__pcstackCOMMON:
	global	?_delay
?_delay:	; 0 bytes @ 0x0
	global	?_lcd_command
?_lcd_command:	; 0 bytes @ 0x0
	global	?_lcd_data
?_lcd_data:	; 0 bytes @ 0x0
	global	?_lcd_init
?_lcd_init:	; 0 bytes @ 0x0
	global	?_lcd_display
?_lcd_display:	; 0 bytes @ 0x0
	global	?_password
?_password:	; 0 bytes @ 0x0
	global	?_main
?_main:	; 0 bytes @ 0x0
	global	delay@x
delay@x:	; 2 bytes @ 0x0
	ds	2
	global	??_delay
??_delay:	; 0 bytes @ 0x2
	global	??_lcd_command
??_lcd_command:	; 0 bytes @ 0x2
	global	??_lcd_data
??_lcd_data:	; 0 bytes @ 0x2
	global	lcd_command@com
lcd_command@com:	; 1 bytes @ 0x2
	global	lcd_data@data
lcd_data@data:	; 1 bytes @ 0x2
	ds	1
	global	??_lcd_init
??_lcd_init:	; 0 bytes @ 0x3
	global	??_lcd_display
??_lcd_display:	; 0 bytes @ 0x3
	global	??_password
??_password:	; 0 bytes @ 0x3
	global	lcd_display@m
lcd_display@m:	; 1 bytes @ 0x3
	ds	1
	global	lcd_display@j
lcd_display@j:	; 2 bytes @ 0x4
	ds	2
	global	??_main
??_main:	; 0 bytes @ 0x6
;;Data sizes: Strings 55, constant 0, data 4, bss 6, persistent 0 stack 0
;;Auto spaces:   Size  Autos    Used
;; COMMON          14      6      12
;; BANK0           80      0       4
;; BANK1           80      0       0
;; BANK3           96      0       0
;; BANK2           96      0       0

;;
;; Pointer list with targets:

;; lcd_display@m	PTR unsigned char  size(1) Largest target is 19
;;		 -> STR_3(CODE[19]), STR_2(CODE[17]), STR_1(CODE[19]), 
;;


;;
;; Critical Paths under _main in COMMON
;;
;;   _main->_lcd_display
;;   _password->_lcd_data
;;   _lcd_display->_lcd_data
;;   _lcd_init->_lcd_command
;;   _lcd_data->_delay
;;   _lcd_command->_delay
;;
;; Critical Paths under _main in BANK0
;;
;;   None.
;;
;; Critical Paths under _main in BANK1
;;
;;   None.
;;
;; Critical Paths under _main in BANK3
;;
;;   None.
;;
;; Critical Paths under _main in BANK2
;;
;;   None.

;;
;;Main: autosize = 0, tempsize = 0, incstack = 0, save=0
;;

;;
;;Call Graph Tables:
;;
;; ---------------------------------------------------------------------------------
;; (Depth) Function   	        Calls       Base Space   Used Autos Params    Refs
;; ---------------------------------------------------------------------------------
;; (0) _main                                                 0     0      0     310
;;                           _lcd_init
;;                              _delay
;;                        _lcd_command
;;                        _lcd_display
;;                           _password
;; ---------------------------------------------------------------------------------
;; (1) _password                                             1     1      0      66
;;                                              3 COMMON     1     1      0
;;                           _lcd_data
;;                              _delay
;; ---------------------------------------------------------------------------------
;; (1) _lcd_display                                          3     3      0     134
;;                                              3 COMMON     3     3      0
;;                           _lcd_data
;; ---------------------------------------------------------------------------------
;; (1) _lcd_init                                             0     0      0      44
;;                        _lcd_command
;; ---------------------------------------------------------------------------------
;; (2) _lcd_data                                             1     1      0      44
;;                                              2 COMMON     1     1      0
;;                              _delay
;; ---------------------------------------------------------------------------------
;; (1) _lcd_command                                          1     1      0      44
;;                                              2 COMMON     1     1      0
;;                              _delay
;; ---------------------------------------------------------------------------------
;; (2) _delay                                                2     0      2      22
;;                                              0 COMMON     2     0      2
;; ---------------------------------------------------------------------------------
;; Estimated maximum stack depth 2
;; ---------------------------------------------------------------------------------

;; Call Graph Graphs:

;; _main (ROOT)
;;   _lcd_init
;;     _lcd_command
;;       _delay
;;   _delay
;;   _lcd_command
;;     _delay
;;   _lcd_display
;;     _lcd_data
;;       _delay
;;   _password
;;     _lcd_data
;;       _delay
;;     _delay
;;

;; Address spaces:

;;Name               Size   Autos  Total    Cost      Usage
;;BANK3               60      0       0       9        0.0%
;;BITBANK3            60      0       0       8        0.0%
;;SFR3                 0      0       0       4        0.0%
;;BITSFR3              0      0       0       4        0.0%
;;BANK2               60      0       0      11        0.0%
;;BITBANK2            60      0       0      10        0.0%
;;SFR2                 0      0       0       5        0.0%
;;BITSFR2              0      0       0       5        0.0%
;;SFR1                 0      0       0       2        0.0%
;;BITSFR1              0      0       0       2        0.0%
;;BANK1               50      0       0       7        0.0%
;;BITBANK1            50      0       0       6        0.0%
;;CODE                 0      0       0       0        0.0%
;;DATA                 0      0      13      12        0.0%
;;ABS                  0      0      10       3        0.0%
;;NULL                 0      0       0       0        0.0%
;;STACK                0      0       3       2        0.0%
;;BANK0               50      0       4       5        5.0%
;;BITBANK0            50      0       0       4        0.0%
;;SFR0                 0      0       0       1        0.0%
;;BITSFR0              0      0       0       1        0.0%
;;COMMON               E      6       C       1       85.7%
;;BITCOMMON            E      0       0       0        0.0%
;;EEDATA             100      0       0       0        0.0%

	global	_main
psect	maintext,global,class=CODE,delta=2
global __pmaintext
__pmaintext:

;; *************** function _main *****************
;; Defined at:
;;		line 170 in file "D:\Madhu\madhu pic folder\pic task\keypad\keypad task\password\password matchinng.c"
;; Parameters:    Size  Location     Type
;;		None
;; Auto vars:     Size  Location     Type
;;		None
;; Return value:  Size  Location     Type
;;		None               void
;; Registers used:
;;		wreg, fsr0l, fsr0h, status,2, status,0, btemp+0, pclath, cstack
;; Tracked objects:
;;		On entry : 17F/0
;;		On exit  : 0/0
;;		Unchanged: 0/0
;; Data sizes:     COMMON   BANK0   BANK1   BANK3   BANK2
;;      Params:         0       0       0       0       0
;;      Locals:         0       0       0       0       0
;;      Temps:          0       0       0       0       0
;;      Totals:         0       0       0       0       0
;;Total ram usage:        0 bytes
;; Hardware stack levels required when called:    3
;; This function calls:
;;		_lcd_init
;;		_delay
;;		_lcd_command
;;		_lcd_display
;;		_password
;; This function is called by:
;;		Startup code after reset
;; This function uses a non-reentrant model
;;
psect	maintext
	file	"D:\Madhu\madhu pic folder\pic task\keypad\keypad task\password\password matchinng.c"
	line	170
	global	__size_of_main
	__size_of_main	equ	__end_of_main-_main
	
_main:	
	opt	stack 8
; Regs used in _main: [wreg-fsr0h+status,2-btemp+0+pclath+cstack]
	line	171
	
l2225:	
;password matchinng.c: 171: TRISD=0x00;
	bsf	status, 5	;RP0=1, select bank1
	bcf	status, 6	;RP1=0, select bank1
	clrf	(136)^080h	;volatile
	line	172
;password matchinng.c: 172: PORTD=0x00;
	bcf	status, 5	;RP0=0, select bank0
	bcf	status, 6	;RP1=0, select bank0
	clrf	(8)	;volatile
	line	174
;password matchinng.c: 174: TRISC=0x00;
	bsf	status, 5	;RP0=1, select bank1
	bcf	status, 6	;RP1=0, select bank1
	clrf	(135)^080h	;volatile
	line	175
;password matchinng.c: 175: PORTC=0x00;
	bcf	status, 5	;RP0=0, select bank0
	bcf	status, 6	;RP1=0, select bank0
	clrf	(7)	;volatile
	line	177
	
l2227:	
;password matchinng.c: 177: TRISB=0X07;
	movlw	(07h)
	bsf	status, 5	;RP0=1, select bank1
	bcf	status, 6	;RP1=0, select bank1
	movwf	(134)^080h	;volatile
	line	179
	
l2229:	
;password matchinng.c: 179: PORTB=0X00;
	bcf	status, 5	;RP0=0, select bank0
	bcf	status, 6	;RP1=0, select bank0
	clrf	(6)	;volatile
	line	181
	
l2231:	
;password matchinng.c: 181: lcd_init();
	fcall	_lcd_init
	line	182
	
l2233:	
;password matchinng.c: 182: delay(100);
	movlw	low(064h)
	movwf	(?_delay)
	movlw	high(064h)
	movwf	((?_delay))+1
	fcall	_delay
	line	184
;password matchinng.c: 184: while(1)
	
l605:	
	line	186
;password matchinng.c: 185: {
;password matchinng.c: 186: i=0;
	movlw	low(0)
	movwf	(_i)
	movlw	high(0)
	movwf	((_i))+1
	line	187
	
l2235:	
;password matchinng.c: 187: lcd_command(0x80);
	movlw	(080h)
	fcall	_lcd_command
	line	188
	
l2237:	
;password matchinng.c: 188: lcd_display("Enter the password");
	movlw	((STR_1-__stringbase))&0ffh
	fcall	_lcd_display
	line	189
	
l2239:	
;password matchinng.c: 189: delay(10000);delay(10000);
	movlw	low(02710h)
	movwf	(?_delay)
	movlw	high(02710h)
	movwf	((?_delay))+1
	fcall	_delay
	
l2241:	
	movlw	low(02710h)
	movwf	(?_delay)
	movlw	high(02710h)
	movwf	((?_delay))+1
	fcall	_delay
	line	190
	
l2243:	
;password matchinng.c: 190: lcd_command(0x01);lcd_command(0x80);
	movlw	(01h)
	fcall	_lcd_command
	
l2245:	
	movlw	(080h)
	fcall	_lcd_command
	line	191
	
l2247:	
;password matchinng.c: 191: password();
	fcall	_password
	line	194
	
l2249:	
;password matchinng.c: 194: if((b[0]==a[0])&&(b[1]==a[1]))
	movf	(_a+1),w
	bcf	status, 5	;RP0=0, select bank0
	bcf	status, 6	;RP1=0, select bank0
	xorwf	(_b+1),w
	skipz
	goto	u2465
	movf	(_a),w
	xorwf	(_b),w
u2465:

	skipz
	goto	u2461
	goto	u2460
u2461:
	goto	l606
u2460:
	
l2251:	
	movf	1+(_a)+02h,w
	xorwf	1+(_b)+02h,w
	skipz
	goto	u2475
	movf	0+(_a)+02h,w
	xorwf	0+(_b)+02h,w
u2475:

	skipz
	goto	u2471
	goto	u2470
u2471:
	goto	l606
u2470:
	line	196
	
l2253:	
;password matchinng.c: 195: {
;password matchinng.c: 196: lcd_display("Password correct");
	movlw	((STR_2-__stringbase))&0ffh
	fcall	_lcd_display
	line	197
;password matchinng.c: 197: }
	goto	l607
	line	198
	
l606:	
	line	200
	
l2255:	
;password matchinng.c: 198: else
;password matchinng.c: 199: {
;password matchinng.c: 200: lcd_display("Incorrect password");
	movlw	((STR_3-__stringbase))&0ffh
	fcall	_lcd_display
	line	201
	
l607:	
	line	202
	
l2257:	
;password matchinng.c: 201: }
;password matchinng.c: 202: delay(10000);delay(10000);delay(10000);delay(10000);
	movlw	low(02710h)
	movwf	(?_delay)
	movlw	high(02710h)
	movwf	((?_delay))+1
	fcall	_delay
	
l2259:	
	movlw	low(02710h)
	movwf	(?_delay)
	movlw	high(02710h)
	movwf	((?_delay))+1
	fcall	_delay
	
l2261:	
	movlw	low(02710h)
	movwf	(?_delay)
	movlw	high(02710h)
	movwf	((?_delay))+1
	fcall	_delay
	
l2263:	
	movlw	low(02710h)
	movwf	(?_delay)
	movlw	high(02710h)
	movwf	((?_delay))+1
	fcall	_delay
	line	203
	
l2265:	
;password matchinng.c: 203: delay(10000);delay(10000);delay(10000);delay(10000);
	movlw	low(02710h)
	movwf	(?_delay)
	movlw	high(02710h)
	movwf	((?_delay))+1
	fcall	_delay
	
l2267:	
	movlw	low(02710h)
	movwf	(?_delay)
	movlw	high(02710h)
	movwf	((?_delay))+1
	fcall	_delay
	
l2269:	
	movlw	low(02710h)
	movwf	(?_delay)
	movlw	high(02710h)
	movwf	((?_delay))+1
	fcall	_delay
	
l2271:	
	movlw	low(02710h)
	movwf	(?_delay)
	movlw	high(02710h)
	movwf	((?_delay))+1
	fcall	_delay
	line	204
	
l608:	
	line	184
	goto	l605
	
l609:	
	line	205
	
l610:	
	global	start
	ljmp	start
	opt stack 0
GLOBAL	__end_of_main
	__end_of_main:
;; =============== function _main ends ============

	signat	_main,88
	global	_password
psect	text169,local,class=CODE,delta=2
global __ptext169
__ptext169:

;; *************** function _password *****************
;; Defined at:
;;		line 55 in file "D:\Madhu\madhu pic folder\pic task\keypad\keypad task\password\password matchinng.c"
;; Parameters:    Size  Location     Type
;;		None
;; Auto vars:     Size  Location     Type
;;		None
;; Return value:  Size  Location     Type
;;		None               void
;; Registers used:
;;		wreg, fsr0l, fsr0h, status,2, status,0, btemp+0, pclath, cstack
;; Tracked objects:
;;		On entry : 0/0
;;		On exit  : 0/0
;;		Unchanged: 0/0
;; Data sizes:     COMMON   BANK0   BANK1   BANK3   BANK2
;;      Params:         0       0       0       0       0
;;      Locals:         0       0       0       0       0
;;      Temps:          1       0       0       0       0
;;      Totals:         1       0       0       0       0
;;Total ram usage:        1 bytes
;; Hardware stack levels used:    1
;; Hardware stack levels required when called:    2
;; This function calls:
;;		_lcd_data
;;		_delay
;; This function is called by:
;;		_main
;; This function uses a non-reentrant model
;;
psect	text169
	file	"D:\Madhu\madhu pic folder\pic task\keypad\keypad task\password\password matchinng.c"
	line	55
	global	__size_of_password
	__size_of_password	equ	__end_of_password-_password
	
_password:	
	opt	stack 7
; Regs used in _password: [wreg-fsr0h+status,2-btemp+0+pclath+cstack]
	line	57
;password matchinng.c: 57: while(1)
	
l586:	
	line	60
;password matchinng.c: 58: {
;password matchinng.c: 60: RB3=1;
	bcf	status, 5	;RP0=0, select bank0
	bcf	status, 6	;RP1=0, select bank0
	bsf	(51/8),(51)&7
	line	61
;password matchinng.c: 61: RB4=0;
	bcf	(52/8),(52)&7
	line	62
;password matchinng.c: 62: RB5=0;
	bcf	(53/8),(53)&7
	line	63
;password matchinng.c: 63: RB6=0;
	bcf	(54/8),(54)&7
	line	64
;password matchinng.c: 64: if(RB0==1)
	btfss	(48/8),(48)&7
	goto	u2331
	goto	u2330
u2331:
	goto	l587
u2330:
	line	67
	
l2059:	
;password matchinng.c: 65: {
;password matchinng.c: 67: lcd_data('1');
	movlw	(031h)
	fcall	_lcd_data
	line	68
	
l2061:	
;password matchinng.c: 68: a[i]=1;
	movf	(_i),w
	movwf	(??_password+0)+0
	addwf	(??_password+0)+0,w
	addlw	_a&0ffh
	movwf	fsr0
	movlw	low(01h)
	movwf	indf
	incf	fsr0,f
	movlw	high(01h)
	movwf	indf
	line	69
	
l2063:	
;password matchinng.c: 69: i=i+1;delay(50000);delay(50000);
	movf	(_i),w
	addlw	low(01h)
	movwf	(_i)
	movf	(_i+1),w
	skipnc
	addlw	1
	addlw	high(01h)
	movwf	1+(_i)
	
l2065:	
	movlw	low(0C350h)
	movwf	(?_delay)
	movlw	high(0C350h)
	movwf	((?_delay))+1
	fcall	_delay
	
l2067:	
	movlw	low(0C350h)
	movwf	(?_delay)
	movlw	high(0C350h)
	movwf	((?_delay))+1
	fcall	_delay
	line	70
	
l587:	
	line	71
	
l2069:	
;password matchinng.c: 70: }
;password matchinng.c: 71: if(RB1==1)
	bcf	status, 5	;RP0=0, select bank0
	bcf	status, 6	;RP1=0, select bank0
	btfss	(49/8),(49)&7
	goto	u2341
	goto	u2340
u2341:
	goto	l588
u2340:
	line	73
	
l2071:	
;password matchinng.c: 72: {
;password matchinng.c: 73: lcd_data('2');
	movlw	(032h)
	fcall	_lcd_data
	line	74
	
l2073:	
;password matchinng.c: 74: a[i]=2;
	movf	(_i),w
	movwf	(??_password+0)+0
	addwf	(??_password+0)+0,w
	addlw	_a&0ffh
	movwf	fsr0
	movlw	low(02h)
	movwf	indf
	incf	fsr0,f
	movlw	high(02h)
	movwf	indf
	line	75
	
l2075:	
;password matchinng.c: 75: i=i+1;delay(50000);delay(50000);
	movf	(_i),w
	addlw	low(01h)
	movwf	(_i)
	movf	(_i+1),w
	skipnc
	addlw	1
	addlw	high(01h)
	movwf	1+(_i)
	
l2077:	
	movlw	low(0C350h)
	movwf	(?_delay)
	movlw	high(0C350h)
	movwf	((?_delay))+1
	fcall	_delay
	
l2079:	
	movlw	low(0C350h)
	movwf	(?_delay)
	movlw	high(0C350h)
	movwf	((?_delay))+1
	fcall	_delay
	line	76
	
l588:	
	line	77
	
l2081:	
;password matchinng.c: 76: }
;password matchinng.c: 77: if(RB2==1)
	bcf	status, 5	;RP0=0, select bank0
	bcf	status, 6	;RP1=0, select bank0
	btfss	(50/8),(50)&7
	goto	u2351
	goto	u2350
u2351:
	goto	l589
u2350:
	line	79
	
l2083:	
;password matchinng.c: 78: {
;password matchinng.c: 79: lcd_data('3');
	movlw	(033h)
	fcall	_lcd_data
	line	80
	
l2085:	
;password matchinng.c: 80: a[i]=3;
	movf	(_i),w
	movwf	(??_password+0)+0
	addwf	(??_password+0)+0,w
	addlw	_a&0ffh
	movwf	fsr0
	movlw	low(03h)
	movwf	indf
	incf	fsr0,f
	movlw	high(03h)
	movwf	indf
	line	81
	
l2087:	
;password matchinng.c: 81: i=i+1;delay(50000);delay(50000);
	movf	(_i),w
	addlw	low(01h)
	movwf	(_i)
	movf	(_i+1),w
	skipnc
	addlw	1
	addlw	high(01h)
	movwf	1+(_i)
	
l2089:	
	movlw	low(0C350h)
	movwf	(?_delay)
	movlw	high(0C350h)
	movwf	((?_delay))+1
	fcall	_delay
	
l2091:	
	movlw	low(0C350h)
	movwf	(?_delay)
	movlw	high(0C350h)
	movwf	((?_delay))+1
	fcall	_delay
	line	82
	
l589:	
	line	84
	
l2093:	
;password matchinng.c: 82: }
;password matchinng.c: 84: RB3=0;
	bcf	status, 5	;RP0=0, select bank0
	bcf	status, 6	;RP1=0, select bank0
	bcf	(51/8),(51)&7
	line	85
	
l2095:	
;password matchinng.c: 85: RB4=1;
	bsf	(52/8),(52)&7
	line	86
	
l2097:	
;password matchinng.c: 86: RB5=0;
	bcf	(53/8),(53)&7
	line	87
	
l2099:	
;password matchinng.c: 87: RB6=0;
	bcf	(54/8),(54)&7
	line	88
	
l2101:	
;password matchinng.c: 88: if(RB0==1)
	btfss	(48/8),(48)&7
	goto	u2361
	goto	u2360
u2361:
	goto	l590
u2360:
	line	90
	
l2103:	
;password matchinng.c: 89: {
;password matchinng.c: 90: lcd_data('4');a[i]=4;
	movlw	(034h)
	fcall	_lcd_data
	
l2105:	
	movf	(_i),w
	movwf	(??_password+0)+0
	addwf	(??_password+0)+0,w
	addlw	_a&0ffh
	movwf	fsr0
	movlw	low(04h)
	movwf	indf
	incf	fsr0,f
	movlw	high(04h)
	movwf	indf
	line	91
	
l2107:	
;password matchinng.c: 91: i=i+1;delay(50000);delay(50000);
	movf	(_i),w
	addlw	low(01h)
	movwf	(_i)
	movf	(_i+1),w
	skipnc
	addlw	1
	addlw	high(01h)
	movwf	1+(_i)
	
l2109:	
	movlw	low(0C350h)
	movwf	(?_delay)
	movlw	high(0C350h)
	movwf	((?_delay))+1
	fcall	_delay
	
l2111:	
	movlw	low(0C350h)
	movwf	(?_delay)
	movlw	high(0C350h)
	movwf	((?_delay))+1
	fcall	_delay
	line	92
	
l590:	
	line	93
	
l2113:	
;password matchinng.c: 92: }
;password matchinng.c: 93: if(RB1==1)
	bcf	status, 5	;RP0=0, select bank0
	bcf	status, 6	;RP1=0, select bank0
	btfss	(49/8),(49)&7
	goto	u2371
	goto	u2370
u2371:
	goto	l591
u2370:
	line	96
	
l2115:	
;password matchinng.c: 94: {
;password matchinng.c: 96: lcd_data('5');
	movlw	(035h)
	fcall	_lcd_data
	line	97
	
l2117:	
;password matchinng.c: 97: a[i]=5;
	movf	(_i),w
	movwf	(??_password+0)+0
	addwf	(??_password+0)+0,w
	addlw	_a&0ffh
	movwf	fsr0
	movlw	low(05h)
	movwf	indf
	incf	fsr0,f
	movlw	high(05h)
	movwf	indf
	line	98
	
l2119:	
;password matchinng.c: 98: i=i+1;delay(50000);delay(50000);
	movf	(_i),w
	addlw	low(01h)
	movwf	(_i)
	movf	(_i+1),w
	skipnc
	addlw	1
	addlw	high(01h)
	movwf	1+(_i)
	
l2121:	
	movlw	low(0C350h)
	movwf	(?_delay)
	movlw	high(0C350h)
	movwf	((?_delay))+1
	fcall	_delay
	
l2123:	
	movlw	low(0C350h)
	movwf	(?_delay)
	movlw	high(0C350h)
	movwf	((?_delay))+1
	fcall	_delay
	line	99
	
l591:	
	line	100
	
l2125:	
;password matchinng.c: 99: }
;password matchinng.c: 100: if(RB2==1)
	bcf	status, 5	;RP0=0, select bank0
	bcf	status, 6	;RP1=0, select bank0
	btfss	(50/8),(50)&7
	goto	u2381
	goto	u2380
u2381:
	goto	l592
u2380:
	line	103
	
l2127:	
;password matchinng.c: 101: {
;password matchinng.c: 103: lcd_data('6');
	movlw	(036h)
	fcall	_lcd_data
	line	104
	
l2129:	
;password matchinng.c: 104: a[i]=6;
	movf	(_i),w
	movwf	(??_password+0)+0
	addwf	(??_password+0)+0,w
	addlw	_a&0ffh
	movwf	fsr0
	movlw	low(06h)
	movwf	indf
	incf	fsr0,f
	movlw	high(06h)
	movwf	indf
	line	105
	
l2131:	
;password matchinng.c: 105: i=i+1;delay(50000);delay(50000);
	movf	(_i),w
	addlw	low(01h)
	movwf	(_i)
	movf	(_i+1),w
	skipnc
	addlw	1
	addlw	high(01h)
	movwf	1+(_i)
	
l2133:	
	movlw	low(0C350h)
	movwf	(?_delay)
	movlw	high(0C350h)
	movwf	((?_delay))+1
	fcall	_delay
	
l2135:	
	movlw	low(0C350h)
	movwf	(?_delay)
	movlw	high(0C350h)
	movwf	((?_delay))+1
	fcall	_delay
	line	106
	
l592:	
	line	108
	
l2137:	
;password matchinng.c: 106: }
;password matchinng.c: 108: RB3=0;
	bcf	status, 5	;RP0=0, select bank0
	bcf	status, 6	;RP1=0, select bank0
	bcf	(51/8),(51)&7
	line	109
	
l2139:	
;password matchinng.c: 109: RB4=0;
	bcf	(52/8),(52)&7
	line	110
	
l2141:	
;password matchinng.c: 110: RB5=1;
	bsf	(53/8),(53)&7
	line	111
	
l2143:	
;password matchinng.c: 111: RB6=0;
	bcf	(54/8),(54)&7
	line	112
	
l2145:	
;password matchinng.c: 112: if(RB0==1)
	btfss	(48/8),(48)&7
	goto	u2391
	goto	u2390
u2391:
	goto	l593
u2390:
	line	115
	
l2147:	
;password matchinng.c: 113: {
;password matchinng.c: 115: lcd_data('7');
	movlw	(037h)
	fcall	_lcd_data
	line	116
	
l2149:	
;password matchinng.c: 116: a[i]=7;
	movf	(_i),w
	movwf	(??_password+0)+0
	addwf	(??_password+0)+0,w
	addlw	_a&0ffh
	movwf	fsr0
	movlw	low(07h)
	movwf	indf
	incf	fsr0,f
	movlw	high(07h)
	movwf	indf
	line	117
	
l2151:	
;password matchinng.c: 117: i=i+1;delay(50000);delay(50000);
	movf	(_i),w
	addlw	low(01h)
	movwf	(_i)
	movf	(_i+1),w
	skipnc
	addlw	1
	addlw	high(01h)
	movwf	1+(_i)
	
l2153:	
	movlw	low(0C350h)
	movwf	(?_delay)
	movlw	high(0C350h)
	movwf	((?_delay))+1
	fcall	_delay
	
l2155:	
	movlw	low(0C350h)
	movwf	(?_delay)
	movlw	high(0C350h)
	movwf	((?_delay))+1
	fcall	_delay
	line	118
	
l593:	
	line	119
	
l2157:	
;password matchinng.c: 118: }
;password matchinng.c: 119: if(RB1==1)
	bcf	status, 5	;RP0=0, select bank0
	bcf	status, 6	;RP1=0, select bank0
	btfss	(49/8),(49)&7
	goto	u2401
	goto	u2400
u2401:
	goto	l594
u2400:
	line	122
	
l2159:	
;password matchinng.c: 120: {
;password matchinng.c: 122: lcd_data('8');
	movlw	(038h)
	fcall	_lcd_data
	line	123
	
l2161:	
;password matchinng.c: 123: a[i]=8;
	movf	(_i),w
	movwf	(??_password+0)+0
	addwf	(??_password+0)+0,w
	addlw	_a&0ffh
	movwf	fsr0
	movlw	low(08h)
	movwf	indf
	incf	fsr0,f
	movlw	high(08h)
	movwf	indf
	line	124
	
l2163:	
;password matchinng.c: 124: i=i+1;delay(50000);delay(50000);
	movf	(_i),w
	addlw	low(01h)
	movwf	(_i)
	movf	(_i+1),w
	skipnc
	addlw	1
	addlw	high(01h)
	movwf	1+(_i)
	
l2165:	
	movlw	low(0C350h)
	movwf	(?_delay)
	movlw	high(0C350h)
	movwf	((?_delay))+1
	fcall	_delay
	
l2167:	
	movlw	low(0C350h)
	movwf	(?_delay)
	movlw	high(0C350h)
	movwf	((?_delay))+1
	fcall	_delay
	line	125
	
l594:	
	line	126
	
l2169:	
;password matchinng.c: 125: }
;password matchinng.c: 126: if(RB2==1)
	bcf	status, 5	;RP0=0, select bank0
	bcf	status, 6	;RP1=0, select bank0
	btfss	(50/8),(50)&7
	goto	u2411
	goto	u2410
u2411:
	goto	l595
u2410:
	line	129
	
l2171:	
;password matchinng.c: 127: {
;password matchinng.c: 129: lcd_data('9');
	movlw	(039h)
	fcall	_lcd_data
	line	130
	
l2173:	
;password matchinng.c: 130: a[i]=9;
	movf	(_i),w
	movwf	(??_password+0)+0
	addwf	(??_password+0)+0,w
	addlw	_a&0ffh
	movwf	fsr0
	movlw	low(09h)
	movwf	indf
	incf	fsr0,f
	movlw	high(09h)
	movwf	indf
	line	131
	
l2175:	
;password matchinng.c: 131: i=i+1;delay(50000);delay(50000);
	movf	(_i),w
	addlw	low(01h)
	movwf	(_i)
	movf	(_i+1),w
	skipnc
	addlw	1
	addlw	high(01h)
	movwf	1+(_i)
	
l2177:	
	movlw	low(0C350h)
	movwf	(?_delay)
	movlw	high(0C350h)
	movwf	((?_delay))+1
	fcall	_delay
	
l2179:	
	movlw	low(0C350h)
	movwf	(?_delay)
	movlw	high(0C350h)
	movwf	((?_delay))+1
	fcall	_delay
	line	132
	
l595:	
	line	135
	
l2181:	
;password matchinng.c: 132: }
;password matchinng.c: 135: RB3=0;
	bcf	status, 5	;RP0=0, select bank0
	bcf	status, 6	;RP1=0, select bank0
	bcf	(51/8),(51)&7
	line	136
	
l2183:	
;password matchinng.c: 136: RB4=0;
	bcf	(52/8),(52)&7
	line	137
	
l2185:	
;password matchinng.c: 137: RB5=0;
	bcf	(53/8),(53)&7
	line	138
	
l2187:	
;password matchinng.c: 138: RB6=1;
	bsf	(54/8),(54)&7
	line	139
	
l2189:	
;password matchinng.c: 139: if(RB0==1)
	btfss	(48/8),(48)&7
	goto	u2421
	goto	u2420
u2421:
	goto	l596
u2420:
	line	142
	
l2191:	
;password matchinng.c: 140: {
;password matchinng.c: 142: lcd_data('*');
	movlw	(02Ah)
	fcall	_lcd_data
	line	144
	
l2193:	
;password matchinng.c: 144: i=i+1;delay(50000);delay(50000);
	movf	(_i),w
	addlw	low(01h)
	movwf	(_i)
	movf	(_i+1),w
	skipnc
	addlw	1
	addlw	high(01h)
	movwf	1+(_i)
	
l2195:	
	movlw	low(0C350h)
	movwf	(?_delay)
	movlw	high(0C350h)
	movwf	((?_delay))+1
	fcall	_delay
	
l2197:	
	movlw	low(0C350h)
	movwf	(?_delay)
	movlw	high(0C350h)
	movwf	((?_delay))+1
	fcall	_delay
	line	145
	
l596:	
	line	146
	
l2199:	
;password matchinng.c: 145: }
;password matchinng.c: 146: if(RB1==1)
	bcf	status, 5	;RP0=0, select bank0
	bcf	status, 6	;RP1=0, select bank0
	btfss	(49/8),(49)&7
	goto	u2431
	goto	u2430
u2431:
	goto	l597
u2430:
	line	149
	
l2201:	
;password matchinng.c: 147: {
;password matchinng.c: 149: lcd_data('0');
	movlw	(030h)
	fcall	_lcd_data
	line	150
	
l2203:	
;password matchinng.c: 150: a[i]=0;
	movf	(_i),w
	movwf	(??_password+0)+0
	addwf	(??_password+0)+0,w
	addlw	_a&0ffh
	movwf	fsr0
	movlw	low(0)
	movwf	indf
	incf	fsr0,f
	movlw	high(0)
	movwf	indf
	line	151
	
l2205:	
;password matchinng.c: 151: i=i+1;delay(50000);delay(50000);
	movf	(_i),w
	addlw	low(01h)
	movwf	(_i)
	movf	(_i+1),w
	skipnc
	addlw	1
	addlw	high(01h)
	movwf	1+(_i)
	
l2207:	
	movlw	low(0C350h)
	movwf	(?_delay)
	movlw	high(0C350h)
	movwf	((?_delay))+1
	fcall	_delay
	
l2209:	
	movlw	low(0C350h)
	movwf	(?_delay)
	movlw	high(0C350h)
	movwf	((?_delay))+1
	fcall	_delay
	line	152
	
l597:	
	line	153
	
l2211:	
;password matchinng.c: 152: }
;password matchinng.c: 153: if(RB2==1)
	bcf	status, 5	;RP0=0, select bank0
	bcf	status, 6	;RP1=0, select bank0
	btfss	(50/8),(50)&7
	goto	u2441
	goto	u2440
u2441:
	goto	l598
u2440:
	line	156
	
l2213:	
;password matchinng.c: 154: {
;password matchinng.c: 156: lcd_data('#');
	movlw	(023h)
	fcall	_lcd_data
	line	158
	
l2215:	
;password matchinng.c: 158: i=i+1;delay(50000);delay(50000);
	movf	(_i),w
	addlw	low(01h)
	movwf	(_i)
	movf	(_i+1),w
	skipnc
	addlw	1
	addlw	high(01h)
	movwf	1+(_i)
	
l2217:	
	movlw	low(0C350h)
	movwf	(?_delay)
	movlw	high(0C350h)
	movwf	((?_delay))+1
	fcall	_delay
	
l2219:	
	movlw	low(0C350h)
	movwf	(?_delay)
	movlw	high(0C350h)
	movwf	((?_delay))+1
	fcall	_delay
	line	159
	
l598:	
	line	162
	
l2221:	
;password matchinng.c: 159: }
;password matchinng.c: 162: if(i>1)
	movf	(_i+1),w
	xorlw	80h
	movwf	btemp+0
	movlw	(high(02h))^80h
	subwf	btemp+0,w
	skipz
	goto	u2455
	movlw	low(02h)
	subwf	(_i),w
u2455:

	skipc
	goto	u2451
	goto	u2450
u2451:
	goto	l599
u2450:
	line	164
	
l2223:	
;password matchinng.c: 163: {
;password matchinng.c: 164: break;
	goto	l600
	line	165
	
l599:	
	line	166
	
l601:	
	line	57
	goto	l586
	
l600:	
	line	168
	
l602:	
	return
	opt stack 0
GLOBAL	__end_of_password
	__end_of_password:
;; =============== function _password ends ============

	signat	_password,88
	global	_lcd_display
psect	text170,local,class=CODE,delta=2
global __ptext170
__ptext170:

;; *************** function _lcd_display *****************
;; Defined at:
;;		line 48 in file "D:\Madhu\madhu pic folder\pic task\keypad\keypad task\password\password matchinng.c"
;; Parameters:    Size  Location     Type
;;  m               1    wreg     PTR unsigned char 
;;		 -> STR_3(19), STR_2(17), STR_1(19), 
;; Auto vars:     Size  Location     Type
;;  m               1    3[COMMON] PTR unsigned char 
;;		 -> STR_3(19), STR_2(17), STR_1(19), 
;;  j               2    4[COMMON] int 
;; Return value:  Size  Location     Type
;;		None               void
;; Registers used:
;;		wreg, fsr0l, fsr0h, status,2, status,0, pclath, cstack
;; Tracked objects:
;;		On entry : 0/0
;;		On exit  : 0/0
;;		Unchanged: 0/0
;; Data sizes:     COMMON   BANK0   BANK1   BANK3   BANK2
;;      Params:         0       0       0       0       0
;;      Locals:         3       0       0       0       0
;;      Temps:          0       0       0       0       0
;;      Totals:         3       0       0       0       0
;;Total ram usage:        3 bytes
;; Hardware stack levels used:    1
;; Hardware stack levels required when called:    2
;; This function calls:
;;		_lcd_data
;; This function is called by:
;;		_main
;; This function uses a non-reentrant model
;;
psect	text170
	file	"D:\Madhu\madhu pic folder\pic task\keypad\keypad task\password\password matchinng.c"
	line	48
	global	__size_of_lcd_display
	__size_of_lcd_display	equ	__end_of_lcd_display-_lcd_display
	
_lcd_display:	
	opt	stack 7
; Regs used in _lcd_display: [wreg-fsr0h+status,2+status,0+pclath+cstack]
;lcd_display@m stored from wreg
	movwf	(lcd_display@m)
	line	49
	
l2051:	
;password matchinng.c: 49: for(int j=0;m[j]!=0;j++)
	movlw	low(0)
	movwf	(lcd_display@j)
	movlw	high(0)
	movwf	((lcd_display@j))+1
	goto	l580
	line	50
	
l581:	
	line	51
	
l2053:	
;password matchinng.c: 50: {
;password matchinng.c: 51: lcd_data(m[j]);
	movf	(lcd_display@j),w
	addwf	(lcd_display@m),w
	movwf	fsr0
	fcall	stringdir
	fcall	_lcd_data
	line	49
	
l2055:	
	movlw	low(01h)
	addwf	(lcd_display@j),f
	skipnc
	incf	(lcd_display@j+1),f
	movlw	high(01h)
	addwf	(lcd_display@j+1),f
	
l580:	
	
l2057:	
	movf	(lcd_display@j),w
	addwf	(lcd_display@m),w
	movwf	fsr0
	fcall	stringdir
	iorlw	0
	skipz
	goto	u2321
	goto	u2320
u2321:
	goto	l581
u2320:
	
l582:	
	line	53
	
l583:	
	return
	opt stack 0
GLOBAL	__end_of_lcd_display
	__end_of_lcd_display:
;; =============== function _lcd_display ends ============

	signat	_lcd_display,4216
	global	_lcd_init
psect	text171,local,class=CODE,delta=2
global __ptext171
__ptext171:

;; *************** function _lcd_init *****************
;; Defined at:
;;		line 41 in file "D:\Madhu\madhu pic folder\pic task\keypad\keypad task\password\password matchinng.c"
;; Parameters:    Size  Location     Type
;;		None
;; Auto vars:     Size  Location     Type
;;		None
;; Return value:  Size  Location     Type
;;		None               void
;; Registers used:
;;		wreg, status,2, status,0, pclath, cstack
;; Tracked objects:
;;		On entry : 0/0
;;		On exit  : 0/0
;;		Unchanged: 0/0
;; Data sizes:     COMMON   BANK0   BANK1   BANK3   BANK2
;;      Params:         0       0       0       0       0
;;      Locals:         0       0       0       0       0
;;      Temps:          0       0       0       0       0
;;      Totals:         0       0       0       0       0
;;Total ram usage:        0 bytes
;; Hardware stack levels used:    1
;; Hardware stack levels required when called:    2
;; This function calls:
;;		_lcd_command
;; This function is called by:
;;		_main
;; This function uses a non-reentrant model
;;
psect	text171
	file	"D:\Madhu\madhu pic folder\pic task\keypad\keypad task\password\password matchinng.c"
	line	41
	global	__size_of_lcd_init
	__size_of_lcd_init	equ	__end_of_lcd_init-_lcd_init
	
_lcd_init:	
	opt	stack 7
; Regs used in _lcd_init: [wreg+status,2+status,0+pclath+cstack]
	line	42
	
l2049:	
;password matchinng.c: 42: lcd_command(0x38);
	movlw	(038h)
	fcall	_lcd_command
	line	43
;password matchinng.c: 43: lcd_command(0x06);
	movlw	(06h)
	fcall	_lcd_command
	line	44
;password matchinng.c: 44: lcd_command(0x0C);
	movlw	(0Ch)
	fcall	_lcd_command
	line	45
;password matchinng.c: 45: lcd_command(0x01);
	movlw	(01h)
	fcall	_lcd_command
	line	46
	
l577:	
	return
	opt stack 0
GLOBAL	__end_of_lcd_init
	__end_of_lcd_init:
;; =============== function _lcd_init ends ============

	signat	_lcd_init,88
	global	_lcd_data
psect	text172,local,class=CODE,delta=2
global __ptext172
__ptext172:

;; *************** function _lcd_data *****************
;; Defined at:
;;		line 32 in file "D:\Madhu\madhu pic folder\pic task\keypad\keypad task\password\password matchinng.c"
;; Parameters:    Size  Location     Type
;;  data            1    wreg     unsigned char 
;; Auto vars:     Size  Location     Type
;;  data            1    2[COMMON] unsigned char 
;; Return value:  Size  Location     Type
;;		None               void
;; Registers used:
;;		wreg, status,2, status,0, pclath, cstack
;; Tracked objects:
;;		On entry : 0/0
;;		On exit  : 0/0
;;		Unchanged: 0/0
;; Data sizes:     COMMON   BANK0   BANK1   BANK3   BANK2
;;      Params:         0       0       0       0       0
;;      Locals:         1       0       0       0       0
;;      Temps:          0       0       0       0       0
;;      Totals:         1       0       0       0       0
;;Total ram usage:        1 bytes
;; Hardware stack levels used:    1
;; Hardware stack levels required when called:    1
;; This function calls:
;;		_delay
;; This function is called by:
;;		_lcd_display
;;		_password
;; This function uses a non-reentrant model
;;
psect	text172
	file	"D:\Madhu\madhu pic folder\pic task\keypad\keypad task\password\password matchinng.c"
	line	32
	global	__size_of_lcd_data
	__size_of_lcd_data	equ	__end_of_lcd_data-_lcd_data
	
_lcd_data:	
	opt	stack 6
; Regs used in _lcd_data: [wreg+status,2+status,0+pclath+cstack]
;lcd_data@data stored from wreg
	movwf	(lcd_data@data)
	line	33
	
l2037:	
;password matchinng.c: 33: PORTD=data;
	movf	(lcd_data@data),w
	bcf	status, 5	;RP0=0, select bank0
	bcf	status, 6	;RP1=0, select bank0
	movwf	(8)	;volatile
	line	34
	
l2039:	
;password matchinng.c: 34: RC0=1;
	bsf	(56/8),(56)&7
	line	35
	
l2041:	
;password matchinng.c: 35: RC1=0;
	bcf	(57/8),(57)&7
	line	36
	
l2043:	
;password matchinng.c: 36: RC2=1;
	bsf	(58/8),(58)&7
	line	37
	
l2045:	
;password matchinng.c: 37: delay(100);
	movlw	low(064h)
	movwf	(?_delay)
	movlw	high(064h)
	movwf	((?_delay))+1
	fcall	_delay
	line	38
	
l2047:	
;password matchinng.c: 38: RC2=0;
	bcf	status, 5	;RP0=0, select bank0
	bcf	status, 6	;RP1=0, select bank0
	bcf	(58/8),(58)&7
	line	39
	
l574:	
	return
	opt stack 0
GLOBAL	__end_of_lcd_data
	__end_of_lcd_data:
;; =============== function _lcd_data ends ============

	signat	_lcd_data,4216
	global	_lcd_command
psect	text173,local,class=CODE,delta=2
global __ptext173
__ptext173:

;; *************** function _lcd_command *****************
;; Defined at:
;;		line 23 in file "D:\Madhu\madhu pic folder\pic task\keypad\keypad task\password\password matchinng.c"
;; Parameters:    Size  Location     Type
;;  com             1    wreg     unsigned char 
;; Auto vars:     Size  Location     Type
;;  com             1    2[COMMON] unsigned char 
;; Return value:  Size  Location     Type
;;		None               void
;; Registers used:
;;		wreg, status,2, status,0, pclath, cstack
;; Tracked objects:
;;		On entry : 0/0
;;		On exit  : 0/0
;;		Unchanged: 0/0
;; Data sizes:     COMMON   BANK0   BANK1   BANK3   BANK2
;;      Params:         0       0       0       0       0
;;      Locals:         1       0       0       0       0
;;      Temps:          0       0       0       0       0
;;      Totals:         1       0       0       0       0
;;Total ram usage:        1 bytes
;; Hardware stack levels used:    1
;; Hardware stack levels required when called:    1
;; This function calls:
;;		_delay
;; This function is called by:
;;		_lcd_init
;;		_main
;; This function uses a non-reentrant model
;;
psect	text173
	file	"D:\Madhu\madhu pic folder\pic task\keypad\keypad task\password\password matchinng.c"
	line	23
	global	__size_of_lcd_command
	__size_of_lcd_command	equ	__end_of_lcd_command-_lcd_command
	
_lcd_command:	
	opt	stack 7
; Regs used in _lcd_command: [wreg+status,2+status,0+pclath+cstack]
;lcd_command@com stored from wreg
	movwf	(lcd_command@com)
	line	24
	
l2025:	
;password matchinng.c: 24: PORTD=com;
	movf	(lcd_command@com),w
	bcf	status, 5	;RP0=0, select bank0
	bcf	status, 6	;RP1=0, select bank0
	movwf	(8)	;volatile
	line	25
	
l2027:	
;password matchinng.c: 25: RC0=0;
	bcf	(56/8),(56)&7
	line	26
	
l2029:	
;password matchinng.c: 26: RC1=0;
	bcf	(57/8),(57)&7
	line	27
	
l2031:	
;password matchinng.c: 27: RC2=1;
	bsf	(58/8),(58)&7
	line	28
	
l2033:	
;password matchinng.c: 28: delay(100);
	movlw	low(064h)
	movwf	(?_delay)
	movlw	high(064h)
	movwf	((?_delay))+1
	fcall	_delay
	line	29
	
l2035:	
;password matchinng.c: 29: RC2=0;
	bcf	status, 5	;RP0=0, select bank0
	bcf	status, 6	;RP1=0, select bank0
	bcf	(58/8),(58)&7
	line	30
	
l571:	
	return
	opt stack 0
GLOBAL	__end_of_lcd_command
	__end_of_lcd_command:
;; =============== function _lcd_command ends ============

	signat	_lcd_command,4216
	global	_delay
psect	text174,local,class=CODE,delta=2
global __ptext174
__ptext174:

;; *************** function _delay *****************
;; Defined at:
;;		line 19 in file "D:\Madhu\madhu pic folder\pic task\keypad\keypad task\password\password matchinng.c"
;; Parameters:    Size  Location     Type
;;  x               2    0[COMMON] unsigned int 
;; Auto vars:     Size  Location     Type
;;		None
;; Return value:  Size  Location     Type
;;		None               void
;; Registers used:
;;		wreg
;; Tracked objects:
;;		On entry : 0/0
;;		On exit  : 0/0
;;		Unchanged: 0/0
;; Data sizes:     COMMON   BANK0   BANK1   BANK3   BANK2
;;      Params:         2       0       0       0       0
;;      Locals:         0       0       0       0       0
;;      Temps:          0       0       0       0       0
;;      Totals:         2       0       0       0       0
;;Total ram usage:        2 bytes
;; Hardware stack levels used:    1
;; This function calls:
;;		Nothing
;; This function is called by:
;;		_lcd_command
;;		_lcd_data
;;		_password
;;		_main
;; This function uses a non-reentrant model
;;
psect	text174
	file	"D:\Madhu\madhu pic folder\pic task\keypad\keypad task\password\password matchinng.c"
	line	19
	global	__size_of_delay
	__size_of_delay	equ	__end_of_delay-_delay
	
_delay:	
	opt	stack 6
; Regs used in _delay: [wreg]
	line	20
	
l2021:	
;password matchinng.c: 20: while(x--);
	goto	l565
	
l566:	
	
l565:	
	
l2023:	
	movlw	low(01h)
	subwf	(delay@x),f
	movlw	high(01h)
	skipc
	decf	(delay@x+1),f
	subwf	(delay@x+1),f
	movlw	high(0FFFFh)
	xorwf	((delay@x+1)),w
	skipz
	goto	u2315
	movlw	low(0FFFFh)
	xorwf	((delay@x)),w
u2315:

	skipz
	goto	u2311
	goto	u2310
u2311:
	goto	l566
u2310:
	
l567:	
	line	21
	
l568:	
	return
	opt stack 0
GLOBAL	__end_of_delay
	__end_of_delay:
;; =============== function _delay ends ============

	signat	_delay,4216
psect	text175,local,class=CODE,delta=2
global __ptext175
__ptext175:
	global	btemp
	btemp set 07Eh

	DABS	1,126,2	;btemp
	global	wtemp0
	wtemp0 set btemp
	end
