opt subtitle "HI-TECH Software Omniscient Code Generator (Lite mode) build 6446"

opt pagewidth 120

	opt lm

	processor	16F877A
clrc	macro
	bcf	3,0
	endm
clrz	macro
	bcf	3,2
	endm
setc	macro
	bsf	3,0
	endm
setz	macro
	bsf	3,2
	endm
skipc	macro
	btfss	3,0
	endm
skipz	macro
	btfss	3,2
	endm
skipnc	macro
	btfsc	3,0
	endm
skipnz	macro
	btfsc	3,2
	endm
indf	equ	0
indf0	equ	0
pc	equ	2
pcl	equ	2
status	equ	3
fsr	equ	4
fsr0	equ	4
c	equ	1
z	equ	0
pclath	equ	10
	FNCALL	_main,_lcd_init
	FNCALL	_main,_delay
	FNCALL	_main,_lcd_command
	FNCALL	_main,_lcd_display
	FNCALL	_main,_password
	FNCALL	_password,_lcd_data
	FNCALL	_password,_delay
	FNCALL	_lcd_display,_lcd_data
	FNCALL	_lcd_init,_lcd_command
	FNCALL	_lcd_data,_delay
	FNCALL	_lcd_command,_delay
	FNROOT	_main
	global	_b
psect	idataBANK0,class=CODE,space=0,delta=2
global __pidataBANK0
__pidataBANK0:
	file	"D:\Madhu\madhu pic folder\keypad\TEST KEY\PRG.C"
	line	19

;initializer for _b
	retlw	01h
	retlw	0

	retlw	02h
	retlw	0

	retlw	0
	retlw	0
	retlw	0
	retlw	0
	retlw	0
	retlw	0
	retlw	0
	retlw	0
	retlw	0
	retlw	0
	retlw	0
	retlw	0
	retlw	0
	retlw	0
	retlw	0
	retlw	0
	global	_a
	global	_i
	global	_PORTB
_PORTB	set	6
	global	_PORTC
_PORTC	set	7
	global	_PORTD
_PORTD	set	8
	global	_RB0
_RB0	set	48
	global	_RB1
_RB1	set	49
	global	_RB2
_RB2	set	50
	global	_RB3
_RB3	set	51
	global	_RB4
_RB4	set	52
	global	_RB5
_RB5	set	53
	global	_RB6
_RB6	set	54
	global	_RC0
_RC0	set	56
	global	_RC1
_RC1	set	57
	global	_RC2
_RC2	set	58
	global	_TRISB
_TRISB	set	134
	global	_TRISC
_TRISC	set	135
	global	_TRISD
_TRISD	set	136
psect	strings,class=STRING,delta=2
global __pstrings
__pstrings:
;	global	stringdir,stringtab,__stringbase
stringtab:
;	String table - string pointers are 1 byte each
stringcode:stringdir:
movlw high(stringdir)
movwf pclath
movf fsr,w
incf fsr
	addwf pc
__stringbase:
	retlw	0
psect	strings
	
STR_1:	
	retlw	69	;'E'
	retlw	110	;'n'
	retlw	116	;'t'
	retlw	101	;'e'
	retlw	114	;'r'
	retlw	32	;' '
	retlw	116	;'t'
	retlw	104	;'h'
	retlw	101	;'e'
	retlw	32	;' '
	retlw	112	;'p'
	retlw	97	;'a'
	retlw	115	;'s'
	retlw	115	;'s'
	retlw	119	;'w'
	retlw	111	;'o'
	retlw	114	;'r'
	retlw	100	;'d'
	retlw	0
psect	strings
	
STR_3:	
	retlw	73	;'I'
	retlw	110	;'n'
	retlw	99	;'c'
	retlw	111	;'o'
	retlw	114	;'r'
	retlw	114	;'r'
	retlw	101	;'e'
	retlw	99	;'c'
	retlw	116	;'t'
	retlw	32	;' '
	retlw	112	;'p'
	retlw	97	;'a'
	retlw	115	;'s'
	retlw	115	;'s'
	retlw	119	;'w'
	retlw	111	;'o'
	retlw	114	;'r'
	retlw	100	;'d'
	retlw	0
psect	strings
	
STR_2:	
	retlw	80	;'P'
	retlw	97	;'a'
	retlw	115	;'s'
	retlw	115	;'s'
	retlw	119	;'w'
	retlw	111	;'o'
	retlw	114	;'r'
	retlw	100	;'d'
	retlw	32	;' '
	retlw	99	;'c'
	retlw	111	;'o'
	retlw	114	;'r'
	retlw	114	;'r'
	retlw	101	;'e'
	retlw	99	;'c'
	retlw	116	;'t'
	retlw	0
psect	strings
	file	"PRG.as"
	line	#
psect cinit,class=CODE,delta=2
global start_initialization
start_initialization:

psect	bssCOMMON,class=COMMON,space=1
global __pbssCOMMON
__pbssCOMMON:
_i:
       ds      2

psect	bssBANK0,class=BANK0,space=1
global __pbssBANK0
__pbssBANK0:
_a:
       ds      20

psect	dataBANK0,class=BANK0,space=1
global __pdataBANK0
__pdataBANK0:
	file	"D:\Madhu\madhu pic folder\keypad\TEST KEY\PRG.C"
_b:
       ds      20

psect clrtext,class=CODE,delta=2
global clear_ram
;	Called with FSR containing the base address, and
;	W with the last address+1
clear_ram:
	clrwdt			;clear the watchdog before getting into this loop
clrloop:
	clrf	indf		;clear RAM location pointed to by FSR
	incf	fsr,f		;increment pointer
	xorwf	fsr,w		;XOR with final address
	btfsc	status,2	;have we reached the end yet?
	retlw	0		;all done for this memory range, return
	xorwf	fsr,w		;XOR again to restore value
	goto	clrloop		;do the next byte

; Clear objects allocated to COMMON
psect cinit,class=CODE,delta=2
	clrf	((__pbssCOMMON)+0)&07Fh
	clrf	((__pbssCOMMON)+1)&07Fh
; Clear objects allocated to BANK0
psect cinit,class=CODE,delta=2
	bcf	status, 7	;select IRP bank0
	movlw	low(__pbssBANK0)
	movwf	fsr
	movlw	low((__pbssBANK0)+014h)
	fcall	clear_ram
global btemp
psect inittext,class=CODE,delta=2
global init_fetch,btemp
;	Called with low address in FSR and high address in W
init_fetch:
	movf btemp,w
	movwf pclath
	movf btemp+1,w
	movwf pc
global init_ram
;Called with:
;	high address of idata address in btemp 
;	low address of idata address in btemp+1 
;	low address of data in FSR
;	high address + 1 of data in btemp-1
init_ram:
	fcall init_fetch
	movwf indf,f
	incf fsr,f
	movf fsr,w
	xorwf btemp-1,w
	btfsc status,2
	retlw 0
	incf btemp+1,f
	btfsc status,2
	incf btemp,f
	goto init_ram
; Initialize objects allocated to BANK0
psect cinit,class=CODE,delta=2
global init_ram, __pidataBANK0
	movlw low(__pdataBANK0+20)
	movwf btemp-1,f
	movlw high(__pidataBANK0)
	movwf btemp,f
	movlw low(__pidataBANK0)
	movwf btemp+1,f
	movlw low(__pdataBANK0)
	movwf fsr,f
	fcall init_ram
psect cinit,class=CODE,delta=2
global end_of_initialization

;End of C runtime variable initialization code

end_of_initialization:
clrf status
ljmp _main	;jump to C main() function
psect	cstackCOMMON,class=COMMON,space=1
global __pcstackCOMMON
__pcstackCOMMON:
	global	?_delay
?_delay:	; 0 bytes @ 0x0
	global	?_lcd_command
?_lcd_command:	; 0 bytes @ 0x0
	global	?_lcd_data
?_lcd_data:	; 0 bytes @ 0x0
	global	?_lcd_init
?_lcd_init:	; 0 bytes @ 0x0
	global	?_lcd_display
?_lcd_display:	; 0 bytes @ 0x0
	global	?_password
?_password:	; 0 bytes @ 0x0
	global	?_main
?_main:	; 0 bytes @ 0x0
	global	delay@x
delay@x:	; 2 bytes @ 0x0
	ds	2
	global	??_delay
??_delay:	; 0 bytes @ 0x2
	global	??_lcd_command
??_lcd_command:	; 0 bytes @ 0x2
	global	??_lcd_data
??_lcd_data:	; 0 bytes @ 0x2
	global	lcd_command@com
lcd_command@com:	; 1 bytes @ 0x2
	global	lcd_data@data
lcd_data@data:	; 1 bytes @ 0x2
	ds	1
	global	??_lcd_init
??_lcd_init:	; 0 bytes @ 0x3
	global	??_lcd_display
??_lcd_display:	; 0 bytes @ 0x3
	global	??_password
??_password:	; 0 bytes @ 0x3
	global	lcd_display@j
lcd_display@j:	; 2 bytes @ 0x3
	ds	2
	global	lcd_display@m
lcd_display@m:	; 1 bytes @ 0x5
	ds	1
	global	??_main
??_main:	; 0 bytes @ 0x6
;;Data sizes: Strings 55, constant 0, data 20, bss 22, persistent 0 stack 0
;;Auto spaces:   Size  Autos    Used
;; COMMON          14      6       8
;; BANK0           80      0      40
;; BANK1           80      0       0
;; BANK3           96      0       0
;; BANK2           96      0       0

;;
;; Pointer list with targets:

;; lcd_display@m	PTR unsigned char  size(1) Largest target is 19
;;		 -> STR_3(CODE[19]), STR_2(CODE[17]), STR_1(CODE[19]), 
;;


;;
;; Critical Paths under _main in COMMON
;;
;;   _main->_lcd_display
;;   _password->_lcd_data
;;   _lcd_display->_lcd_data
;;   _lcd_init->_lcd_command
;;   _lcd_data->_delay
;;   _lcd_command->_delay
;;
;; Critical Paths under _main in BANK0
;;
;;   None.
;;
;; Critical Paths under _main in BANK1
;;
;;   None.
;;
;; Critical Paths under _main in BANK3
;;
;;   None.
;;
;; Critical Paths under _main in BANK2
;;
;;   None.

;;
;;Main: autosize = 0, tempsize = 0, incstack = 0, save=0
;;

;;
;;Call Graph Tables:
;;
;; ---------------------------------------------------------------------------------
;; (Depth) Function   	        Calls       Base Space   Used Autos Params    Refs
;; ---------------------------------------------------------------------------------
;; (0) _main                                                 0     0      0     210
;;                           _lcd_init
;;                              _delay
;;                        _lcd_command
;;                        _lcd_display
;;                           _password
;; ---------------------------------------------------------------------------------
;; (1) _password                                             1     1      0      45
;;                                              3 COMMON     1     1      0
;;                           _lcd_data
;;                              _delay
;; ---------------------------------------------------------------------------------
;; (1) _lcd_display                                          3     3      0      90
;;                                              3 COMMON     3     3      0
;;                           _lcd_data
;; ---------------------------------------------------------------------------------
;; (1) _lcd_init                                             0     0      0      30
;;                        _lcd_command
;; ---------------------------------------------------------------------------------
;; (2) _lcd_data                                             1     1      0      30
;;                                              2 COMMON     1     1      0
;;                              _delay
;; ---------------------------------------------------------------------------------
;; (1) _lcd_command                                          1     1      0      30
;;                                              2 COMMON     1     1      0
;;                              _delay
;; ---------------------------------------------------------------------------------
;; (2) _delay                                                2     0      2      15
;;                                              0 COMMON     2     0      2
;; ---------------------------------------------------------------------------------
;; Estimated maximum stack depth 2
;; ---------------------------------------------------------------------------------

;; Call Graph Graphs:

;; _main (ROOT)
;;   _lcd_init
;;     _lcd_command
;;       _delay
;;   _delay
;;   _lcd_command
;;     _delay
;;   _lcd_display
;;     _lcd_data
;;       _delay
;;   _password
;;     _lcd_data
;;       _delay
;;     _delay
;;

;; Address spaces:

;;Name               Size   Autos  Total    Cost      Usage
;;BANK3               60      0       0       9        0.0%
;;BITBANK3            60      0       0       8        0.0%
;;SFR3                 0      0       0       4        0.0%
;;BITSFR3              0      0       0       4        0.0%
;;BANK2               60      0       0      11        0.0%
;;BITBANK2            60      0       0      10        0.0%
;;SFR2                 0      0       0       5        0.0%
;;BITSFR2              0      0       0       5        0.0%
;;SFR1                 0      0       0       2        0.0%
;;BITSFR1              0      0       0       2        0.0%
;;BANK1               50      0       0       7        0.0%
;;BITBANK1            50      0       0       6        0.0%
;;CODE                 0      0       0       0        0.0%
;;DATA                 0      0      33      12        0.0%
;;ABS                  0      0      30       3        0.0%
;;NULL                 0      0       0       0        0.0%
;;STACK                0      0       3       2        0.0%
;;BANK0               50      0      28       5       50.0%
;;BITBANK0            50      0       0       4        0.0%
;;SFR0                 0      0       0       1        0.0%
;;BITSFR0              0      0       0       1        0.0%
;;COMMON               E      6       8       1       57.1%
;;BITCOMMON            E      0       0       0        0.0%
;;EEDATA             100      0       0       0        0.0%

	global	_main
psect	maintext,global,class=CODE,delta=2
global __pmaintext
__pmaintext:

;; *************** function _main *****************
;; Defined at:
;;		line 178 in file "D:\Madhu\madhu pic folder\keypad\TEST KEY\PRG.C"
;; Parameters:    Size  Location     Type
;;		None
;; Auto vars:     Size  Location     Type
;;		None
;; Return value:  Size  Location     Type
;;		None               void
;; Registers used:
;;		wreg, fsr0l, fsr0h, status,2, status,0, btemp+0, pclath, cstack
;; Tracked objects:
;;		On entry : 17F/0
;;		On exit  : 0/0
;;		Unchanged: 0/0
;; Data sizes:     COMMON   BANK0   BANK1   BANK3   BANK2
;;      Params:         0       0       0       0       0
;;      Locals:         0       0       0       0       0
;;      Temps:          0       0       0       0       0
;;      Totals:         0       0       0       0       0
;;Total ram usage:        0 bytes
;; Hardware stack levels required when called:    3
;; This function calls:
;;		_lcd_init
;;		_delay
;;		_lcd_command
;;		_lcd_display
;;		_password
;; This function is called by:
;;		Startup code after reset
;; This function uses a non-reentrant model
;;
psect	maintext
	file	"D:\Madhu\madhu pic folder\keypad\TEST KEY\PRG.C"
	line	178
	global	__size_of_main
	__size_of_main	equ	__end_of_main-_main
	
_main:	
	opt	stack 8
; Regs used in _main: [wreg-fsr0h+status,2-btemp+0+pclath+cstack]
	line	179
	
l1975:	
;PRG.C: 179: TRISD=0x00;
	bsf	status, 5	;RP0=1, select bank1
	bcf	status, 6	;RP1=0, select bank1
	clrf	(136)^080h	;volatile
	line	180
;PRG.C: 180: PORTD=0x00;
	bcf	status, 5	;RP0=0, select bank0
	bcf	status, 6	;RP1=0, select bank0
	clrf	(8)	;volatile
	line	182
;PRG.C: 182: TRISC=0x00;
	bsf	status, 5	;RP0=1, select bank1
	bcf	status, 6	;RP1=0, select bank1
	clrf	(135)^080h	;volatile
	line	183
;PRG.C: 183: PORTC=0x00;
	bcf	status, 5	;RP0=0, select bank0
	bcf	status, 6	;RP1=0, select bank0
	clrf	(7)	;volatile
	line	185
	
l1977:	
;PRG.C: 185: TRISB=0X07;
	movlw	(07h)
	bsf	status, 5	;RP0=1, select bank1
	bcf	status, 6	;RP1=0, select bank1
	movwf	(134)^080h	;volatile
	line	187
	
l1979:	
;PRG.C: 187: PORTB=0X00;
	bcf	status, 5	;RP0=0, select bank0
	bcf	status, 6	;RP1=0, select bank0
	clrf	(6)	;volatile
	line	189
	
l1981:	
;PRG.C: 189: lcd_init();
	fcall	_lcd_init
	line	190
	
l1983:	
;PRG.C: 190: delay(100);
	movlw	low(064h)
	movwf	(?_delay)
	movlw	high(064h)
	movwf	((?_delay))+1
	fcall	_delay
	line	192
;PRG.C: 192: while(1)
	
l605:	
	line	194
;PRG.C: 193: {
;PRG.C: 194: i=0;
	movlw	low(0)
	movwf	(_i)
	movlw	high(0)
	movwf	((_i))+1
	line	195
	
l1985:	
;PRG.C: 195: lcd_command(0x80);
	movlw	(080h)
	fcall	_lcd_command
	line	196
	
l1987:	
;PRG.C: 196: lcd_display("Enter the password");
	movlw	((STR_1-__stringbase))&0ffh
	fcall	_lcd_display
	line	197
	
l1989:	
;PRG.C: 197: delay(10000);delay(10000);
	movlw	low(02710h)
	movwf	(?_delay)
	movlw	high(02710h)
	movwf	((?_delay))+1
	fcall	_delay
	
l1991:	
	movlw	low(02710h)
	movwf	(?_delay)
	movlw	high(02710h)
	movwf	((?_delay))+1
	fcall	_delay
	line	198
	
l1993:	
;PRG.C: 198: lcd_command(0x01);lcd_command(0x80);
	movlw	(01h)
	fcall	_lcd_command
	
l1995:	
	movlw	(080h)
	fcall	_lcd_command
	line	199
	
l1997:	
;PRG.C: 199: password();
	fcall	_password
	line	202
	
l1999:	
;PRG.C: 202: if((b[0]==a[0])&&(b[1]==a[1]))
	bcf	status, 5	;RP0=0, select bank0
	bcf	status, 6	;RP1=0, select bank0
	movf	(_a+1),w
	xorwf	(_b+1),w
	skipz
	goto	u2295
	movf	(_a),w
	xorwf	(_b),w
u2295:

	skipz
	goto	u2291
	goto	u2290
u2291:
	goto	l606
u2290:
	
l2001:	
	movf	1+(_a)+02h,w
	xorwf	1+(_b)+02h,w
	skipz
	goto	u2305
	movf	0+(_a)+02h,w
	xorwf	0+(_b)+02h,w
u2305:

	skipz
	goto	u2301
	goto	u2300
u2301:
	goto	l606
u2300:
	line	204
	
l2003:	
;PRG.C: 203: {
;PRG.C: 204: lcd_display("Password correct");
	movlw	((STR_2-__stringbase))&0ffh
	fcall	_lcd_display
	line	206
;PRG.C: 206: }
	goto	l607
	line	207
	
l606:	
	line	209
	
l2005:	
;PRG.C: 207: else
;PRG.C: 208: {
;PRG.C: 209: lcd_display("Incorrect password");
	movlw	((STR_3-__stringbase))&0ffh
	fcall	_lcd_display
	line	210
	
l607:	
	line	211
	
l2007:	
;PRG.C: 210: }
;PRG.C: 211: delay(10000);delay(10000);delay(10000);delay(10000);
	movlw	low(02710h)
	movwf	(?_delay)
	movlw	high(02710h)
	movwf	((?_delay))+1
	fcall	_delay
	
l2009:	
	movlw	low(02710h)
	movwf	(?_delay)
	movlw	high(02710h)
	movwf	((?_delay))+1
	fcall	_delay
	
l2011:	
	movlw	low(02710h)
	movwf	(?_delay)
	movlw	high(02710h)
	movwf	((?_delay))+1
	fcall	_delay
	
l2013:	
	movlw	low(02710h)
	movwf	(?_delay)
	movlw	high(02710h)
	movwf	((?_delay))+1
	fcall	_delay
	line	212
	
l2015:	
;PRG.C: 212: delay(10000);delay(10000);delay(10000);delay(10000);
	movlw	low(02710h)
	movwf	(?_delay)
	movlw	high(02710h)
	movwf	((?_delay))+1
	fcall	_delay
	
l2017:	
	movlw	low(02710h)
	movwf	(?_delay)
	movlw	high(02710h)
	movwf	((?_delay))+1
	fcall	_delay
	
l2019:	
	movlw	low(02710h)
	movwf	(?_delay)
	movlw	high(02710h)
	movwf	((?_delay))+1
	fcall	_delay
	
l2021:	
	movlw	low(02710h)
	movwf	(?_delay)
	movlw	high(02710h)
	movwf	((?_delay))+1
	fcall	_delay
	line	213
	
l608:	
	line	192
	goto	l605
	
l609:	
	line	214
	
l610:	
	global	start
	ljmp	start
	opt stack 0
GLOBAL	__end_of_main
	__end_of_main:
;; =============== function _main ends ============

	signat	_main,88
	global	_password
psect	text103,local,class=CODE,delta=2
global __ptext103
__ptext103:

;; *************** function _password *****************
;; Defined at:
;;		line 57 in file "D:\Madhu\madhu pic folder\keypad\TEST KEY\PRG.C"
;; Parameters:    Size  Location     Type
;;		None
;; Auto vars:     Size  Location     Type
;;		None
;; Return value:  Size  Location     Type
;;		None               void
;; Registers used:
;;		wreg, fsr0l, fsr0h, status,2, status,0, btemp+0, pclath, cstack
;; Tracked objects:
;;		On entry : 0/0
;;		On exit  : 0/0
;;		Unchanged: 0/0
;; Data sizes:     COMMON   BANK0   BANK1   BANK3   BANK2
;;      Params:         0       0       0       0       0
;;      Locals:         0       0       0       0       0
;;      Temps:          1       0       0       0       0
;;      Totals:         1       0       0       0       0
;;Total ram usage:        1 bytes
;; Hardware stack levels used:    1
;; Hardware stack levels required when called:    2
;; This function calls:
;;		_lcd_data
;;		_delay
;; This function is called by:
;;		_main
;; This function uses a non-reentrant model
;;
psect	text103
	file	"D:\Madhu\madhu pic folder\keypad\TEST KEY\PRG.C"
	line	57
	global	__size_of_password
	__size_of_password	equ	__end_of_password-_password
	
_password:	
	opt	stack 7
; Regs used in _password: [wreg-fsr0h+status,2-btemp+0+pclath+cstack]
	line	59
;PRG.C: 59: while(1)
	
l586:	
	line	63
;PRG.C: 60: {
;PRG.C: 63: RB3=1;
	bcf	status, 5	;RP0=0, select bank0
	bcf	status, 6	;RP1=0, select bank0
	bsf	(51/8),(51)&7
	line	64
;PRG.C: 64: RB4=0;
	bcf	(52/8),(52)&7
	line	65
;PRG.C: 65: RB5=0;
	bcf	(53/8),(53)&7
	line	66
;PRG.C: 66: RB6=0;
	bcf	(54/8),(54)&7
	line	67
;PRG.C: 67: if(RB0==1)
	btfss	(48/8),(48)&7
	goto	u2161
	goto	u2160
u2161:
	goto	l587
u2160:
	line	70
	
l1807:	
;PRG.C: 68: {
;PRG.C: 70: lcd_data('1');
	movlw	(031h)
	fcall	_lcd_data
	line	71
	
l1809:	
;PRG.C: 71: a[i]=1;
	movf	(_i),w
	movwf	(??_password+0)+0
	addwf	(??_password+0)+0,w
	addlw	_a&0ffh
	movwf	fsr0
	movlw	low(01h)
	bcf	status, 7	;select IRP bank0
	movwf	indf
	incf	fsr0,f
	movlw	high(01h)
	movwf	indf
	line	72
	
l1811:	
;PRG.C: 72: i=i+1;delay(50000);delay(50000);
	movf	(_i),w
	addlw	low(01h)
	movwf	(_i)
	movf	(_i+1),w
	skipnc
	addlw	1
	addlw	high(01h)
	movwf	1+(_i)
	
l1813:	
	movlw	low(0C350h)
	movwf	(?_delay)
	movlw	high(0C350h)
	movwf	((?_delay))+1
	fcall	_delay
	
l1815:	
	movlw	low(0C350h)
	movwf	(?_delay)
	movlw	high(0C350h)
	movwf	((?_delay))+1
	fcall	_delay
	line	73
	
l587:	
	line	74
	
l1817:	
;PRG.C: 73: }
;PRG.C: 74: if(RB1==1)
	bcf	status, 5	;RP0=0, select bank0
	bcf	status, 6	;RP1=0, select bank0
	btfss	(49/8),(49)&7
	goto	u2171
	goto	u2170
u2171:
	goto	l588
u2170:
	line	77
	
l1819:	
;PRG.C: 75: {
;PRG.C: 77: lcd_data('2');
	movlw	(032h)
	fcall	_lcd_data
	line	78
	
l1821:	
;PRG.C: 78: a[i]=2;
	movf	(_i),w
	movwf	(??_password+0)+0
	addwf	(??_password+0)+0,w
	addlw	_a&0ffh
	movwf	fsr0
	movlw	low(02h)
	bcf	status, 7	;select IRP bank0
	movwf	indf
	incf	fsr0,f
	movlw	high(02h)
	movwf	indf
	line	79
	
l1823:	
;PRG.C: 79: i=i+1;delay(50000);delay(50000);
	movf	(_i),w
	addlw	low(01h)
	movwf	(_i)
	movf	(_i+1),w
	skipnc
	addlw	1
	addlw	high(01h)
	movwf	1+(_i)
	
l1825:	
	movlw	low(0C350h)
	movwf	(?_delay)
	movlw	high(0C350h)
	movwf	((?_delay))+1
	fcall	_delay
	
l1827:	
	movlw	low(0C350h)
	movwf	(?_delay)
	movlw	high(0C350h)
	movwf	((?_delay))+1
	fcall	_delay
	line	80
	
l588:	
	line	81
	
l1829:	
;PRG.C: 80: }
;PRG.C: 81: if(RB2==1)
	bcf	status, 5	;RP0=0, select bank0
	bcf	status, 6	;RP1=0, select bank0
	btfss	(50/8),(50)&7
	goto	u2181
	goto	u2180
u2181:
	goto	l589
u2180:
	line	84
	
l1831:	
;PRG.C: 82: {
;PRG.C: 84: lcd_data('3');
	movlw	(033h)
	fcall	_lcd_data
	line	85
	
l1833:	
;PRG.C: 85: a[i]=3;
	movf	(_i),w
	movwf	(??_password+0)+0
	addwf	(??_password+0)+0,w
	addlw	_a&0ffh
	movwf	fsr0
	movlw	low(03h)
	bcf	status, 7	;select IRP bank0
	movwf	indf
	incf	fsr0,f
	movlw	high(03h)
	movwf	indf
	line	86
	
l1835:	
;PRG.C: 86: i=i+1;delay(50000);delay(50000);
	movf	(_i),w
	addlw	low(01h)
	movwf	(_i)
	movf	(_i+1),w
	skipnc
	addlw	1
	addlw	high(01h)
	movwf	1+(_i)
	
l1837:	
	movlw	low(0C350h)
	movwf	(?_delay)
	movlw	high(0C350h)
	movwf	((?_delay))+1
	fcall	_delay
	
l1839:	
	movlw	low(0C350h)
	movwf	(?_delay)
	movlw	high(0C350h)
	movwf	((?_delay))+1
	fcall	_delay
	line	87
	
l589:	
	line	89
	
l1841:	
;PRG.C: 87: }
;PRG.C: 89: RB3=0;
	bcf	status, 5	;RP0=0, select bank0
	bcf	status, 6	;RP1=0, select bank0
	bcf	(51/8),(51)&7
	line	90
	
l1843:	
;PRG.C: 90: RB4=1;
	bsf	(52/8),(52)&7
	line	91
	
l1845:	
;PRG.C: 91: RB5=0;
	bcf	(53/8),(53)&7
	line	92
	
l1847:	
;PRG.C: 92: RB6=0;
	bcf	(54/8),(54)&7
	line	94
	
l1849:	
;PRG.C: 94: if(RB0==1)
	btfss	(48/8),(48)&7
	goto	u2191
	goto	u2190
u2191:
	goto	l590
u2190:
	line	97
	
l1851:	
;PRG.C: 95: {
;PRG.C: 97: lcd_data('4');
	movlw	(034h)
	fcall	_lcd_data
	line	98
	
l1853:	
;PRG.C: 98: a[i]=4;
	movf	(_i),w
	movwf	(??_password+0)+0
	addwf	(??_password+0)+0,w
	addlw	_a&0ffh
	movwf	fsr0
	movlw	low(04h)
	bcf	status, 7	;select IRP bank0
	movwf	indf
	incf	fsr0,f
	movlw	high(04h)
	movwf	indf
	line	99
	
l1855:	
;PRG.C: 99: i=i+1;delay(50000);delay(50000);
	movf	(_i),w
	addlw	low(01h)
	movwf	(_i)
	movf	(_i+1),w
	skipnc
	addlw	1
	addlw	high(01h)
	movwf	1+(_i)
	
l1857:	
	movlw	low(0C350h)
	movwf	(?_delay)
	movlw	high(0C350h)
	movwf	((?_delay))+1
	fcall	_delay
	
l1859:	
	movlw	low(0C350h)
	movwf	(?_delay)
	movlw	high(0C350h)
	movwf	((?_delay))+1
	fcall	_delay
	line	100
	
l590:	
	line	101
	
l1861:	
;PRG.C: 100: }
;PRG.C: 101: if(RB1==1)
	bcf	status, 5	;RP0=0, select bank0
	bcf	status, 6	;RP1=0, select bank0
	btfss	(49/8),(49)&7
	goto	u2201
	goto	u2200
u2201:
	goto	l591
u2200:
	line	104
	
l1863:	
;PRG.C: 102: {
;PRG.C: 104: lcd_data('5');
	movlw	(035h)
	fcall	_lcd_data
	line	105
	
l1865:	
;PRG.C: 105: a[i]=5;
	movf	(_i),w
	movwf	(??_password+0)+0
	addwf	(??_password+0)+0,w
	addlw	_a&0ffh
	movwf	fsr0
	movlw	low(05h)
	bcf	status, 7	;select IRP bank0
	movwf	indf
	incf	fsr0,f
	movlw	high(05h)
	movwf	indf
	line	106
	
l1867:	
;PRG.C: 106: i=i+1;delay(50000);delay(50000);
	movf	(_i),w
	addlw	low(01h)
	movwf	(_i)
	movf	(_i+1),w
	skipnc
	addlw	1
	addlw	high(01h)
	movwf	1+(_i)
	
l1869:	
	movlw	low(0C350h)
	movwf	(?_delay)
	movlw	high(0C350h)
	movwf	((?_delay))+1
	fcall	_delay
	
l1871:	
	movlw	low(0C350h)
	movwf	(?_delay)
	movlw	high(0C350h)
	movwf	((?_delay))+1
	fcall	_delay
	line	108
	
l591:	
	line	109
	
l1873:	
;PRG.C: 108: }
;PRG.C: 109: if(RB2==1)
	bcf	status, 5	;RP0=0, select bank0
	bcf	status, 6	;RP1=0, select bank0
	btfss	(50/8),(50)&7
	goto	u2211
	goto	u2210
u2211:
	goto	l592
u2210:
	line	112
	
l1875:	
;PRG.C: 110: {
;PRG.C: 112: lcd_data('6');
	movlw	(036h)
	fcall	_lcd_data
	line	113
	
l1877:	
;PRG.C: 113: a[i]=6;
	movf	(_i),w
	movwf	(??_password+0)+0
	addwf	(??_password+0)+0,w
	addlw	_a&0ffh
	movwf	fsr0
	movlw	low(06h)
	bcf	status, 7	;select IRP bank0
	movwf	indf
	incf	fsr0,f
	movlw	high(06h)
	movwf	indf
	line	114
	
l1879:	
;PRG.C: 114: i=i+1;delay(50000);delay(50000);
	movf	(_i),w
	addlw	low(01h)
	movwf	(_i)
	movf	(_i+1),w
	skipnc
	addlw	1
	addlw	high(01h)
	movwf	1+(_i)
	
l1881:	
	movlw	low(0C350h)
	movwf	(?_delay)
	movlw	high(0C350h)
	movwf	((?_delay))+1
	fcall	_delay
	
l1883:	
	movlw	low(0C350h)
	movwf	(?_delay)
	movlw	high(0C350h)
	movwf	((?_delay))+1
	fcall	_delay
	line	115
	
l592:	
	line	116
	
l1885:	
;PRG.C: 115: }
;PRG.C: 116: RB3=0;
	bcf	status, 5	;RP0=0, select bank0
	bcf	status, 6	;RP1=0, select bank0
	bcf	(51/8),(51)&7
	line	117
	
l1887:	
;PRG.C: 117: RB4=0;
	bcf	(52/8),(52)&7
	line	118
	
l1889:	
;PRG.C: 118: RB5=1;
	bsf	(53/8),(53)&7
	line	119
	
l1891:	
;PRG.C: 119: RB6=0;
	bcf	(54/8),(54)&7
	line	121
	
l1893:	
;PRG.C: 121: if(RB0==1)
	btfss	(48/8),(48)&7
	goto	u2221
	goto	u2220
u2221:
	goto	l593
u2220:
	line	124
	
l1895:	
;PRG.C: 122: {
;PRG.C: 124: lcd_data('7');
	movlw	(037h)
	fcall	_lcd_data
	line	125
	
l1897:	
;PRG.C: 125: a[i]=7;
	movf	(_i),w
	movwf	(??_password+0)+0
	addwf	(??_password+0)+0,w
	addlw	_a&0ffh
	movwf	fsr0
	movlw	low(07h)
	bcf	status, 7	;select IRP bank0
	movwf	indf
	incf	fsr0,f
	movlw	high(07h)
	movwf	indf
	line	126
	
l1899:	
;PRG.C: 126: i=i+1;delay(50000);delay(50000);
	movf	(_i),w
	addlw	low(01h)
	movwf	(_i)
	movf	(_i+1),w
	skipnc
	addlw	1
	addlw	high(01h)
	movwf	1+(_i)
	
l1901:	
	movlw	low(0C350h)
	movwf	(?_delay)
	movlw	high(0C350h)
	movwf	((?_delay))+1
	fcall	_delay
	
l1903:	
	movlw	low(0C350h)
	movwf	(?_delay)
	movlw	high(0C350h)
	movwf	((?_delay))+1
	fcall	_delay
	line	127
	
l593:	
	line	128
	
l1905:	
;PRG.C: 127: }
;PRG.C: 128: if(RB1==1)
	bcf	status, 5	;RP0=0, select bank0
	bcf	status, 6	;RP1=0, select bank0
	btfss	(49/8),(49)&7
	goto	u2231
	goto	u2230
u2231:
	goto	l594
u2230:
	line	131
	
l1907:	
;PRG.C: 129: {
;PRG.C: 131: lcd_data('8');
	movlw	(038h)
	fcall	_lcd_data
	line	132
	
l1909:	
;PRG.C: 132: a[i]=8;
	movf	(_i),w
	movwf	(??_password+0)+0
	addwf	(??_password+0)+0,w
	addlw	_a&0ffh
	movwf	fsr0
	movlw	low(08h)
	bcf	status, 7	;select IRP bank0
	movwf	indf
	incf	fsr0,f
	movlw	high(08h)
	movwf	indf
	line	133
	
l1911:	
;PRG.C: 133: i=i+1;delay(50000);delay(50000);
	movf	(_i),w
	addlw	low(01h)
	movwf	(_i)
	movf	(_i+1),w
	skipnc
	addlw	1
	addlw	high(01h)
	movwf	1+(_i)
	
l1913:	
	movlw	low(0C350h)
	movwf	(?_delay)
	movlw	high(0C350h)
	movwf	((?_delay))+1
	fcall	_delay
	
l1915:	
	movlw	low(0C350h)
	movwf	(?_delay)
	movlw	high(0C350h)
	movwf	((?_delay))+1
	fcall	_delay
	line	135
	
l594:	
	line	136
	
l1917:	
;PRG.C: 135: }
;PRG.C: 136: if(RB2==1)
	bcf	status, 5	;RP0=0, select bank0
	bcf	status, 6	;RP1=0, select bank0
	btfss	(50/8),(50)&7
	goto	u2241
	goto	u2240
u2241:
	goto	l595
u2240:
	line	139
	
l1919:	
;PRG.C: 137: {
;PRG.C: 139: lcd_data('9');
	movlw	(039h)
	fcall	_lcd_data
	line	140
	
l1921:	
;PRG.C: 140: a[i]=9;
	movf	(_i),w
	movwf	(??_password+0)+0
	addwf	(??_password+0)+0,w
	addlw	_a&0ffh
	movwf	fsr0
	movlw	low(09h)
	bcf	status, 7	;select IRP bank0
	movwf	indf
	incf	fsr0,f
	movlw	high(09h)
	movwf	indf
	line	141
	
l1923:	
;PRG.C: 141: i=i+1;delay(50000);delay(50000);
	movf	(_i),w
	addlw	low(01h)
	movwf	(_i)
	movf	(_i+1),w
	skipnc
	addlw	1
	addlw	high(01h)
	movwf	1+(_i)
	
l1925:	
	movlw	low(0C350h)
	movwf	(?_delay)
	movlw	high(0C350h)
	movwf	((?_delay))+1
	fcall	_delay
	
l1927:	
	movlw	low(0C350h)
	movwf	(?_delay)
	movlw	high(0C350h)
	movwf	((?_delay))+1
	fcall	_delay
	line	142
	
l595:	
	line	143
	
l1929:	
;PRG.C: 142: }
;PRG.C: 143: RB3=0;
	bcf	status, 5	;RP0=0, select bank0
	bcf	status, 6	;RP1=0, select bank0
	bcf	(51/8),(51)&7
	line	144
	
l1931:	
;PRG.C: 144: RB4=0;
	bcf	(52/8),(52)&7
	line	145
	
l1933:	
;PRG.C: 145: RB5=0;
	bcf	(53/8),(53)&7
	line	146
	
l1935:	
;PRG.C: 146: RB6=1;
	bsf	(54/8),(54)&7
	line	148
	
l1937:	
;PRG.C: 148: if(RB0==1)
	btfss	(48/8),(48)&7
	goto	u2251
	goto	u2250
u2251:
	goto	l596
u2250:
	line	151
	
l1939:	
;PRG.C: 149: {
;PRG.C: 151: lcd_data('*');
	movlw	(02Ah)
	fcall	_lcd_data
	line	153
	
l1941:	
;PRG.C: 153: i=i+1;delay(50000);delay(50000);
	movf	(_i),w
	addlw	low(01h)
	movwf	(_i)
	movf	(_i+1),w
	skipnc
	addlw	1
	addlw	high(01h)
	movwf	1+(_i)
	
l1943:	
	movlw	low(0C350h)
	movwf	(?_delay)
	movlw	high(0C350h)
	movwf	((?_delay))+1
	fcall	_delay
	
l1945:	
	movlw	low(0C350h)
	movwf	(?_delay)
	movlw	high(0C350h)
	movwf	((?_delay))+1
	fcall	_delay
	line	154
	
l596:	
	line	155
	
l1947:	
;PRG.C: 154: }
;PRG.C: 155: if(RB1==1)
	bcf	status, 5	;RP0=0, select bank0
	bcf	status, 6	;RP1=0, select bank0
	btfss	(49/8),(49)&7
	goto	u2261
	goto	u2260
u2261:
	goto	l597
u2260:
	line	158
	
l1949:	
;PRG.C: 156: {
;PRG.C: 158: lcd_data('0');
	movlw	(030h)
	fcall	_lcd_data
	line	159
	
l1951:	
;PRG.C: 159: a[i]=0;
	movf	(_i),w
	movwf	(??_password+0)+0
	addwf	(??_password+0)+0,w
	addlw	_a&0ffh
	movwf	fsr0
	movlw	low(0)
	bcf	status, 7	;select IRP bank0
	movwf	indf
	incf	fsr0,f
	movlw	high(0)
	movwf	indf
	line	160
	
l1953:	
;PRG.C: 160: i=i+1;delay(50000);delay(50000);
	movf	(_i),w
	addlw	low(01h)
	movwf	(_i)
	movf	(_i+1),w
	skipnc
	addlw	1
	addlw	high(01h)
	movwf	1+(_i)
	
l1955:	
	movlw	low(0C350h)
	movwf	(?_delay)
	movlw	high(0C350h)
	movwf	((?_delay))+1
	fcall	_delay
	
l1957:	
	movlw	low(0C350h)
	movwf	(?_delay)
	movlw	high(0C350h)
	movwf	((?_delay))+1
	fcall	_delay
	line	162
	
l597:	
	line	163
	
l1959:	
;PRG.C: 162: }
;PRG.C: 163: if(RB2==1)
	bcf	status, 5	;RP0=0, select bank0
	bcf	status, 6	;RP1=0, select bank0
	btfss	(50/8),(50)&7
	goto	u2271
	goto	u2270
u2271:
	goto	l598
u2270:
	line	166
	
l1961:	
;PRG.C: 164: {
;PRG.C: 166: lcd_data('#');
	movlw	(023h)
	fcall	_lcd_data
	line	167
	
l1963:	
;PRG.C: 167: a[i]=6;
	movf	(_i),w
	movwf	(??_password+0)+0
	addwf	(??_password+0)+0,w
	addlw	_a&0ffh
	movwf	fsr0
	movlw	low(06h)
	bcf	status, 7	;select IRP bank0
	movwf	indf
	incf	fsr0,f
	movlw	high(06h)
	movwf	indf
	line	168
	
l1965:	
;PRG.C: 168: i=i+1;delay(50000);delay(50000);
	movf	(_i),w
	addlw	low(01h)
	movwf	(_i)
	movf	(_i+1),w
	skipnc
	addlw	1
	addlw	high(01h)
	movwf	1+(_i)
	
l1967:	
	movlw	low(0C350h)
	movwf	(?_delay)
	movlw	high(0C350h)
	movwf	((?_delay))+1
	fcall	_delay
	
l1969:	
	movlw	low(0C350h)
	movwf	(?_delay)
	movlw	high(0C350h)
	movwf	((?_delay))+1
	fcall	_delay
	line	169
	
l598:	
	line	170
	
l1971:	
;PRG.C: 169: }
;PRG.C: 170: if(i>1)
	movf	(_i+1),w
	xorlw	80h
	movwf	btemp+0
	movlw	(high(02h))^80h
	subwf	btemp+0,w
	skipz
	goto	u2285
	movlw	low(02h)
	subwf	(_i),w
u2285:

	skipc
	goto	u2281
	goto	u2280
u2281:
	goto	l599
u2280:
	line	172
	
l1973:	
;PRG.C: 171: {
;PRG.C: 172: break;
	goto	l600
	line	173
	
l599:	
	line	174
	
l601:	
	line	59
	goto	l586
	
l600:	
	line	176
	
l602:	
	return
	opt stack 0
GLOBAL	__end_of_password
	__end_of_password:
;; =============== function _password ends ============

	signat	_password,88
	global	_lcd_display
psect	text104,local,class=CODE,delta=2
global __ptext104
__ptext104:

;; *************** function _lcd_display *****************
;; Defined at:
;;		line 50 in file "D:\Madhu\madhu pic folder\keypad\TEST KEY\PRG.C"
;; Parameters:    Size  Location     Type
;;  m               1    wreg     PTR unsigned char 
;;		 -> STR_3(19), STR_2(17), STR_1(19), 
;; Auto vars:     Size  Location     Type
;;  m               1    5[COMMON] PTR unsigned char 
;;		 -> STR_3(19), STR_2(17), STR_1(19), 
;;  j               2    3[COMMON] int 
;; Return value:  Size  Location     Type
;;		None               void
;; Registers used:
;;		wreg, fsr0l, fsr0h, status,2, status,0, pclath, cstack
;; Tracked objects:
;;		On entry : 0/0
;;		On exit  : 0/0
;;		Unchanged: 0/0
;; Data sizes:     COMMON   BANK0   BANK1   BANK3   BANK2
;;      Params:         0       0       0       0       0
;;      Locals:         3       0       0       0       0
;;      Temps:          0       0       0       0       0
;;      Totals:         3       0       0       0       0
;;Total ram usage:        3 bytes
;; Hardware stack levels used:    1
;; Hardware stack levels required when called:    2
;; This function calls:
;;		_lcd_data
;; This function is called by:
;;		_main
;; This function uses a non-reentrant model
;;
psect	text104
	file	"D:\Madhu\madhu pic folder\keypad\TEST KEY\PRG.C"
	line	50
	global	__size_of_lcd_display
	__size_of_lcd_display	equ	__end_of_lcd_display-_lcd_display
	
_lcd_display:	
	opt	stack 7
; Regs used in _lcd_display: [wreg-fsr0h+status,2+status,0+pclath+cstack]
;lcd_display@m stored from wreg
	movwf	(lcd_display@m)
	line	51
	
l1799:	
;PRG.C: 51: for(int j=0;m[j]!=0;j++)
	movlw	low(0)
	movwf	(lcd_display@j)
	movlw	high(0)
	movwf	((lcd_display@j))+1
	goto	l580
	line	52
	
l581:	
	line	53
	
l1801:	
;PRG.C: 52: {
;PRG.C: 53: lcd_data(m[j]);
	movf	(lcd_display@j),w
	addwf	(lcd_display@m),w
	movwf	fsr0
	fcall	stringdir
	fcall	_lcd_data
	line	51
	
l1803:	
	movlw	low(01h)
	addwf	(lcd_display@j),f
	skipnc
	incf	(lcd_display@j+1),f
	movlw	high(01h)
	addwf	(lcd_display@j+1),f
	
l580:	
	
l1805:	
	movf	(lcd_display@j),w
	addwf	(lcd_display@m),w
	movwf	fsr0
	fcall	stringdir
	iorlw	0
	skipz
	goto	u2151
	goto	u2150
u2151:
	goto	l581
u2150:
	
l582:	
	line	55
	
l583:	
	return
	opt stack 0
GLOBAL	__end_of_lcd_display
	__end_of_lcd_display:
;; =============== function _lcd_display ends ============

	signat	_lcd_display,4216
	global	_lcd_init
psect	text105,local,class=CODE,delta=2
global __ptext105
__ptext105:

;; *************** function _lcd_init *****************
;; Defined at:
;;		line 43 in file "D:\Madhu\madhu pic folder\keypad\TEST KEY\PRG.C"
;; Parameters:    Size  Location     Type
;;		None
;; Auto vars:     Size  Location     Type
;;		None
;; Return value:  Size  Location     Type
;;		None               void
;; Registers used:
;;		wreg, status,2, status,0, pclath, cstack
;; Tracked objects:
;;		On entry : 0/0
;;		On exit  : 0/0
;;		Unchanged: 0/0
;; Data sizes:     COMMON   BANK0   BANK1   BANK3   BANK2
;;      Params:         0       0       0       0       0
;;      Locals:         0       0       0       0       0
;;      Temps:          0       0       0       0       0
;;      Totals:         0       0       0       0       0
;;Total ram usage:        0 bytes
;; Hardware stack levels used:    1
;; Hardware stack levels required when called:    2
;; This function calls:
;;		_lcd_command
;; This function is called by:
;;		_main
;; This function uses a non-reentrant model
;;
psect	text105
	file	"D:\Madhu\madhu pic folder\keypad\TEST KEY\PRG.C"
	line	43
	global	__size_of_lcd_init
	__size_of_lcd_init	equ	__end_of_lcd_init-_lcd_init
	
_lcd_init:	
	opt	stack 7
; Regs used in _lcd_init: [wreg+status,2+status,0+pclath+cstack]
	line	44
	
l1797:	
;PRG.C: 44: lcd_command(0x38);
	movlw	(038h)
	fcall	_lcd_command
	line	45
;PRG.C: 45: lcd_command(0x06);
	movlw	(06h)
	fcall	_lcd_command
	line	46
;PRG.C: 46: lcd_command(0x0C);
	movlw	(0Ch)
	fcall	_lcd_command
	line	47
;PRG.C: 47: lcd_command(0x01);
	movlw	(01h)
	fcall	_lcd_command
	line	48
	
l577:	
	return
	opt stack 0
GLOBAL	__end_of_lcd_init
	__end_of_lcd_init:
;; =============== function _lcd_init ends ============

	signat	_lcd_init,88
	global	_lcd_data
psect	text106,local,class=CODE,delta=2
global __ptext106
__ptext106:

;; *************** function _lcd_data *****************
;; Defined at:
;;		line 34 in file "D:\Madhu\madhu pic folder\keypad\TEST KEY\PRG.C"
;; Parameters:    Size  Location     Type
;;  data            1    wreg     unsigned char 
;; Auto vars:     Size  Location     Type
;;  data            1    2[COMMON] unsigned char 
;; Return value:  Size  Location     Type
;;		None               void
;; Registers used:
;;		wreg, status,2, status,0, pclath, cstack
;; Tracked objects:
;;		On entry : 0/0
;;		On exit  : 0/0
;;		Unchanged: 0/0
;; Data sizes:     COMMON   BANK0   BANK1   BANK3   BANK2
;;      Params:         0       0       0       0       0
;;      Locals:         1       0       0       0       0
;;      Temps:          0       0       0       0       0
;;      Totals:         1       0       0       0       0
;;Total ram usage:        1 bytes
;; Hardware stack levels used:    1
;; Hardware stack levels required when called:    1
;; This function calls:
;;		_delay
;; This function is called by:
;;		_lcd_display
;;		_password
;; This function uses a non-reentrant model
;;
psect	text106
	file	"D:\Madhu\madhu pic folder\keypad\TEST KEY\PRG.C"
	line	34
	global	__size_of_lcd_data
	__size_of_lcd_data	equ	__end_of_lcd_data-_lcd_data
	
_lcd_data:	
	opt	stack 6
; Regs used in _lcd_data: [wreg+status,2+status,0+pclath+cstack]
;lcd_data@data stored from wreg
	movwf	(lcd_data@data)
	line	35
	
l1785:	
;PRG.C: 35: PORTD=data;
	movf	(lcd_data@data),w
	bcf	status, 5	;RP0=0, select bank0
	bcf	status, 6	;RP1=0, select bank0
	movwf	(8)	;volatile
	line	36
	
l1787:	
;PRG.C: 36: RC0=1;
	bsf	(56/8),(56)&7
	line	37
	
l1789:	
;PRG.C: 37: RC1=0;
	bcf	(57/8),(57)&7
	line	38
	
l1791:	
;PRG.C: 38: RC2=1;
	bsf	(58/8),(58)&7
	line	39
	
l1793:	
;PRG.C: 39: delay(100);
	movlw	low(064h)
	movwf	(?_delay)
	movlw	high(064h)
	movwf	((?_delay))+1
	fcall	_delay
	line	40
	
l1795:	
;PRG.C: 40: RC2=0;
	bcf	status, 5	;RP0=0, select bank0
	bcf	status, 6	;RP1=0, select bank0
	bcf	(58/8),(58)&7
	line	41
	
l574:	
	return
	opt stack 0
GLOBAL	__end_of_lcd_data
	__end_of_lcd_data:
;; =============== function _lcd_data ends ============

	signat	_lcd_data,4216
	global	_lcd_command
psect	text107,local,class=CODE,delta=2
global __ptext107
__ptext107:

;; *************** function _lcd_command *****************
;; Defined at:
;;		line 25 in file "D:\Madhu\madhu pic folder\keypad\TEST KEY\PRG.C"
;; Parameters:    Size  Location     Type
;;  com             1    wreg     unsigned char 
;; Auto vars:     Size  Location     Type
;;  com             1    2[COMMON] unsigned char 
;; Return value:  Size  Location     Type
;;		None               void
;; Registers used:
;;		wreg, status,2, status,0, pclath, cstack
;; Tracked objects:
;;		On entry : 0/0
;;		On exit  : 0/0
;;		Unchanged: 0/0
;; Data sizes:     COMMON   BANK0   BANK1   BANK3   BANK2
;;      Params:         0       0       0       0       0
;;      Locals:         1       0       0       0       0
;;      Temps:          0       0       0       0       0
;;      Totals:         1       0       0       0       0
;;Total ram usage:        1 bytes
;; Hardware stack levels used:    1
;; Hardware stack levels required when called:    1
;; This function calls:
;;		_delay
;; This function is called by:
;;		_lcd_init
;;		_main
;; This function uses a non-reentrant model
;;
psect	text107
	file	"D:\Madhu\madhu pic folder\keypad\TEST KEY\PRG.C"
	line	25
	global	__size_of_lcd_command
	__size_of_lcd_command	equ	__end_of_lcd_command-_lcd_command
	
_lcd_command:	
	opt	stack 7
; Regs used in _lcd_command: [wreg+status,2+status,0+pclath+cstack]
;lcd_command@com stored from wreg
	movwf	(lcd_command@com)
	line	26
	
l1773:	
;PRG.C: 26: PORTD=com;
	movf	(lcd_command@com),w
	bcf	status, 5	;RP0=0, select bank0
	bcf	status, 6	;RP1=0, select bank0
	movwf	(8)	;volatile
	line	27
	
l1775:	
;PRG.C: 27: RC0=0;
	bcf	(56/8),(56)&7
	line	28
	
l1777:	
;PRG.C: 28: RC1=0;
	bcf	(57/8),(57)&7
	line	29
	
l1779:	
;PRG.C: 29: RC2=1;
	bsf	(58/8),(58)&7
	line	30
	
l1781:	
;PRG.C: 30: delay(100);
	movlw	low(064h)
	movwf	(?_delay)
	movlw	high(064h)
	movwf	((?_delay))+1
	fcall	_delay
	line	31
	
l1783:	
;PRG.C: 31: RC2=0;
	bcf	status, 5	;RP0=0, select bank0
	bcf	status, 6	;RP1=0, select bank0
	bcf	(58/8),(58)&7
	line	32
	
l571:	
	return
	opt stack 0
GLOBAL	__end_of_lcd_command
	__end_of_lcd_command:
;; =============== function _lcd_command ends ============

	signat	_lcd_command,4216
	global	_delay
psect	text108,local,class=CODE,delta=2
global __ptext108
__ptext108:

;; *************** function _delay *****************
;; Defined at:
;;		line 21 in file "D:\Madhu\madhu pic folder\keypad\TEST KEY\PRG.C"
;; Parameters:    Size  Location     Type
;;  x               2    0[COMMON] unsigned int 
;; Auto vars:     Size  Location     Type
;;		None
;; Return value:  Size  Location     Type
;;		None               void
;; Registers used:
;;		wreg
;; Tracked objects:
;;		On entry : 0/0
;;		On exit  : 0/0
;;		Unchanged: 0/0
;; Data sizes:     COMMON   BANK0   BANK1   BANK3   BANK2
;;      Params:         2       0       0       0       0
;;      Locals:         0       0       0       0       0
;;      Temps:          0       0       0       0       0
;;      Totals:         2       0       0       0       0
;;Total ram usage:        2 bytes
;; Hardware stack levels used:    1
;; This function calls:
;;		Nothing
;; This function is called by:
;;		_lcd_command
;;		_lcd_data
;;		_password
;;		_main
;; This function uses a non-reentrant model
;;
psect	text108
	file	"D:\Madhu\madhu pic folder\keypad\TEST KEY\PRG.C"
	line	21
	global	__size_of_delay
	__size_of_delay	equ	__end_of_delay-_delay
	
_delay:	
	opt	stack 6
; Regs used in _delay: [wreg]
	line	22
	
l983:	
;PRG.C: 22: while(x--);
	goto	l565
	
l566:	
	
l565:	
	
l985:	
	movlw	low(01h)
	subwf	(delay@x),f
	movlw	high(01h)
	skipc
	decf	(delay@x+1),f
	subwf	(delay@x+1),f
	movlw	high(0FFFFh)
	xorwf	((delay@x+1)),w
	skipz
	goto	u15
	movlw	low(0FFFFh)
	xorwf	((delay@x)),w
u15:

	skipz
	goto	u11
	goto	u10
u11:
	goto	l566
u10:
	
l567:	
	line	23
	
l568:	
	return
	opt stack 0
GLOBAL	__end_of_delay
	__end_of_delay:
;; =============== function _delay ends ============

	signat	_delay,4216
psect	text109,local,class=CODE,delta=2
global __ptext109
__ptext109:
	global	btemp
	btemp set 07Eh

	DABS	1,126,2	;btemp
	global	wtemp0
	wtemp0 set btemp
	end
