

HI-TECH Software PIC LITE Macro Assembler V9.71a build 6446 
                                                                                               Fri Nov 25 18:52:20 2022

HI-TECH Software Omniscient Code Generator (Lite mode) build 6446
     1  0000                     opt subtitle "HI-TECH Software Omniscient Code Generator (Lite mode) build 6446"
     2                           
     3                           opt pagewidth 120
     4                           
     5                           	opt lm
     6                           
     7                           	processor	16F877A
     8                           clrc	macro
     9                           	bcf	3,0
    10  0000                     	endm
    11                           clrz	macro
    12                           	bcf	3,2
    13  0000                     	endm
    14                           setc	macro
    15                           	bsf	3,0
    16  0000                     	endm
    17                           setz	macro
    18                           	bsf	3,2
    19  0000                     	endm
    20                           skipc	macro
    21                           	btfss	3,0
    22  0000                     	endm
    23                           skipz	macro
    24                           	btfss	3,2
    25  0000                     	endm
    26                           skipnc	macro
    27                           	btfsc	3,0
    28  0000                     	endm
    29                           skipnz	macro
    30                           	btfsc	3,2
    31  0000                     	endm
    32  0000                     indf	equ	0
    33  0000                     indf0	equ	0
    34  0002                     pc	equ	2
    35  0002                     pcl	equ	2
    36  0003                     status	equ	3
    37  0004                     fsr	equ	4
    38  0004                     fsr0	equ	4
    39  0001                     c	equ	1
    40  0000                     z	equ	0
    41  000A                     pclath	equ	10
    42                           # 2 "C:\Users\ELCOT\Desktop\PIC Workouts\TASK\mam tack\tack.c"
    43                           	psect config,class=CONFIG,delta=2 ;#
    44                           # 2 "C:\Users\ELCOT\Desktop\PIC Workouts\TASK\mam tack\tack.c"
    45  2007  3F72               	dw 0X3F72 ;#
    46                           	FNCALL	_main,_lcd_init
    47                           	FNCALL	_main,_delay
    48                           	FNCALL	_main,_lcd_command
    49                           	FNCALL	_main,_lcd_display
    50                           	FNCALL	_main,___lwtoft
    51                           	FNCALL	_main,___ftdiv
    52                           	FNCALL	_main,___fttol
    53                           	FNCALL	_main,_ply
    54                           	FNCALL	_main,___lwdiv
    55                           	FNCALL	_main,___lwmod
    56                           	FNCALL	_main,___awdiv
    57                           	FNCALL	_main,___awmod
    58                           	FNCALL	_main,_lcd_data
    59                           	FNCALL	_ply,_lcd_command
    60                           	FNCALL	_ply,_lcd_display
    61                           	FNCALL	_ply,___lwdiv
    62                           	FNCALL	_ply,___lwmod
    63                           	FNCALL	_ply,___awdiv
    64                           	FNCALL	_ply,___awmod
    65                           	FNCALL	_ply,_lcd_data
    66                           	FNCALL	_ply,_delay
    67                           	FNCALL	_lcd_display,_lcd_data
    68                           	FNCALL	_lcd_init,_lcd_command
    69                           	FNCALL	___lwtoft,___ftpack
    70                           	FNCALL	___ftdiv,___ftpack
    71                           	FNCALL	_lcd_data,_delay
    72                           	FNCALL	_lcd_command,_delay
    73                           	FNROOT	_main
    74                           	global	_A
    75                           	global	_A1
    76                           	global	_a
    77                           	global	_a1
    78                           	global	_b
    79                           	global	_b1
    80                           	global	_c
    81                           	global	_c1
    82                           	global	_d
    83                           	global	_d1
    84                           	global	_e
    85                           	global	_e1
    86                           	global	_f
    87                           	global	_f1
    88                           	global	_temp
    89                           	global	_temp1
    90                           	global	_z
    91                           	global	_z1
    92                           	global	_ADCON0
    93                           psect	text290,local,class=CODE,delta=2
    94                           global __ptext290
    95  0000                     __ptext290:
    96  001F                     _ADCON0	set	31
    97                           	global	_ADRESH
    98  001E                     _ADRESH	set	30
    99                           	global	_PORTA
   100  0005                     _PORTA	set	5
   101                           	global	_PORTC
   102  0007                     _PORTC	set	7
   103                           	global	_PORTD
   104  0008                     _PORTD	set	8
   105                           	global	_ADON
   106  00F8                     _ADON	set	248
   107                           	global	_CHS0
   108  00FB                     _CHS0	set	251
   109                           	global	_CHS1
   110  00FC                     _CHS1	set	252
   111                           	global	_CHS2
   112  00FD                     _CHS2	set	253
   113                           	global	_RC0
   114  0038                     _RC0	set	56
   115                           	global	_RC1
   116  0039                     _RC1	set	57
   117                           	global	_RC2
   118  003A                     _RC2	set	58
   119                           	global	_RC6
   120  003E                     _RC6	set	62
   121                           	global	_RC7
   122  003F                     _RC7	set	63
   123                           	global	_ADCON1
   124  009F                     _ADCON1	set	159
   125                           	global	_ADRESL
   126  009E                     _ADRESL	set	158
   127                           	global	_TRISA
   128  0085                     _TRISA	set	133
   129                           	global	_TRISC
   130  0087                     _TRISC	set	135
   131                           	global	_TRISD
   132  0088                     _TRISD	set	136
   133                           psect	strings,class=STRING,delta=2
   134                           global __pstrings
   135  0003                     __pstrings:
   136                           ;	global	stringdir,stringtab,__stringbase
   137  0003                     stringtab:
   138                           ;	String table - string pointers are 1 byte each
   139  0003                     stringcode:stringdir:
      + 0003                     stringdir:	
   140  0003  3000               movlw high(stringdir)
   141  0004  008A               movwf pclath
   142  0005  0804               movf fsr,w
   143  0006  0A84               incf fsr
   144  0007  0782               	addwf pc
   145  0008                     __stringbase:
   146  0008  3400               	retlw	0
   147                           psect	strings
   148                           	
   149  0009                     STR_2:	
   150  0009  3457               	retlw	87	;'W'
   151  000A  3445               	retlw	69	;'E'
   152  000B  344C               	retlw	76	;'L'
   153  000C  3443               	retlw	67	;'C'
   154  000D  344F               	retlw	79	;'O'
   155  000E  344D               	retlw	77	;'M'
   156  000F  3445               	retlw	69	;'E'
   157  0010  3400               	retlw	0
   158                           psect	strings
   159                           	
   160  0011                     STR_3:	
   161  0011  346C               	retlw	108	;'l'
   162  0012  3420               	retlw	32	;' '
   163  0013  346F               	retlw	111	;'o'
   164  0014  3472               	retlw	114	;'r'
   165  0015  3420               	retlw	32	;' '
   166  0016  3472               	retlw	114	;'r'
   167  0017  3400               	retlw	0
   168                           psect	strings
   169                           	
   170  0018                     STR_1:	
   171  0018  345A               	retlw	90	;'Z'
   172  0019  3400               	retlw	0
   173                           psect	strings
   174                           	file	"tack.as"
   175                           	line	#
   176                           psect cinit,class=CODE,delta=2
   177                           global start_initialization
   178  00B6                     start_initialization:
   179                           
   180                           psect	bssBANK0,class=BANK0,space=1
   181                           global __pbssBANK0
   182  0020                     __pbssBANK0:
   183  0020                     _A:
   184  0020                            ds      2
   185                           
   186  0022                     _A1:
   187  0022                            ds      2
   188                           
   189  0024                     _a:
   190  0024                            ds      2
   191                           
   192  0026                     _a1:
   193  0026                            ds      2
   194                           
   195  0028                     _b:
   196  0028                            ds      2
   197                           
   198  002A                     _b1:
   199  002A                            ds      2
   200                           
   201  002C                     _c:
   202  002C                            ds      2
   203                           
   204  002E                     _c1:
   205  002E                            ds      2
   206                           
   207  0030                     _d:
   208  0030                            ds      2
   209                           
   210  0032                     _d1:
   211  0032                            ds      2
   212                           
   213  0034                     _e:
   214  0034                            ds      2
   215                           
   216  0036                     _e1:
   217  0036                            ds      2
   218                           
   219  0038                     _f:
   220  0038                            ds      2
   221                           
   222  003A                     _f1:
   223  003A                            ds      2
   224                           
   225  003C                     _temp:
   226  003C                            ds      2
   227                           
   228  003E                     _temp1:
   229  003E                            ds      2
   230                           
   231  0040                     _z:
   232  0040                            ds      2
   233                           
   234  0042                     _z1:
   235  0042                            ds      2
   236                           
   237                           psect clrtext,class=CODE,delta=2
   238                           global clear_ram
   239                           ;	Called with FSR containing the base address, and
   240                           ;	W with the last address+1
   241  00AE                     clear_ram:
   242  00AE  0064               	clrwdt			;clear the watchdog before getting into this loop
   243  00AF                     clrloop:
   244  00AF  0180               	clrf	indf		;clear RAM location pointed to by FSR
   245  00B0  0A84               	incf	fsr,f		;increment pointer
   246  00B1  0604               	xorwf	fsr,w		;XOR with final address
   247  00B2  1903               	btfsc	status,2	;have we reached the end yet?
   248  00B3  3400               	retlw	0		;all done for this memory range, return
   249  00B4  0604               	xorwf	fsr,w		;XOR again to restore value
   250  00B5  28AF               	goto	clrloop		;do the next byte
   251                           
   252                           ; Clear objects allocated to BANK0
   253                           psect cinit,class=CODE,delta=2
   254  00B6  1383               	bcf	status, 7	;select IRP bank0
   255  00B7  3020               	movlw	low(__pbssBANK0)
   256  00B8  0084               	movwf	fsr
   257  00B9  3044               	movlw	low((__pbssBANK0)+024h)
   258  00BA  120A  118A  20AE   	fcall	clear_ram
              120A  118A         
   259                           psect cinit,class=CODE,delta=2
   260                           global end_of_initialization
   261                           
   262                           ;End of C runtime variable initialization code
   263                           
   264  00BF                     end_of_initialization:
   265  00BF  0183               clrf status
   266  00C0  120A  118A  2D75   ljmp _main	;jump to C main() function
   267                           psect	cstackCOMMON,class=COMMON,space=1
   268                           global __pcstackCOMMON
   269  0070                     __pcstackCOMMON:
   270                           	global	?_lcd_command
   271  0070                     ?_lcd_command:	; 0 bytes @ 0x0
   272                           	global	?_delay
   273  0070                     ?_delay:	; 0 bytes @ 0x0
   274                           	global	?_lcd_init
   275  0070                     ?_lcd_init:	; 0 bytes @ 0x0
   276                           	global	?_lcd_data
   277  0070                     ?_lcd_data:	; 0 bytes @ 0x0
   278                           	global	?_lcd_display
   279  0070                     ?_lcd_display:	; 0 bytes @ 0x0
   280                           	global	?_main
   281  0070                     ?_main:	; 2 bytes @ 0x0
   282                           	global	?___lwdiv
   283  0070                     ?___lwdiv:	; 2 bytes @ 0x0
   284                           	global	?___lwmod
   285  0070                     ?___lwmod:	; 2 bytes @ 0x0
   286                           	global	?___awdiv
   287  0070                     ?___awdiv:	; 2 bytes @ 0x0
   288                           	global	?___awmod
   289  0070                     ?___awmod:	; 2 bytes @ 0x0
   290                           	global	?___ftpack
   291  0070                     ?___ftpack:	; 3 bytes @ 0x0
   292                           	global	delay@x
   293  0070                     delay@x:	; 2 bytes @ 0x0
   294                           	global	___lwdiv@divisor
   295  0070                     ___lwdiv@divisor:	; 2 bytes @ 0x0
   296                           	global	___lwmod@divisor
   297  0070                     ___lwmod@divisor:	; 2 bytes @ 0x0
   298                           	global	___awdiv@divisor
   299  0070                     ___awdiv@divisor:	; 2 bytes @ 0x0
   300                           	global	___awmod@divisor
   301  0070                     ___awmod@divisor:	; 2 bytes @ 0x0
   302                           	global	___ftpack@arg
   303  0070                     ___ftpack@arg:	; 3 bytes @ 0x0
   304  0070                     	ds	2
   305                           	global	??_lcd_command
   306  0072                     ??_lcd_command:	; 0 bytes @ 0x2
   307                           	global	??_delay
   308  0072                     ??_delay:	; 0 bytes @ 0x2
   309                           	global	??_lcd_data
   310  0072                     ??_lcd_data:	; 0 bytes @ 0x2
   311                           	global	lcd_command@com
   312  0072                     lcd_command@com:	; 1 bytes @ 0x2
   313                           	global	lcd_data@data
   314  0072                     lcd_data@data:	; 1 bytes @ 0x2
   315                           	global	___lwdiv@dividend
   316  0072                     ___lwdiv@dividend:	; 2 bytes @ 0x2
   317                           	global	___lwmod@dividend
   318  0072                     ___lwmod@dividend:	; 2 bytes @ 0x2
   319                           	global	___awdiv@dividend
   320  0072                     ___awdiv@dividend:	; 2 bytes @ 0x2
   321                           	global	___awmod@dividend
   322  0072                     ___awmod@dividend:	; 2 bytes @ 0x2
   323  0072                     	ds	1
   324                           	global	??_lcd_init
   325  0073                     ??_lcd_init:	; 0 bytes @ 0x3
   326                           	global	??_lcd_display
   327  0073                     ??_lcd_display:	; 0 bytes @ 0x3
   328                           	global	lcd_display@m
   329  0073                     lcd_display@m:	; 1 bytes @ 0x3
   330                           	global	___ftpack@exp
   331  0073                     ___ftpack@exp:	; 1 bytes @ 0x3
   332  0073                     	ds	1
   333                           	global	??___lwdiv
   334  0074                     ??___lwdiv:	; 0 bytes @ 0x4
   335                           	global	??___lwmod
   336  0074                     ??___lwmod:	; 0 bytes @ 0x4
   337                           	global	??___awdiv
   338  0074                     ??___awdiv:	; 0 bytes @ 0x4
   339                           	global	??___awmod
   340  0074                     ??___awmod:	; 0 bytes @ 0x4
   341                           	global	___ftpack@sign
   342  0074                     ___ftpack@sign:	; 1 bytes @ 0x4
   343                           	global	lcd_display@a
   344  0074                     lcd_display@a:	; 2 bytes @ 0x4
   345  0074                     	ds	1
   346                           	global	??___ftpack
   347  0075                     ??___ftpack:	; 0 bytes @ 0x5
   348                           	global	___lwmod@counter
   349  0075                     ___lwmod@counter:	; 1 bytes @ 0x5
   350                           	global	___awdiv@counter
   351  0075                     ___awdiv@counter:	; 1 bytes @ 0x5
   352                           	global	___awmod@counter
   353  0075                     ___awmod@counter:	; 1 bytes @ 0x5
   354                           	global	___lwdiv@quotient
   355  0075                     ___lwdiv@quotient:	; 2 bytes @ 0x5
   356  0075                     	ds	1
   357                           	global	___awdiv@sign
   358  0076                     ___awdiv@sign:	; 1 bytes @ 0x6
   359                           	global	___awmod@sign
   360  0076                     ___awmod@sign:	; 1 bytes @ 0x6
   361  0076                     	ds	1
   362                           	global	___lwdiv@counter
   363  0077                     ___lwdiv@counter:	; 1 bytes @ 0x7
   364                           	global	___awdiv@quotient
   365  0077                     ___awdiv@quotient:	; 2 bytes @ 0x7
   366  0077                     	ds	1
   367                           	global	?___fttol
   368  0078                     ?___fttol:	; 4 bytes @ 0x8
   369                           	global	___fttol@f1
   370  0078                     ___fttol@f1:	; 3 bytes @ 0x8
   371  0078                     	ds	1
   372                           	global	?_ply
   373  0079                     ?_ply:	; 0 bytes @ 0x9
   374                           	global	ply@temp1
   375  0079                     ply@temp1:	; 2 bytes @ 0x9
   376  0079                     	ds	2
   377                           	global	??_ply
   378  007B                     ??_ply:	; 0 bytes @ 0xB
   379  007B                     	ds	1
   380                           	global	??___lwtoft
   381  007C                     ??___lwtoft:	; 0 bytes @ 0xC
   382  007C                     	ds	1
   383                           psect	cstackBANK0,class=BANK0,space=1
   384                           global __pcstackBANK0
   385  0044                     __pcstackBANK0:
   386                           	global	??___fttol
   387  0044                     ??___fttol:	; 0 bytes @ 0x0
   388  0044                     	ds	4
   389                           	global	___fttol@sign1
   390  0048                     ___fttol@sign1:	; 1 bytes @ 0x4
   391  0048                     	ds	1
   392                           	global	___fttol@lval
   393  0049                     ___fttol@lval:	; 4 bytes @ 0x5
   394  0049                     	ds	4
   395                           	global	___fttol@exp1
   396  004D                     ___fttol@exp1:	; 1 bytes @ 0x9
   397  004D                     	ds	1
   398                           	global	?___lwtoft
   399  004E                     ?___lwtoft:	; 3 bytes @ 0xA
   400                           	global	___lwtoft@c
   401  004E                     ___lwtoft@c:	; 2 bytes @ 0xA
   402  004E                     	ds	3
   403                           	global	?___ftdiv
   404  0051                     ?___ftdiv:	; 3 bytes @ 0xD
   405                           	global	___ftdiv@f2
   406  0051                     ___ftdiv@f2:	; 3 bytes @ 0xD
   407  0051                     	ds	3
   408                           	global	___ftdiv@f1
   409  0054                     ___ftdiv@f1:	; 3 bytes @ 0x10
   410  0054                     	ds	3
   411                           	global	??___ftdiv
   412  0057                     ??___ftdiv:	; 0 bytes @ 0x13
   413  0057                     	ds	4
   414                           	global	___ftdiv@cntr
   415  005B                     ___ftdiv@cntr:	; 1 bytes @ 0x17
   416  005B                     	ds	1
   417                           	global	___ftdiv@f3
   418  005C                     ___ftdiv@f3:	; 3 bytes @ 0x18
   419  005C                     	ds	3
   420                           	global	___ftdiv@exp
   421  005F                     ___ftdiv@exp:	; 1 bytes @ 0x1B
   422  005F                     	ds	1
   423                           	global	___ftdiv@sign
   424  0060                     ___ftdiv@sign:	; 1 bytes @ 0x1C
   425  0060                     	ds	1
   426                           	global	??_main
   427  0061                     ??_main:	; 0 bytes @ 0x1D
   428  0061                     	ds	2
   429 ;;Data sizes: Strings 17, constant 0, data 0, bss 36, persistent 0 stack 0
   430 ;;Auto spaces:   Size  Autos    Used
   431 ;; COMMON          14     13      13
   432 ;; BANK0           80     31      67
   433 ;; BANK1           80      0       0
   434 ;; BANK3           96      0       0
   435 ;; BANK2           96      0       0
   436                           
   437 ;;
   438 ;; Pointer list with targets:
   439                           
   440 ;; ?___ftpack	float  size(1) Largest target is 0
   441 ;;
   442 ;; ?___fttol	long  size(1) Largest target is 0
   443 ;;
   444 ;; ?___ftdiv	float  size(1) Largest target is 0
   445 ;;
   446 ;; ?___lwtoft	float  size(1) Largest target is 0
   447 ;;
   448 ;; ?___awmod	int  size(1) Largest target is 0
   449 ;;
   450 ;; ?___awdiv	int  size(1) Largest target is 0
   451 ;;
   452 ;; ?___lwmod	unsigned int  size(1) Largest target is 0
   453 ;;
   454 ;; ?___lwdiv	unsigned int  size(1) Largest target is 0
   455 ;;
   456 ;; lcd_display@m	PTR unsigned char  size(1) Largest target is 8
   457 ;;		 -> STR_3(CODE[7]), STR_2(CODE[8]), STR_1(CODE[2]), 
   458 ;;
   459                           
   460                           
   461 ;;
   462 ;; Critical Paths under _main in COMMON
   463 ;;
   464 ;;   _main->___lwtoft
   465 ;;   _ply->___awdiv
   466 ;;   _lcd_display->_lcd_data
   467 ;;   _lcd_init->_lcd_command
   468 ;;   ___lwtoft->___fttol
   469 ;;   ___ftdiv->___lwtoft
   470 ;;   _lcd_data->_delay
   471 ;;   _lcd_command->_delay
   472 ;;   ___fttol->___ftpack
   473 ;;
   474 ;; Critical Paths under _main in BANK0
   475 ;;
   476 ;;   _main->___ftdiv
   477 ;;   ___lwtoft->___fttol
   478 ;;   ___ftdiv->___lwtoft
   479 ;;
   480 ;; Critical Paths under _main in BANK1
   481 ;;
   482 ;;   None.
   483 ;;
   484 ;; Critical Paths under _main in BANK3
   485 ;;
   486 ;;   None.
   487 ;;
   488 ;; Critical Paths under _main in BANK2
   489 ;;
   490 ;;   None.
   491                           
   492 ;;
   493 ;;Main: autosize = 0, tempsize = 2, incstack = 0, save=0
   494 ;;
   495                           
   496 ;;
   497 ;;Call Graph Tables:
   498 ;;
   499 ;; ---------------------------------------------------------------------------------
   500 ;; (Depth) Function   	        Calls       Base Space   Used Autos Params    Refs
   501 ;; ---------------------------------------------------------------------------------
   502 ;; (0) _main                                                 2     2      0    3382
   503 ;;                                             29 BANK0      2     2      0
   504 ;;                           _lcd_init
   505 ;;                              _delay
   506 ;;                        _lcd_command
   507 ;;                        _lcd_display
   508 ;;                           ___lwtoft
   509 ;;                            ___ftdiv
   510 ;;                            ___fttol
   511 ;;                                _ply
   512 ;;                            ___lwdiv
   513 ;;                            ___lwmod
   514 ;;                            ___awdiv
   515 ;;                            ___awmod
   516 ;;                           _lcd_data
   517 ;; ---------------------------------------------------------------------------------
   518 ;; (1) _ply                                                  2     0      2    1205
   519 ;;                                              9 COMMON     2     0      2
   520 ;;                        _lcd_command
   521 ;;                        _lcd_display
   522 ;;                            ___lwdiv
   523 ;;                            ___lwmod
   524 ;;                            ___awdiv
   525 ;;                            ___awmod
   526 ;;                           _lcd_data
   527 ;;                              _delay
   528 ;; ---------------------------------------------------------------------------------
   529 ;; (2) _lcd_display                                          3     3      0     134
   530 ;;                                              3 COMMON     3     3      0
   531 ;;                           _lcd_data
   532 ;; ---------------------------------------------------------------------------------
   533 ;; (1) _lcd_init                                             0     0      0      44
   534 ;;                        _lcd_command
   535 ;; ---------------------------------------------------------------------------------
   536 ;; (1) ___lwtoft                                             4     1      3     231
   537 ;;                                             12 COMMON     1     1      0
   538 ;;                                             10 BANK0      3     0      3
   539 ;;                           ___ftpack
   540 ;;                            ___fttol (ARG)
   541 ;; ---------------------------------------------------------------------------------
   542 ;; (1) ___ftdiv                                             16    10      6     489
   543 ;;                                             13 BANK0     16    10      6
   544 ;;                           ___ftpack
   545 ;;                           ___lwtoft (ARG)
   546 ;;                            ___fttol (ARG)
   547 ;; ---------------------------------------------------------------------------------
   548 ;; (1) _lcd_data                                             1     1      0      44
   549 ;;                                              2 COMMON     1     1      0
   550 ;;                              _delay
   551 ;; ---------------------------------------------------------------------------------
   552 ;; (2) _lcd_command                                          1     1      0      44
   553 ;;                                              2 COMMON     1     1      0
   554 ;;                              _delay
   555 ;; ---------------------------------------------------------------------------------
   556 ;; (1) ___awmod                                              7     3      4     296
   557 ;;                                              0 COMMON     7     3      4
   558 ;; ---------------------------------------------------------------------------------
   559 ;; (1) ___awdiv                                              9     5      4     300
   560 ;;                                              0 COMMON     9     5      4
   561 ;; ---------------------------------------------------------------------------------
   562 ;; (1) ___fttol                                             14    10      4     252
   563 ;;                                              8 COMMON     4     0      4
   564 ;;                                              0 BANK0     10    10      0
   565 ;;                           ___ftpack (ARG)
   566 ;; ---------------------------------------------------------------------------------
   567 ;; (2) ___ftpack                                             8     3      5     209
   568 ;;                                              0 COMMON     8     3      5
   569 ;; ---------------------------------------------------------------------------------
   570 ;; (1) ___lwmod                                              6     2      4     159
   571 ;;                                              0 COMMON     6     2      4
   572 ;; ---------------------------------------------------------------------------------
   573 ;; (1) ___lwdiv                                              8     4      4     162
   574 ;;                                              0 COMMON     8     4      4
   575 ;; ---------------------------------------------------------------------------------
   576 ;; (2) _delay                                                2     0      2      22
   577 ;;                                              0 COMMON     2     0      2
   578 ;; ---------------------------------------------------------------------------------
   579 ;; Estimated maximum stack depth 2
   580 ;; ---------------------------------------------------------------------------------
   581                           
   582 ;; Call Graph Graphs:
   583                           
   584 ;; _main (ROOT)
   585 ;;   _lcd_init
   586 ;;     _lcd_command
   587 ;;       _delay
   588 ;;   _delay
   589 ;;   _lcd_command
   590 ;;     _delay
   591 ;;   _lcd_display
   592 ;;     _lcd_data
   593 ;;       _delay
   594 ;;   ___lwtoft
   595 ;;     ___ftpack
   596 ;;     ___fttol (ARG)
   597 ;;       ___ftpack (ARG)
   598 ;;   ___ftdiv
   599 ;;     ___ftpack
   600 ;;     ___lwtoft (ARG)
   601 ;;       ___ftpack
   602 ;;       ___fttol (ARG)
   603 ;;         ___ftpack (ARG)
   604 ;;     ___fttol (ARG)
   605 ;;       ___ftpack (ARG)
   606 ;;   ___fttol
   607 ;;     ___ftpack (ARG)
   608 ;;   _ply
   609 ;;     _lcd_command
   610 ;;       _delay
   611 ;;     _lcd_display
   612 ;;       _lcd_data
   613 ;;         _delay
   614 ;;     ___lwdiv
   615 ;;     ___lwmod
   616 ;;     ___awdiv
   617 ;;     ___awmod
   618 ;;     _lcd_data
   619 ;;       _delay
   620 ;;     _delay
   621 ;;   ___lwdiv
   622 ;;   ___lwmod
   623 ;;   ___awdiv
   624 ;;   ___awmod
   625 ;;   _lcd_data
   626 ;;     _delay
   627 ;;
   628                           
   629 ;; Address spaces:
   630                           
   631 ;;Name               Size   Autos  Total    Cost      Usage
   632 ;;BITCOMMON            E      0       0       0        0.0%
   633 ;;EEDATA             100      0       0       0        0.0%
   634 ;;NULL                 0      0       0       0        0.0%
   635 ;;CODE                 0      0       0       0        0.0%
   636 ;;COMMON               E      D       D       1       92.9%
   637 ;;BITSFR0              0      0       0       1        0.0%
   638 ;;SFR0                 0      0       0       1        0.0%
   639 ;;BITSFR1              0      0       0       2        0.0%
   640 ;;SFR1                 0      0       0       2        0.0%
   641 ;;STACK                0      0       4       2        0.0%
   642 ;;ABS                  0      0      50       3        0.0%
   643 ;;BITBANK0            50      0       0       4        0.0%
   644 ;;BITSFR3              0      0       0       4        0.0%
   645 ;;SFR3                 0      0       0       4        0.0%
   646 ;;BANK0               50     1F      43       5       83.8%
   647 ;;BITSFR2              0      0       0       5        0.0%
   648 ;;SFR2                 0      0       0       5        0.0%
   649 ;;BITBANK1            50      0       0       6        0.0%
   650 ;;BANK1               50      0       0       7        0.0%
   651 ;;BITBANK3            60      0       0       8        0.0%
   652 ;;BANK3               60      0       0       9        0.0%
   653 ;;BITBANK2            60      0       0      10        0.0%
   654 ;;BANK2               60      0       0      11        0.0%
   655 ;;DATA                 0      0      54      12        0.0%
   656                           
   657                           	global	_main
   658                           psect	maintext,global,class=CODE,delta=2
   659                           global __pmaintext
   660  0575                     __pmaintext:
   661                           
   662 ;; *************** function _main *****************
   663 ;; Defined at:
   664 ;;		line 82 in file "C:\Users\ELCOT\Desktop\PIC Workouts\TASK\mam tack\tack.c"
   665 ;; Parameters:    Size  Location     Type
   666 ;;		None
   667 ;; Auto vars:     Size  Location     Type
   668 ;;		None
   669 ;; Return value:  Size  Location     Type
   670 ;;                  2  620[COMMON] int 
   671 ;; Registers used:
   672 ;;		wreg, fsr0l, fsr0h, status,2, status,0, btemp+0, pclath, cstack
   673 ;; Tracked objects:
   674 ;;		On entry : 17F/0
   675 ;;		On exit  : 0/0
   676 ;;		Unchanged: 0/0
   677 ;; Data sizes:     COMMON   BANK0   BANK1   BANK3   BANK2
   678 ;;      Params:         0       0       0       0       0
   679 ;;      Locals:         0       0       0       0       0
   680 ;;      Temps:          0       2       0       0       0
   681 ;;      Totals:         0       2       0       0       0
   682 ;;Total ram usage:        2 bytes
   683 ;; Hardware stack levels required when called:    4
   684 ;; This function calls:
   685 ;;		_lcd_init
   686 ;;		_delay
   687 ;;		_lcd_command
   688 ;;		_lcd_display
   689 ;;		___lwtoft
   690 ;;		___ftdiv
   691 ;;		___fttol
   692 ;;		_ply
   693 ;;		___lwdiv
   694 ;;		___lwmod
   695 ;;		___awdiv
   696 ;;		___awmod
   697 ;;		_lcd_data
   698 ;; This function is called by:
   699 ;;		Startup code after reset
   700 ;; This function uses a non-reentrant model
   701 ;;
   702                           psect	maintext
   703                           	file	"C:\Users\ELCOT\Desktop\PIC Workouts\TASK\mam tack\tack.c"
   704                           	line	82
   705                           	global	__size_of_main
   706  028B                     	__size_of_main	equ	__end_of_main-_main
   707                           	
   708  0575                     _main:	
   709                           	opt	stack 8
   710                           ; Regs used in _main: [wreg-fsr0h+status,2-btemp+0+pclath+cstack]
   711                           	line	83
   712                           	
   713  0575                     l2758:	
   714                           ;tack.c: 83: TRISD=0X00;
   715  0575  1683               	bsf	status, 5	;RP0=1, select bank1
   716  0576  1303               	bcf	status, 6	;RP1=0, select bank1
   717  0577  0188               	clrf	(136)^080h	;volatile
   718                           	line	84
   719                           ;tack.c: 84: PORTD=0X00;
   720  0578  1283               	bcf	status, 5	;RP0=0, select bank0
   721  0579  1303               	bcf	status, 6	;RP1=0, select bank0
   722  057A  0188               	clrf	(8)	;volatile
   723                           	line	86
   724                           	
   725  057B                     l2760:	
   726                           ;tack.c: 86: TRISA=0x03;
   727  057B  3003               	movlw	(03h)
   728  057C  1683               	bsf	status, 5	;RP0=1, select bank1
   729  057D  1303               	bcf	status, 6	;RP1=0, select bank1
   730  057E  0085               	movwf	(133)^080h	;volatile
   731                           	line	87
   732                           	
   733  057F                     l2762:	
   734                           ;tack.c: 87: PORTA=0x00;
   735  057F  1283               	bcf	status, 5	;RP0=0, select bank0
   736  0580  1303               	bcf	status, 6	;RP1=0, select bank0
   737  0581  0185               	clrf	(5)	;volatile
   738                           	line	90
   739                           	
   740  0582                     l2764:	
   741                           ;tack.c: 90: TRISC=0X00;
   742  0582  1683               	bsf	status, 5	;RP0=1, select bank1
   743  0583  1303               	bcf	status, 6	;RP1=0, select bank1
   744  0584  0187               	clrf	(135)^080h	;volatile
   745                           	line	91
   746                           	
   747  0585                     l2766:	
   748                           ;tack.c: 91: PORTC=0X00;
   749  0585  1283               	bcf	status, 5	;RP0=0, select bank0
   750  0586  1303               	bcf	status, 6	;RP1=0, select bank0
   751  0587  0187               	clrf	(7)	;volatile
   752                           	line	94
   753                           ;tack.c: 94: ADCON1=0X80;
   754  0588  3080               	movlw	(080h)
   755  0589  1683               	bsf	status, 5	;RP0=1, select bank1
   756  058A  1303               	bcf	status, 6	;RP1=0, select bank1
   757  058B  009F               	movwf	(159)^080h	;volatile
   758                           	line	95
   759                           ;tack.c: 95: ADCON0=0X40;
   760  058C  3040               	movlw	(040h)
   761  058D  1283               	bcf	status, 5	;RP0=0, select bank0
   762  058E  1303               	bcf	status, 6	;RP1=0, select bank0
   763  058F  009F               	movwf	(31)	;volatile
   764                           	line	97
   765                           	
   766  0590                     l2768:	
   767                           ;tack.c: 97: lcd_init();
   768  0590  120A  118A  211D   	fcall	_lcd_init
              120A  118A         
   769                           	line	98
   770                           	
   771  0595                     l2770:	
   772                           ;tack.c: 98: delay(100);
   773  0595  3064               	movlw	low(064h)
   774  0596  00F0               	movwf	(?_delay)
   775  0597  3000               	movlw	high(064h)
   776  0598  00F1               	movwf	((?_delay))+1
   777  0599  120A  118A  20C3   	fcall	_delay
              120A  118A         
   778                           	line	100
   779                           	
   780  059E                     l2772:	
   781                           ;tack.c: 100: lcd_command(0X84);
   782  059E  3084               	movlw	(084h)
   783  059F  120A  118A  20D5   	fcall	_lcd_command
              120A  118A         
   784                           	line	101
   785                           	
   786  05A4                     l2774:	
   787                           ;tack.c: 101: lcd_display("WELCOME");
   788  05A4  3001               	movlw	((STR_2-__stringbase))&0ffh
   789  05A5  120A  118A  2142   	fcall	_lcd_display
              120A  118A         
   790                           	line	102
   791                           	
   792  05AA                     l2776:	
   793                           ;tack.c: 102: delay(50000);delay(50000);
   794  05AA  3050               	movlw	low(0C350h)
   795  05AB  00F0               	movwf	(?_delay)
   796  05AC  30C3               	movlw	high(0C350h)
   797  05AD  00F1               	movwf	((?_delay))+1
   798  05AE  120A  118A  20C3   	fcall	_delay
              120A  118A         
   799                           	
   800  05B3                     l2778:	
   801  05B3  3050               	movlw	low(0C350h)
   802  05B4  00F0               	movwf	(?_delay)
   803  05B5  30C3               	movlw	high(0C350h)
   804  05B6  00F1               	movwf	((?_delay))+1
   805  05B7  120A  118A  20C3   	fcall	_delay
              120A  118A         
   806                           	line	103
   807                           	
   808  05BC                     l2780:	
   809                           ;tack.c: 103: delay(50000);
   810  05BC  3050               	movlw	low(0C350h)
   811  05BD  00F0               	movwf	(?_delay)
   812  05BE  30C3               	movlw	high(0C350h)
   813  05BF  00F1               	movwf	((?_delay))+1
   814  05C0  120A  118A  20C3   	fcall	_delay
              120A  118A         
   815                           	line	104
   816                           	
   817  05C5                     l2782:	
   818                           ;tack.c: 104: lcd_command(0X01);
   819  05C5  3001               	movlw	(01h)
   820  05C6  120A  118A  20D5   	fcall	_lcd_command
              120A  118A         
   821                           	line	108
   822                           ;tack.c: 108: while(1)
   823                           	
   824  05CB                     l621:	
   825                           	line	111
   826                           	
   827  05CB                     l2784:	
   828                           ;tack.c: 109: {
   829                           ;tack.c: 111: CHS2=0;
   830  05CB  1283               	bcf	status, 5	;RP0=0, select bank0
   831  05CC  1303               	bcf	status, 6	;RP1=0, select bank0
   832  05CD  129F               	bcf	(253/8),(253)&7
   833                           	line	112
   834                           	
   835  05CE                     l2786:	
   836                           ;tack.c: 112: CHS1=0;
   837  05CE  121F               	bcf	(252/8),(252)&7
   838                           	line	113
   839                           	
   840  05CF                     l2788:	
   841                           ;tack.c: 113: CHS0=0;
   842  05CF  119F               	bcf	(251/8),(251)&7
   843                           	line	114
   844                           	
   845  05D0                     l2790:	
   846                           ;tack.c: 114: ADON=1;
   847  05D0  141F               	bsf	(248/8),(248)&7
   848                           	line	116
   849                           	
   850  05D1                     l2792:	
   851                           ;tack.c: 116: delay(600);
   852  05D1  3058               	movlw	low(0258h)
   853  05D2  00F0               	movwf	(?_delay)
   854  05D3  3002               	movlw	high(0258h)
   855  05D4  00F1               	movwf	((?_delay))+1
   856  05D5  120A  118A  20C3   	fcall	_delay
              120A  118A         
   857                           	line	117
   858                           	
   859  05DA                     l2794:	
   860                           ;tack.c: 117: ADCON0=(ADCON0|0X04);
   861  05DA  1283               	bcf	status, 5	;RP0=0, select bank0
   862  05DB  1303               	bcf	status, 6	;RP1=0, select bank0
   863  05DC  081F               	movf	(31),w	;volatile
   864  05DD  3804               	iorlw	04h
   865  05DE  009F               	movwf	(31)	;volatile
   866                           	line	118
   867                           	
   868  05DF                     l2796:	
   869                           ;tack.c: 118: delay(600);
   870  05DF  3058               	movlw	low(0258h)
   871  05E0  00F0               	movwf	(?_delay)
   872  05E1  3002               	movlw	high(0258h)
   873  05E2  00F1               	movwf	((?_delay))+1
   874  05E3  120A  118A  20C3   	fcall	_delay
              120A  118A         
   875                           	line	119
   876                           	
   877  05E8                     l2798:	
   878                           ;tack.c: 119: temp=ADRESH<<8;
   879  05E8  1283               	bcf	status, 5	;RP0=0, select bank0
   880  05E9  1303               	bcf	status, 6	;RP1=0, select bank0
   881  05EA  081E               	movf	(30),w	;volatile
   882  05EB  00E1               	movwf	(??_main+0)+0
   883  05EC  01E2               	clrf	(??_main+0)+0+1
   884  05ED  3008               	movlw	08h
   885  05EE  00FE               	movwf	btemp+0
   886  05EF                     u3315:
   887  05EF  1003               	clrc
   888  05F0  0DE1               	rlf	(??_main+0)+0,f
   889  05F1  0DE2               	rlf	(??_main+0)+1,f
   890  05F2  0BFE               	decfsz	btemp+0,f
   891  05F3  2DEF               	goto	u3315
   892  05F4  0861               	movf	0+(??_main+0)+0,w
   893  05F5  00BC               	movwf	(_temp)
   894  05F6  0862               	movf	1+(??_main+0)+0,w
   895  05F7  00BD               	movwf	(_temp+1)
   896                           	line	121
   897                           	
   898  05F8                     l2800:	
   899                           ;tack.c: 121: delay(600);
   900  05F8  3058               	movlw	low(0258h)
   901  05F9  00F0               	movwf	(?_delay)
   902  05FA  3002               	movlw	high(0258h)
   903  05FB  00F1               	movwf	((?_delay))+1
   904  05FC  120A  118A  20C3   	fcall	_delay
              120A  118A         
   905                           	line	122
   906                           	
   907  0601                     l2802:	
   908                           ;tack.c: 122: temp=(temp+ADRESL);
   909  0601  1683               	bsf	status, 5	;RP0=1, select bank1
   910  0602  1303               	bcf	status, 6	;RP1=0, select bank1
   911  0603  081E               	movf	(158)^080h,w	;volatile
   912  0604  1283               	bcf	status, 5	;RP0=0, select bank0
   913  0605  1303               	bcf	status, 6	;RP1=0, select bank0
   914  0606  073C               	addwf	(_temp),w
   915  0607  00BC               	movwf	(_temp)
   916  0608  083D               	movf	(_temp+1),w
   917  0609  1803               	skipnc
   918  060A  0A3D               	incf	(_temp+1),w
   919  060B  00BD               	movwf	((_temp))+1
   920                           	line	123
   921                           	
   922  060C                     l2804:	
   923                           ;tack.c: 123: delay(600);
   924  060C  3058               	movlw	low(0258h)
   925  060D  00F0               	movwf	(?_delay)
   926  060E  3002               	movlw	high(0258h)
   927  060F  00F1               	movwf	((?_delay))+1
   928  0610  120A  118A  20C3   	fcall	_delay
              120A  118A         
   929                           	line	124
   930                           	
   931  0615                     l2806:	
   932                           ;tack.c: 124: temp=temp/2.045;
   933  0615  1283               	bcf	status, 5	;RP0=0, select bank0
   934  0616  1303               	bcf	status, 6	;RP1=0, select bank0
   935  0617  083D               	movf	(_temp+1),w
   936  0618  01CF               	clrf	(?___lwtoft+1)
   937  0619  07CF               	addwf	(?___lwtoft+1)
   938  061A  083C               	movf	(_temp),w
   939  061B  01CE               	clrf	(?___lwtoft)
   940  061C  07CE               	addwf	(?___lwtoft)
   941                           
   942  061D  120A  118A  20FF   	fcall	___lwtoft
              120A  118A         
   943  0622  1283               	bcf	status, 5	;RP0=0, select bank0
   944  0623  1303               	bcf	status, 6	;RP1=0, select bank0
   945  0624  084E               	movf	(0+(?___lwtoft)),w
   946  0625  00D4               	movwf	0+(?___ftdiv)+03h
   947  0626  084F               	movf	(1+(?___lwtoft)),w
   948  0627  00D5               	movwf	1+(?___ftdiv)+03h
   949  0628  0850               	movf	(2+(?___lwtoft)),w
   950  0629  00D6               	movwf	2+(?___ftdiv)+03h
   951  062A  30E1               	movlw	0xe1
   952  062B  00D1               	movwf	(?___ftdiv)
   953  062C  3002               	movlw	0x2
   954  062D  00D2               	movwf	(?___ftdiv+1)
   955  062E  3040               	movlw	0x40
   956  062F  00D3               	movwf	(?___ftdiv+2)
   957  0630  120A  118A  23D0   	fcall	___ftdiv
              120A  118A         
   958  0635  1283               	bcf	status, 5	;RP0=0, select bank0
   959  0636  1303               	bcf	status, 6	;RP1=0, select bank0
   960  0637  0851               	movf	(0+(?___ftdiv)),w
   961  0638  00F8               	movwf	(?___fttol)
   962  0639  0852               	movf	(1+(?___ftdiv)),w
   963  063A  00F9               	movwf	(?___fttol+1)
   964  063B  0853               	movf	(2+(?___ftdiv)),w
   965  063C  00FA               	movwf	(?___fttol+2)
   966  063D  120A  118A  2334   	fcall	___fttol
              120A  118A         
   967  0642  0879               	movf	1+(((0+(?___fttol)))),w
   968  0643  1283               	bcf	status, 5	;RP0=0, select bank0
   969  0644  1303               	bcf	status, 6	;RP1=0, select bank0
   970  0645  01BD               	clrf	(_temp+1)
   971  0646  07BD               	addwf	(_temp+1)
   972  0647  0878               	movf	0+(((0+(?___fttol)))),w
   973  0648  01BC               	clrf	(_temp)
   974  0649  07BC               	addwf	(_temp)
   975                           
   976                           	line	126
   977                           	
   978  064A                     l2808:	
   979                           ;tack.c: 126: if(temp==249)
   980  064A  30F9               	movlw	0F9h
   981  064B  063C               	xorwf	(_temp),w
   982  064C  043D               	iorwf	(_temp+1),w
   983  064D  1D03               	skipz
   984  064E  2E50               	goto	u3321
   985  064F  2E51               	goto	u3320
   986  0650                     u3321:
   987  0650  2E53               	goto	l622
   988  0651                     u3320:
   989                           	line	128
   990                           	
   991  0651                     l2810:	
   992                           ;tack.c: 127: {
   993                           ;tack.c: 128: RC6=0;
   994  0651  1307               	bcf	(62/8),(62)&7
   995                           	line	129
   996                           ;tack.c: 129: RC7=0;
   997  0652  1387               	bcf	(63/8),(63)&7
   998                           	line	130
   999                           	
  1000  0653                     l622:	
  1001                           	line	132
  1002                           	
  1003  0653                     l2812:	
  1004                           ;tack.c: 130: }
  1005                           ;tack.c: 132: if(temp<249)
  1006  0653  3000               	movlw	high(0F9h)
  1007  0654  023D               	subwf	(_temp+1),w
  1008  0655  30F9               	movlw	low(0F9h)
  1009  0656  1903               	skipnz
  1010  0657  023C               	subwf	(_temp),w
  1011  0658  1803               	skipnc
  1012  0659  2E5B               	goto	u3331
  1013  065A  2E5C               	goto	u3330
  1014  065B                     u3331:
  1015  065B  2EA9               	goto	l623
  1016  065C                     u3330:
  1017                           	line	134
  1018                           	
  1019  065C                     l2814:	
  1020                           ;tack.c: 133: {
  1021                           ;tack.c: 134: delay(1000);
  1022  065C  30E8               	movlw	low(03E8h)
  1023  065D  00F0               	movwf	(?_delay)
  1024  065E  3003               	movlw	high(03E8h)
  1025  065F  00F1               	movwf	((?_delay))+1
  1026  0660  120A  118A  20C3   	fcall	_delay
              120A  118A         
  1027                           	line	135
  1028                           	
  1029  0665                     l2816:	
  1030                           ;tack.c: 135: if(temp>z1)
  1031  0665  1283               	bcf	status, 5	;RP0=0, select bank0
  1032  0666  1303               	bcf	status, 6	;RP1=0, select bank0
  1033  0667  083D               	movf	(_temp+1),w
  1034  0668  0243               	subwf	(_z1+1),w
  1035  0669  1D03               	skipz
  1036  066A  2E6D               	goto	u3345
  1037  066B  083C               	movf	(_temp),w
  1038  066C  0242               	subwf	(_z1),w
  1039  066D                     u3345:
  1040  066D  1803               	skipnc
  1041  066E  2E70               	goto	u3341
  1042  066F  2E71               	goto	u3340
  1043  0670                     u3341:
  1044  0670  2E86               	goto	l624
  1045  0671                     u3340:
  1046                           	line	137
  1047                           	
  1048  0671                     l2818:	
  1049                           ;tack.c: 136: {
  1050                           ;tack.c: 137: RC6=0;
  1051  0671  1307               	bcf	(62/8),(62)&7
  1052                           	line	138
  1053                           ;tack.c: 138: RC7=1;
  1054  0672  1787               	bsf	(63/8),(63)&7
  1055                           	line	139
  1056                           	
  1057  0673                     l2820:	
  1058                           ;tack.c: 139: delay(50000);delay(50000);
  1059  0673  3050               	movlw	low(0C350h)
  1060  0674  00F0               	movwf	(?_delay)
  1061  0675  30C3               	movlw	high(0C350h)
  1062  0676  00F1               	movwf	((?_delay))+1
  1063  0677  120A  118A  20C3   	fcall	_delay
              120A  118A         
  1064  067C  3050               	movlw	low(0C350h)
  1065  067D  00F0               	movwf	(?_delay)
  1066  067E  30C3               	movlw	high(0C350h)
  1067  067F  00F1               	movwf	((?_delay))+1
  1068  0680  120A  118A  20C3   	fcall	_delay
              120A  118A         
  1069                           	line	140
  1070                           ;tack.c: 140: }
  1071  0685  2E93               	goto	l625
  1072                           	line	142
  1073                           	
  1074  0686                     l624:	
  1075                           	line	144
  1076                           ;tack.c: 142: else
  1077                           ;tack.c: 143: {
  1078                           ;tack.c: 144: RC6=1;
  1079  0686  1283               	bcf	status, 5	;RP0=0, select bank0
  1080  0687  1303               	bcf	status, 6	;RP1=0, select bank0
  1081  0688  1707               	bsf	(62/8),(62)&7
  1082                           	line	145
  1083                           ;tack.c: 145: RC7=0;
  1084  0689  1387               	bcf	(63/8),(63)&7
  1085                           	line	146
  1086                           	
  1087  068A                     l2822:	
  1088                           ;tack.c: 146: delay(600);
  1089  068A  3058               	movlw	low(0258h)
  1090  068B  00F0               	movwf	(?_delay)
  1091  068C  3002               	movlw	high(0258h)
  1092  068D  00F1               	movwf	((?_delay))+1
  1093  068E  120A  118A  20C3   	fcall	_delay
              120A  118A         
  1094                           	line	147
  1095                           	
  1096  0693                     l625:	
  1097                           	line	148
  1098                           	
  1099  0693                     l2824:	
  1100                           ;tack.c: 147: }
  1101                           ;tack.c: 148: ply(z1);
  1102  0693  1283               	bcf	status, 5	;RP0=0, select bank0
  1103  0694  1303               	bcf	status, 6	;RP1=0, select bank0
  1104  0695  0843               	movf	(_z1+1),w
  1105  0696  01FA               	clrf	(?_ply+1)
  1106  0697  07FA               	addwf	(?_ply+1)
  1107  0698  0842               	movf	(_z1),w
  1108  0699  01F9               	clrf	(?_ply)
  1109  069A  07F9               	addwf	(?_ply)
  1110                           
  1111  069B  120A  118A  2492   	fcall	_ply
              120A  118A         
  1112                           	line	149
  1113                           	
  1114  06A0                     l2826:	
  1115                           ;tack.c: 149: delay(600);
  1116  06A0  3058               	movlw	low(0258h)
  1117  06A1  00F0               	movwf	(?_delay)
  1118  06A2  3002               	movlw	high(0258h)
  1119  06A3  00F1               	movwf	((?_delay))+1
  1120  06A4  120A  118A  20C3   	fcall	_delay
              120A  118A         
  1121                           	line	150
  1122                           	
  1123  06A9                     l623:	
  1124                           	line	151
  1125                           	
  1126  06A9                     l2828:	
  1127                           ;tack.c: 150: }
  1128                           ;tack.c: 151: z1=temp;
  1129  06A9  1283               	bcf	status, 5	;RP0=0, select bank0
  1130  06AA  1303               	bcf	status, 6	;RP1=0, select bank0
  1131  06AB  083D               	movf	(_temp+1),w
  1132  06AC  01C3               	clrf	(_z1+1)
  1133  06AD  07C3               	addwf	(_z1+1)
  1134  06AE  083C               	movf	(_temp),w
  1135  06AF  01C2               	clrf	(_z1)
  1136  06B0  07C2               	addwf	(_z1)
  1137                           
  1138                           	line	154
  1139                           	
  1140  06B1                     l2830:	
  1141                           ;tack.c: 154: if(temp>249)
  1142  06B1  3000               	movlw	high(0FAh)
  1143  06B2  023D               	subwf	(_temp+1),w
  1144  06B3  30FA               	movlw	low(0FAh)
  1145  06B4  1903               	skipnz
  1146  06B5  023C               	subwf	(_temp),w
  1147  06B6  1C03               	skipc
  1148  06B7  2EB9               	goto	u3351
  1149  06B8  2EBA               	goto	u3350
  1150  06B9                     u3351:
  1151  06B9  2F07               	goto	l626
  1152  06BA                     u3350:
  1153                           	line	156
  1154                           	
  1155  06BA                     l2832:	
  1156                           ;tack.c: 155: {
  1157                           ;tack.c: 156: delay(1000);
  1158  06BA  30E8               	movlw	low(03E8h)
  1159  06BB  00F0               	movwf	(?_delay)
  1160  06BC  3003               	movlw	high(03E8h)
  1161  06BD  00F1               	movwf	((?_delay))+1
  1162  06BE  120A  118A  20C3   	fcall	_delay
              120A  118A         
  1163                           	line	157
  1164                           	
  1165  06C3                     l2834:	
  1166                           ;tack.c: 157: if(temp<z)
  1167  06C3  1283               	bcf	status, 5	;RP0=0, select bank0
  1168  06C4  1303               	bcf	status, 6	;RP1=0, select bank0
  1169  06C5  0841               	movf	(_z+1),w
  1170  06C6  023D               	subwf	(_temp+1),w
  1171  06C7  1D03               	skipz
  1172  06C8  2ECB               	goto	u3365
  1173  06C9  0840               	movf	(_z),w
  1174  06CA  023C               	subwf	(_temp),w
  1175  06CB                     u3365:
  1176  06CB  1803               	skipnc
  1177  06CC  2ECE               	goto	u3361
  1178  06CD  2ECF               	goto	u3360
  1179  06CE                     u3361:
  1180  06CE  2EE4               	goto	l627
  1181  06CF                     u3360:
  1182                           	line	159
  1183                           	
  1184  06CF                     l2836:	
  1185                           ;tack.c: 158: {
  1186                           ;tack.c: 159: RC6=1;
  1187  06CF  1707               	bsf	(62/8),(62)&7
  1188                           	line	160
  1189                           ;tack.c: 160: RC7=0;
  1190  06D0  1387               	bcf	(63/8),(63)&7
  1191                           	line	161
  1192                           	
  1193  06D1                     l2838:	
  1194                           ;tack.c: 161: delay(50000);delay(50000);
  1195  06D1  3050               	movlw	low(0C350h)
  1196  06D2  00F0               	movwf	(?_delay)
  1197  06D3  30C3               	movlw	high(0C350h)
  1198  06D4  00F1               	movwf	((?_delay))+1
  1199  06D5  120A  118A  20C3   	fcall	_delay
              120A  118A         
  1200  06DA  3050               	movlw	low(0C350h)
  1201  06DB  00F0               	movwf	(?_delay)
  1202  06DC  30C3               	movlw	high(0C350h)
  1203  06DD  00F1               	movwf	((?_delay))+1
  1204  06DE  120A  118A  20C3   	fcall	_delay
              120A  118A         
  1205                           	line	162
  1206                           ;tack.c: 162: }
  1207  06E3  2EF1               	goto	l628
  1208                           	line	164
  1209                           	
  1210  06E4                     l627:	
  1211                           	line	166
  1212                           ;tack.c: 164: else
  1213                           ;tack.c: 165: {
  1214                           ;tack.c: 166: RC6=0;
  1215  06E4  1283               	bcf	status, 5	;RP0=0, select bank0
  1216  06E5  1303               	bcf	status, 6	;RP1=0, select bank0
  1217  06E6  1307               	bcf	(62/8),(62)&7
  1218                           	line	167
  1219                           ;tack.c: 167: RC7=1;
  1220  06E7  1787               	bsf	(63/8),(63)&7
  1221                           	line	168
  1222                           	
  1223  06E8                     l2840:	
  1224                           ;tack.c: 168: delay(600);
  1225  06E8  3058               	movlw	low(0258h)
  1226  06E9  00F0               	movwf	(?_delay)
  1227  06EA  3002               	movlw	high(0258h)
  1228  06EB  00F1               	movwf	((?_delay))+1
  1229  06EC  120A  118A  20C3   	fcall	_delay
              120A  118A         
  1230                           	line	169
  1231                           	
  1232  06F1                     l628:	
  1233                           	line	170
  1234                           	
  1235  06F1                     l2842:	
  1236                           ;tack.c: 169: }
  1237                           ;tack.c: 170: ply(z);
  1238  06F1  1283               	bcf	status, 5	;RP0=0, select bank0
  1239  06F2  1303               	bcf	status, 6	;RP1=0, select bank0
  1240  06F3  0841               	movf	(_z+1),w
  1241  06F4  01FA               	clrf	(?_ply+1)
  1242  06F5  07FA               	addwf	(?_ply+1)
  1243  06F6  0840               	movf	(_z),w
  1244  06F7  01F9               	clrf	(?_ply)
  1245  06F8  07F9               	addwf	(?_ply)
  1246                           
  1247  06F9  120A  118A  2492   	fcall	_ply
              120A  118A         
  1248                           	line	171
  1249                           	
  1250  06FE                     l2844:	
  1251                           ;tack.c: 171: delay(600);
  1252  06FE  3058               	movlw	low(0258h)
  1253  06FF  00F0               	movwf	(?_delay)
  1254  0700  3002               	movlw	high(0258h)
  1255  0701  00F1               	movwf	((?_delay))+1
  1256  0702  120A  118A  20C3   	fcall	_delay
              120A  118A         
  1257                           	line	172
  1258                           	
  1259  0707                     l626:	
  1260                           	line	173
  1261                           	
  1262  0707                     l2846:	
  1263                           ;tack.c: 172: }
  1264                           ;tack.c: 173: z=temp;
  1265  0707  1283               	bcf	status, 5	;RP0=0, select bank0
  1266  0708  1303               	bcf	status, 6	;RP1=0, select bank0
  1267  0709  083D               	movf	(_temp+1),w
  1268  070A  01C1               	clrf	(_z+1)
  1269  070B  07C1               	addwf	(_z+1)
  1270  070C  083C               	movf	(_temp),w
  1271  070D  01C0               	clrf	(_z)
  1272  070E  07C0               	addwf	(_z)
  1273                           
  1274                           	line	177
  1275                           	
  1276  070F                     l2848:	
  1277                           ;tack.c: 177: delay(1000);
  1278  070F  30E8               	movlw	low(03E8h)
  1279  0710  00F0               	movwf	(?_delay)
  1280  0711  3003               	movlw	high(03E8h)
  1281  0712  00F1               	movwf	((?_delay))+1
  1282  0713  120A  118A  20C3   	fcall	_delay
              120A  118A         
  1283                           	line	179
  1284                           	
  1285  0718                     l2850:	
  1286                           ;tack.c: 179: lcd_command(0X80);
  1287  0718  3080               	movlw	(080h)
  1288  0719  120A  118A  20D5   	fcall	_lcd_command
              120A  118A         
  1289                           	line	180
  1290                           	
  1291  071E                     l2852:	
  1292                           ;tack.c: 180: lcd_display("l or r");
  1293  071E  3009               	movlw	((STR_3-__stringbase))&0ffh
  1294  071F  120A  118A  2142   	fcall	_lcd_display
              120A  118A         
  1295                           	line	181
  1296                           	
  1297  0724                     l2854:	
  1298                           ;tack.c: 181: lcd_command(0X8A);
  1299  0724  308A               	movlw	(08Ah)
  1300  0725  120A  118A  20D5   	fcall	_lcd_command
              120A  118A         
  1301                           	line	182
  1302                           	
  1303  072A                     l2856:	
  1304                           ;tack.c: 182: a=temp/1000;
  1305  072A  30E8               	movlw	low(03E8h)
  1306  072B  00F0               	movwf	(?___lwdiv)
  1307  072C  3003               	movlw	high(03E8h)
  1308  072D  00F1               	movwf	((?___lwdiv))+1
  1309  072E  1283               	bcf	status, 5	;RP0=0, select bank0
  1310  072F  1303               	bcf	status, 6	;RP1=0, select bank0
  1311  0730  083D               	movf	(_temp+1),w
  1312  0731  01F3               	clrf	1+(?___lwdiv)+02h
  1313  0732  07F3               	addwf	1+(?___lwdiv)+02h
  1314  0733  083C               	movf	(_temp),w
  1315  0734  01F2               	clrf	0+(?___lwdiv)+02h
  1316  0735  07F2               	addwf	0+(?___lwdiv)+02h
  1317                           
  1318  0736  120A  118A  21A6   	fcall	___lwdiv
              120A  118A         
  1319  073B  0871               	movf	(1+(?___lwdiv)),w
  1320  073C  1283               	bcf	status, 5	;RP0=0, select bank0
  1321  073D  1303               	bcf	status, 6	;RP1=0, select bank0
  1322  073E  01A5               	clrf	(_a+1)
  1323  073F  07A5               	addwf	(_a+1)
  1324  0740  0870               	movf	(0+(?___lwdiv)),w
  1325  0741  01A4               	clrf	(_a)
  1326  0742  07A4               	addwf	(_a)
  1327                           
  1328                           	line	183
  1329                           	
  1330  0743                     l2858:	
  1331                           ;tack.c: 183: b=temp%1000;
  1332  0743  30E8               	movlw	low(03E8h)
  1333  0744  00F0               	movwf	(?___lwmod)
  1334  0745  3003               	movlw	high(03E8h)
  1335  0746  00F1               	movwf	((?___lwmod))+1
  1336  0747  083D               	movf	(_temp+1),w
  1337  0748  01F3               	clrf	1+(?___lwmod)+02h
  1338  0749  07F3               	addwf	1+(?___lwmod)+02h
  1339  074A  083C               	movf	(_temp),w
  1340  074B  01F2               	clrf	0+(?___lwmod)+02h
  1341  074C  07F2               	addwf	0+(?___lwmod)+02h
  1342                           
  1343  074D  120A  118A  2169   	fcall	___lwmod
              120A  118A         
  1344  0752  0871               	movf	(1+(?___lwmod)),w
  1345  0753  1283               	bcf	status, 5	;RP0=0, select bank0
  1346  0754  1303               	bcf	status, 6	;RP1=0, select bank0
  1347  0755  01A9               	clrf	(_b+1)
  1348  0756  07A9               	addwf	(_b+1)
  1349  0757  0870               	movf	(0+(?___lwmod)),w
  1350  0758  01A8               	clrf	(_b)
  1351  0759  07A8               	addwf	(_b)
  1352                           
  1353                           	line	184
  1354                           	
  1355  075A                     l2860:	
  1356                           ;tack.c: 184: c=b/100;
  1357  075A  3064               	movlw	low(064h)
  1358  075B  00F0               	movwf	(?___awdiv)
  1359  075C  3000               	movlw	high(064h)
  1360  075D  00F1               	movwf	((?___awdiv))+1
  1361  075E  0829               	movf	(_b+1),w
  1362  075F  01F3               	clrf	1+(?___awdiv)+02h
  1363  0760  07F3               	addwf	1+(?___awdiv)+02h
  1364  0761  0828               	movf	(_b),w
  1365  0762  01F2               	clrf	0+(?___awdiv)+02h
  1366  0763  07F2               	addwf	0+(?___awdiv)+02h
  1367                           
  1368  0764  120A  118A  224F   	fcall	___awdiv
              120A  118A         
  1369  0769  0871               	movf	(1+(?___awdiv)),w
  1370  076A  1283               	bcf	status, 5	;RP0=0, select bank0
  1371  076B  1303               	bcf	status, 6	;RP1=0, select bank0
  1372  076C  01AD               	clrf	(_c+1)
  1373  076D  07AD               	addwf	(_c+1)
  1374  076E  0870               	movf	(0+(?___awdiv)),w
  1375  076F  01AC               	clrf	(_c)
  1376  0770  07AC               	addwf	(_c)
  1377                           
  1378                           	line	185
  1379                           	
  1380  0771                     l2862:	
  1381                           ;tack.c: 185: d=b%100;
  1382  0771  3064               	movlw	low(064h)
  1383  0772  00F0               	movwf	(?___awmod)
  1384  0773  3000               	movlw	high(064h)
  1385  0774  00F1               	movwf	((?___awmod))+1
  1386  0775  0829               	movf	(_b+1),w
  1387  0776  01F3               	clrf	1+(?___awmod)+02h
  1388  0777  07F3               	addwf	1+(?___awmod)+02h
  1389  0778  0828               	movf	(_b),w
  1390  0779  01F2               	clrf	0+(?___awmod)+02h
  1391  077A  07F2               	addwf	0+(?___awmod)+02h
  1392                           
  1393  077B  120A  118A  21EF   	fcall	___awmod
              120A  118A         
  1394  0780  0871               	movf	(1+(?___awmod)),w
  1395  0781  1283               	bcf	status, 5	;RP0=0, select bank0
  1396  0782  1303               	bcf	status, 6	;RP1=0, select bank0
  1397  0783  01B1               	clrf	(_d+1)
  1398  0784  07B1               	addwf	(_d+1)
  1399  0785  0870               	movf	(0+(?___awmod)),w
  1400  0786  01B0               	clrf	(_d)
  1401  0787  07B0               	addwf	(_d)
  1402                           
  1403                           	line	186
  1404                           	
  1405  0788                     l2864:	
  1406                           ;tack.c: 186: e=d/10;
  1407  0788  300A               	movlw	low(0Ah)
  1408  0789  00F0               	movwf	(?___awdiv)
  1409  078A  3000               	movlw	high(0Ah)
  1410  078B  00F1               	movwf	((?___awdiv))+1
  1411  078C  0831               	movf	(_d+1),w
  1412  078D  01F3               	clrf	1+(?___awdiv)+02h
  1413  078E  07F3               	addwf	1+(?___awdiv)+02h
  1414  078F  0830               	movf	(_d),w
  1415  0790  01F2               	clrf	0+(?___awdiv)+02h
  1416  0791  07F2               	addwf	0+(?___awdiv)+02h
  1417                           
  1418  0792  120A  118A  224F   	fcall	___awdiv
              120A  118A         
  1419  0797  0871               	movf	(1+(?___awdiv)),w
  1420  0798  1283               	bcf	status, 5	;RP0=0, select bank0
  1421  0799  1303               	bcf	status, 6	;RP1=0, select bank0
  1422  079A  01B5               	clrf	(_e+1)
  1423  079B  07B5               	addwf	(_e+1)
  1424  079C  0870               	movf	(0+(?___awdiv)),w
  1425  079D  01B4               	clrf	(_e)
  1426  079E  07B4               	addwf	(_e)
  1427                           
  1428                           	line	187
  1429                           	
  1430  079F                     l2866:	
  1431                           ;tack.c: 187: f=d%10;
  1432  079F  300A               	movlw	low(0Ah)
  1433  07A0  00F0               	movwf	(?___awmod)
  1434  07A1  3000               	movlw	high(0Ah)
  1435  07A2  00F1               	movwf	((?___awmod))+1
  1436  07A3  0831               	movf	(_d+1),w
  1437  07A4  01F3               	clrf	1+(?___awmod)+02h
  1438  07A5  07F3               	addwf	1+(?___awmod)+02h
  1439  07A6  0830               	movf	(_d),w
  1440  07A7  01F2               	clrf	0+(?___awmod)+02h
  1441  07A8  07F2               	addwf	0+(?___awmod)+02h
  1442                           
  1443  07A9  120A  118A  21EF   	fcall	___awmod
              120A  118A         
  1444  07AE  0871               	movf	(1+(?___awmod)),w
  1445  07AF  1283               	bcf	status, 5	;RP0=0, select bank0
  1446  07B0  1303               	bcf	status, 6	;RP1=0, select bank0
  1447  07B1  01B9               	clrf	(_f+1)
  1448  07B2  07B9               	addwf	(_f+1)
  1449  07B3  0870               	movf	(0+(?___awmod)),w
  1450  07B4  01B8               	clrf	(_f)
  1451  07B5  07B8               	addwf	(_f)
  1452                           
  1453                           	line	190
  1454                           	
  1455  07B6                     l2868:	
  1456                           ;tack.c: 190: lcd_data(a+0x30);
  1457  07B6  0824               	movf	(_a),w
  1458  07B7  3E30               	addlw	030h
  1459  07B8  120A  118A  20EA   	fcall	_lcd_data
              120A  118A         
  1460                           	line	191
  1461                           	
  1462  07BD                     l2870:	
  1463                           ;tack.c: 191: delay(1000);
  1464  07BD  30E8               	movlw	low(03E8h)
  1465  07BE  00F0               	movwf	(?_delay)
  1466  07BF  3003               	movlw	high(03E8h)
  1467  07C0  00F1               	movwf	((?_delay))+1
  1468  07C1  120A  118A  20C3   	fcall	_delay
              120A  118A         
  1469                           	line	192
  1470                           	
  1471  07C6                     l2872:	
  1472                           ;tack.c: 192: lcd_data(c+0x30);
  1473  07C6  1283               	bcf	status, 5	;RP0=0, select bank0
  1474  07C7  1303               	bcf	status, 6	;RP1=0, select bank0
  1475  07C8  082C               	movf	(_c),w
  1476  07C9  3E30               	addlw	030h
  1477  07CA  120A  118A  20EA   	fcall	_lcd_data
              120A  118A         
  1478                           	line	193
  1479                           	
  1480  07CF                     l2874:	
  1481                           ;tack.c: 193: delay(1000);
  1482  07CF  30E8               	movlw	low(03E8h)
  1483  07D0  00F0               	movwf	(?_delay)
  1484  07D1  3003               	movlw	high(03E8h)
  1485  07D2  00F1               	movwf	((?_delay))+1
  1486  07D3  120A  118A  20C3   	fcall	_delay
              120A  118A         
  1487                           	line	194
  1488                           	
  1489  07D8                     l2876:	
  1490                           ;tack.c: 194: lcd_data(e+0x30);
  1491  07D8  1283               	bcf	status, 5	;RP0=0, select bank0
  1492  07D9  1303               	bcf	status, 6	;RP1=0, select bank0
  1493  07DA  0834               	movf	(_e),w
  1494  07DB  3E30               	addlw	030h
  1495  07DC  120A  118A  20EA   	fcall	_lcd_data
              120A  118A         
  1496                           	line	195
  1497                           	
  1498  07E1                     l2878:	
  1499                           ;tack.c: 195: delay(1000);
  1500  07E1  30E8               	movlw	low(03E8h)
  1501  07E2  00F0               	movwf	(?_delay)
  1502  07E3  3003               	movlw	high(03E8h)
  1503  07E4  00F1               	movwf	((?_delay))+1
  1504  07E5  120A  118A  20C3   	fcall	_delay
              120A  118A         
  1505                           	line	196
  1506                           	
  1507  07EA                     l2880:	
  1508                           ;tack.c: 196: lcd_data(f+0x30);
  1509  07EA  1283               	bcf	status, 5	;RP0=0, select bank0
  1510  07EB  1303               	bcf	status, 6	;RP1=0, select bank0
  1511  07EC  0838               	movf	(_f),w
  1512  07ED  3E30               	addlw	030h
  1513  07EE  120A  118A  20EA   	fcall	_lcd_data
              120A  118A         
  1514                           	line	197
  1515                           	
  1516  07F3                     l2882:	
  1517                           ;tack.c: 197: delay(1000);
  1518  07F3  30E8               	movlw	low(03E8h)
  1519  07F4  00F0               	movwf	(?_delay)
  1520  07F5  3003               	movlw	high(03E8h)
  1521  07F6  00F1               	movwf	((?_delay))+1
  1522  07F7  120A  118A  20C3   	fcall	_delay
              120A  118A         
  1523                           	line	199
  1524                           	
  1525  07FC                     l629:	
  1526                           	line	108
  1527  07FC  2DCB               	goto	l621
  1528                           	
  1529  07FD                     l630:	
  1530                           	line	200
  1531                           	
  1532  07FD                     l631:	
  1533                           	global	start
  1534  07FD  120A  118A  2800   	ljmp	start
  1535                           	opt stack 0
  1536                           GLOBAL	__end_of_main
  1537  0800                     	__end_of_main:
  1538 ;; =============== function _main ends ============
  1539                           
  1540                           	signat	_main,90
  1541                           	global	_ply
  1542                           psect	text291,local,class=CODE,delta=2
  1543                           global __ptext291
  1544  0492                     __ptext291:
  1545                           
  1546 ;; *************** function _ply *****************
  1547 ;; Defined at:
  1548 ;;		line 59 in file "C:\Users\ELCOT\Desktop\PIC Workouts\TASK\mam tack\tack.c"
  1549 ;; Parameters:    Size  Location     Type
  1550 ;;  temp1           2    9[COMMON] unsigned int 
  1551 ;; Auto vars:     Size  Location     Type
  1552 ;;		None
  1553 ;; Return value:  Size  Location     Type
  1554 ;;		None               void
  1555 ;; Registers used:
  1556 ;;		wreg, fsr0l, fsr0h, status,2, status,0, pclath, cstack
  1557 ;; Tracked objects:
  1558 ;;		On entry : 0/0
  1559 ;;		On exit  : 0/0
  1560 ;;		Unchanged: 0/0
  1561 ;; Data sizes:     COMMON   BANK0   BANK1   BANK3   BANK2
  1562 ;;      Params:         2       0       0       0       0
  1563 ;;      Locals:         0       0       0       0       0
  1564 ;;      Temps:          0       0       0       0       0
  1565 ;;      Totals:         2       0       0       0       0
  1566 ;;Total ram usage:        2 bytes
  1567 ;; Hardware stack levels used:    1
  1568 ;; Hardware stack levels required when called:    3
  1569 ;; This function calls:
  1570 ;;		_lcd_command
  1571 ;;		_lcd_display
  1572 ;;		___lwdiv
  1573 ;;		___lwmod
  1574 ;;		___awdiv
  1575 ;;		___awmod
  1576 ;;		_lcd_data
  1577 ;;		_delay
  1578 ;; This function is called by:
  1579 ;;		_main
  1580 ;; This function uses a non-reentrant model
  1581 ;;
  1582                           psect	text291
  1583                           	file	"C:\Users\ELCOT\Desktop\PIC Workouts\TASK\mam tack\tack.c"
  1584                           	line	59
  1585                           	global	__size_of_ply
  1586  00E3                     	__size_of_ply	equ	__end_of_ply-_ply
  1587                           	
  1588  0492                     _ply:	
  1589                           	opt	stack 7
  1590                           ; Regs used in _ply: [wreg-fsr0h+status,2+status,0+pclath+cstack]
  1591                           	line	60
  1592                           	
  1593  0492                     l2724:	
  1594                           ;tack.c: 60: lcd_command(0Xc0);
  1595  0492  30C0               	movlw	(0C0h)
  1596  0493  120A  118A  20D5   	fcall	_lcd_command
              120A  118A         
  1597                           	line	61
  1598                           	
  1599  0498                     l2726:	
  1600                           ;tack.c: 61: lcd_display("Z");
  1601  0498  3010               	movlw	((STR_1-__stringbase))&0ffh
  1602  0499  120A  118A  2142   	fcall	_lcd_display
              120A  118A         
  1603                           	line	62
  1604                           	
  1605  049E                     l2728:	
  1606                           ;tack.c: 62: lcd_command(0XCA);
  1607  049E  30CA               	movlw	(0CAh)
  1608  049F  120A  118A  20D5   	fcall	_lcd_command
              120A  118A         
  1609                           	line	63
  1610                           	
  1611  04A4                     l2730:	
  1612                           ;tack.c: 63: a1=temp1/1000;
  1613  04A4  30E8               	movlw	low(03E8h)
  1614  04A5  00F0               	movwf	(?___lwdiv)
  1615  04A6  3003               	movlw	high(03E8h)
  1616  04A7  00F1               	movwf	((?___lwdiv))+1
  1617  04A8  087A               	movf	(ply@temp1+1),w
  1618  04A9  01F3               	clrf	1+(?___lwdiv)+02h
  1619  04AA  07F3               	addwf	1+(?___lwdiv)+02h
  1620  04AB  0879               	movf	(ply@temp1),w
  1621  04AC  01F2               	clrf	0+(?___lwdiv)+02h
  1622  04AD  07F2               	addwf	0+(?___lwdiv)+02h
  1623                           
  1624  04AE  120A  118A  21A6   	fcall	___lwdiv
              120A  118A         
  1625  04B3  0871               	movf	(1+(?___lwdiv)),w
  1626  04B4  1283               	bcf	status, 5	;RP0=0, select bank0
  1627  04B5  1303               	bcf	status, 6	;RP1=0, select bank0
  1628  04B6  01A7               	clrf	(_a1+1)
  1629  04B7  07A7               	addwf	(_a1+1)
  1630  04B8  0870               	movf	(0+(?___lwdiv)),w
  1631  04B9  01A6               	clrf	(_a1)
  1632  04BA  07A6               	addwf	(_a1)
  1633                           
  1634                           	line	64
  1635                           	
  1636  04BB                     l2732:	
  1637                           ;tack.c: 64: b1=temp1%1000;
  1638  04BB  30E8               	movlw	low(03E8h)
  1639  04BC  00F0               	movwf	(?___lwmod)
  1640  04BD  3003               	movlw	high(03E8h)
  1641  04BE  00F1               	movwf	((?___lwmod))+1
  1642  04BF  087A               	movf	(ply@temp1+1),w
  1643  04C0  01F3               	clrf	1+(?___lwmod)+02h
  1644  04C1  07F3               	addwf	1+(?___lwmod)+02h
  1645  04C2  0879               	movf	(ply@temp1),w
  1646  04C3  01F2               	clrf	0+(?___lwmod)+02h
  1647  04C4  07F2               	addwf	0+(?___lwmod)+02h
  1648                           
  1649  04C5  120A  118A  2169   	fcall	___lwmod
              120A  118A         
  1650  04CA  0871               	movf	(1+(?___lwmod)),w
  1651  04CB  1283               	bcf	status, 5	;RP0=0, select bank0
  1652  04CC  1303               	bcf	status, 6	;RP1=0, select bank0
  1653  04CD  01AB               	clrf	(_b1+1)
  1654  04CE  07AB               	addwf	(_b1+1)
  1655  04CF  0870               	movf	(0+(?___lwmod)),w
  1656  04D0  01AA               	clrf	(_b1)
  1657  04D1  07AA               	addwf	(_b1)
  1658                           
  1659                           	line	65
  1660                           	
  1661  04D2                     l2734:	
  1662                           ;tack.c: 65: c1=b1/100;
  1663  04D2  3064               	movlw	low(064h)
  1664  04D3  00F0               	movwf	(?___awdiv)
  1665  04D4  3000               	movlw	high(064h)
  1666  04D5  00F1               	movwf	((?___awdiv))+1
  1667  04D6  082B               	movf	(_b1+1),w
  1668  04D7  01F3               	clrf	1+(?___awdiv)+02h
  1669  04D8  07F3               	addwf	1+(?___awdiv)+02h
  1670  04D9  082A               	movf	(_b1),w
  1671  04DA  01F2               	clrf	0+(?___awdiv)+02h
  1672  04DB  07F2               	addwf	0+(?___awdiv)+02h
  1673                           
  1674  04DC  120A  118A  224F   	fcall	___awdiv
              120A  118A         
  1675  04E1  0871               	movf	(1+(?___awdiv)),w
  1676  04E2  1283               	bcf	status, 5	;RP0=0, select bank0
  1677  04E3  1303               	bcf	status, 6	;RP1=0, select bank0
  1678  04E4  01AF               	clrf	(_c1+1)
  1679  04E5  07AF               	addwf	(_c1+1)
  1680  04E6  0870               	movf	(0+(?___awdiv)),w
  1681  04E7  01AE               	clrf	(_c1)
  1682  04E8  07AE               	addwf	(_c1)
  1683                           
  1684                           	line	66
  1685                           	
  1686  04E9                     l2736:	
  1687                           ;tack.c: 66: d1=b1%100;
  1688  04E9  3064               	movlw	low(064h)
  1689  04EA  00F0               	movwf	(?___awmod)
  1690  04EB  3000               	movlw	high(064h)
  1691  04EC  00F1               	movwf	((?___awmod))+1
  1692  04ED  082B               	movf	(_b1+1),w
  1693  04EE  01F3               	clrf	1+(?___awmod)+02h
  1694  04EF  07F3               	addwf	1+(?___awmod)+02h
  1695  04F0  082A               	movf	(_b1),w
  1696  04F1  01F2               	clrf	0+(?___awmod)+02h
  1697  04F2  07F2               	addwf	0+(?___awmod)+02h
  1698                           
  1699  04F3  120A  118A  21EF   	fcall	___awmod
              120A  118A         
  1700  04F8  0871               	movf	(1+(?___awmod)),w
  1701  04F9  1283               	bcf	status, 5	;RP0=0, select bank0
  1702  04FA  1303               	bcf	status, 6	;RP1=0, select bank0
  1703  04FB  01B3               	clrf	(_d1+1)
  1704  04FC  07B3               	addwf	(_d1+1)
  1705  04FD  0870               	movf	(0+(?___awmod)),w
  1706  04FE  01B2               	clrf	(_d1)
  1707  04FF  07B2               	addwf	(_d1)
  1708                           
  1709                           	line	67
  1710                           	
  1711  0500                     l2738:	
  1712                           ;tack.c: 67: e1=d1/10;
  1713  0500  300A               	movlw	low(0Ah)
  1714  0501  00F0               	movwf	(?___awdiv)
  1715  0502  3000               	movlw	high(0Ah)
  1716  0503  00F1               	movwf	((?___awdiv))+1
  1717  0504  0833               	movf	(_d1+1),w
  1718  0505  01F3               	clrf	1+(?___awdiv)+02h
  1719  0506  07F3               	addwf	1+(?___awdiv)+02h
  1720  0507  0832               	movf	(_d1),w
  1721  0508  01F2               	clrf	0+(?___awdiv)+02h
  1722  0509  07F2               	addwf	0+(?___awdiv)+02h
  1723                           
  1724  050A  120A  118A  224F   	fcall	___awdiv
              120A  118A         
  1725  050F  0871               	movf	(1+(?___awdiv)),w
  1726  0510  1283               	bcf	status, 5	;RP0=0, select bank0
  1727  0511  1303               	bcf	status, 6	;RP1=0, select bank0
  1728  0512  01B7               	clrf	(_e1+1)
  1729  0513  07B7               	addwf	(_e1+1)
  1730  0514  0870               	movf	(0+(?___awdiv)),w
  1731  0515  01B6               	clrf	(_e1)
  1732  0516  07B6               	addwf	(_e1)
  1733                           
  1734                           	line	68
  1735                           	
  1736  0517                     l2740:	
  1737                           ;tack.c: 68: f1=d1%10;
  1738  0517  300A               	movlw	low(0Ah)
  1739  0518  00F0               	movwf	(?___awmod)
  1740  0519  3000               	movlw	high(0Ah)
  1741  051A  00F1               	movwf	((?___awmod))+1
  1742  051B  0833               	movf	(_d1+1),w
  1743  051C  01F3               	clrf	1+(?___awmod)+02h
  1744  051D  07F3               	addwf	1+(?___awmod)+02h
  1745  051E  0832               	movf	(_d1),w
  1746  051F  01F2               	clrf	0+(?___awmod)+02h
  1747  0520  07F2               	addwf	0+(?___awmod)+02h
  1748                           
  1749  0521  120A  118A  21EF   	fcall	___awmod
              120A  118A         
  1750  0526  0871               	movf	(1+(?___awmod)),w
  1751  0527  1283               	bcf	status, 5	;RP0=0, select bank0
  1752  0528  1303               	bcf	status, 6	;RP1=0, select bank0
  1753  0529  01BB               	clrf	(_f1+1)
  1754  052A  07BB               	addwf	(_f1+1)
  1755  052B  0870               	movf	(0+(?___awmod)),w
  1756  052C  01BA               	clrf	(_f1)
  1757  052D  07BA               	addwf	(_f1)
  1758                           
  1759                           	line	71
  1760                           	
  1761  052E                     l2742:	
  1762                           ;tack.c: 71: lcd_data(a1+0x30);
  1763  052E  0826               	movf	(_a1),w
  1764  052F  3E30               	addlw	030h
  1765  0530  120A  118A  20EA   	fcall	_lcd_data
              120A  118A         
  1766                           	line	72
  1767                           	
  1768  0535                     l2744:	
  1769                           ;tack.c: 72: delay(1000);
  1770  0535  30E8               	movlw	low(03E8h)
  1771  0536  00F0               	movwf	(?_delay)
  1772  0537  3003               	movlw	high(03E8h)
  1773  0538  00F1               	movwf	((?_delay))+1
  1774  0539  120A  118A  20C3   	fcall	_delay
              120A  118A         
  1775                           	line	73
  1776                           	
  1777  053E                     l2746:	
  1778                           ;tack.c: 73: lcd_data(c1+0x30);
  1779  053E  1283               	bcf	status, 5	;RP0=0, select bank0
  1780  053F  1303               	bcf	status, 6	;RP1=0, select bank0
  1781  0540  082E               	movf	(_c1),w
  1782  0541  3E30               	addlw	030h
  1783  0542  120A  118A  20EA   	fcall	_lcd_data
              120A  118A         
  1784                           	line	74
  1785                           	
  1786  0547                     l2748:	
  1787                           ;tack.c: 74: delay(1000);
  1788  0547  30E8               	movlw	low(03E8h)
  1789  0548  00F0               	movwf	(?_delay)
  1790  0549  3003               	movlw	high(03E8h)
  1791  054A  00F1               	movwf	((?_delay))+1
  1792  054B  120A  118A  20C3   	fcall	_delay
              120A  118A         
  1793                           	line	75
  1794                           	
  1795  0550                     l2750:	
  1796                           ;tack.c: 75: lcd_data(e1+0x30);
  1797  0550  1283               	bcf	status, 5	;RP0=0, select bank0
  1798  0551  1303               	bcf	status, 6	;RP1=0, select bank0
  1799  0552  0836               	movf	(_e1),w
  1800  0553  3E30               	addlw	030h
  1801  0554  120A  118A  20EA   	fcall	_lcd_data
              120A  118A         
  1802                           	line	76
  1803                           	
  1804  0559                     l2752:	
  1805                           ;tack.c: 76: delay(1000);
  1806  0559  30E8               	movlw	low(03E8h)
  1807  055A  00F0               	movwf	(?_delay)
  1808  055B  3003               	movlw	high(03E8h)
  1809  055C  00F1               	movwf	((?_delay))+1
  1810  055D  120A  118A  20C3   	fcall	_delay
              120A  118A         
  1811                           	line	77
  1812                           	
  1813  0562                     l2754:	
  1814                           ;tack.c: 77: lcd_data(f1+0x30);
  1815  0562  1283               	bcf	status, 5	;RP0=0, select bank0
  1816  0563  1303               	bcf	status, 6	;RP1=0, select bank0
  1817  0564  083A               	movf	(_f1),w
  1818  0565  3E30               	addlw	030h
  1819  0566  120A  118A  20EA   	fcall	_lcd_data
              120A  118A         
  1820                           	line	78
  1821                           	
  1822  056B                     l2756:	
  1823                           ;tack.c: 78: delay(1000);
  1824  056B  30E8               	movlw	low(03E8h)
  1825  056C  00F0               	movwf	(?_delay)
  1826  056D  3003               	movlw	high(03E8h)
  1827  056E  00F1               	movwf	((?_delay))+1
  1828  056F  120A  118A  20C3   	fcall	_delay
              120A  118A         
  1829                           	line	79
  1830                           	
  1831  0574                     l618:	
  1832  0574  0008               	return
  1833                           	opt stack 0
  1834                           GLOBAL	__end_of_ply
  1835  0575                     	__end_of_ply:
  1836 ;; =============== function _ply ends ============
  1837                           
  1838                           	signat	_ply,4216
  1839                           	global	_lcd_display
  1840                           psect	text292,local,class=CODE,delta=2
  1841                           global __ptext292
  1842  0142                     __ptext292:
  1843                           
  1844 ;; *************** function _lcd_display *****************
  1845 ;; Defined at:
  1846 ;;		line 51 in file "C:\Users\ELCOT\Desktop\PIC Workouts\TASK\mam tack\tack.c"
  1847 ;; Parameters:    Size  Location     Type
  1848 ;;  m               1    wreg     PTR unsigned char 
  1849 ;;		 -> STR_3(7), STR_2(8), STR_1(2), 
  1850 ;; Auto vars:     Size  Location     Type
  1851 ;;  m               1    3[COMMON] PTR unsigned char 
  1852 ;;		 -> STR_3(7), STR_2(8), STR_1(2), 
  1853 ;;  a               2    4[COMMON] int 
  1854 ;; Return value:  Size  Location     Type
  1855 ;;		None               void
  1856 ;; Registers used:
  1857 ;;		wreg, fsr0l, fsr0h, status,2, status,0, pclath, cstack
  1858 ;; Tracked objects:
  1859 ;;		On entry : 0/0
  1860 ;;		On exit  : 0/0
  1861 ;;		Unchanged: 0/0
  1862 ;; Data sizes:     COMMON   BANK0   BANK1   BANK3   BANK2
  1863 ;;      Params:         0       0       0       0       0
  1864 ;;      Locals:         3       0       0       0       0
  1865 ;;      Temps:          0       0       0       0       0
  1866 ;;      Totals:         3       0       0       0       0
  1867 ;;Total ram usage:        3 bytes
  1868 ;; Hardware stack levels used:    1
  1869 ;; Hardware stack levels required when called:    2
  1870 ;; This function calls:
  1871 ;;		_lcd_data
  1872 ;; This function is called by:
  1873 ;;		_ply
  1874 ;;		_main
  1875 ;; This function uses a non-reentrant model
  1876 ;;
  1877                           psect	text292
  1878                           	file	"C:\Users\ELCOT\Desktop\PIC Workouts\TASK\mam tack\tack.c"
  1879                           	line	51
  1880                           	global	__size_of_lcd_display
  1881  0027                     	__size_of_lcd_display	equ	__end_of_lcd_display-_lcd_display
  1882                           	
  1883  0142                     _lcd_display:	
  1884                           	opt	stack 6
  1885                           ; Regs used in _lcd_display: [wreg-fsr0h+status,2+status,0+pclath+cstack]
  1886                           ;lcd_display@m stored from wreg
  1887  0142  00F3               	movwf	(lcd_display@m)
  1888                           	line	52
  1889                           	
  1890  0143                     l2716:	
  1891                           ;tack.c: 52: for(int a=0;m[a]!=0;a++)
  1892  0143  3000               	movlw	low(0)
  1893  0144  00F4               	movwf	(lcd_display@a)
  1894  0145  3000               	movlw	high(0)
  1895  0146  00F5               	movwf	((lcd_display@a))+1
  1896  0147  295B               	goto	l612
  1897                           	line	53
  1898                           	
  1899  0148                     l613:	
  1900                           	line	54
  1901                           	
  1902  0148                     l2718:	
  1903                           ;tack.c: 53: {
  1904                           ;tack.c: 54: lcd_data(m[a]);
  1905  0148  0874               	movf	(lcd_display@a),w
  1906  0149  0773               	addwf	(lcd_display@m),w
  1907  014A  0084               	movwf	fsr0
  1908  014B  120A  118A  2003   	fcall	stringdir
              120A  118A         
  1909  0150  120A  118A  20EA   	fcall	_lcd_data
              120A  118A         
  1910                           	line	52
  1911                           	
  1912  0155                     l2720:	
  1913  0155  3001               	movlw	low(01h)
  1914  0156  07F4               	addwf	(lcd_display@a),f
  1915  0157  1803               	skipnc
  1916  0158  0AF5               	incf	(lcd_display@a+1),f
  1917  0159  3000               	movlw	high(01h)
  1918  015A  07F5               	addwf	(lcd_display@a+1),f
  1919                           	
  1920  015B                     l612:	
  1921                           	
  1922  015B                     l2722:	
  1923  015B  0874               	movf	(lcd_display@a),w
  1924  015C  0773               	addwf	(lcd_display@m),w
  1925  015D  0084               	movwf	fsr0
  1926  015E  120A  118A  2003   	fcall	stringdir
              120A  118A         
  1927  0163  3800               	iorlw	0
  1928  0164  1D03               	skipz
  1929  0165  2967               	goto	u3301
  1930  0166  2968               	goto	u3300
  1931  0167                     u3301:
  1932  0167  2948               	goto	l613
  1933  0168                     u3300:
  1934                           	
  1935  0168                     l614:	
  1936                           	line	56
  1937                           	
  1938  0168                     l615:	
  1939  0168  0008               	return
  1940                           	opt stack 0
  1941                           GLOBAL	__end_of_lcd_display
  1942  0169                     	__end_of_lcd_display:
  1943 ;; =============== function _lcd_display ends ============
  1944                           
  1945                           	signat	_lcd_display,4216
  1946                           	global	_lcd_init
  1947                           psect	text293,local,class=CODE,delta=2
  1948                           global __ptext293
  1949  011D                     __ptext293:
  1950                           
  1951 ;; *************** function _lcd_init *****************
  1952 ;; Defined at:
  1953 ;;		line 21 in file "C:\Users\ELCOT\Desktop\PIC Workouts\TASK\mam tack\tack.c"
  1954 ;; Parameters:    Size  Location     Type
  1955 ;;		None
  1956 ;; Auto vars:     Size  Location     Type
  1957 ;;		None
  1958 ;; Return value:  Size  Location     Type
  1959 ;;		None               void
  1960 ;; Registers used:
  1961 ;;		wreg, status,2, status,0, pclath, cstack
  1962 ;; Tracked objects:
  1963 ;;		On entry : 0/0
  1964 ;;		On exit  : 0/0
  1965 ;;		Unchanged: 0/0
  1966 ;; Data sizes:     COMMON   BANK0   BANK1   BANK3   BANK2
  1967 ;;      Params:         0       0       0       0       0
  1968 ;;      Locals:         0       0       0       0       0
  1969 ;;      Temps:          0       0       0       0       0
  1970 ;;      Totals:         0       0       0       0       0
  1971 ;;Total ram usage:        0 bytes
  1972 ;; Hardware stack levels used:    1
  1973 ;; Hardware stack levels required when called:    2
  1974 ;; This function calls:
  1975 ;;		_lcd_command
  1976 ;; This function is called by:
  1977 ;;		_main
  1978 ;; This function uses a non-reentrant model
  1979 ;;
  1980                           psect	text293
  1981                           	file	"C:\Users\ELCOT\Desktop\PIC Workouts\TASK\mam tack\tack.c"
  1982                           	line	21
  1983                           	global	__size_of_lcd_init
  1984  0025                     	__size_of_lcd_init	equ	__end_of_lcd_init-_lcd_init
  1985                           	
  1986  011D                     _lcd_init:	
  1987                           	opt	stack 7
  1988                           ; Regs used in _lcd_init: [wreg+status,2+status,0+pclath+cstack]
  1989                           	line	22
  1990                           	
  1991  011D                     l2714:	
  1992                           ;tack.c: 22: lcd_command(0X38);
  1993  011D  3038               	movlw	(038h)
  1994  011E  120A  118A  20D5   	fcall	_lcd_command
              120A  118A         
  1995                           	line	23
  1996                           ;tack.c: 23: lcd_command(0X06);
  1997  0123  3006               	movlw	(06h)
  1998  0124  120A  118A  20D5   	fcall	_lcd_command
              120A  118A         
  1999                           	line	24
  2000                           ;tack.c: 24: lcd_command(0X18);
  2001  0129  3018               	movlw	(018h)
  2002  012A  120A  118A  20D5   	fcall	_lcd_command
              120A  118A         
  2003                           	line	25
  2004                           ;tack.c: 25: lcd_command(0X1C);
  2005  012F  301C               	movlw	(01Ch)
  2006  0130  120A  118A  20D5   	fcall	_lcd_command
              120A  118A         
  2007                           	line	26
  2008                           ;tack.c: 26: lcd_command(0X0C);
  2009  0135  300C               	movlw	(0Ch)
  2010  0136  120A  118A  20D5   	fcall	_lcd_command
              120A  118A         
  2011                           	line	27
  2012                           ;tack.c: 27: lcd_command(0X01);
  2013  013B  3001               	movlw	(01h)
  2014  013C  120A  118A  20D5   	fcall	_lcd_command
              120A  118A         
  2015                           	line	28
  2016                           	
  2017  0141                     l603:	
  2018  0141  0008               	return
  2019                           	opt stack 0
  2020                           GLOBAL	__end_of_lcd_init
  2021  0142                     	__end_of_lcd_init:
  2022 ;; =============== function _lcd_init ends ============
  2023                           
  2024                           	signat	_lcd_init,88
  2025                           	global	___lwtoft
  2026                           psect	text294,local,class=CODE,delta=2
  2027                           global __ptext294
  2028  00FF                     __ptext294:
  2029                           
  2030 ;; *************** function ___lwtoft *****************
  2031 ;; Defined at:
  2032 ;;		line 29 in file "C:\Program Files (x86)\HI-TECH Software\PICC\9.71a\sources\lwtoft.c"
  2033 ;; Parameters:    Size  Location     Type
  2034 ;;  c               2   10[BANK0 ] unsigned int 
  2035 ;; Auto vars:     Size  Location     Type
  2036 ;;		None
  2037 ;; Return value:  Size  Location     Type
  2038 ;;                  3   10[BANK0 ] float 
  2039 ;; Registers used:
  2040 ;;		wreg, status,2, status,0, pclath, cstack
  2041 ;; Tracked objects:
  2042 ;;		On entry : 0/0
  2043 ;;		On exit  : 0/0
  2044 ;;		Unchanged: 0/0
  2045 ;; Data sizes:     COMMON   BANK0   BANK1   BANK3   BANK2
  2046 ;;      Params:         0       3       0       0       0
  2047 ;;      Locals:         0       0       0       0       0
  2048 ;;      Temps:          1       0       0       0       0
  2049 ;;      Totals:         1       3       0       0       0
  2050 ;;Total ram usage:        4 bytes
  2051 ;; Hardware stack levels used:    1
  2052 ;; Hardware stack levels required when called:    1
  2053 ;; This function calls:
  2054 ;;		___ftpack
  2055 ;; This function is called by:
  2056 ;;		_main
  2057 ;; This function uses a non-reentrant model
  2058 ;;
  2059                           psect	text294
  2060                           	file	"C:\Program Files (x86)\HI-TECH Software\PICC\9.71a\sources\lwtoft.c"
  2061                           	line	29
  2062                           	global	__size_of___lwtoft
  2063  001E                     	__size_of___lwtoft	equ	__end_of___lwtoft-___lwtoft
  2064                           	
  2065  00FF                     ___lwtoft:	
  2066                           	opt	stack 7
  2067                           ; Regs used in ___lwtoft: [wreg+status,2+status,0+pclath+cstack]
  2068                           	line	30
  2069                           	
  2070  00FF                     l2710:	
  2071  00FF  1283               	bcf	status, 5	;RP0=0, select bank0
  2072  0100  1303               	bcf	status, 6	;RP1=0, select bank0
  2073  0101  084E               	movf	(___lwtoft@c),w
  2074  0102  00F0               	movwf	(?___ftpack)
  2075  0103  084F               	movf	(___lwtoft@c+1),w
  2076  0104  00F1               	movwf	(?___ftpack+1)
  2077  0105  01F2               	clrf	(?___ftpack+2)
  2078  0106  308E               	movlw	(08Eh)
  2079  0107  00FC               	movwf	(??___lwtoft+0)+0
  2080  0108  087C               	movf	(??___lwtoft+0)+0,w
  2081  0109  00F3               	movwf	0+(?___ftpack)+03h
  2082  010A  1003               	clrc
  2083  010B  3000               	movlw	0
  2084  010C  1803               	btfsc	status,0
  2085  010D  3001               	movlw	1
  2086  010E  00F4               	movwf	0+(?___ftpack)+04h
  2087  010F  120A  118A  22BF   	fcall	___ftpack
              120A  118A         
  2088  0114  0870               	movf	(0+(?___ftpack)),w
  2089  0115  1283               	bcf	status, 5	;RP0=0, select bank0
  2090  0116  1303               	bcf	status, 6	;RP1=0, select bank0
  2091  0117  00CE               	movwf	(?___lwtoft)
  2092  0118  0871               	movf	(1+(?___ftpack)),w
  2093  0119  00CF               	movwf	(?___lwtoft+1)
  2094  011A  0872               	movf	(2+(?___ftpack)),w
  2095  011B  00D0               	movwf	(?___lwtoft+2)
  2096                           	
  2097  011C                     l2712:	
  2098                           	line	31
  2099                           	
  2100  011C                     l863:	
  2101  011C  0008               	return
  2102                           	opt stack 0
  2103                           GLOBAL	__end_of___lwtoft
  2104  011D                     	__end_of___lwtoft:
  2105 ;; =============== function ___lwtoft ends ============
  2106                           
  2107                           	signat	___lwtoft,4219
  2108                           	global	___ftdiv
  2109                           psect	text295,local,class=CODE,delta=2
  2110                           global __ptext295
  2111  03D0                     __ptext295:
  2112                           
  2113 ;; *************** function ___ftdiv *****************
  2114 ;; Defined at:
  2115 ;;		line 50 in file "C:\Program Files (x86)\HI-TECH Software\PICC\9.71a\sources\ftdiv.c"
  2116 ;; Parameters:    Size  Location     Type
  2117 ;;  f2              3   13[BANK0 ] float 
  2118 ;;  f1              3   16[BANK0 ] float 
  2119 ;; Auto vars:     Size  Location     Type
  2120 ;;  f3              3   24[BANK0 ] float 
  2121 ;;  sign            1   28[BANK0 ] unsigned char 
  2122 ;;  exp             1   27[BANK0 ] unsigned char 
  2123 ;;  cntr            1   23[BANK0 ] unsigned char 
  2124 ;; Return value:  Size  Location     Type
  2125 ;;                  3   13[BANK0 ] float 
  2126 ;; Registers used:
  2127 ;;		wreg, status,2, status,0, pclath, cstack
  2128 ;; Tracked objects:
  2129 ;;		On entry : 0/0
  2130 ;;		On exit  : 0/0
  2131 ;;		Unchanged: 0/0
  2132 ;; Data sizes:     COMMON   BANK0   BANK1   BANK3   BANK2
  2133 ;;      Params:         0       6       0       0       0
  2134 ;;      Locals:         0       6       0       0       0
  2135 ;;      Temps:          0       4       0       0       0
  2136 ;;      Totals:         0      16       0       0       0
  2137 ;;Total ram usage:       16 bytes
  2138 ;; Hardware stack levels used:    1
  2139 ;; Hardware stack levels required when called:    1
  2140 ;; This function calls:
  2141 ;;		___ftpack
  2142 ;; This function is called by:
  2143 ;;		_main
  2144 ;; This function uses a non-reentrant model
  2145 ;;
  2146                           psect	text295
  2147                           	file	"C:\Program Files (x86)\HI-TECH Software\PICC\9.71a\sources\ftdiv.c"
  2148                           	line	50
  2149                           	global	__size_of___ftdiv
  2150  00C2                     	__size_of___ftdiv	equ	__end_of___ftdiv-___ftdiv
  2151                           	
  2152  03D0                     ___ftdiv:	
  2153                           	opt	stack 7
  2154                           ; Regs used in ___ftdiv: [wreg+status,2+status,0+pclath+cstack]
  2155                           	line	55
  2156                           	
  2157  03D0                     l2668:	
  2158  03D0  1283               	bcf	status, 5	;RP0=0, select bank0
  2159  03D1  1303               	bcf	status, 6	;RP1=0, select bank0
  2160  03D2  0854               	movf	(___ftdiv@f1),w
  2161  03D3  00D7               	movwf	((??___ftdiv+0)+0)
  2162  03D4  0855               	movf	(___ftdiv@f1+1),w
  2163  03D5  00D8               	movwf	((??___ftdiv+0)+0+1)
  2164  03D6  0856               	movf	(___ftdiv@f1+2),w
  2165  03D7  00D9               	movwf	((??___ftdiv+0)+0+2)
  2166  03D8  1003               	clrc
  2167  03D9  0D58               	rlf	(??___ftdiv+0)+1,w
  2168  03DA  0D59               	rlf	(??___ftdiv+0)+2,w
  2169  03DB  00DA               	movwf	(??___ftdiv+3)+0
  2170  03DC  085A               	movf	(??___ftdiv+3)+0,w
  2171  03DD  00DF               	movwf	(___ftdiv@exp)
  2172  03DE  08DF               	movf	((___ftdiv@exp)),f
  2173  03DF  1D03               	skipz
  2174  03E0  2BE2               	goto	u3221
  2175  03E1  2BE3               	goto	u3220
  2176  03E2                     u3221:
  2177  03E2  2BEA               	goto	l728
  2178  03E3                     u3220:
  2179                           	line	56
  2180                           	
  2181  03E3                     l2670:	
  2182  03E3  3000               	movlw	0x0
  2183  03E4  00D1               	movwf	(?___ftdiv)
  2184  03E5  3000               	movlw	0x0
  2185  03E6  00D2               	movwf	(?___ftdiv+1)
  2186  03E7  3000               	movlw	0x0
  2187  03E8  00D3               	movwf	(?___ftdiv+2)
  2188                           	
  2189  03E9                     l2672:	
  2190  03E9  2C91               	goto	l729
  2191                           	
  2192  03EA                     l728:	
  2193                           	line	57
  2194                           	
  2195  03EA                     l2674:	
  2196  03EA  0851               	movf	(___ftdiv@f2),w
  2197  03EB  00D7               	movwf	((??___ftdiv+0)+0)
  2198  03EC  0852               	movf	(___ftdiv@f2+1),w
  2199  03ED  00D8               	movwf	((??___ftdiv+0)+0+1)
  2200  03EE  0853               	movf	(___ftdiv@f2+2),w
  2201  03EF  00D9               	movwf	((??___ftdiv+0)+0+2)
  2202  03F0  1003               	clrc
  2203  03F1  0D58               	rlf	(??___ftdiv+0)+1,w
  2204  03F2  0D59               	rlf	(??___ftdiv+0)+2,w
  2205  03F3  00DA               	movwf	(??___ftdiv+3)+0
  2206  03F4  085A               	movf	(??___ftdiv+3)+0,w
  2207  03F5  00E0               	movwf	(___ftdiv@sign)
  2208  03F6  08E0               	movf	((___ftdiv@sign)),f
  2209  03F7  1D03               	skipz
  2210  03F8  2BFA               	goto	u3231
  2211  03F9  2BFB               	goto	u3230
  2212  03FA                     u3231:
  2213  03FA  2C02               	goto	l730
  2214  03FB                     u3230:
  2215                           	line	58
  2216                           	
  2217  03FB                     l2676:	
  2218  03FB  3000               	movlw	0x0
  2219  03FC  00D1               	movwf	(?___ftdiv)
  2220  03FD  3000               	movlw	0x0
  2221  03FE  00D2               	movwf	(?___ftdiv+1)
  2222  03FF  3000               	movlw	0x0
  2223  0400  00D3               	movwf	(?___ftdiv+2)
  2224                           	
  2225  0401                     l2678:	
  2226  0401  2C91               	goto	l729
  2227                           	
  2228  0402                     l730:	
  2229                           	line	59
  2230                           	
  2231  0402                     l2680:	
  2232  0402  3000               	movlw	0
  2233  0403  00DC               	movwf	(___ftdiv@f3)
  2234  0404  3000               	movlw	0
  2235  0405  00DD               	movwf	(___ftdiv@f3+1)
  2236  0406  3000               	movlw	0
  2237  0407  00DE               	movwf	(___ftdiv@f3+2)
  2238                           	line	60
  2239                           	
  2240  0408                     l2682:	
  2241  0408  3089               	movlw	(089h)
  2242  0409  0760               	addwf	(___ftdiv@sign),w
  2243  040A  00D7               	movwf	(??___ftdiv+0)+0
  2244  040B  0857               	movf	0+(??___ftdiv+0)+0,w
  2245  040C  02DF               	subwf	(___ftdiv@exp),f
  2246                           	line	61
  2247                           	
  2248  040D                     l2684:	
  2249  040D  0854               	movf	(___ftdiv@f1),w
  2250  040E  00D7               	movwf	((??___ftdiv+0)+0)
  2251  040F  0855               	movf	(___ftdiv@f1+1),w
  2252  0410  00D8               	movwf	((??___ftdiv+0)+0+1)
  2253  0411  0856               	movf	(___ftdiv@f1+2),w
  2254  0412  00D9               	movwf	((??___ftdiv+0)+0+2)
  2255  0413  3010               	movlw	010h
  2256  0414                     u3245:
  2257  0414  1003               	clrc
  2258  0415  0CD9               	rrf	(??___ftdiv+0)+2,f
  2259  0416  0CD8               	rrf	(??___ftdiv+0)+1,f
  2260  0417  0CD7               	rrf	(??___ftdiv+0)+0,f
  2261  0418                     u3240:
  2262  0418  3EFF               	addlw	-1
  2263  0419  1D03               	skipz
  2264  041A  2C14               	goto	u3245
  2265  041B  0857               	movf	0+(??___ftdiv+0)+0,w
  2266  041C  00DA               	movwf	(??___ftdiv+3)+0
  2267  041D  085A               	movf	(??___ftdiv+3)+0,w
  2268  041E  00E0               	movwf	(___ftdiv@sign)
  2269                           	line	62
  2270                           	
  2271  041F                     l2686:	
  2272  041F  0851               	movf	(___ftdiv@f2),w
  2273  0420  00D7               	movwf	((??___ftdiv+0)+0)
  2274  0421  0852               	movf	(___ftdiv@f2+1),w
  2275  0422  00D8               	movwf	((??___ftdiv+0)+0+1)
  2276  0423  0853               	movf	(___ftdiv@f2+2),w
  2277  0424  00D9               	movwf	((??___ftdiv+0)+0+2)
  2278  0425  3010               	movlw	010h
  2279  0426                     u3255:
  2280  0426  1003               	clrc
  2281  0427  0CD9               	rrf	(??___ftdiv+0)+2,f
  2282  0428  0CD8               	rrf	(??___ftdiv+0)+1,f
  2283  0429  0CD7               	rrf	(??___ftdiv+0)+0,f
  2284  042A                     u3250:
  2285  042A  3EFF               	addlw	-1
  2286  042B  1D03               	skipz
  2287  042C  2C26               	goto	u3255
  2288  042D  0857               	movf	0+(??___ftdiv+0)+0,w
  2289  042E  00DA               	movwf	(??___ftdiv+3)+0
  2290  042F  085A               	movf	(??___ftdiv+3)+0,w
  2291  0430  06E0               	xorwf	(___ftdiv@sign),f
  2292                           	line	63
  2293                           	
  2294  0431                     l2688:	
  2295  0431  3080               	movlw	(080h)
  2296  0432  00D7               	movwf	(??___ftdiv+0)+0
  2297  0433  0857               	movf	(??___ftdiv+0)+0,w
  2298  0434  05E0               	andwf	(___ftdiv@sign),f
  2299                           	line	64
  2300                           	
  2301  0435                     l2690:	
  2302  0435  17D5               	bsf	(___ftdiv@f1)+(15/8),(15)&7
  2303                           	line	65
  2304  0436  30FF               	movlw	0FFh
  2305  0437  05D4               	andwf	(___ftdiv@f1),f
  2306  0438  30FF               	movlw	0FFh
  2307  0439  05D5               	andwf	(___ftdiv@f1+1),f
  2308  043A  3000               	movlw	0
  2309  043B  05D6               	andwf	(___ftdiv@f1+2),f
  2310                           	line	66
  2311                           	
  2312  043C                     l2692:	
  2313  043C  17D2               	bsf	(___ftdiv@f2)+(15/8),(15)&7
  2314                           	line	67
  2315  043D  30FF               	movlw	0FFh
  2316  043E  05D1               	andwf	(___ftdiv@f2),f
  2317  043F  30FF               	movlw	0FFh
  2318  0440  05D2               	andwf	(___ftdiv@f2+1),f
  2319  0441  3000               	movlw	0
  2320  0442  05D3               	andwf	(___ftdiv@f2+2),f
  2321                           	line	68
  2322  0443  3018               	movlw	(018h)
  2323  0444  00D7               	movwf	(??___ftdiv+0)+0
  2324  0445  0857               	movf	(??___ftdiv+0)+0,w
  2325  0446  00DB               	movwf	(___ftdiv@cntr)
  2326                           	line	69
  2327                           	
  2328  0447                     l731:	
  2329                           	line	70
  2330                           	
  2331  0447                     l2694:	
  2332  0447  3001               	movlw	01h
  2333  0448                     u3265:
  2334  0448  1003               	clrc
  2335  0449  0DDC               	rlf	(___ftdiv@f3),f
  2336  044A  0DDD               	rlf	(___ftdiv@f3+1),f
  2337  044B  0DDE               	rlf	(___ftdiv@f3+2),f
  2338  044C  3EFF               	addlw	-1
  2339  044D  1D03               	skipz
  2340  044E  2C48               	goto	u3265
  2341                           	line	71
  2342                           	
  2343  044F                     l2696:	
  2344  044F  0853               	movf	(___ftdiv@f2+2),w
  2345  0450  0256               	subwf	(___ftdiv@f1+2),w
  2346  0451  1D03               	skipz
  2347  0452  2C59               	goto	u3275
  2348  0453  0852               	movf	(___ftdiv@f2+1),w
  2349  0454  0255               	subwf	(___ftdiv@f1+1),w
  2350  0455  1D03               	skipz
  2351  0456  2C59               	goto	u3275
  2352  0457  0851               	movf	(___ftdiv@f2),w
  2353  0458  0254               	subwf	(___ftdiv@f1),w
  2354  0459                     u3275:
  2355  0459  1C03               	skipc
  2356  045A  2C5C               	goto	u3271
  2357  045B  2C5D               	goto	u3270
  2358  045C                     u3271:
  2359  045C  2C68               	goto	l732
  2360  045D                     u3270:
  2361                           	line	72
  2362                           	
  2363  045D                     l2698:	
  2364  045D  0851               	movf	(___ftdiv@f2),w
  2365  045E  02D4               	subwf	(___ftdiv@f1),f
  2366  045F  0852               	movf	(___ftdiv@f2+1),w
  2367  0460  1C03               	skipc
  2368  0461  0F52               	incfsz	(___ftdiv@f2+1),w
  2369  0462  02D5               	subwf	(___ftdiv@f1+1),f
  2370  0463  0853               	movf	(___ftdiv@f2+2),w
  2371  0464  1C03               	skipc
  2372  0465  0A53               	incf	(___ftdiv@f2+2),w
  2373  0466  02D6               	subwf	(___ftdiv@f1+2),f
  2374                           	line	73
  2375                           	
  2376  0467                     l2700:	
  2377  0467  145C               	bsf	(___ftdiv@f3)+(0/8),(0)&7
  2378                           	line	74
  2379                           	
  2380  0468                     l732:	
  2381                           	line	75
  2382                           	
  2383  0468                     l2702:	
  2384  0468  3001               	movlw	01h
  2385  0469                     u3285:
  2386  0469  1003               	clrc
  2387  046A  0DD4               	rlf	(___ftdiv@f1),f
  2388  046B  0DD5               	rlf	(___ftdiv@f1+1),f
  2389  046C  0DD6               	rlf	(___ftdiv@f1+2),f
  2390  046D  3EFF               	addlw	-1
  2391  046E  1D03               	skipz
  2392  046F  2C69               	goto	u3285
  2393                           	line	76
  2394                           	
  2395  0470                     l2704:	
  2396  0470  3001               	movlw	low(01h)
  2397  0471  02DB               	subwf	(___ftdiv@cntr),f
  2398  0472  1D03               	btfss	status,2
  2399  0473  2C75               	goto	u3291
  2400  0474  2C76               	goto	u3290
  2401  0475                     u3291:
  2402  0475  2C47               	goto	l731
  2403  0476                     u3290:
  2404                           	
  2405  0476                     l733:	
  2406                           	line	77
  2407                           	
  2408  0476                     l2706:	
  2409  0476  085C               	movf	(___ftdiv@f3),w
  2410  0477  00F0               	movwf	(?___ftpack)
  2411  0478  085D               	movf	(___ftdiv@f3+1),w
  2412  0479  00F1               	movwf	(?___ftpack+1)
  2413  047A  085E               	movf	(___ftdiv@f3+2),w
  2414  047B  00F2               	movwf	(?___ftpack+2)
  2415  047C  085F               	movf	(___ftdiv@exp),w
  2416  047D  00D7               	movwf	(??___ftdiv+0)+0
  2417  047E  0857               	movf	(??___ftdiv+0)+0,w
  2418  047F  00F3               	movwf	0+(?___ftpack)+03h
  2419  0480  0860               	movf	(___ftdiv@sign),w
  2420  0481  00D8               	movwf	(??___ftdiv+1)+0
  2421  0482  0858               	movf	(??___ftdiv+1)+0,w
  2422  0483  00F4               	movwf	0+(?___ftpack)+04h
  2423  0484  120A  118A  22BF   	fcall	___ftpack
              120A  118A         
  2424  0489  0870               	movf	(0+(?___ftpack)),w
  2425  048A  1283               	bcf	status, 5	;RP0=0, select bank0
  2426  048B  1303               	bcf	status, 6	;RP1=0, select bank0
  2427  048C  00D1               	movwf	(?___ftdiv)
  2428  048D  0871               	movf	(1+(?___ftpack)),w
  2429  048E  00D2               	movwf	(?___ftdiv+1)
  2430  048F  0872               	movf	(2+(?___ftpack)),w
  2431  0490  00D3               	movwf	(?___ftdiv+2)
  2432                           	
  2433  0491                     l2708:	
  2434                           	line	78
  2435                           	
  2436  0491                     l729:	
  2437  0491  0008               	return
  2438                           	opt stack 0
  2439                           GLOBAL	__end_of___ftdiv
  2440  0492                     	__end_of___ftdiv:
  2441 ;; =============== function ___ftdiv ends ============
  2442                           
  2443                           	signat	___ftdiv,8315
  2444                           	global	_lcd_data
  2445                           psect	text296,local,class=CODE,delta=2
  2446                           global __ptext296
  2447  00EA                     __ptext296:
  2448                           
  2449 ;; *************** function _lcd_data *****************
  2450 ;; Defined at:
  2451 ;;		line 41 in file "C:\Users\ELCOT\Desktop\PIC Workouts\TASK\mam tack\tack.c"
  2452 ;; Parameters:    Size  Location     Type
  2453 ;;  data            1    wreg     unsigned char 
  2454 ;; Auto vars:     Size  Location     Type
  2455 ;;  data            1    2[COMMON] unsigned char 
  2456 ;; Return value:  Size  Location     Type
  2457 ;;		None               void
  2458 ;; Registers used:
  2459 ;;		wreg, status,2, status,0, pclath, cstack
  2460 ;; Tracked objects:
  2461 ;;		On entry : 0/0
  2462 ;;		On exit  : 0/0
  2463 ;;		Unchanged: 0/0
  2464 ;; Data sizes:     COMMON   BANK0   BANK1   BANK3   BANK2
  2465 ;;      Params:         0       0       0       0       0
  2466 ;;      Locals:         1       0       0       0       0
  2467 ;;      Temps:          0       0       0       0       0
  2468 ;;      Totals:         1       0       0       0       0
  2469 ;;Total ram usage:        1 bytes
  2470 ;; Hardware stack levels used:    1
  2471 ;; Hardware stack levels required when called:    1
  2472 ;; This function calls:
  2473 ;;		_delay
  2474 ;; This function is called by:
  2475 ;;		_lcd_display
  2476 ;;		_ply
  2477 ;;		_main
  2478 ;; This function uses a non-reentrant model
  2479 ;;
  2480                           psect	text296
  2481                           	file	"C:\Users\ELCOT\Desktop\PIC Workouts\TASK\mam tack\tack.c"
  2482                           	line	41
  2483                           	global	__size_of_lcd_data
  2484  0015                     	__size_of_lcd_data	equ	__end_of_lcd_data-_lcd_data
  2485                           	
  2486  00EA                     _lcd_data:	
  2487                           	opt	stack 7
  2488                           ; Regs used in _lcd_data: [wreg+status,2+status,0+pclath+cstack]
  2489                           ;lcd_data@data stored from wreg
  2490  00EA  00F2               	movwf	(lcd_data@data)
  2491                           	line	42
  2492                           	
  2493  00EB                     l2656:	
  2494                           ;tack.c: 42: PORTD=data;
  2495  00EB  0872               	movf	(lcd_data@data),w
  2496  00EC  1283               	bcf	status, 5	;RP0=0, select bank0
  2497  00ED  1303               	bcf	status, 6	;RP1=0, select bank0
  2498  00EE  0088               	movwf	(8)	;volatile
  2499                           	line	43
  2500                           	
  2501  00EF                     l2658:	
  2502                           ;tack.c: 43: RC0=1;
  2503  00EF  1407               	bsf	(56/8),(56)&7
  2504                           	line	44
  2505                           	
  2506  00F0                     l2660:	
  2507                           ;tack.c: 44: RC1=0;
  2508  00F0  1087               	bcf	(57/8),(57)&7
  2509                           	line	45
  2510                           	
  2511  00F1                     l2662:	
  2512                           ;tack.c: 45: RC2=1;
  2513  00F1  1507               	bsf	(58/8),(58)&7
  2514                           	line	46
  2515                           	
  2516  00F2                     l2664:	
  2517                           ;tack.c: 46: delay(100);
  2518  00F2  3064               	movlw	low(064h)
  2519  00F3  00F0               	movwf	(?_delay)
  2520  00F4  3000               	movlw	high(064h)
  2521  00F5  00F1               	movwf	((?_delay))+1
  2522  00F6  120A  118A  20C3   	fcall	_delay
              120A  118A         
  2523                           	line	47
  2524                           	
  2525  00FB                     l2666:	
  2526                           ;tack.c: 47: RC2=0;
  2527  00FB  1283               	bcf	status, 5	;RP0=0, select bank0
  2528  00FC  1303               	bcf	status, 6	;RP1=0, select bank0
  2529  00FD  1107               	bcf	(58/8),(58)&7
  2530                           	line	48
  2531                           	
  2532  00FE                     l609:	
  2533  00FE  0008               	return
  2534                           	opt stack 0
  2535                           GLOBAL	__end_of_lcd_data
  2536  00FF                     	__end_of_lcd_data:
  2537 ;; =============== function _lcd_data ends ============
  2538                           
  2539                           	signat	_lcd_data,4216
  2540                           	global	_lcd_command
  2541                           psect	text297,local,class=CODE,delta=2
  2542                           global __ptext297
  2543  00D5                     __ptext297:
  2544                           
  2545 ;; *************** function _lcd_command *****************
  2546 ;; Defined at:
  2547 ;;		line 31 in file "C:\Users\ELCOT\Desktop\PIC Workouts\TASK\mam tack\tack.c"
  2548 ;; Parameters:    Size  Location     Type
  2549 ;;  com             1    wreg     unsigned char 
  2550 ;; Auto vars:     Size  Location     Type
  2551 ;;  com             1    2[COMMON] unsigned char 
  2552 ;; Return value:  Size  Location     Type
  2553 ;;		None               void
  2554 ;; Registers used:
  2555 ;;		wreg, status,2, status,0, pclath, cstack
  2556 ;; Tracked objects:
  2557 ;;		On entry : 0/0
  2558 ;;		On exit  : 0/0
  2559 ;;		Unchanged: 0/0
  2560 ;; Data sizes:     COMMON   BANK0   BANK1   BANK3   BANK2
  2561 ;;      Params:         0       0       0       0       0
  2562 ;;      Locals:         1       0       0       0       0
  2563 ;;      Temps:          0       0       0       0       0
  2564 ;;      Totals:         1       0       0       0       0
  2565 ;;Total ram usage:        1 bytes
  2566 ;; Hardware stack levels used:    1
  2567 ;; Hardware stack levels required when called:    1
  2568 ;; This function calls:
  2569 ;;		_delay
  2570 ;; This function is called by:
  2571 ;;		_lcd_init
  2572 ;;		_ply
  2573 ;;		_main
  2574 ;; This function uses a non-reentrant model
  2575 ;;
  2576                           psect	text297
  2577                           	file	"C:\Users\ELCOT\Desktop\PIC Workouts\TASK\mam tack\tack.c"
  2578                           	line	31
  2579                           	global	__size_of_lcd_command
  2580  0015                     	__size_of_lcd_command	equ	__end_of_lcd_command-_lcd_command
  2581                           	
  2582  00D5                     _lcd_command:	
  2583                           	opt	stack 6
  2584                           ; Regs used in _lcd_command: [wreg+status,2+status,0+pclath+cstack]
  2585                           ;lcd_command@com stored from wreg
  2586  00D5  00F2               	movwf	(lcd_command@com)
  2587                           	line	32
  2588                           	
  2589  00D6                     l2644:	
  2590                           ;tack.c: 32: PORTD=com;
  2591  00D6  0872               	movf	(lcd_command@com),w
  2592  00D7  1283               	bcf	status, 5	;RP0=0, select bank0
  2593  00D8  1303               	bcf	status, 6	;RP1=0, select bank0
  2594  00D9  0088               	movwf	(8)	;volatile
  2595                           	line	33
  2596                           	
  2597  00DA                     l2646:	
  2598                           ;tack.c: 33: RC0=0;
  2599  00DA  1007               	bcf	(56/8),(56)&7
  2600                           	line	34
  2601                           	
  2602  00DB                     l2648:	
  2603                           ;tack.c: 34: RC1=0;
  2604  00DB  1087               	bcf	(57/8),(57)&7
  2605                           	line	35
  2606                           	
  2607  00DC                     l2650:	
  2608                           ;tack.c: 35: RC2=1;
  2609  00DC  1507               	bsf	(58/8),(58)&7
  2610                           	line	36
  2611                           	
  2612  00DD                     l2652:	
  2613                           ;tack.c: 36: delay(100);
  2614  00DD  3064               	movlw	low(064h)
  2615  00DE  00F0               	movwf	(?_delay)
  2616  00DF  3000               	movlw	high(064h)
  2617  00E0  00F1               	movwf	((?_delay))+1
  2618  00E1  120A  118A  20C3   	fcall	_delay
              120A  118A         
  2619                           	line	37
  2620                           	
  2621  00E6                     l2654:	
  2622                           ;tack.c: 37: RC2=0;
  2623  00E6  1283               	bcf	status, 5	;RP0=0, select bank0
  2624  00E7  1303               	bcf	status, 6	;RP1=0, select bank0
  2625  00E8  1107               	bcf	(58/8),(58)&7
  2626                           	line	38
  2627                           	
  2628  00E9                     l606:	
  2629  00E9  0008               	return
  2630                           	opt stack 0
  2631                           GLOBAL	__end_of_lcd_command
  2632  00EA                     	__end_of_lcd_command:
  2633 ;; =============== function _lcd_command ends ============
  2634                           
  2635                           	signat	_lcd_command,4216
  2636                           	global	___awmod
  2637                           psect	text298,local,class=CODE,delta=2
  2638                           global __ptext298
  2639  01EF                     __ptext298:
  2640                           
  2641 ;; *************** function ___awmod *****************
  2642 ;; Defined at:
  2643 ;;		line 5 in file "C:\Program Files (x86)\HI-TECH Software\PICC\9.71a\sources\awmod.c"
  2644 ;; Parameters:    Size  Location     Type
  2645 ;;  divisor         2    0[COMMON] int 
  2646 ;;  dividend        2    2[COMMON] int 
  2647 ;; Auto vars:     Size  Location     Type
  2648 ;;  sign            1    6[COMMON] unsigned char 
  2649 ;;  counter         1    5[COMMON] unsigned char 
  2650 ;; Return value:  Size  Location     Type
  2651 ;;                  2    0[COMMON] int 
  2652 ;; Registers used:
  2653 ;;		wreg, status,2, status,0
  2654 ;; Tracked objects:
  2655 ;;		On entry : 0/0
  2656 ;;		On exit  : 0/0
  2657 ;;		Unchanged: 0/0
  2658 ;; Data sizes:     COMMON   BANK0   BANK1   BANK3   BANK2
  2659 ;;      Params:         4       0       0       0       0
  2660 ;;      Locals:         2       0       0       0       0
  2661 ;;      Temps:          1       0       0       0       0
  2662 ;;      Totals:         7       0       0       0       0
  2663 ;;Total ram usage:        7 bytes
  2664 ;; Hardware stack levels used:    1
  2665 ;; This function calls:
  2666 ;;		Nothing
  2667 ;; This function is called by:
  2668 ;;		_ply
  2669 ;;		_main
  2670 ;; This function uses a non-reentrant model
  2671 ;;
  2672                           psect	text298
  2673                           	file	"C:\Program Files (x86)\HI-TECH Software\PICC\9.71a\sources\awmod.c"
  2674                           	line	5
  2675                           	global	__size_of___awmod
  2676  0060                     	__size_of___awmod	equ	__end_of___awmod-___awmod
  2677                           	
  2678  01EF                     ___awmod:	
  2679                           	opt	stack 7
  2680                           ; Regs used in ___awmod: [wreg+status,2+status,0]
  2681                           	line	8
  2682                           	
  2683  01EF                     l2564:	
  2684  01EF  1003               	clrc
  2685  01F0  3000               	movlw	0
  2686  01F1  1803               	btfsc	status,0
  2687  01F2  3001               	movlw	1
  2688  01F3  00F6               	movwf	(___awmod@sign)
  2689                           	line	9
  2690                           	
  2691  01F4                     l2566:	
  2692  01F4  1FF3               	btfss	(___awmod@dividend+1),7
  2693  01F5  29F7               	goto	u3071
  2694  01F6  29F8               	goto	u3070
  2695  01F7                     u3071:
  2696  01F7  2A00               	goto	l848
  2697  01F8                     u3070:
  2698                           	line	10
  2699                           	
  2700  01F8                     l2568:	
  2701  01F8  09F2               	comf	(___awmod@dividend),f
  2702  01F9  09F3               	comf	(___awmod@dividend+1),f
  2703  01FA  0AF2               	incf	(___awmod@dividend),f
  2704  01FB  1903               	skipnz
  2705  01FC  0AF3               	incf	(___awmod@dividend+1),f
  2706                           	line	11
  2707  01FD  01F6               	clrf	(___awmod@sign)
  2708  01FE  1403               	bsf	status,0
  2709  01FF  0DF6               	rlf	(___awmod@sign),f
  2710                           	line	12
  2711                           	
  2712  0200                     l848:	
  2713                           	line	13
  2714                           	
  2715  0200                     l2570:	
  2716  0200  1FF1               	btfss	(___awmod@divisor+1),7
  2717  0201  2A03               	goto	u3081
  2718  0202  2A04               	goto	u3080
  2719  0203                     u3081:
  2720  0203  2A09               	goto	l849
  2721  0204                     u3080:
  2722                           	line	14
  2723                           	
  2724  0204                     l2572:	
  2725  0204  09F0               	comf	(___awmod@divisor),f
  2726  0205  09F1               	comf	(___awmod@divisor+1),f
  2727  0206  0AF0               	incf	(___awmod@divisor),f
  2728  0207  1903               	skipnz
  2729  0208  0AF1               	incf	(___awmod@divisor+1),f
  2730                           	
  2731  0209                     l849:	
  2732                           	line	15
  2733                           	
  2734  0209                     l2574:	
  2735  0209  0871               	movf	(___awmod@divisor+1),w
  2736  020A  0470               	iorwf	(___awmod@divisor),w
  2737  020B  1903               	skipnz
  2738  020C  2A0E               	goto	u3091
  2739  020D  2A0F               	goto	u3090
  2740  020E                     u3091:
  2741  020E  2A3F               	goto	l850
  2742  020F                     u3090:
  2743                           	line	16
  2744                           	
  2745  020F                     l2576:	
  2746  020F  01F5               	clrf	(___awmod@counter)
  2747  0210  1403               	bsf	status,0
  2748  0211  0DF5               	rlf	(___awmod@counter),f
  2749                           	line	17
  2750  0212  2A1E               	goto	l851
  2751                           	
  2752  0213                     l852:	
  2753                           	line	18
  2754                           	
  2755  0213                     l2578:	
  2756  0213  3001               	movlw	01h
  2757                           	
  2758  0214                     u3105:
  2759  0214  1003               	clrc
  2760  0215  0DF0               	rlf	(___awmod@divisor),f
  2761  0216  0DF1               	rlf	(___awmod@divisor+1),f
  2762  0217  3EFF               	addlw	-1
  2763  0218  1D03               	skipz
  2764  0219  2A14               	goto	u3105
  2765                           	line	19
  2766                           	
  2767  021A                     l2580:	
  2768  021A  3001               	movlw	(01h)
  2769  021B  00F4               	movwf	(??___awmod+0)+0
  2770  021C  0874               	movf	(??___awmod+0)+0,w
  2771  021D  07F5               	addwf	(___awmod@counter),f
  2772                           	line	20
  2773                           	
  2774  021E                     l851:	
  2775                           	line	17
  2776                           	
  2777  021E                     l2582:	
  2778  021E  1FF1               	btfss	(___awmod@divisor+1),(15)&7
  2779  021F  2A21               	goto	u3111
  2780  0220  2A22               	goto	u3110
  2781  0221                     u3111:
  2782  0221  2A13               	goto	l852
  2783  0222                     u3110:
  2784                           	
  2785  0222                     l853:	
  2786                           	line	21
  2787                           	
  2788  0222                     l854:	
  2789                           	line	22
  2790                           	
  2791  0222                     l2584:	
  2792  0222  0871               	movf	(___awmod@divisor+1),w
  2793  0223  0273               	subwf	(___awmod@dividend+1),w
  2794  0224  1D03               	skipz
  2795  0225  2A28               	goto	u3125
  2796  0226  0870               	movf	(___awmod@divisor),w
  2797  0227  0272               	subwf	(___awmod@dividend),w
  2798  0228                     u3125:
  2799  0228  1C03               	skipc
  2800  0229  2A2B               	goto	u3121
  2801  022A  2A2C               	goto	u3120
  2802  022B                     u3121:
  2803  022B  2A32               	goto	l855
  2804  022C                     u3120:
  2805                           	line	23
  2806                           	
  2807  022C                     l2586:	
  2808  022C  0870               	movf	(___awmod@divisor),w
  2809  022D  02F2               	subwf	(___awmod@dividend),f
  2810  022E  0871               	movf	(___awmod@divisor+1),w
  2811  022F  1C03               	skipc
  2812  0230  03F3               	decf	(___awmod@dividend+1),f
  2813  0231  02F3               	subwf	(___awmod@dividend+1),f
  2814                           	
  2815  0232                     l855:	
  2816                           	line	24
  2817                           	
  2818  0232                     l2588:	
  2819  0232  3001               	movlw	01h
  2820                           	
  2821  0233                     u3135:
  2822  0233  1003               	clrc
  2823  0234  0CF1               	rrf	(___awmod@divisor+1),f
  2824  0235  0CF0               	rrf	(___awmod@divisor),f
  2825  0236  3EFF               	addlw	-1
  2826  0237  1D03               	skipz
  2827  0238  2A33               	goto	u3135
  2828                           	line	25
  2829                           	
  2830  0239                     l2590:	
  2831  0239  3001               	movlw	low(01h)
  2832  023A  02F5               	subwf	(___awmod@counter),f
  2833  023B  1D03               	btfss	status,2
  2834  023C  2A3E               	goto	u3141
  2835  023D  2A3F               	goto	u3140
  2836  023E                     u3141:
  2837  023E  2A22               	goto	l854
  2838  023F                     u3140:
  2839                           	
  2840  023F                     l856:	
  2841                           	line	26
  2842                           	
  2843  023F                     l850:	
  2844                           	line	27
  2845                           	
  2846  023F                     l2592:	
  2847  023F  0876               	movf	(___awmod@sign),w
  2848  0240  1D03               	skipz
  2849  0241  2A43               	goto	u3150
  2850  0242  2A48               	goto	l857
  2851  0243                     u3150:
  2852                           	line	28
  2853                           	
  2854  0243                     l2594:	
  2855  0243  09F2               	comf	(___awmod@dividend),f
  2856  0244  09F3               	comf	(___awmod@dividend+1),f
  2857  0245  0AF2               	incf	(___awmod@dividend),f
  2858  0246  1903               	skipnz
  2859  0247  0AF3               	incf	(___awmod@dividend+1),f
  2860                           	
  2861  0248                     l857:	
  2862                           	line	29
  2863                           	
  2864  0248                     l2596:	
  2865  0248  0873               	movf	(___awmod@dividend+1),w
  2866  0249  01F1               	clrf	(?___awmod+1)
  2867  024A  07F1               	addwf	(?___awmod+1)
  2868  024B  0872               	movf	(___awmod@dividend),w
  2869  024C  01F0               	clrf	(?___awmod)
  2870  024D  07F0               	addwf	(?___awmod)
  2871                           
  2872                           	
  2873  024E                     l2598:	
  2874                           	line	30
  2875                           	
  2876  024E                     l858:	
  2877  024E  0008               	return
  2878                           	opt stack 0
  2879                           GLOBAL	__end_of___awmod
  2880  024F                     	__end_of___awmod:
  2881 ;; =============== function ___awmod ends ============
  2882                           
  2883                           	signat	___awmod,8314
  2884                           	global	___awdiv
  2885                           psect	text299,local,class=CODE,delta=2
  2886                           global __ptext299
  2887  024F                     __ptext299:
  2888                           
  2889 ;; *************** function ___awdiv *****************
  2890 ;; Defined at:
  2891 ;;		line 5 in file "C:\Program Files (x86)\HI-TECH Software\PICC\9.71a\sources\awdiv.c"
  2892 ;; Parameters:    Size  Location     Type
  2893 ;;  divisor         2    0[COMMON] int 
  2894 ;;  dividend        2    2[COMMON] int 
  2895 ;; Auto vars:     Size  Location     Type
  2896 ;;  quotient        2    7[COMMON] int 
  2897 ;;  sign            1    6[COMMON] unsigned char 
  2898 ;;  counter         1    5[COMMON] unsigned char 
  2899 ;; Return value:  Size  Location     Type
  2900 ;;                  2    0[COMMON] int 
  2901 ;; Registers used:
  2902 ;;		wreg, status,2, status,0
  2903 ;; Tracked objects:
  2904 ;;		On entry : 0/0
  2905 ;;		On exit  : 0/0
  2906 ;;		Unchanged: 0/0
  2907 ;; Data sizes:     COMMON   BANK0   BANK1   BANK3   BANK2
  2908 ;;      Params:         4       0       0       0       0
  2909 ;;      Locals:         4       0       0       0       0
  2910 ;;      Temps:          1       0       0       0       0
  2911 ;;      Totals:         9       0       0       0       0
  2912 ;;Total ram usage:        9 bytes
  2913 ;; Hardware stack levels used:    1
  2914 ;; This function calls:
  2915 ;;		Nothing
  2916 ;; This function is called by:
  2917 ;;		_ply
  2918 ;;		_main
  2919 ;; This function uses a non-reentrant model
  2920 ;;
  2921                           psect	text299
  2922                           	file	"C:\Program Files (x86)\HI-TECH Software\PICC\9.71a\sources\awdiv.c"
  2923                           	line	5
  2924                           	global	__size_of___awdiv
  2925  0070                     	__size_of___awdiv	equ	__end_of___awdiv-___awdiv
  2926                           	
  2927  024F                     ___awdiv:	
  2928                           	opt	stack 7
  2929                           ; Regs used in ___awdiv: [wreg+status,2+status,0]
  2930                           	line	9
  2931                           	
  2932  024F                     l2526:	
  2933  024F  1003               	clrc
  2934  0250  3000               	movlw	0
  2935  0251  1803               	btfsc	status,0
  2936  0252  3001               	movlw	1
  2937  0253  00F6               	movwf	(___awdiv@sign)
  2938                           	line	10
  2939                           	
  2940  0254                     l2528:	
  2941  0254  1FF1               	btfss	(___awdiv@divisor+1),7
  2942  0255  2A57               	goto	u2971
  2943  0256  2A58               	goto	u2970
  2944  0257                     u2971:
  2945  0257  2A60               	goto	l780
  2946  0258                     u2970:
  2947                           	line	11
  2948                           	
  2949  0258                     l2530:	
  2950  0258  09F0               	comf	(___awdiv@divisor),f
  2951  0259  09F1               	comf	(___awdiv@divisor+1),f
  2952  025A  0AF0               	incf	(___awdiv@divisor),f
  2953  025B  1903               	skipnz
  2954  025C  0AF1               	incf	(___awdiv@divisor+1),f
  2955                           	line	12
  2956  025D  01F6               	clrf	(___awdiv@sign)
  2957  025E  1403               	bsf	status,0
  2958  025F  0DF6               	rlf	(___awdiv@sign),f
  2959                           	line	13
  2960                           	
  2961  0260                     l780:	
  2962                           	line	14
  2963                           	
  2964  0260                     l2532:	
  2965  0260  1FF3               	btfss	(___awdiv@dividend+1),7
  2966  0261  2A63               	goto	u2981
  2967  0262  2A64               	goto	u2980
  2968  0263                     u2981:
  2969  0263  2A6D               	goto	l781
  2970  0264                     u2980:
  2971                           	line	15
  2972                           	
  2973  0264                     l2534:	
  2974  0264  09F2               	comf	(___awdiv@dividend),f
  2975  0265  09F3               	comf	(___awdiv@dividend+1),f
  2976  0266  0AF2               	incf	(___awdiv@dividend),f
  2977  0267  1903               	skipnz
  2978  0268  0AF3               	incf	(___awdiv@dividend+1),f
  2979                           	line	16
  2980                           	
  2981  0269                     l2536:	
  2982  0269  3001               	movlw	(01h)
  2983  026A  00F4               	movwf	(??___awdiv+0)+0
  2984  026B  0874               	movf	(??___awdiv+0)+0,w
  2985  026C  06F6               	xorwf	(___awdiv@sign),f
  2986                           	line	17
  2987                           	
  2988  026D                     l781:	
  2989                           	line	18
  2990  026D  3000               	movlw	low(0)
  2991  026E  00F7               	movwf	(___awdiv@quotient)
  2992  026F  3000               	movlw	high(0)
  2993  0270  00F8               	movwf	((___awdiv@quotient))+1
  2994                           	line	19
  2995  0271  0871               	movf	(___awdiv@divisor+1),w
  2996  0272  0470               	iorwf	(___awdiv@divisor),w
  2997  0273  1903               	skipnz
  2998  0274  2A76               	goto	u2991
  2999  0275  2A77               	goto	u2990
  3000  0276                     u2991:
  3001  0276  2AAF               	goto	l782
  3002  0277                     u2990:
  3003                           	line	20
  3004                           	
  3005  0277                     l2538:	
  3006  0277  01F5               	clrf	(___awdiv@counter)
  3007  0278  1403               	bsf	status,0
  3008  0279  0DF5               	rlf	(___awdiv@counter),f
  3009                           	line	21
  3010  027A  2A86               	goto	l783
  3011                           	
  3012  027B                     l784:	
  3013                           	line	22
  3014                           	
  3015  027B                     l2540:	
  3016  027B  3001               	movlw	01h
  3017                           	
  3018  027C                     u3005:
  3019  027C  1003               	clrc
  3020  027D  0DF0               	rlf	(___awdiv@divisor),f
  3021  027E  0DF1               	rlf	(___awdiv@divisor+1),f
  3022  027F  3EFF               	addlw	-1
  3023  0280  1D03               	skipz
  3024  0281  2A7C               	goto	u3005
  3025                           	line	23
  3026                           	
  3027  0282                     l2542:	
  3028  0282  3001               	movlw	(01h)
  3029  0283  00F4               	movwf	(??___awdiv+0)+0
  3030  0284  0874               	movf	(??___awdiv+0)+0,w
  3031  0285  07F5               	addwf	(___awdiv@counter),f
  3032                           	line	24
  3033                           	
  3034  0286                     l783:	
  3035                           	line	21
  3036                           	
  3037  0286                     l2544:	
  3038  0286  1FF1               	btfss	(___awdiv@divisor+1),(15)&7
  3039  0287  2A89               	goto	u3011
  3040  0288  2A8A               	goto	u3010
  3041  0289                     u3011:
  3042  0289  2A7B               	goto	l784
  3043  028A                     u3010:
  3044                           	
  3045  028A                     l785:	
  3046                           	line	25
  3047                           	
  3048  028A                     l786:	
  3049                           	line	26
  3050                           	
  3051  028A                     l2546:	
  3052  028A  3001               	movlw	01h
  3053                           	
  3054  028B                     u3025:
  3055  028B  1003               	clrc
  3056  028C  0DF7               	rlf	(___awdiv@quotient),f
  3057  028D  0DF8               	rlf	(___awdiv@quotient+1),f
  3058  028E  3EFF               	addlw	-1
  3059  028F  1D03               	skipz
  3060  0290  2A8B               	goto	u3025
  3061                           	line	27
  3062  0291  0871               	movf	(___awdiv@divisor+1),w
  3063  0292  0273               	subwf	(___awdiv@dividend+1),w
  3064  0293  1D03               	skipz
  3065  0294  2A97               	goto	u3035
  3066  0295  0870               	movf	(___awdiv@divisor),w
  3067  0296  0272               	subwf	(___awdiv@dividend),w
  3068  0297                     u3035:
  3069  0297  1C03               	skipc
  3070  0298  2A9A               	goto	u3031
  3071  0299  2A9B               	goto	u3030
  3072  029A                     u3031:
  3073  029A  2AA2               	goto	l787
  3074  029B                     u3030:
  3075                           	line	28
  3076                           	
  3077  029B                     l2548:	
  3078  029B  0870               	movf	(___awdiv@divisor),w
  3079  029C  02F2               	subwf	(___awdiv@dividend),f
  3080  029D  0871               	movf	(___awdiv@divisor+1),w
  3081  029E  1C03               	skipc
  3082  029F  03F3               	decf	(___awdiv@dividend+1),f
  3083  02A0  02F3               	subwf	(___awdiv@dividend+1),f
  3084                           	line	29
  3085                           	
  3086  02A1                     l2550:	
  3087  02A1  1477               	bsf	(___awdiv@quotient)+(0/8),(0)&7
  3088                           	line	30
  3089                           	
  3090  02A2                     l787:	
  3091                           	line	31
  3092                           	
  3093  02A2                     l2552:	
  3094  02A2  3001               	movlw	01h
  3095                           	
  3096  02A3                     u3045:
  3097  02A3  1003               	clrc
  3098  02A4  0CF1               	rrf	(___awdiv@divisor+1),f
  3099  02A5  0CF0               	rrf	(___awdiv@divisor),f
  3100  02A6  3EFF               	addlw	-1
  3101  02A7  1D03               	skipz
  3102  02A8  2AA3               	goto	u3045
  3103                           	line	32
  3104                           	
  3105  02A9                     l2554:	
  3106  02A9  3001               	movlw	low(01h)
  3107  02AA  02F5               	subwf	(___awdiv@counter),f
  3108  02AB  1D03               	btfss	status,2
  3109  02AC  2AAE               	goto	u3051
  3110  02AD  2AAF               	goto	u3050
  3111  02AE                     u3051:
  3112  02AE  2A8A               	goto	l786
  3113  02AF                     u3050:
  3114                           	
  3115  02AF                     l788:	
  3116                           	line	33
  3117                           	
  3118  02AF                     l782:	
  3119                           	line	34
  3120                           	
  3121  02AF                     l2556:	
  3122  02AF  0876               	movf	(___awdiv@sign),w
  3123  02B0  1D03               	skipz
  3124  02B1  2AB3               	goto	u3060
  3125  02B2  2AB8               	goto	l789
  3126  02B3                     u3060:
  3127                           	line	35
  3128                           	
  3129  02B3                     l2558:	
  3130  02B3  09F7               	comf	(___awdiv@quotient),f
  3131  02B4  09F8               	comf	(___awdiv@quotient+1),f
  3132  02B5  0AF7               	incf	(___awdiv@quotient),f
  3133  02B6  1903               	skipnz
  3134  02B7  0AF8               	incf	(___awdiv@quotient+1),f
  3135                           	
  3136  02B8                     l789:	
  3137                           	line	36
  3138                           	
  3139  02B8                     l2560:	
  3140  02B8  0878               	movf	(___awdiv@quotient+1),w
  3141  02B9  01F1               	clrf	(?___awdiv+1)
  3142  02BA  07F1               	addwf	(?___awdiv+1)
  3143  02BB  0877               	movf	(___awdiv@quotient),w
  3144  02BC  01F0               	clrf	(?___awdiv)
  3145  02BD  07F0               	addwf	(?___awdiv)
  3146                           
  3147                           	
  3148  02BE                     l2562:	
  3149                           	line	37
  3150                           	
  3151  02BE                     l790:	
  3152  02BE  0008               	return
  3153                           	opt stack 0
  3154                           GLOBAL	__end_of___awdiv
  3155  02BF                     	__end_of___awdiv:
  3156 ;; =============== function ___awdiv ends ============
  3157                           
  3158                           	signat	___awdiv,8314
  3159                           	global	___fttol
  3160                           psect	text300,local,class=CODE,delta=2
  3161                           global __ptext300
  3162  0334                     __ptext300:
  3163                           
  3164 ;; *************** function ___fttol *****************
  3165 ;; Defined at:
  3166 ;;		line 45 in file "C:\Program Files (x86)\HI-TECH Software\PICC\9.71a\sources\fttol.c"
  3167 ;; Parameters:    Size  Location     Type
  3168 ;;  f1              3    8[COMMON] float 
  3169 ;; Auto vars:     Size  Location     Type
  3170 ;;  lval            4    5[BANK0 ] unsigned long 
  3171 ;;  exp1            1    9[BANK0 ] unsigned char 
  3172 ;;  sign1           1    4[BANK0 ] unsigned char 
  3173 ;; Return value:  Size  Location     Type
  3174 ;;                  4    8[COMMON] long 
  3175 ;; Registers used:
  3176 ;;		wreg, status,2, status,0
  3177 ;; Tracked objects:
  3178 ;;		On entry : 0/0
  3179 ;;		On exit  : 0/0
  3180 ;;		Unchanged: 0/0
  3181 ;; Data sizes:     COMMON   BANK0   BANK1   BANK3   BANK2
  3182 ;;      Params:         4       0       0       0       0
  3183 ;;      Locals:         0       6       0       0       0
  3184 ;;      Temps:          0       4       0       0       0
  3185 ;;      Totals:         4      10       0       0       0
  3186 ;;Total ram usage:       14 bytes
  3187 ;; Hardware stack levels used:    1
  3188 ;; This function calls:
  3189 ;;		Nothing
  3190 ;; This function is called by:
  3191 ;;		_main
  3192 ;; This function uses a non-reentrant model
  3193 ;;
  3194                           psect	text300
  3195                           	file	"C:\Program Files (x86)\HI-TECH Software\PICC\9.71a\sources\fttol.c"
  3196                           	line	45
  3197                           	global	__size_of___fttol
  3198  009C                     	__size_of___fttol	equ	__end_of___fttol-___fttol
  3199                           	
  3200  0334                     ___fttol:	
  3201                           	opt	stack 7
  3202                           ; Regs used in ___fttol: [wreg+status,2+status,0]
  3203                           	line	49
  3204                           	
  3205  0334                     l2458:	
  3206  0334  0878               	movf	(___fttol@f1),w
  3207  0335  1283               	bcf	status, 5	;RP0=0, select bank0
  3208  0336  1303               	bcf	status, 6	;RP1=0, select bank0
  3209  0337  00C4               	movwf	((??___fttol+0)+0)
  3210  0338  0879               	movf	(___fttol@f1+1),w
  3211  0339  00C5               	movwf	((??___fttol+0)+0+1)
  3212  033A  087A               	movf	(___fttol@f1+2),w
  3213  033B  00C6               	movwf	((??___fttol+0)+0+2)
  3214  033C  1003               	clrc
  3215  033D  0D45               	rlf	(??___fttol+0)+1,w
  3216  033E  0D46               	rlf	(??___fttol+0)+2,w
  3217  033F  00C7               	movwf	(??___fttol+3)+0
  3218  0340  0847               	movf	(??___fttol+3)+0,w
  3219  0341  00CD               	movwf	(___fttol@exp1)
  3220  0342  08CD               	movf	((___fttol@exp1)),f
  3221  0343  1D03               	skipz
  3222  0344  2B46               	goto	u2851
  3223  0345  2B47               	goto	u2850
  3224  0346                     u2851:
  3225  0346  2B50               	goto	l749
  3226  0347                     u2850:
  3227                           	line	50
  3228                           	
  3229  0347                     l2460:	
  3230  0347  3000               	movlw	0
  3231  0348  00FB               	movwf	(?___fttol+3)
  3232  0349  3000               	movlw	0
  3233  034A  00FA               	movwf	(?___fttol+2)
  3234  034B  3000               	movlw	0
  3235  034C  00F9               	movwf	(?___fttol+1)
  3236  034D  3000               	movlw	0
  3237  034E  00F8               	movwf	(?___fttol)
  3238                           
  3239                           	
  3240  034F                     l2462:	
  3241  034F  2BCF               	goto	l750
  3242                           	
  3243  0350                     l749:	
  3244                           	line	51
  3245                           	
  3246  0350                     l2464:	
  3247  0350  0878               	movf	(___fttol@f1),w
  3248  0351  00C4               	movwf	((??___fttol+0)+0)
  3249  0352  0879               	movf	(___fttol@f1+1),w
  3250  0353  00C5               	movwf	((??___fttol+0)+0+1)
  3251  0354  087A               	movf	(___fttol@f1+2),w
  3252  0355  00C6               	movwf	((??___fttol+0)+0+2)
  3253  0356  3017               	movlw	017h
  3254  0357                     u2865:
  3255  0357  1003               	clrc
  3256  0358  0CC6               	rrf	(??___fttol+0)+2,f
  3257  0359  0CC5               	rrf	(??___fttol+0)+1,f
  3258  035A  0CC4               	rrf	(??___fttol+0)+0,f
  3259  035B                     u2860:
  3260  035B  3EFF               	addlw	-1
  3261  035C  1D03               	skipz
  3262  035D  2B57               	goto	u2865
  3263  035E  0844               	movf	0+(??___fttol+0)+0,w
  3264  035F  00C7               	movwf	(??___fttol+3)+0
  3265  0360  0847               	movf	(??___fttol+3)+0,w
  3266  0361  00C8               	movwf	(___fttol@sign1)
  3267                           	line	52
  3268                           	
  3269  0362                     l2466:	
  3270  0362  17F9               	bsf	(___fttol@f1)+(15/8),(15)&7
  3271                           	line	53
  3272                           	
  3273  0363                     l2468:	
  3274  0363  30FF               	movlw	0FFh
  3275  0364  05F8               	andwf	(___fttol@f1),f
  3276  0365  30FF               	movlw	0FFh
  3277  0366  05F9               	andwf	(___fttol@f1+1),f
  3278  0367  3000               	movlw	0
  3279  0368  05FA               	andwf	(___fttol@f1+2),f
  3280                           	line	54
  3281                           	
  3282  0369                     l2470:	
  3283  0369  0878               	movf	(___fttol@f1),w
  3284  036A  00C9               	movwf	(___fttol@lval)
  3285  036B  0879               	movf	(___fttol@f1+1),w
  3286  036C  00CA               	movwf	((___fttol@lval))+1
  3287  036D  087A               	movf	(___fttol@f1+2),w
  3288  036E  00CB               	movwf	((___fttol@lval))+2
  3289  036F  01CC               	clrf	((___fttol@lval))+3
  3290                           	line	55
  3291                           	
  3292  0370                     l2472:	
  3293  0370  308E               	movlw	low(08Eh)
  3294  0371  02CD               	subwf	(___fttol@exp1),f
  3295                           	line	56
  3296                           	
  3297  0372                     l2474:	
  3298  0372  1FCD               	btfss	(___fttol@exp1),7
  3299  0373  2B75               	goto	u2871
  3300  0374  2B76               	goto	u2870
  3301  0375                     u2871:
  3302  0375  2B98               	goto	l751
  3303  0376                     u2870:
  3304                           	line	57
  3305                           	
  3306  0376                     l2476:	
  3307  0376  084D               	movf	(___fttol@exp1),w
  3308  0377  3A80               	xorlw	80h
  3309  0378  3E8F               	addlw	-((-15)^80h)
  3310  0379  1803               	skipnc
  3311  037A  2B7C               	goto	u2881
  3312  037B  2B7D               	goto	u2880
  3313  037C                     u2881:
  3314  037C  2B86               	goto	l752
  3315  037D                     u2880:
  3316                           	line	58
  3317                           	
  3318  037D                     l2478:	
  3319  037D  3000               	movlw	0
  3320  037E  00FB               	movwf	(?___fttol+3)
  3321  037F  3000               	movlw	0
  3322  0380  00FA               	movwf	(?___fttol+2)
  3323  0381  3000               	movlw	0
  3324  0382  00F9               	movwf	(?___fttol+1)
  3325  0383  3000               	movlw	0
  3326  0384  00F8               	movwf	(?___fttol)
  3327                           
  3328                           	
  3329  0385                     l2480:	
  3330  0385  2BCF               	goto	l750
  3331                           	
  3332  0386                     l752:	
  3333                           	line	59
  3334                           	
  3335  0386                     l753:	
  3336                           	line	60
  3337                           	
  3338  0386                     l2482:	
  3339  0386  3001               	movlw	01h
  3340  0387                     u2895:
  3341  0387  1003               	clrc
  3342  0388  0CCC               	rrf	(___fttol@lval+3),f
  3343  0389  0CCB               	rrf	(___fttol@lval+2),f
  3344  038A  0CCA               	rrf	(___fttol@lval+1),f
  3345  038B  0CC9               	rrf	(___fttol@lval),f
  3346  038C  3EFF               	addlw	-1
  3347  038D  1D03               	skipz
  3348  038E  2B87               	goto	u2895
  3349                           
  3350                           	line	61
  3351  038F  3001               	movlw	(01h)
  3352  0390  00C4               	movwf	(??___fttol+0)+0
  3353  0391  0844               	movf	(??___fttol+0)+0,w
  3354  0392  07CD               	addwf	(___fttol@exp1),f
  3355  0393  1D03               	btfss	status,2
  3356  0394  2B96               	goto	u2901
  3357  0395  2B97               	goto	u2900
  3358  0396                     u2901:
  3359  0396  2B86               	goto	l753
  3360  0397                     u2900:
  3361                           	
  3362  0397                     l754:	
  3363                           	line	62
  3364  0397  2BB8               	goto	l755
  3365                           	
  3366  0398                     l751:	
  3367                           	line	63
  3368                           	
  3369  0398                     l2484:	
  3370  0398  3018               	movlw	(018h)
  3371  0399  024D               	subwf	(___fttol@exp1),w
  3372  039A  1C03               	skipc
  3373  039B  2B9D               	goto	u2911
  3374  039C  2B9E               	goto	u2910
  3375  039D                     u2911:
  3376  039D  2BA7               	goto	l756
  3377  039E                     u2910:
  3378                           	line	64
  3379                           	
  3380  039E                     l2486:	
  3381  039E  3000               	movlw	0
  3382  039F  00FB               	movwf	(?___fttol+3)
  3383  03A0  3000               	movlw	0
  3384  03A1  00FA               	movwf	(?___fttol+2)
  3385  03A2  3000               	movlw	0
  3386  03A3  00F9               	movwf	(?___fttol+1)
  3387  03A4  3000               	movlw	0
  3388  03A5  00F8               	movwf	(?___fttol)
  3389                           
  3390                           	
  3391  03A6                     l2488:	
  3392  03A6  2BCF               	goto	l750
  3393                           	
  3394  03A7                     l756:	
  3395                           	line	65
  3396  03A7  2BB3               	goto	l757
  3397                           	
  3398  03A8                     l758:	
  3399                           	line	66
  3400                           	
  3401  03A8                     l2490:	
  3402  03A8  3001               	movlw	01h
  3403  03A9  00C4               	movwf	(??___fttol+0)+0
  3404  03AA                     u2925:
  3405  03AA  1003               	clrc
  3406  03AB  0DC9               	rlf	(___fttol@lval),f
  3407  03AC  0DCA               	rlf	(___fttol@lval+1),f
  3408  03AD  0DCB               	rlf	(___fttol@lval+2),f
  3409  03AE  0DCC               	rlf	(___fttol@lval+3),f
  3410  03AF  0BC4               	decfsz	(??___fttol+0)+0
  3411  03B0  2BAA               	goto	u2925
  3412                           	line	67
  3413  03B1  3001               	movlw	low(01h)
  3414  03B2  02CD               	subwf	(___fttol@exp1),f
  3415                           	line	68
  3416                           	
  3417  03B3                     l757:	
  3418                           	line	65
  3419                           	
  3420  03B3                     l2492:	
  3421  03B3  08CD               	movf	(___fttol@exp1),f
  3422  03B4  1D03               	skipz
  3423  03B5  2BB7               	goto	u2931
  3424  03B6  2BB8               	goto	u2930
  3425  03B7                     u2931:
  3426  03B7  2BA8               	goto	l758
  3427  03B8                     u2930:
  3428                           	
  3429  03B8                     l759:	
  3430                           	line	69
  3431                           	
  3432  03B8                     l755:	
  3433                           	line	70
  3434                           	
  3435  03B8                     l2494:	
  3436  03B8  0848               	movf	(___fttol@sign1),w
  3437  03B9  1D03               	skipz
  3438  03BA  2BBC               	goto	u2940
  3439  03BB  2BC7               	goto	l760
  3440  03BC                     u2940:
  3441                           	line	71
  3442                           	
  3443  03BC                     l2496:	
  3444  03BC  09C9               	comf	(___fttol@lval),f
  3445  03BD  09CA               	comf	(___fttol@lval+1),f
  3446  03BE  09CB               	comf	(___fttol@lval+2),f
  3447  03BF  09CC               	comf	(___fttol@lval+3),f
  3448  03C0  0AC9               	incf	(___fttol@lval),f
  3449  03C1  1903               	skipnz
  3450  03C2  0ACA               	incf	(___fttol@lval+1),f
  3451  03C3  1903               	skipnz
  3452  03C4  0ACB               	incf	(___fttol@lval+2),f
  3453  03C5  1903               	skipnz
  3454  03C6  0ACC               	incf	(___fttol@lval+3),f
  3455                           	
  3456  03C7                     l760:	
  3457                           	line	72
  3458                           	
  3459  03C7                     l2498:	
  3460  03C7  084C               	movf	(___fttol@lval+3),w
  3461  03C8  00FB               	movwf	(?___fttol+3)
  3462  03C9  084B               	movf	(___fttol@lval+2),w
  3463  03CA  00FA               	movwf	(?___fttol+2)
  3464  03CB  084A               	movf	(___fttol@lval+1),w
  3465  03CC  00F9               	movwf	(?___fttol+1)
  3466  03CD  0849               	movf	(___fttol@lval),w
  3467  03CE  00F8               	movwf	(?___fttol)
  3468                           
  3469                           	
  3470  03CF                     l2500:	
  3471                           	line	73
  3472                           	
  3473  03CF                     l750:	
  3474  03CF  0008               	return
  3475                           	opt stack 0
  3476                           GLOBAL	__end_of___fttol
  3477  03D0                     	__end_of___fttol:
  3478 ;; =============== function ___fttol ends ============
  3479                           
  3480                           	signat	___fttol,4220
  3481                           	global	___ftpack
  3482                           psect	text301,local,class=CODE,delta=2
  3483                           global __ptext301
  3484  02BF                     __ptext301:
  3485                           
  3486 ;; *************** function ___ftpack *****************
  3487 ;; Defined at:
  3488 ;;		line 63 in file "C:\Program Files (x86)\HI-TECH Software\PICC\9.71a\sources\float.c"
  3489 ;; Parameters:    Size  Location     Type
  3490 ;;  arg             3    0[COMMON] unsigned um
  3491 ;;  exp             1    3[COMMON] unsigned char 
  3492 ;;  sign            1    4[COMMON] unsigned char 
  3493 ;; Auto vars:     Size  Location     Type
  3494 ;;		None
  3495 ;; Return value:  Size  Location     Type
  3496 ;;                  3    0[COMMON] float 
  3497 ;; Registers used:
  3498 ;;		wreg, status,2, status,0
  3499 ;; Tracked objects:
  3500 ;;		On entry : 0/0
  3501 ;;		On exit  : 0/0
  3502 ;;		Unchanged: 0/0
  3503 ;; Data sizes:     COMMON   BANK0   BANK1   BANK3   BANK2
  3504 ;;      Params:         5       0       0       0       0
  3505 ;;      Locals:         0       0       0       0       0
  3506 ;;      Temps:          3       0       0       0       0
  3507 ;;      Totals:         8       0       0       0       0
  3508 ;;Total ram usage:        8 bytes
  3509 ;; Hardware stack levels used:    1
  3510 ;; This function calls:
  3511 ;;		Nothing
  3512 ;; This function is called by:
  3513 ;;		___ftdiv
  3514 ;;		___lwtoft
  3515 ;;		___ftadd
  3516 ;;		___ftmul
  3517 ;;		___lbtoft
  3518 ;;		___abtoft
  3519 ;;		___awtoft
  3520 ;;		___altoft
  3521 ;;		___lltoft
  3522 ;;		___attoft
  3523 ;;		___lttoft
  3524 ;; This function uses a non-reentrant model
  3525 ;;
  3526                           psect	text301
  3527                           	file	"C:\Program Files (x86)\HI-TECH Software\PICC\9.71a\sources\float.c"
  3528                           	line	63
  3529                           	global	__size_of___ftpack
  3530  0075                     	__size_of___ftpack	equ	__end_of___ftpack-___ftpack
  3531                           	
  3532  02BF                     ___ftpack:	
  3533                           	opt	stack 6
  3534                           ; Regs used in ___ftpack: [wreg+status,2+status,0]
  3535                           	line	64
  3536                           	
  3537  02BF                     l2376:	
  3538  02BF  0873               	movf	(___ftpack@exp),w
  3539  02C0  1D03               	skipz
  3540  02C1  2AC3               	goto	u2600
  3541  02C2  2ACA               	goto	l974
  3542  02C3                     u2600:
  3543                           	
  3544  02C3                     l2378:	
  3545  02C3  0872               	movf	(___ftpack@arg+2),w
  3546  02C4  0471               	iorwf	(___ftpack@arg+1),w
  3547  02C5  0470               	iorwf	(___ftpack@arg),w
  3548  02C6  1D03               	skipz
  3549  02C7  2AC9               	goto	u2611
  3550  02C8  2ACA               	goto	u2610
  3551  02C9                     u2611:
  3552  02C9  2AD1               	goto	l972
  3553  02CA                     u2610:
  3554                           	
  3555  02CA                     l974:	
  3556                           	line	65
  3557                           	
  3558  02CA                     l2380:	
  3559  02CA  3000               	movlw	0x0
  3560  02CB  00F0               	movwf	(?___ftpack)
  3561  02CC  3000               	movlw	0x0
  3562  02CD  00F1               	movwf	(?___ftpack+1)
  3563  02CE  3000               	movlw	0x0
  3564  02CF  00F2               	movwf	(?___ftpack+2)
  3565                           	
  3566  02D0                     l2382:	
  3567  02D0  2B33               	goto	l975
  3568                           	
  3569  02D1                     l972:	
  3570                           	line	66
  3571  02D1  2ADE               	goto	l976
  3572                           	
  3573  02D2                     l977:	
  3574                           	line	67
  3575                           	
  3576  02D2                     l2384:	
  3577  02D2  3001               	movlw	(01h)
  3578  02D3  00F5               	movwf	(??___ftpack+0)+0
  3579  02D4  0875               	movf	(??___ftpack+0)+0,w
  3580  02D5  07F3               	addwf	(___ftpack@exp),f
  3581                           	line	68
  3582  02D6  3001               	movlw	01h
  3583  02D7                     u2625:
  3584  02D7  1003               	clrc
  3585  02D8  0CF2               	rrf	(___ftpack@arg+2),f
  3586  02D9  0CF1               	rrf	(___ftpack@arg+1),f
  3587  02DA  0CF0               	rrf	(___ftpack@arg),f
  3588  02DB  3EFF               	addlw	-1
  3589  02DC  1D03               	skipz
  3590  02DD  2AD7               	goto	u2625
  3591                           
  3592                           	line	69
  3593                           	
  3594  02DE                     l976:	
  3595                           	line	66
  3596                           	
  3597  02DE                     l2386:	
  3598  02DE  30FE               	movlw	low highword(0FE0000h)
  3599  02DF  0572               	andwf	(___ftpack@arg+2),w
  3600  02E0  1D03               	btfss	status,2
  3601  02E1  2AE3               	goto	u2631
  3602  02E2  2AE4               	goto	u2630
  3603  02E3                     u2631:
  3604  02E3  2AD2               	goto	l977
  3605  02E4                     u2630:
  3606                           	
  3607  02E4                     l978:	
  3608                           	line	70
  3609  02E4  2AFB               	goto	l979
  3610                           	
  3611  02E5                     l980:	
  3612                           	line	71
  3613                           	
  3614  02E5                     l2388:	
  3615  02E5  3001               	movlw	(01h)
  3616  02E6  00F5               	movwf	(??___ftpack+0)+0
  3617  02E7  0875               	movf	(??___ftpack+0)+0,w
  3618  02E8  07F3               	addwf	(___ftpack@exp),f
  3619                           	line	72
  3620                           	
  3621  02E9                     l2390:	
  3622  02E9  3001               	movlw	01h
  3623  02EA  07F0               	addwf	(___ftpack@arg),f
  3624  02EB  3000               	movlw	0
  3625  02EC  1803               	skipnc
  3626  02ED  3001               movlw 1
  3627  02EE  07F1               	addwf	(___ftpack@arg+1),f
  3628  02EF  3000               	movlw	0
  3629  02F0  1803               	skipnc
  3630  02F1  3001               movlw 1
  3631  02F2  07F2               	addwf	(___ftpack@arg+2),f
  3632                           	line	73
  3633                           	
  3634  02F3                     l2392:	
  3635  02F3  3001               	movlw	01h
  3636  02F4                     u2645:
  3637  02F4  1003               	clrc
  3638  02F5  0CF2               	rrf	(___ftpack@arg+2),f
  3639  02F6  0CF1               	rrf	(___ftpack@arg+1),f
  3640  02F7  0CF0               	rrf	(___ftpack@arg),f
  3641  02F8  3EFF               	addlw	-1
  3642  02F9  1D03               	skipz
  3643  02FA  2AF4               	goto	u2645
  3644                           
  3645                           	line	74
  3646                           	
  3647  02FB                     l979:	
  3648                           	line	70
  3649  02FB  30FF               	movlw	low highword(0FF0000h)
  3650  02FC  0572               	andwf	(___ftpack@arg+2),w
  3651  02FD  1D03               	btfss	status,2
  3652  02FE  2B00               	goto	u2651
  3653  02FF  2B01               	goto	u2650
  3654  0300                     u2651:
  3655  0300  2AE5               	goto	l980
  3656  0301                     u2650:
  3657                           	
  3658  0301                     l981:	
  3659                           	line	75
  3660  0301  2B0C               	goto	l982
  3661                           	
  3662  0302                     l983:	
  3663                           	line	76
  3664                           	
  3665  0302                     l2394:	
  3666  0302  3001               	movlw	low(01h)
  3667  0303  02F3               	subwf	(___ftpack@exp),f
  3668                           	line	77
  3669  0304  3001               	movlw	01h
  3670  0305                     u2665:
  3671  0305  1003               	clrc
  3672  0306  0DF0               	rlf	(___ftpack@arg),f
  3673  0307  0DF1               	rlf	(___ftpack@arg+1),f
  3674  0308  0DF2               	rlf	(___ftpack@arg+2),f
  3675  0309  3EFF               	addlw	-1
  3676  030A  1D03               	skipz
  3677  030B  2B05               	goto	u2665
  3678                           	line	78
  3679                           	
  3680  030C                     l982:	
  3681                           	line	75
  3682                           	
  3683  030C                     l2396:	
  3684  030C  1FF1               	btfss	(___ftpack@arg+1),(15)&7
  3685  030D  2B0F               	goto	u2671
  3686  030E  2B10               	goto	u2670
  3687  030F                     u2671:
  3688  030F  2B02               	goto	l983
  3689  0310                     u2670:
  3690                           	
  3691  0310                     l984:	
  3692                           	line	79
  3693  0310  1873               	btfsc	(___ftpack@exp),(0)&7
  3694  0311  2B13               	goto	u2681
  3695  0312  2B14               	goto	u2680
  3696  0313                     u2681:
  3697  0313  2B1A               	goto	l985
  3698  0314                     u2680:
  3699                           	line	80
  3700                           	
  3701  0314                     l2398:	
  3702  0314  30FF               	movlw	0FFh
  3703  0315  05F0               	andwf	(___ftpack@arg),f
  3704  0316  307F               	movlw	07Fh
  3705  0317  05F1               	andwf	(___ftpack@arg+1),f
  3706  0318  30FF               	movlw	0FFh
  3707  0319  05F2               	andwf	(___ftpack@arg+2),f
  3708                           	
  3709  031A                     l985:	
  3710                           	line	81
  3711  031A  1003               	clrc
  3712  031B  0CF3               	rrf	(___ftpack@exp),f
  3713                           
  3714                           	line	82
  3715                           	
  3716  031C                     l2400:	
  3717  031C  0873               	movf	(___ftpack@exp),w
  3718  031D  00F5               	movwf	((??___ftpack+0)+0)
  3719  031E  01F6               	clrf	((??___ftpack+0)+0+1)
  3720  031F  01F7               	clrf	((??___ftpack+0)+0+2)
  3721  0320  3010               	movlw	010h
  3722  0321                     u2695:
  3723  0321  1003               	clrc
  3724  0322  0DF5               	rlf	(??___ftpack+0)+0,f
  3725  0323  0DF6               	rlf	(??___ftpack+0)+1,f
  3726  0324  0DF7               	rlf	(??___ftpack+0)+2,f
  3727  0325                     u2690:
  3728  0325  3EFF               	addlw	-1
  3729  0326  1D03               	skipz
  3730  0327  2B21               	goto	u2695
  3731  0328  0875               	movf	0+(??___ftpack+0)+0,w
  3732  0329  04F0               	iorwf	(___ftpack@arg),f
  3733  032A  0876               	movf	1+(??___ftpack+0)+0,w
  3734  032B  04F1               	iorwf	(___ftpack@arg+1),f
  3735  032C  0877               	movf	2+(??___ftpack+0)+0,w
  3736  032D  04F2               	iorwf	(___ftpack@arg+2),f
  3737                           	line	83
  3738                           	
  3739  032E                     l2402:	
  3740  032E  0874               	movf	(___ftpack@sign),w
  3741  032F  1D03               	skipz
  3742  0330  2B32               	goto	u2700
  3743  0331  2B33               	goto	l986
  3744  0332                     u2700:
  3745                           	line	84
  3746                           	
  3747  0332                     l2404:	
  3748  0332  17F2               	bsf	(___ftpack@arg)+(23/8),(23)&7
  3749                           	
  3750  0333                     l986:	
  3751                           	line	85
  3752                           	line	86
  3753                           	
  3754  0333                     l975:	
  3755  0333  0008               	return
  3756                           	opt stack 0
  3757                           GLOBAL	__end_of___ftpack
  3758  0334                     	__end_of___ftpack:
  3759 ;; =============== function ___ftpack ends ============
  3760                           
  3761                           	signat	___ftpack,12411
  3762                           	global	___lwmod
  3763                           psect	text302,local,class=CODE,delta=2
  3764                           global __ptext302
  3765  0169                     __ptext302:
  3766                           
  3767 ;; *************** function ___lwmod *****************
  3768 ;; Defined at:
  3769 ;;		line 5 in file "C:\Program Files (x86)\HI-TECH Software\PICC\9.71a\sources\lwmod.c"
  3770 ;; Parameters:    Size  Location     Type
  3771 ;;  divisor         2    0[COMMON] unsigned int 
  3772 ;;  dividend        2    2[COMMON] unsigned int 
  3773 ;; Auto vars:     Size  Location     Type
  3774 ;;  counter         1    5[COMMON] unsigned char 
  3775 ;; Return value:  Size  Location     Type
  3776 ;;                  2    0[COMMON] unsigned int 
  3777 ;; Registers used:
  3778 ;;		wreg, status,2, status,0
  3779 ;; Tracked objects:
  3780 ;;		On entry : 0/0
  3781 ;;		On exit  : 0/0
  3782 ;;		Unchanged: 0/0
  3783 ;; Data sizes:     COMMON   BANK0   BANK1   BANK3   BANK2
  3784 ;;      Params:         4       0       0       0       0
  3785 ;;      Locals:         1       0       0       0       0
  3786 ;;      Temps:          1       0       0       0       0
  3787 ;;      Totals:         6       0       0       0       0
  3788 ;;Total ram usage:        6 bytes
  3789 ;; Hardware stack levels used:    1
  3790 ;; This function calls:
  3791 ;;		Nothing
  3792 ;; This function is called by:
  3793 ;;		_ply
  3794 ;;		_main
  3795 ;; This function uses a non-reentrant model
  3796 ;;
  3797                           psect	text302
  3798                           	file	"C:\Program Files (x86)\HI-TECH Software\PICC\9.71a\sources\lwmod.c"
  3799                           	line	5
  3800                           	global	__size_of___lwmod
  3801  003D                     	__size_of___lwmod	equ	__end_of___lwmod-___lwmod
  3802                           	
  3803  0169                     ___lwmod:	
  3804                           	opt	stack 7
  3805                           ; Regs used in ___lwmod: [wreg+status,2+status,0]
  3806                           	line	8
  3807                           	
  3808  0169                     l2282:	
  3809  0169  0871               	movf	(___lwmod@divisor+1),w
  3810  016A  0470               	iorwf	(___lwmod@divisor),w
  3811  016B  1903               	skipnz
  3812  016C  296E               	goto	u2301
  3813  016D  296F               	goto	u2300
  3814  016E                     u2301:
  3815  016E  299F               	goto	l656
  3816  016F                     u2300:
  3817                           	line	9
  3818                           	
  3819  016F                     l2284:	
  3820  016F  01F5               	clrf	(___lwmod@counter)
  3821  0170  1403               	bsf	status,0
  3822  0171  0DF5               	rlf	(___lwmod@counter),f
  3823                           	line	10
  3824  0172  297E               	goto	l657
  3825                           	
  3826  0173                     l658:	
  3827                           	line	11
  3828                           	
  3829  0173                     l2286:	
  3830  0173  3001               	movlw	01h
  3831                           	
  3832  0174                     u2315:
  3833  0174  1003               	clrc
  3834  0175  0DF0               	rlf	(___lwmod@divisor),f
  3835  0176  0DF1               	rlf	(___lwmod@divisor+1),f
  3836  0177  3EFF               	addlw	-1
  3837  0178  1D03               	skipz
  3838  0179  2974               	goto	u2315
  3839                           	line	12
  3840                           	
  3841  017A                     l2288:	
  3842  017A  3001               	movlw	(01h)
  3843  017B  00F4               	movwf	(??___lwmod+0)+0
  3844  017C  0874               	movf	(??___lwmod+0)+0,w
  3845  017D  07F5               	addwf	(___lwmod@counter),f
  3846                           	line	13
  3847                           	
  3848  017E                     l657:	
  3849                           	line	10
  3850                           	
  3851  017E                     l2290:	
  3852  017E  1FF1               	btfss	(___lwmod@divisor+1),(15)&7
  3853  017F  2981               	goto	u2321
  3854  0180  2982               	goto	u2320
  3855  0181                     u2321:
  3856  0181  2973               	goto	l658
  3857  0182                     u2320:
  3858                           	
  3859  0182                     l659:	
  3860                           	line	14
  3861                           	
  3862  0182                     l660:	
  3863                           	line	15
  3864                           	
  3865  0182                     l2292:	
  3866  0182  0871               	movf	(___lwmod@divisor+1),w
  3867  0183  0273               	subwf	(___lwmod@dividend+1),w
  3868  0184  1D03               	skipz
  3869  0185  2988               	goto	u2335
  3870  0186  0870               	movf	(___lwmod@divisor),w
  3871  0187  0272               	subwf	(___lwmod@dividend),w
  3872  0188                     u2335:
  3873  0188  1C03               	skipc
  3874  0189  298B               	goto	u2331
  3875  018A  298C               	goto	u2330
  3876  018B                     u2331:
  3877  018B  2992               	goto	l661
  3878  018C                     u2330:
  3879                           	line	16
  3880                           	
  3881  018C                     l2294:	
  3882  018C  0870               	movf	(___lwmod@divisor),w
  3883  018D  02F2               	subwf	(___lwmod@dividend),f
  3884  018E  0871               	movf	(___lwmod@divisor+1),w
  3885  018F  1C03               	skipc
  3886  0190  03F3               	decf	(___lwmod@dividend+1),f
  3887  0191  02F3               	subwf	(___lwmod@dividend+1),f
  3888                           	
  3889  0192                     l661:	
  3890                           	line	17
  3891                           	
  3892  0192                     l2296:	
  3893  0192  3001               	movlw	01h
  3894                           	
  3895  0193                     u2345:
  3896  0193  1003               	clrc
  3897  0194  0CF1               	rrf	(___lwmod@divisor+1),f
  3898  0195  0CF0               	rrf	(___lwmod@divisor),f
  3899  0196  3EFF               	addlw	-1
  3900  0197  1D03               	skipz
  3901  0198  2993               	goto	u2345
  3902                           	line	18
  3903                           	
  3904  0199                     l2298:	
  3905  0199  3001               	movlw	low(01h)
  3906  019A  02F5               	subwf	(___lwmod@counter),f
  3907  019B  1D03               	btfss	status,2
  3908  019C  299E               	goto	u2351
  3909  019D  299F               	goto	u2350
  3910  019E                     u2351:
  3911  019E  2982               	goto	l660
  3912  019F                     u2350:
  3913                           	
  3914  019F                     l662:	
  3915                           	line	19
  3916                           	
  3917  019F                     l656:	
  3918                           	line	20
  3919                           	
  3920  019F                     l2300:	
  3921  019F  0873               	movf	(___lwmod@dividend+1),w
  3922  01A0  01F1               	clrf	(?___lwmod+1)
  3923  01A1  07F1               	addwf	(?___lwmod+1)
  3924  01A2  0872               	movf	(___lwmod@dividend),w
  3925  01A3  01F0               	clrf	(?___lwmod)
  3926  01A4  07F0               	addwf	(?___lwmod)
  3927                           
  3928                           	
  3929  01A5                     l2302:	
  3930                           	line	21
  3931                           	
  3932  01A5                     l663:	
  3933  01A5  0008               	return
  3934                           	opt stack 0
  3935                           GLOBAL	__end_of___lwmod
  3936  01A6                     	__end_of___lwmod:
  3937 ;; =============== function ___lwmod ends ============
  3938                           
  3939                           	signat	___lwmod,8314
  3940                           	global	___lwdiv
  3941                           psect	text303,local,class=CODE,delta=2
  3942                           global __ptext303
  3943  01A6                     __ptext303:
  3944                           
  3945 ;; *************** function ___lwdiv *****************
  3946 ;; Defined at:
  3947 ;;		line 5 in file "C:\Program Files (x86)\HI-TECH Software\PICC\9.71a\sources\lwdiv.c"
  3948 ;; Parameters:    Size  Location     Type
  3949 ;;  divisor         2    0[COMMON] unsigned int 
  3950 ;;  dividend        2    2[COMMON] unsigned int 
  3951 ;; Auto vars:     Size  Location     Type
  3952 ;;  quotient        2    5[COMMON] unsigned int 
  3953 ;;  counter         1    7[COMMON] unsigned char 
  3954 ;; Return value:  Size  Location     Type
  3955 ;;                  2    0[COMMON] unsigned int 
  3956 ;; Registers used:
  3957 ;;		wreg, status,2, status,0
  3958 ;; Tracked objects:
  3959 ;;		On entry : 0/0
  3960 ;;		On exit  : 0/0
  3961 ;;		Unchanged: 0/0
  3962 ;; Data sizes:     COMMON   BANK0   BANK1   BANK3   BANK2
  3963 ;;      Params:         4       0       0       0       0
  3964 ;;      Locals:         3       0       0       0       0
  3965 ;;      Temps:          1       0       0       0       0
  3966 ;;      Totals:         8       0       0       0       0
  3967 ;;Total ram usage:        8 bytes
  3968 ;; Hardware stack levels used:    1
  3969 ;; This function calls:
  3970 ;;		Nothing
  3971 ;; This function is called by:
  3972 ;;		_ply
  3973 ;;		_main
  3974 ;; This function uses a non-reentrant model
  3975 ;;
  3976                           psect	text303
  3977                           	file	"C:\Program Files (x86)\HI-TECH Software\PICC\9.71a\sources\lwdiv.c"
  3978                           	line	5
  3979                           	global	__size_of___lwdiv
  3980  0049                     	__size_of___lwdiv	equ	__end_of___lwdiv-___lwdiv
  3981                           	
  3982  01A6                     ___lwdiv:	
  3983                           	opt	stack 7
  3984                           ; Regs used in ___lwdiv: [wreg+status,2+status,0]
  3985                           	line	9
  3986                           	
  3987  01A6                     l2258:	
  3988  01A6  3000               	movlw	low(0)
  3989  01A7  00F5               	movwf	(___lwdiv@quotient)
  3990  01A8  3000               	movlw	high(0)
  3991  01A9  00F6               	movwf	((___lwdiv@quotient))+1
  3992                           	line	10
  3993  01AA  0871               	movf	(___lwdiv@divisor+1),w
  3994  01AB  0470               	iorwf	(___lwdiv@divisor),w
  3995  01AC  1903               	skipnz
  3996  01AD  29AF               	goto	u2231
  3997  01AE  29B0               	goto	u2230
  3998  01AF                     u2231:
  3999  01AF  29E8               	goto	l646
  4000  01B0                     u2230:
  4001                           	line	11
  4002                           	
  4003  01B0                     l2260:	
  4004  01B0  01F7               	clrf	(___lwdiv@counter)
  4005  01B1  1403               	bsf	status,0
  4006  01B2  0DF7               	rlf	(___lwdiv@counter),f
  4007                           	line	12
  4008  01B3  29BF               	goto	l647
  4009                           	
  4010  01B4                     l648:	
  4011                           	line	13
  4012                           	
  4013  01B4                     l2262:	
  4014  01B4  3001               	movlw	01h
  4015                           	
  4016  01B5                     u2245:
  4017  01B5  1003               	clrc
  4018  01B6  0DF0               	rlf	(___lwdiv@divisor),f
  4019  01B7  0DF1               	rlf	(___lwdiv@divisor+1),f
  4020  01B8  3EFF               	addlw	-1
  4021  01B9  1D03               	skipz
  4022  01BA  29B5               	goto	u2245
  4023                           	line	14
  4024                           	
  4025  01BB                     l2264:	
  4026  01BB  3001               	movlw	(01h)
  4027  01BC  00F4               	movwf	(??___lwdiv+0)+0
  4028  01BD  0874               	movf	(??___lwdiv+0)+0,w
  4029  01BE  07F7               	addwf	(___lwdiv@counter),f
  4030                           	line	15
  4031                           	
  4032  01BF                     l647:	
  4033                           	line	12
  4034                           	
  4035  01BF                     l2266:	
  4036  01BF  1FF1               	btfss	(___lwdiv@divisor+1),(15)&7
  4037  01C0  29C2               	goto	u2251
  4038  01C1  29C3               	goto	u2250
  4039  01C2                     u2251:
  4040  01C2  29B4               	goto	l648
  4041  01C3                     u2250:
  4042                           	
  4043  01C3                     l649:	
  4044                           	line	16
  4045                           	
  4046  01C3                     l650:	
  4047                           	line	17
  4048                           	
  4049  01C3                     l2268:	
  4050  01C3  3001               	movlw	01h
  4051                           	
  4052  01C4                     u2265:
  4053  01C4  1003               	clrc
  4054  01C5  0DF5               	rlf	(___lwdiv@quotient),f
  4055  01C6  0DF6               	rlf	(___lwdiv@quotient+1),f
  4056  01C7  3EFF               	addlw	-1
  4057  01C8  1D03               	skipz
  4058  01C9  29C4               	goto	u2265
  4059                           	line	18
  4060  01CA  0871               	movf	(___lwdiv@divisor+1),w
  4061  01CB  0273               	subwf	(___lwdiv@dividend+1),w
  4062  01CC  1D03               	skipz
  4063  01CD  29D0               	goto	u2275
  4064  01CE  0870               	movf	(___lwdiv@divisor),w
  4065  01CF  0272               	subwf	(___lwdiv@dividend),w
  4066  01D0                     u2275:
  4067  01D0  1C03               	skipc
  4068  01D1  29D3               	goto	u2271
  4069  01D2  29D4               	goto	u2270
  4070  01D3                     u2271:
  4071  01D3  29DB               	goto	l651
  4072  01D4                     u2270:
  4073                           	line	19
  4074                           	
  4075  01D4                     l2270:	
  4076  01D4  0870               	movf	(___lwdiv@divisor),w
  4077  01D5  02F2               	subwf	(___lwdiv@dividend),f
  4078  01D6  0871               	movf	(___lwdiv@divisor+1),w
  4079  01D7  1C03               	skipc
  4080  01D8  03F3               	decf	(___lwdiv@dividend+1),f
  4081  01D9  02F3               	subwf	(___lwdiv@dividend+1),f
  4082                           	line	20
  4083                           	
  4084  01DA                     l2272:	
  4085  01DA  1475               	bsf	(___lwdiv@quotient)+(0/8),(0)&7
  4086                           	line	21
  4087                           	
  4088  01DB                     l651:	
  4089                           	line	22
  4090                           	
  4091  01DB                     l2274:	
  4092  01DB  3001               	movlw	01h
  4093                           	
  4094  01DC                     u2285:
  4095  01DC  1003               	clrc
  4096  01DD  0CF1               	rrf	(___lwdiv@divisor+1),f
  4097  01DE  0CF0               	rrf	(___lwdiv@divisor),f
  4098  01DF  3EFF               	addlw	-1
  4099  01E0  1D03               	skipz
  4100  01E1  29DC               	goto	u2285
  4101                           	line	23
  4102                           	
  4103  01E2                     l2276:	
  4104  01E2  3001               	movlw	low(01h)
  4105  01E3  02F7               	subwf	(___lwdiv@counter),f
  4106  01E4  1D03               	btfss	status,2
  4107  01E5  29E7               	goto	u2291
  4108  01E6  29E8               	goto	u2290
  4109  01E7                     u2291:
  4110  01E7  29C3               	goto	l650
  4111  01E8                     u2290:
  4112                           	
  4113  01E8                     l652:	
  4114                           	line	24
  4115                           	
  4116  01E8                     l646:	
  4117                           	line	25
  4118                           	
  4119  01E8                     l2278:	
  4120  01E8  0876               	movf	(___lwdiv@quotient+1),w
  4121  01E9  01F1               	clrf	(?___lwdiv+1)
  4122  01EA  07F1               	addwf	(?___lwdiv+1)
  4123  01EB  0875               	movf	(___lwdiv@quotient),w
  4124  01EC  01F0               	clrf	(?___lwdiv)
  4125  01ED  07F0               	addwf	(?___lwdiv)
  4126                           
  4127                           	
  4128  01EE                     l2280:	
  4129                           	line	26
  4130                           	
  4131  01EE                     l653:	
  4132  01EE  0008               	return
  4133                           	opt stack 0
  4134                           GLOBAL	__end_of___lwdiv
  4135  01EF                     	__end_of___lwdiv:
  4136 ;; =============== function ___lwdiv ends ============
  4137                           
  4138                           	signat	___lwdiv,8314
  4139                           	global	_delay
  4140                           psect	text304,local,class=CODE,delta=2
  4141                           global __ptext304
  4142  00C3                     __ptext304:
  4143                           
  4144 ;; *************** function _delay *****************
  4145 ;; Defined at:
  4146 ;;		line 16 in file "C:\Users\ELCOT\Desktop\PIC Workouts\TASK\mam tack\tack.c"
  4147 ;; Parameters:    Size  Location     Type
  4148 ;;  x               2    0[COMMON] unsigned int 
  4149 ;; Auto vars:     Size  Location     Type
  4150 ;;		None
  4151 ;; Return value:  Size  Location     Type
  4152 ;;		None               void
  4153 ;; Registers used:
  4154 ;;		wreg
  4155 ;; Tracked objects:
  4156 ;;		On entry : 0/0
  4157 ;;		On exit  : 0/0
  4158 ;;		Unchanged: 0/0
  4159 ;; Data sizes:     COMMON   BANK0   BANK1   BANK3   BANK2
  4160 ;;      Params:         2       0       0       0       0
  4161 ;;      Locals:         0       0       0       0       0
  4162 ;;      Temps:          0       0       0       0       0
  4163 ;;      Totals:         2       0       0       0       0
  4164 ;;Total ram usage:        2 bytes
  4165 ;; Hardware stack levels used:    1
  4166 ;; This function calls:
  4167 ;;		Nothing
  4168 ;; This function is called by:
  4169 ;;		_lcd_command
  4170 ;;		_lcd_data
  4171 ;;		_ply
  4172 ;;		_main
  4173 ;; This function uses a non-reentrant model
  4174 ;;
  4175                           psect	text304
  4176                           	file	"C:\Users\ELCOT\Desktop\PIC Workouts\TASK\mam tack\tack.c"
  4177                           	line	16
  4178                           	global	__size_of_delay
  4179  0012                     	__size_of_delay	equ	__end_of_delay-_delay
  4180                           	
  4181  00C3                     _delay:	
  4182                           	opt	stack 6
  4183                           ; Regs used in _delay: [wreg]
  4184                           	line	17
  4185                           	
  4186  00C3                     l2254:	
  4187                           ;tack.c: 17: while(x--);
  4188  00C3  28C4               	goto	l597
  4189                           	
  4190  00C4                     l598:	
  4191                           	
  4192  00C4                     l597:	
  4193                           	
  4194  00C4                     l2256:	
  4195  00C4  3001               	movlw	low(01h)
  4196  00C5  02F0               	subwf	(delay@x),f
  4197  00C6  3000               	movlw	high(01h)
  4198  00C7  1C03               	skipc
  4199  00C8  03F1               	decf	(delay@x+1),f
  4200  00C9  02F1               	subwf	(delay@x+1),f
  4201  00CA  30FF               	movlw	high(0FFFFh)
  4202  00CB  0671               	xorwf	((delay@x+1)),w
  4203  00CC  1D03               	skipz
  4204  00CD  28D0               	goto	u2225
  4205  00CE  30FF               	movlw	low(0FFFFh)
  4206  00CF  0670               	xorwf	((delay@x)),w
  4207  00D0                     u2225:
  4208                           
  4209  00D0  1D03               	skipz
  4210  00D1  28D3               	goto	u2221
  4211  00D2  28D4               	goto	u2220
  4212  00D3                     u2221:
  4213  00D3  28C4               	goto	l598
  4214  00D4                     u2220:
  4215                           	
  4216  00D4                     l599:	
  4217                           	line	18
  4218                           	
  4219  00D4                     l600:	
  4220  00D4  0008               	return
  4221                           	opt stack 0
  4222                           GLOBAL	__end_of_delay
  4223  00D5                     	__end_of_delay:
  4224 ;; =============== function _delay ends ============
  4225                           
  4226                           	signat	_delay,4216
  4227                           psect	text305,local,class=CODE,delta=2
  4228                           global __ptext305
  4229  0000                     __ptext305:
  4230                           	global	btemp
  4231  007E                     	btemp set 07Eh
  4232                           
  4233                           	DABS	1,126,2	;btemp
  4234                           	global	wtemp0
  4235  007E                     	wtemp0 set btemp


HI-TECH Software PICC Macro Assembler V9.71a build 6446 
Symbol Table                                                                                   Fri Nov 25 18:52:20 2022

                   _A 0020                     _a 0024                     _b 0028                     _c 002C  
                   _d 0030                     _e 0034                     _f 0038                     _z 0040  
                   pc 0002          lcd_data@data 0072                    _A1 0022                    _a1 0026  
                  _b1 002A                    _c1 002E                    _d1 0032                    _e1 0036  
                  _f1 003A          ___awdiv@sign 0076                    _z1 0042                    fsr 0004  
                 l600 00D4                   l603 0141                   l612 015B                   l613 0148  
                 l621 05CB                   l606 00E9                   l614 0168                   l630 07FD  
                 l622 0653                   l615 0168                   l631 07FD                   l623 06A9  
                 l624 0686                   l609 00FE                   l625 0693                   l650 01C3  
                 l730 0402                   l618 0574                   l626 0707                   l651 01DB  
                 l731 0447                   l627 06E4                   l652 01E8                   l660 0182  
                 l732 0468                   l628 06F1                   l653 01EE                   l661 0192  
                 l733 0476                   l629 07FC                   l646 01E8                   l662 019F  
                 l750 03CF                   l647 01BF                   l663 01A5                   l751 0398  
                 l648 01B4                   l656 019F                   l760 03C7                   l752 0386  
                 l728 03EA                   l649 01C3                   l657 017E                   l753 0386  
                 l729 0491                   l658 0173                   l754 0397                   l850 023F  
                 l659 0182                   l755 03B8                   l851 021E                   l756 03A7  
                 l780 0260                   l852 0213                   l597 00C4                   l757 03B3  
                 l749 0350                   l781 026D                   l853 0222                   l598 00C4  
                 l758 03A8                   l790 02BE                   l782 02AF                   l854 0222  
                 l599 00D4                   l759 03B8                   l783 0286                   l855 0232  
                 l863 011C                   l784 027B                   l856 023F                   l848 0200  
                 l785 028A                   l857 0248                   l849 0209                   l786 028A  
                 l858 024E                   l787 02A2                   l980 02E5                   l972 02D1  
                 l788 02AF                   l981 0301                   l789 02B8                   l982 030C  
                 l974 02CA                   l983 0302                   l975 0333                   l984 0310  
                 l976 02DE                   l985 031A                   l977 02D2                   l986 0333  
                 l978 02E4                   l979 02FB                   _RC0 0038                   _RC1 0039  
                 _RC2 003A                   _RC6 003E                   _RC7 003F                   _ply 0492  
                 fsr0 0004                   indf 0000          ___awmod@sign 0076          ___ftdiv@cntr 005B  
        ___ftdiv@sign 0060          lcd_display@a 0074          lcd_display@m 0073                  l2300 019F  
                l2302 01A5                  l2400 031C                  l2402 032E                  l2260 01B0  
                l2404 0332                  l2500 03CF                  l2254 00C3                  l2270 01D4  
                l2262 01B4                  l2256 00C4                  l2280 01EE                  l2272 01DA  
                l2264 01BB                  l2274 01DB                  l2266 01BF                  l2258 01A6  
                l2290 017E                  l2282 0169                  l2530 0258                  l2276 01E2  
                l2268 01C3                  l2292 0182                  l2284 016F                  l2380 02CA  
                l2460 0347                  l2540 027B                  l2532 0260                  l2700 0467  
                l2278 01E8                  l2294 018C                  l2286 0173                  l2390 02E9  
                l2382 02D0                  l2470 0369                  l2462 034F                  l2550 02A1  
                l2542 0282                  l2534 0264                  l2526 024F                  l2702 0468  
                l2710 00FF                  l2296 0192                  l2288 017A                  l2392 02F3  
                l2384 02D2                  l2376 02BF                  l2480 0385                  l2472 0370  
                l2464 0350                  l2560 02B8                  l2552 02A2                  l2544 0286  
                l2536 0269                  l2528 0254                  l2704 0470                  l2712 011C  
                l2720 0155                  l2800 05F8                  l2298 0199                  l2394 0302  
                l2386 02DE                  l2378 02C3                  l2490 03A8                  l2482 0386  
                l2474 0372                  l2466 0362                  l2458 0334                  l2562 02BE  
                l2554 02A9                  l2546 028A                  l2538 0277                  l2570 0200  
                l2650 00DC                  l2706 0476                  l2714 011D                  l2722 015B  
                l2730 04A4                  l2810 0651                  l2802 0601                  l2396 030C  
                l2388 02E5                  l2492 03B3                  l2484 0398                  l2476 0376  
                l2468 0363                  l2556 02AF                  l2548 029B                  l2580 021A  
                l2572 0204                  l2564 01EF                  l2652 00DD                  l2644 00D6  
                l2660 00F0                  l2708 0491                  l2716 0143                  l2740 0517  
                l2732 04BB                  l2724 0492                  l2820 0673                  l2812 0653  
                l2804 060C                  l2398 0314                  l2494 03B8                  l2486 039E  
                l2478 037D                  l2558 02B3                  l2590 0239                  l2582 021E  
                l2574 0209                  l2566 01F4                  l2654 00E6                  l2646 00DA  
                l2662 00F1                  l2670 03E3                  l2718 0148                  l2750 0550  
                l2742 052E                  l2734 04D2                  l2726 0498                  l2830 06B1  
                l2822 068A                  l2814 065C                  l2806 0615                  l2496 03BC  
                l2488 03A6                  l2592 023F                  l2584 0222                  l2576 020F  
                l2568 01F8                  l2648 00DB                  l2664 00F2                  l2656 00EB  
                l2680 0402                  l2672 03E9                  l2752 0559                  l2744 0535  
                l2736 04E9                  l2728 049E                  l2840 06E8                  l2832 06BA  
                l2824 0693                  l2816 0665                  l2808 064A                  l2760 057B  
                l2498 03C7                  l2594 0243                  l2586 022C                  l2578 0213  
                l2666 00FB                  l2658 00EF                  l2690 0435                  l2682 0408  
                l2674 03EA                  l2754 0562                  l2746 053E                  l2738 0500  
                l2850 0718                  l2842 06F1                  l2834 06C3                  l2826 06A0  
                l2818 0671                  l2770 0595                  l2762 057F                  l2596 0248  
                l2588 0232                  l2692 043C                  l2684 040D                  l2676 03FB  
                l2668 03D0                  l2756 056B                  l2748 0547                  l2860 075A  
                l2852 071E                  l2844 06FE                  l2836 06CF                  l2828 06A9  
                l2780 05BC                  l2772 059E                  l2764 0582                  l2598 024E  
                l2694 0447                  l2686 041F                  l2678 0401                  l2870 07BD  
                l2862 0771                  l2854 0724                  l2846 0707                  l2838 06D1  
                l2790 05D0                  l2782 05C5                  l2774 05A4                  l2766 0585  
                l2758 0575                  l2696 044F                  l2688 0431                  l2880 07EA  
                l2872 07C6                  l2864 0788                  l2856 072A                  l2848 070F  
                l2792 05D1                  l2784 05CB                  l2776 05AA                  l2768 0590  
                l2698 045D                  l2882 07F3                  l2874 07CF                  l2866 079F  
                l2858 0743                  l2794 05DA                  l2786 05CE                  l2778 05B3  
                l2876 07D8                  l2868 07B6                  l2796 05DF                  l2788 05CF  
                l2878 07E1                  l2798 05E8                  _ADON 00F8                  ?_ply 0079  
                _CHS0 00FB                  _CHS1 00FC                  _CHS2 00FD                  STR_1 0018  
                STR_2 0009                  STR_3 0011                  u3010 028A                  u3011 0289  
                u2220 00D4                  u2300 016F                  u2221 00D3                  u2301 016E  
                u3005 027C                  u2230 01B0                  u3030 029B                  u3110 0222  
                u2231 01AF                  u3031 029A                  u3111 0221                  u2320 0182  
                u3120 022C                  u2225 00D0                  u2321 0181                  u3025 028B  
                u3121 022B                  u3105 0214                  u2250 01C3                  u2330 018C  
                u3050 02AF                  u2251 01C2                  u2331 018B                  u2315 0174  
                u3051 02AE                  u3035 0297                  u3060 02B3                  u3140 023F  
                u3220 03E3                  u3300 0168                  u2245 01B5                  u3045 02A3  
                u3141 023E                  u3125 0228                  u3221 03E2                  u3301 0167  
                u2270 01D4                  u2350 019F                  u3150 0243                  u3070 01F8  
                u3230 03FB                  u2271 01D3                  u2351 019E                  u2335 0188  
                u3135 0233                  u3071 01F7                  u3231 03FA                  u2600 02C3  
                u3080 0204                  u3240 0418                  u3320 0651                  u2265 01C4  
                u2345 0193                  u3081 0203                  u3321 0650                  u2290 01E8  
                u2610 02CA                  u3090 020F                  u3250 042A                  u3330 065C  
                u2291 01E7                  u2275 01D0                  u2611 02C9                  u3091 020E  
                u3331 065B                  u3315 05EF                  u2700 0332                  u3340 0671  
                u2285 01DC                  u3245 0414                  u3341 0670                  u2630 02E4  
                u3270 045D                  u3350 06BA                  u2631 02E3                  u3271 045C  
                u3255 0426                  u3351 06B9                  u3360 06CF                  u2625 02D7  
                u3265 0448                  u3361 06CE                  u3345 066D                  u2650 0301  
                u3290 0476                  u2651 0300                  u3291 0475                  u3275 0459  
                u2900 0397                  u2645 02F4                  u2901 0396                  u3285 0469  
                u3365 06CB                  u2670 0310                  u2910 039E                  u2671 030F  
                u2911 039D                  u2680 0314                  u2681 0313                  u2665 0305  
                u2690 0325                  u2930 03B8                  u2850 0347                  u2931 03B7  
                u2851 0346                  u2940 03BC                  u2860 035B                  u2925 03AA  
                u2870 0376                  u2695 0321                  u2871 0375                  u2880 037D  
                u2881 037C                  u2865 0357                  u2970 0258                  u2971 0257  
                u2980 0264                  u2981 0263                  u2990 0277                  u2895 0387  
                u2991 0276                  _main 0575          ___ftpack@arg 0070          ___ftpack@exp 0073  
                _temp 003C                  btemp 007E                  start 0000          ___fttol@exp1 004D  
        ___fttol@lval 0049                 ??_ply 007B                 ?_main 0070       __end_of___awdiv 02BF  
     __end_of___awmod 024F       __end_of___ftdiv 0492       ___awdiv@divisor 0070       __end_of___fttol 03D0  
     __end_of___lwdiv 01EF       __end_of___lwmod 01A6       ___awdiv@counter 0075                 _PORTA 0005  
               _PORTC 0007                 _PORTD 0008                 _TRISA 0085                 _TRISC 0087  
               _TRISD 0088                 _delay 00C3                 _temp1 003E         ___ftpack@sign 0074  
               pclath 000A                 status 0003                 wtemp0 007E          __end_of_main 0800  
              ??_main 0061         ___fttol@sign1 0048        lcd_command@com 0072                ?_delay 0070  
              _ADCON0 001F                _ADCON1 009F                _ADRESH 001E                _ADRESL 009E  
    ___awdiv@dividend 0072      __end_of___ftpack 0334      __end_of___lwtoft 011D      __end_of_lcd_data 00FF  
    __end_of_lcd_init 0142  __size_of_lcd_command 0015  __size_of_lcd_display 0027             ??___awdiv 0074  
           ??___awmod 0074             ??___ftdiv 0057             ??___fttol 0044             ??___lwdiv 0074  
           ??___lwmod 0074                delay@x 0070      ___awdiv@quotient 0077       ___awmod@divisor 0070  
     ___awmod@counter 0075                clrloop 00AF            ___ftdiv@f1 0054            ___ftdiv@f2 0051  
          ___ftdiv@f3 005C            ___fttol@f1 0078        __pcstackCOMMON 0070         __end_of_delay 00D5  
          ___lwtoft@c 004E               ??_delay 0072            __pbssBANK0 0020            __pmaintext 0575  
           ?___ftpack 0070             ?___lwtoft 004E             ?_lcd_data 0070             ?_lcd_init 0070  
             ___awdiv 024F               ___awmod 01EF               ___ftdiv 03D0               ___fttol 0334  
             ___lwdiv 01A6               ___lwmod 0169            ??___ftpack 0075            ??___lwtoft 007C  
        __size_of_ply 00E3      ___awmod@dividend 0072            ??_lcd_data 0072            ??_lcd_init 0073  
end_of_initialization 00BF           ___ftdiv@exp 005F         ??_lcd_command 0072         ??_lcd_display 0073  
 start_initialization 00B6           __end_of_ply 0575   __end_of_lcd_command 00EA   __end_of_lcd_display 0169  
   __size_of___ftpack 0075     __size_of___lwtoft 001E         __pcstackBANK0 0044     __size_of_lcd_data 0015  
   __size_of_lcd_init 0025      ___lwdiv@dividend 0072              ?___awdiv 0070             __ptext300 0334  
           __ptext301 02BF             __ptext302 0169             __ptext303 01A6             __ptext304 00C3  
           __ptext305 0000             __ptext290 0000             __ptext291 0492              ?___awmod 0070  
           __ptext292 0142             __ptext293 011D             __ptext294 00FF             __ptext295 03D0  
           __ptext296 00EA             __ptext297 00D5             __ptext298 01EF             __ptext299 024F  
            ?___ftdiv 0051              ?___fttol 0078              ?___lwdiv 0070              ?___lwmod 0070  
           __pstrings 0003      ___lwdiv@quotient 0075        __size_of_delay 0012           _lcd_command 00D5  
         _lcd_display 0142           __stringbase 0008      __size_of___awdiv 0070      __size_of___awmod 0060  
    __size_of___ftdiv 00C2      __size_of___fttol 009C      __size_of___lwdiv 0049      __size_of___lwmod 003D  
            ___ftpack 02BF              ___lwtoft 00FF       ___lwdiv@divisor 0070       ___lwdiv@counter 0077  
            _lcd_data 00EA              _lcd_init 011D         __size_of_main 028B              clear_ram 00AE  
    ___lwmod@dividend 0072              ply@temp1 0079             stringcode 0003       ___lwmod@divisor 0070  
     ___lwmod@counter 0075              stringdir 0003              stringtab 0003          ?_lcd_command 0070  
        ?_lcd_display 0070  
