opt subtitle "HI-TECH Software Omniscient Code Generator (Lite mode) build 6446"

opt pagewidth 120

	opt lm

	processor	16F877A
clrc	macro
	bcf	3,0
	endm
clrz	macro
	bcf	3,2
	endm
setc	macro
	bsf	3,0
	endm
setz	macro
	bsf	3,2
	endm
skipc	macro
	btfss	3,0
	endm
skipz	macro
	btfss	3,2
	endm
skipnc	macro
	btfsc	3,0
	endm
skipnz	macro
	btfsc	3,2
	endm
indf	equ	0
indf0	equ	0
pc	equ	2
pcl	equ	2
status	equ	3
fsr	equ	4
fsr0	equ	4
c	equ	1
z	equ	0
pclath	equ	10
# 2 "C:\Users\TECH\Desktop\madhu pic folder\gps&gsm\Eneregy meter using GSM\interrupt test.c"
	psect config,class=CONFIG,delta=2 ;#
# 2 "C:\Users\TECH\Desktop\madhu pic folder\gps&gsm\Eneregy meter using GSM\interrupt test.c"
	dw 0X3f72 ;#
	FNCALL	_main,_lcd_init
	FNCALL	_main,_delay
	FNCALL	_main,_lcd_cmd
	FNCALL	_main,_lcd_display
	FNCALL	_main,___awdiv
	FNCALL	_main,___awmod
	FNCALL	_main,_lcd_data
	FNCALL	_main,_serial
	FNCALL	_main,_txs
	FNCALL	_main,_sms1
	FNCALL	_lcd_init,_lcd_cmd
	FNCALL	_lcd_display,_lcd_data
	FNCALL	_serial,_delay
	FNCALL	_sms1,_txs
	FNCALL	_sms1,_delay
	FNCALL	_sms1,_gsm_command
	FNCALL	_lcd_data,_delay
	FNCALL	_lcd_cmd,_delay
	FNROOT	_main
	global	_T
	global	_W
	global	_a
	global	_b
	global	_c
	global	_d
	global	_e
	global	_f
	global	_i
	global	_j
	global	_q
	global	_r
	global	_temp
	global	_v
	global	_w1
	global	_z
	global	_temmp
	global	_ADCON0
psect	text266,local,class=CODE,delta=2
global __ptext266
__ptext266:
_ADCON0	set	31
	global	_ADRESH
_ADRESH	set	30
	global	_PORTA
_PORTA	set	5
	global	_PORTB
_PORTB	set	6
	global	_PORTC
_PORTC	set	7
	global	_PORTD
_PORTD	set	8
	global	_RCSTA
_RCSTA	set	24
	global	_TXREG
_TXREG	set	25
	global	_ADON
_ADON	set	248
	global	_CHS0
_CHS0	set	251
	global	_CHS1
_CHS1	set	252
	global	_CHS2
_CHS2	set	253
	global	_GIE
_GIE	set	95
	global	_OERR
_OERR	set	193
	global	_PEIE
_PEIE	set	94
	global	_RD1
_RD1	set	65
	global	_RD2
_RD2	set	66
	global	_RD3
_RD3	set	67
	global	_TXIF
_TXIF	set	100
	global	_ADCON1
_ADCON1	set	159
	global	_ADRESL
_ADRESL	set	158
	global	_SPBRG
_SPBRG	set	153
	global	_TRISA
_TRISA	set	133
	global	_TRISB
_TRISB	set	134
	global	_TRISC
_TRISC	set	135
	global	_TRISD
_TRISD	set	136
	global	_TXSTA
_TXSTA	set	152
psect	strings,class=STRING,delta=2
global __pstrings
__pstrings:
;	global	stringdir,stringtab,__stringbase
stringtab:
;	String table - string pointers are 1 byte each
stringcode:stringdir:
movlw high(stringdir)
movwf pclath
movf fsr,w
incf fsr
	addwf pc
__stringbase:
	retlw	0
psect	strings
	
STR_1:	
	retlw	115	;'s'
	retlw	101	;'e'
	retlw	110	;'n'
	retlw	115	;'s'
	retlw	111	;'o'
	retlw	114	;'r'
	retlw	32	;' '
	retlw	97	;'a'
	retlw	98	;'b'
	retlw	110	;'n'
	retlw	111	;'o'
	retlw	114	;'r'
	retlw	109	;'m'
	retlw	97	;'a'
	retlw	108	;'l'
	retlw	0
psect	strings
	
STR_6:	
	retlw	65	;'A'
	retlw	84	;'T'
	retlw	43	;'+'
	retlw	67	;'C'
	retlw	77	;'M'
	retlw	71	;'G'
	retlw	70	;'F'
	retlw	61	;'='
	retlw	49	;'1'
	retlw	0
psect	strings
	
STR_3:	
	retlw	87	;'W'
	retlw	69	;'E'
	retlw	76	;'L'
	retlw	67	;'C'
	retlw	79	;'O'
	retlw	77	;'M'
	retlw	69	;'E'
	retlw	0
psect	strings
	
STR_5:	
	retlw	65	;'A'
	retlw	84	;'T'
	retlw	0
psect	strings
STR_2	equ	STR_1+0
STR_4	equ	STR_1+0
	file	"interrupt test.as"
	line	#
psect cinit,class=CODE,delta=2
global start_initialization
start_initialization:

psect	bssCOMMON,class=COMMON,space=1
global __pbssCOMMON
__pbssCOMMON:
_temmp:
       ds      2

psect	bssBANK0,class=BANK0,space=1
global __pbssBANK0
__pbssBANK0:
_T:
       ds      2

_W:
       ds      2

_a:
       ds      2

_b:
       ds      2

_c:
       ds      2

_d:
       ds      2

_e:
       ds      2

_f:
       ds      2

_i:
       ds      2

_j:
       ds      2

_q:
       ds      2

_r:
       ds      2

_temp:
       ds      2

_v:
       ds      2

_w1:
       ds      2

_z:
       ds      2

psect clrtext,class=CODE,delta=2
global clear_ram
;	Called with FSR containing the base address, and
;	W with the last address+1
clear_ram:
	clrwdt			;clear the watchdog before getting into this loop
clrloop:
	clrf	indf		;clear RAM location pointed to by FSR
	incf	fsr,f		;increment pointer
	xorwf	fsr,w		;XOR with final address
	btfsc	status,2	;have we reached the end yet?
	retlw	0		;all done for this memory range, return
	xorwf	fsr,w		;XOR again to restore value
	goto	clrloop		;do the next byte

; Clear objects allocated to COMMON
psect cinit,class=CODE,delta=2
	clrf	((__pbssCOMMON)+0)&07Fh
	clrf	((__pbssCOMMON)+1)&07Fh
; Clear objects allocated to BANK0
psect cinit,class=CODE,delta=2
	bcf	status, 7	;select IRP bank0
	movlw	low(__pbssBANK0)
	movwf	fsr
	movlw	low((__pbssBANK0)+020h)
	fcall	clear_ram
psect cinit,class=CODE,delta=2
global end_of_initialization

;End of C runtime variable initialization code

end_of_initialization:
clrf status
ljmp _main	;jump to C main() function
psect	cstackCOMMON,class=COMMON,space=1
global __pcstackCOMMON
__pcstackCOMMON:
	global	?_delay
?_delay:	; 0 bytes @ 0x0
	global	?_lcd_cmd
?_lcd_cmd:	; 0 bytes @ 0x0
	global	?_lcd_data
?_lcd_data:	; 0 bytes @ 0x0
	global	?_lcd_display
?_lcd_display:	; 0 bytes @ 0x0
	global	?_lcd_init
?_lcd_init:	; 0 bytes @ 0x0
	global	?_gsm_command
?_gsm_command:	; 0 bytes @ 0x0
	global	??_gsm_command
??_gsm_command:	; 0 bytes @ 0x0
	global	?_txs
?_txs:	; 0 bytes @ 0x0
	global	??_txs
??_txs:	; 0 bytes @ 0x0
	global	?_sms1
?_sms1:	; 0 bytes @ 0x0
	global	?_serial
?_serial:	; 0 bytes @ 0x0
	global	?_main
?_main:	; 0 bytes @ 0x0
	global	?___awdiv
?___awdiv:	; 2 bytes @ 0x0
	global	?___awmod
?___awmod:	; 2 bytes @ 0x0
	global	gsm_command@da
gsm_command@da:	; 1 bytes @ 0x0
	global	txs@val
txs@val:	; 1 bytes @ 0x0
	global	delay@a
delay@a:	; 2 bytes @ 0x0
	global	___awdiv@divisor
___awdiv@divisor:	; 2 bytes @ 0x0
	global	___awmod@divisor
___awmod@divisor:	; 2 bytes @ 0x0
	ds	1
	global	gsm_command@s
gsm_command@s:	; 2 bytes @ 0x1
	ds	1
	global	??_delay
??_delay:	; 0 bytes @ 0x2
	global	??_lcd_cmd
??_lcd_cmd:	; 0 bytes @ 0x2
	global	??_lcd_data
??_lcd_data:	; 0 bytes @ 0x2
	global	??_serial
??_serial:	; 0 bytes @ 0x2
	global	___awdiv@dividend
___awdiv@dividend:	; 2 bytes @ 0x2
	global	___awmod@dividend
___awmod@dividend:	; 2 bytes @ 0x2
	ds	1
	global	??_sms1
??_sms1:	; 0 bytes @ 0x3
	global	serial@a
serial@a:	; 1 bytes @ 0x3
	ds	1
	global	??___awdiv
??___awdiv:	; 0 bytes @ 0x4
	global	??___awmod
??___awmod:	; 0 bytes @ 0x4
	global	lcd_cmd@com
lcd_cmd@com:	; 1 bytes @ 0x4
	global	lcd_data@dat
lcd_data@dat:	; 1 bytes @ 0x4
	global	serial@i
serial@i:	; 1 bytes @ 0x4
	ds	1
	global	??_lcd_display
??_lcd_display:	; 0 bytes @ 0x5
	global	??_lcd_init
??_lcd_init:	; 0 bytes @ 0x5
	global	lcd_display@m
lcd_display@m:	; 1 bytes @ 0x5
	global	___awdiv@counter
___awdiv@counter:	; 1 bytes @ 0x5
	global	___awmod@counter
___awmod@counter:	; 1 bytes @ 0x5
	ds	1
	global	___awdiv@sign
___awdiv@sign:	; 1 bytes @ 0x6
	global	___awmod@sign
___awmod@sign:	; 1 bytes @ 0x6
	global	lcd_display@k
lcd_display@k:	; 2 bytes @ 0x6
	ds	1
	global	___awdiv@quotient
___awdiv@quotient:	; 2 bytes @ 0x7
	ds	2
	global	??_main
??_main:	; 0 bytes @ 0x9
	ds	2
;;Data sizes: Strings 37, constant 0, data 0, bss 34, persistent 0 stack 0
;;Auto spaces:   Size  Autos    Used
;; COMMON          14     11      13
;; BANK0           80      0      32
;; BANK1           80      0       0
;; BANK3           96      0       0
;; BANK2           96      0       0

;;
;; Pointer list with targets:

;; ?___awmod	int  size(1) Largest target is 0
;;
;; ?___awdiv	int  size(1) Largest target is 0
;;
;; serial@a	PTR const unsigned char  size(1) Largest target is 10
;;		 -> STR_6(CODE[10]), STR_5(CODE[3]), 
;;
;; gsm_command@da	PTR const unsigned char  size(1) Largest target is 16
;;		 -> STR_2(CODE[16]), STR_1(CODE[16]), 
;;
;; lcd_display@m	PTR const unsigned char  size(1) Largest target is 16
;;		 -> STR_4(CODE[16]), STR_3(CODE[8]), 
;;


;;
;; Critical Paths under _main in COMMON
;;
;;   _main->___awdiv
;;   _lcd_init->_lcd_cmd
;;   _lcd_display->_lcd_data
;;   _serial->_delay
;;   _sms1->_gsm_command
;;   _lcd_data->_delay
;;   _lcd_cmd->_delay
;;
;; Critical Paths under _main in BANK0
;;
;;   None.
;;
;; Critical Paths under _main in BANK1
;;
;;   None.
;;
;; Critical Paths under _main in BANK3
;;
;;   None.
;;
;; Critical Paths under _main in BANK2
;;
;;   None.

;;
;;Main: autosize = 0, tempsize = 2, incstack = 0, save=0
;;

;;
;;Call Graph Tables:
;;
;; ---------------------------------------------------------------------------------
;; (Depth) Function   	        Calls       Base Space   Used Autos Params    Refs
;; ---------------------------------------------------------------------------------
;; (0) _main                                                 2     2      0    1240
;;                                              9 COMMON     2     2      0
;;                           _lcd_init
;;                              _delay
;;                            _lcd_cmd
;;                        _lcd_display
;;                            ___awdiv
;;                            ___awmod
;;                           _lcd_data
;;                             _serial
;;                                _txs
;;                               _sms1
;; ---------------------------------------------------------------------------------
;; (1) _lcd_init                                             0     0      0      66
;;                            _lcd_cmd
;; ---------------------------------------------------------------------------------
;; (1) _lcd_display                                          3     3      0     156
;;                                              5 COMMON     3     3      0
;;                           _lcd_data
;; ---------------------------------------------------------------------------------
;; (1) _serial                                               3     3      0     112
;;                                              2 COMMON     3     3      0
;;                              _delay
;; ---------------------------------------------------------------------------------
;; (1) _sms1                                                 0     0      0     134
;;                                _txs
;;                              _delay
;;                        _gsm_command
;; ---------------------------------------------------------------------------------
;; (1) _lcd_data                                             3     3      0      66
;;                                              2 COMMON     3     3      0
;;                              _delay
;; ---------------------------------------------------------------------------------
;; (1) _lcd_cmd                                              3     3      0      66
;;                                              2 COMMON     3     3      0
;;                              _delay
;; ---------------------------------------------------------------------------------
;; (1) ___awmod                                              7     3      4     296
;;                                              0 COMMON     7     3      4
;; ---------------------------------------------------------------------------------
;; (1) ___awdiv                                              9     5      4     300
;;                                              0 COMMON     9     5      4
;; ---------------------------------------------------------------------------------
;; (2) _txs                                                  1     1      0      22
;;                                              0 COMMON     1     1      0
;; ---------------------------------------------------------------------------------
;; (3) _gsm_command                                          3     3      0      90
;;                                              0 COMMON     3     3      0
;; ---------------------------------------------------------------------------------
;; (2) _delay                                                2     0      2      22
;;                                              0 COMMON     2     0      2
;; ---------------------------------------------------------------------------------
;; Estimated maximum stack depth 3
;; ---------------------------------------------------------------------------------

;; Call Graph Graphs:

;; _main (ROOT)
;;   _lcd_init
;;     _lcd_cmd
;;       _delay
;;   _delay
;;   _lcd_cmd
;;     _delay
;;   _lcd_display
;;     _lcd_data
;;       _delay
;;   ___awdiv
;;   ___awmod
;;   _lcd_data
;;     _delay
;;   _serial
;;     _delay
;;   _txs
;;   _sms1
;;     _txs
;;     _delay
;;     _gsm_command
;;

;; Address spaces:

;;Name               Size   Autos  Total    Cost      Usage
;;BITCOMMON            E      0       0       0        0.0%
;;EEDATA             100      0       0       0        0.0%
;;NULL                 0      0       0       0        0.0%
;;CODE                 0      0       0       0        0.0%
;;COMMON               E      B       D       1       92.9%
;;BITSFR0              0      0       0       1        0.0%
;;SFR0                 0      0       0       1        0.0%
;;BITSFR1              0      0       0       2        0.0%
;;SFR1                 0      0       0       2        0.0%
;;STACK                0      0       3       2        0.0%
;;ABS                  0      0      2D       3        0.0%
;;BITBANK0            50      0       0       4        0.0%
;;BITSFR3              0      0       0       4        0.0%
;;SFR3                 0      0       0       4        0.0%
;;BANK0               50      0      20       5       40.0%
;;BITSFR2              0      0       0       5        0.0%
;;SFR2                 0      0       0       5        0.0%
;;BITBANK1            50      0       0       6        0.0%
;;BANK1               50      0       0       7        0.0%
;;BITBANK3            60      0       0       8        0.0%
;;BANK3               60      0       0       9        0.0%
;;BITBANK2            60      0       0      10        0.0%
;;BANK2               60      0       0      11        0.0%
;;DATA                 0      0      30      12        0.0%

	global	_main
psect	maintext,global,class=CODE,delta=2
global __pmaintext
__pmaintext:

;; *************** function _main *****************
;; Defined at:
;;		line 187 in file "C:\Users\TECH\Desktop\madhu pic folder\gps&gsm\Eneregy meter using GSM\interrupt test.c"
;; Parameters:    Size  Location     Type
;;		None
;; Auto vars:     Size  Location     Type
;;		None
;; Return value:  Size  Location     Type
;;		None               void
;; Registers used:
;;		wreg, fsr0l, fsr0h, status,2, status,0, btemp+0, pclath, cstack
;; Tracked objects:
;;		On entry : 17F/0
;;		On exit  : 0/0
;;		Unchanged: 0/0
;; Data sizes:     COMMON   BANK0   BANK1   BANK3   BANK2
;;      Params:         0       0       0       0       0
;;      Locals:         0       0       0       0       0
;;      Temps:          2       0       0       0       0
;;      Totals:         2       0       0       0       0
;;Total ram usage:        2 bytes
;; Hardware stack levels required when called:    3
;; This function calls:
;;		_lcd_init
;;		_delay
;;		_lcd_cmd
;;		_lcd_display
;;		___awdiv
;;		___awmod
;;		_lcd_data
;;		_serial
;;		_txs
;;		_sms1
;; This function is called by:
;;		Startup code after reset
;; This function uses a non-reentrant model
;;
psect	maintext
	file	"C:\Users\TECH\Desktop\madhu pic folder\gps&gsm\Eneregy meter using GSM\interrupt test.c"
	line	187
	global	__size_of_main
	__size_of_main	equ	__end_of_main-_main
	
_main:	
	opt	stack 8
; Regs used in _main: [wreg-fsr0h+status,2-btemp+0+pclath+cstack]
	line	188
	
l2500:	
;interrupt test.c: 188: ADCON1=0X80;
	movlw	(080h)
	bsf	status, 5	;RP0=1, select bank1
	bcf	status, 6	;RP1=0, select bank1
	movwf	(159)^080h	;volatile
	line	189
;interrupt test.c: 189: ADCON0=0X40;
	movlw	(040h)
	bcf	status, 5	;RP0=0, select bank0
	bcf	status, 6	;RP1=0, select bank0
	movwf	(31)	;volatile
	line	191
	
l2502:	
;interrupt test.c: 191: TRISD=0x00;
	bsf	status, 5	;RP0=1, select bank1
	bcf	status, 6	;RP1=0, select bank1
	clrf	(136)^080h	;volatile
	line	192
	
l2504:	
;interrupt test.c: 192: PORTD=0x00;
	bcf	status, 5	;RP0=0, select bank0
	bcf	status, 6	;RP1=0, select bank0
	clrf	(8)	;volatile
	line	194
;interrupt test.c: 194: TRISA=0x01;
	movlw	(01h)
	bsf	status, 5	;RP0=1, select bank1
	bcf	status, 6	;RP1=0, select bank1
	movwf	(133)^080h	;volatile
	line	195
	
l2506:	
;interrupt test.c: 195: PORTA=0x00;
	bcf	status, 5	;RP0=0, select bank0
	bcf	status, 6	;RP1=0, select bank0
	clrf	(5)	;volatile
	line	197
	
l2508:	
;interrupt test.c: 197: TRISC=0x00;
	bsf	status, 5	;RP0=1, select bank1
	bcf	status, 6	;RP1=0, select bank1
	clrf	(135)^080h	;volatile
	line	198
	
l2510:	
;interrupt test.c: 198: PORTC=0x00;
	bcf	status, 5	;RP0=0, select bank0
	bcf	status, 6	;RP1=0, select bank0
	clrf	(7)	;volatile
	line	200
	
l2512:	
;interrupt test.c: 200: TRISB=0X03;
	movlw	(03h)
	bsf	status, 5	;RP0=1, select bank1
	bcf	status, 6	;RP1=0, select bank1
	movwf	(134)^080h	;volatile
	line	201
;interrupt test.c: 201: PORTB=0X00;
	bcf	status, 5	;RP0=0, select bank0
	bcf	status, 6	;RP1=0, select bank0
	clrf	(6)	;volatile
	line	203
	
l2514:	
;interrupt test.c: 203: lcd_init();
	fcall	_lcd_init
	line	204
	
l2516:	
;interrupt test.c: 204: delay(100);
	movlw	low(064h)
	movwf	(?_delay)
	movlw	high(064h)
	movwf	((?_delay))+1
	fcall	_delay
	line	206
	
l2518:	
;interrupt test.c: 206: TXSTA=0x24;
	movlw	(024h)
	bsf	status, 5	;RP0=1, select bank1
	bcf	status, 6	;RP1=0, select bank1
	movwf	(152)^080h	;volatile
	line	207
	
l2520:	
;interrupt test.c: 207: RCSTA=0x90;
	movlw	(090h)
	bcf	status, 5	;RP0=0, select bank0
	bcf	status, 6	;RP1=0, select bank0
	movwf	(24)	;volatile
	line	208
	
l2522:	
;interrupt test.c: 208: SPBRG=25;
	movlw	(019h)
	bsf	status, 5	;RP0=1, select bank1
	bcf	status, 6	;RP1=0, select bank1
	movwf	(153)^080h	;volatile
	line	210
	
l2524:	
;interrupt test.c: 210: delay(600);
	movlw	low(0258h)
	movwf	(?_delay)
	movlw	high(0258h)
	movwf	((?_delay))+1
	fcall	_delay
	line	211
	
l2526:	
;interrupt test.c: 211: PEIE=1;
	bsf	(94/8),(94)&7
	line	212
	
l2528:	
;interrupt test.c: 212: GIE=1;
	bsf	(95/8),(95)&7
	line	214
	
l2530:	
;interrupt test.c: 214: delay(600);
	movlw	low(0258h)
	movwf	(?_delay)
	movlw	high(0258h)
	movwf	((?_delay))+1
	fcall	_delay
	line	215
	
l2532:	
;interrupt test.c: 215: lcd_cmd(0x80);
	movlw	(080h)
	fcall	_lcd_cmd
	line	217
	
l2534:	
;interrupt test.c: 217: lcd_display("WELCOME");
	movlw	((STR_3-__stringbase))&0ffh
	fcall	_lcd_display
	line	218
	
l2536:	
;interrupt test.c: 218: delay(50000);delay(50000);
	movlw	low(0C350h)
	movwf	(?_delay)
	movlw	high(0C350h)
	movwf	((?_delay))+1
	fcall	_delay
	
l2538:	
	movlw	low(0C350h)
	movwf	(?_delay)
	movlw	high(0C350h)
	movwf	((?_delay))+1
	fcall	_delay
	line	219
	
l2540:	
;interrupt test.c: 219: lcd_cmd(0x01);
	movlw	(01h)
	fcall	_lcd_cmd
	line	220
;interrupt test.c: 220: while(1)
	
l641:	
	line	222
	
l2542:	
;interrupt test.c: 221: {
;interrupt test.c: 222: CHS2=0;
	bcf	status, 5	;RP0=0, select bank0
	bcf	status, 6	;RP1=0, select bank0
	bcf	(253/8),(253)&7
	line	223
	
l2544:	
;interrupt test.c: 223: CHS1=0;
	bcf	(252/8),(252)&7
	line	224
	
l2546:	
;interrupt test.c: 224: CHS0=0;
	bcf	(251/8),(251)&7
	line	225
	
l2548:	
;interrupt test.c: 225: ADON=1;
	bsf	(248/8),(248)&7
	line	226
	
l2550:	
;interrupt test.c: 226: delay(600);
	movlw	low(0258h)
	movwf	(?_delay)
	movlw	high(0258h)
	movwf	((?_delay))+1
	fcall	_delay
	line	227
	
l2552:	
;interrupt test.c: 227: ADCON0=(ADCON0|0X04);
	bcf	status, 5	;RP0=0, select bank0
	bcf	status, 6	;RP1=0, select bank0
	movf	(31),w	;volatile
	iorlw	04h
	movwf	(31)	;volatile
	line	228
	
l2554:	
;interrupt test.c: 228: delay(600);
	movlw	low(0258h)
	movwf	(?_delay)
	movlw	high(0258h)
	movwf	((?_delay))+1
	fcall	_delay
	line	229
	
l2556:	
;interrupt test.c: 229: temmp=ADRESH<<8;
	bcf	status, 5	;RP0=0, select bank0
	bcf	status, 6	;RP1=0, select bank0
	movf	(30),w	;volatile
	movwf	(??_main+0)+0
	clrf	(??_main+0)+0+1
	movlw	08h
	movwf	btemp+0
u2515:
	clrc
	rlf	(??_main+0)+0,f
	rlf	(??_main+0)+1,f
	decfsz	btemp+0,f
	goto	u2515
	movf	0+(??_main+0)+0,w
	movwf	(_temmp)
	movf	1+(??_main+0)+0,w
	movwf	(_temmp+1)
	line	230
	
l2558:	
;interrupt test.c: 230: delay(600);
	movlw	low(0258h)
	movwf	(?_delay)
	movlw	high(0258h)
	movwf	((?_delay))+1
	fcall	_delay
	line	231
	
l2560:	
;interrupt test.c: 231: temmp=temmp+ADRESL;
	bsf	status, 5	;RP0=1, select bank1
	bcf	status, 6	;RP1=0, select bank1
	movf	(158)^080h,w	;volatile
	addwf	(_temmp),w
	movwf	(_temmp)
	movf	(_temmp+1),w
	skipnc
	incf	(_temmp+1),w
	movwf	((_temmp))+1
	line	232
	
l2562:	
;interrupt test.c: 232: delay(600);
	movlw	low(0258h)
	movwf	(?_delay)
	movlw	high(0258h)
	movwf	((?_delay))+1
	fcall	_delay
	line	233
	
l2564:	
;interrupt test.c: 233: PORTD=temmp;
	movf	(_temmp),w
	bcf	status, 5	;RP0=0, select bank0
	bcf	status, 6	;RP1=0, select bank0
	movwf	(8)	;volatile
	line	234
	
l2566:	
;interrupt test.c: 234: delay(600);
	movlw	low(0258h)
	movwf	(?_delay)
	movlw	high(0258h)
	movwf	((?_delay))+1
	fcall	_delay
	line	235
	
l2568:	
;interrupt test.c: 235: a=temmp/1000;
	movlw	low(03E8h)
	movwf	(?___awdiv)
	movlw	high(03E8h)
	movwf	((?___awdiv))+1
	movf	(_temmp+1),w
	clrf	1+(?___awdiv)+02h
	addwf	1+(?___awdiv)+02h
	movf	(_temmp),w
	clrf	0+(?___awdiv)+02h
	addwf	0+(?___awdiv)+02h

	fcall	___awdiv
	movf	(1+(?___awdiv)),w
	bcf	status, 5	;RP0=0, select bank0
	bcf	status, 6	;RP1=0, select bank0
	clrf	(_a+1)
	addwf	(_a+1)
	movf	(0+(?___awdiv)),w
	clrf	(_a)
	addwf	(_a)

	line	236
	
l2570:	
;interrupt test.c: 236: b=temmp%1000;
	movlw	low(03E8h)
	movwf	(?___awmod)
	movlw	high(03E8h)
	movwf	((?___awmod))+1
	movf	(_temmp+1),w
	clrf	1+(?___awmod)+02h
	addwf	1+(?___awmod)+02h
	movf	(_temmp),w
	clrf	0+(?___awmod)+02h
	addwf	0+(?___awmod)+02h

	fcall	___awmod
	movf	(1+(?___awmod)),w
	bcf	status, 5	;RP0=0, select bank0
	bcf	status, 6	;RP1=0, select bank0
	clrf	(_b+1)
	addwf	(_b+1)
	movf	(0+(?___awmod)),w
	clrf	(_b)
	addwf	(_b)

	line	237
	
l2572:	
;interrupt test.c: 237: z=b/100;
	movlw	low(064h)
	movwf	(?___awdiv)
	movlw	high(064h)
	movwf	((?___awdiv))+1
	movf	(_b+1),w
	clrf	1+(?___awdiv)+02h
	addwf	1+(?___awdiv)+02h
	movf	(_b),w
	clrf	0+(?___awdiv)+02h
	addwf	0+(?___awdiv)+02h

	fcall	___awdiv
	movf	(1+(?___awdiv)),w
	bcf	status, 5	;RP0=0, select bank0
	bcf	status, 6	;RP1=0, select bank0
	clrf	(_z+1)
	addwf	(_z+1)
	movf	(0+(?___awdiv)),w
	clrf	(_z)
	addwf	(_z)

	line	238
	
l2574:	
;interrupt test.c: 238: d=b%100;
	movlw	low(064h)
	movwf	(?___awmod)
	movlw	high(064h)
	movwf	((?___awmod))+1
	movf	(_b+1),w
	clrf	1+(?___awmod)+02h
	addwf	1+(?___awmod)+02h
	movf	(_b),w
	clrf	0+(?___awmod)+02h
	addwf	0+(?___awmod)+02h

	fcall	___awmod
	movf	(1+(?___awmod)),w
	bcf	status, 5	;RP0=0, select bank0
	bcf	status, 6	;RP1=0, select bank0
	clrf	(_d+1)
	addwf	(_d+1)
	movf	(0+(?___awmod)),w
	clrf	(_d)
	addwf	(_d)

	line	239
	
l2576:	
;interrupt test.c: 239: e=d/10;
	movlw	low(0Ah)
	movwf	(?___awdiv)
	movlw	high(0Ah)
	movwf	((?___awdiv))+1
	movf	(_d+1),w
	clrf	1+(?___awdiv)+02h
	addwf	1+(?___awdiv)+02h
	movf	(_d),w
	clrf	0+(?___awdiv)+02h
	addwf	0+(?___awdiv)+02h

	fcall	___awdiv
	movf	(1+(?___awdiv)),w
	bcf	status, 5	;RP0=0, select bank0
	bcf	status, 6	;RP1=0, select bank0
	clrf	(_e+1)
	addwf	(_e+1)
	movf	(0+(?___awdiv)),w
	clrf	(_e)
	addwf	(_e)

	line	240
	
l2578:	
;interrupt test.c: 240: f=d%10;
	movlw	low(0Ah)
	movwf	(?___awmod)
	movlw	high(0Ah)
	movwf	((?___awmod))+1
	movf	(_d+1),w
	clrf	1+(?___awmod)+02h
	addwf	1+(?___awmod)+02h
	movf	(_d),w
	clrf	0+(?___awmod)+02h
	addwf	0+(?___awmod)+02h

	fcall	___awmod
	movf	(1+(?___awmod)),w
	bcf	status, 5	;RP0=0, select bank0
	bcf	status, 6	;RP1=0, select bank0
	clrf	(_f+1)
	addwf	(_f+1)
	movf	(0+(?___awmod)),w
	clrf	(_f)
	addwf	(_f)

	line	242
	
l2580:	
;interrupt test.c: 242: lcd_cmd(0xC0);
	movlw	(0C0h)
	fcall	_lcd_cmd
	line	243
	
l2582:	
;interrupt test.c: 243: lcd_data(a+0x30);
	bcf	status, 5	;RP0=0, select bank0
	bcf	status, 6	;RP1=0, select bank0
	movf	(_a),w
	addlw	030h
	fcall	_lcd_data
	line	244
	
l2584:	
;interrupt test.c: 244: delay(1000);
	movlw	low(03E8h)
	movwf	(?_delay)
	movlw	high(03E8h)
	movwf	((?_delay))+1
	fcall	_delay
	line	245
	
l2586:	
;interrupt test.c: 245: lcd_data(z+0x30);
	bcf	status, 5	;RP0=0, select bank0
	bcf	status, 6	;RP1=0, select bank0
	movf	(_z),w
	addlw	030h
	fcall	_lcd_data
	line	246
	
l2588:	
;interrupt test.c: 246: delay(1000);
	movlw	low(03E8h)
	movwf	(?_delay)
	movlw	high(03E8h)
	movwf	((?_delay))+1
	fcall	_delay
	line	247
	
l2590:	
;interrupt test.c: 247: lcd_data(e+0x30);
	bcf	status, 5	;RP0=0, select bank0
	bcf	status, 6	;RP1=0, select bank0
	movf	(_e),w
	addlw	030h
	fcall	_lcd_data
	line	248
	
l2592:	
;interrupt test.c: 248: delay(1000);
	movlw	low(03E8h)
	movwf	(?_delay)
	movlw	high(03E8h)
	movwf	((?_delay))+1
	fcall	_delay
	line	249
	
l2594:	
;interrupt test.c: 249: lcd_data(f+0x30);
	bcf	status, 5	;RP0=0, select bank0
	bcf	status, 6	;RP1=0, select bank0
	movf	(_f),w
	addlw	030h
	fcall	_lcd_data
	line	250
	
l2596:	
;interrupt test.c: 250: delay(1000);
	movlw	low(03E8h)
	movwf	(?_delay)
	movlw	high(03E8h)
	movwf	((?_delay))+1
	fcall	_delay
	line	251
	
l2598:	
;interrupt test.c: 251: delay(50000);delay(50000);
	movlw	low(0C350h)
	movwf	(?_delay)
	movlw	high(0C350h)
	movwf	((?_delay))+1
	fcall	_delay
	
l2600:	
	movlw	low(0C350h)
	movwf	(?_delay)
	movlw	high(0C350h)
	movwf	((?_delay))+1
	fcall	_delay
	line	252
	
l2602:	
;interrupt test.c: 252: if(temmp>=500)
	movf	(_temmp+1),w
	xorlw	80h
	movwf	btemp+0
	movlw	(high(01F4h))^80h
	subwf	btemp+0,w
	skipz
	goto	u2525
	movlw	low(01F4h)
	subwf	(_temmp),w
u2525:

	skipc
	goto	u2521
	goto	u2520
u2521:
	goto	l642
u2520:
	line	255
	
l2604:	
;interrupt test.c: 253: {
;interrupt test.c: 255: lcd_cmd(0x80);
	movlw	(080h)
	fcall	_lcd_cmd
	line	256
	
l2606:	
;interrupt test.c: 256: lcd_display("sensor abnormal");
	movlw	((STR_4-__stringbase))&0ffh
	fcall	_lcd_display
	line	257
	
l2608:	
;interrupt test.c: 257: delay(50000);
	movlw	low(0C350h)
	movwf	(?_delay)
	movlw	high(0C350h)
	movwf	((?_delay))+1
	fcall	_delay
	line	258
;interrupt test.c: 258: serial("AT");
	movlw	((STR_5-__stringbase))&0ffh
	fcall	_serial
	line	259
	
l2610:	
;interrupt test.c: 259: txs(13);delay(60000);delay(60000);
	movlw	(0Dh)
	fcall	_txs
	
l2612:	
	movlw	low(0EA60h)
	movwf	(?_delay)
	movlw	high(0EA60h)
	movwf	((?_delay))+1
	fcall	_delay
	
l2614:	
	movlw	low(0EA60h)
	movwf	(?_delay)
	movlw	high(0EA60h)
	movwf	((?_delay))+1
	fcall	_delay
	line	260
	
l2616:	
;interrupt test.c: 260: txs(10);
	movlw	(0Ah)
	fcall	_txs
	line	261
	
l2618:	
;interrupt test.c: 261: delay(10000);
	movlw	low(02710h)
	movwf	(?_delay)
	movlw	high(02710h)
	movwf	((?_delay))+1
	fcall	_delay
	line	262
	
l2620:	
;interrupt test.c: 262: delay(10000);
	movlw	low(02710h)
	movwf	(?_delay)
	movlw	high(02710h)
	movwf	((?_delay))+1
	fcall	_delay
	line	263
;interrupt test.c: 263: serial("AT+CMGF=1");
	movlw	((STR_6-__stringbase))&0ffh
	fcall	_serial
	line	264
	
l2622:	
;interrupt test.c: 264: txs(13);delay(60000);delay(60000);
	movlw	(0Dh)
	fcall	_txs
	
l2624:	
	movlw	low(0EA60h)
	movwf	(?_delay)
	movlw	high(0EA60h)
	movwf	((?_delay))+1
	fcall	_delay
	
l2626:	
	movlw	low(0EA60h)
	movwf	(?_delay)
	movlw	high(0EA60h)
	movwf	((?_delay))+1
	fcall	_delay
	line	265
	
l2628:	
;interrupt test.c: 265: txs(10);
	movlw	(0Ah)
	fcall	_txs
	line	266
	
l2630:	
;interrupt test.c: 266: delay(10000);
	movlw	low(02710h)
	movwf	(?_delay)
	movlw	high(02710h)
	movwf	((?_delay))+1
	fcall	_delay
	line	267
	
l2632:	
;interrupt test.c: 267: delay(10000);
	movlw	low(02710h)
	movwf	(?_delay)
	movlw	high(02710h)
	movwf	((?_delay))+1
	fcall	_delay
	line	269
;interrupt test.c: 269: sms1();
	fcall	_sms1
	line	271
	
l642:	
	line	274
	
l643:	
	line	220
	goto	l641
	
l644:	
	line	275
	
l645:	
	global	start
	ljmp	start
	opt stack 0
GLOBAL	__end_of_main
	__end_of_main:
;; =============== function _main ends ============

	signat	_main,88
	global	_lcd_init
psect	text267,local,class=CODE,delta=2
global __ptext267
__ptext267:

;; *************** function _lcd_init *****************
;; Defined at:
;;		line 57 in file "C:\Users\TECH\Desktop\madhu pic folder\gps&gsm\Eneregy meter using GSM\interrupt test.c"
;; Parameters:    Size  Location     Type
;;		None
;; Auto vars:     Size  Location     Type
;;		None
;; Return value:  Size  Location     Type
;;		None               void
;; Registers used:
;;		wreg, status,2, status,0, btemp+0, pclath, cstack
;; Tracked objects:
;;		On entry : 0/0
;;		On exit  : 0/0
;;		Unchanged: 0/0
;; Data sizes:     COMMON   BANK0   BANK1   BANK3   BANK2
;;      Params:         0       0       0       0       0
;;      Locals:         0       0       0       0       0
;;      Temps:          0       0       0       0       0
;;      Totals:         0       0       0       0       0
;;Total ram usage:        0 bytes
;; Hardware stack levels used:    1
;; Hardware stack levels required when called:    2
;; This function calls:
;;		_lcd_cmd
;; This function is called by:
;;		_main
;; This function uses a non-reentrant model
;;
psect	text267
	file	"C:\Users\TECH\Desktop\madhu pic folder\gps&gsm\Eneregy meter using GSM\interrupt test.c"
	line	57
	global	__size_of_lcd_init
	__size_of_lcd_init	equ	__end_of_lcd_init-_lcd_init
	
_lcd_init:	
	opt	stack 7
; Regs used in _lcd_init: [wreg+status,2-btemp+0+pclath+cstack]
	line	58
	
l2498:	
;interrupt test.c: 58: lcd_cmd(0x02);
	movlw	(02h)
	fcall	_lcd_cmd
	line	59
;interrupt test.c: 59: lcd_cmd(0x2c);
	movlw	(02Ch)
	fcall	_lcd_cmd
	line	60
;interrupt test.c: 60: lcd_cmd(0x06);
	movlw	(06h)
	fcall	_lcd_cmd
	line	61
;interrupt test.c: 61: lcd_cmd(0x01);
	movlw	(01h)
	fcall	_lcd_cmd
	line	62
;interrupt test.c: 62: lcd_cmd(0x0c);
	movlw	(0Ch)
	fcall	_lcd_cmd
	line	63
;interrupt test.c: 63: lcd_cmd(0x80);
	movlw	(080h)
	fcall	_lcd_cmd
	line	64
	
l611:	
	return
	opt stack 0
GLOBAL	__end_of_lcd_init
	__end_of_lcd_init:
;; =============== function _lcd_init ends ============

	signat	_lcd_init,88
	global	_lcd_display
psect	text268,local,class=CODE,delta=2
global __ptext268
__ptext268:

;; *************** function _lcd_display *****************
;; Defined at:
;;		line 50 in file "C:\Users\TECH\Desktop\madhu pic folder\gps&gsm\Eneregy meter using GSM\interrupt test.c"
;; Parameters:    Size  Location     Type
;;  m               1    wreg     PTR const unsigned char 
;;		 -> STR_4(16), STR_3(8), 
;; Auto vars:     Size  Location     Type
;;  m               1    5[COMMON] PTR const unsigned char 
;;		 -> STR_4(16), STR_3(8), 
;;  k               2    6[COMMON] int 
;; Return value:  Size  Location     Type
;;		None               void
;; Registers used:
;;		wreg, fsr0l, fsr0h, status,2, status,0, btemp+0, pclath, cstack
;; Tracked objects:
;;		On entry : 0/0
;;		On exit  : 0/0
;;		Unchanged: 0/0
;; Data sizes:     COMMON   BANK0   BANK1   BANK3   BANK2
;;      Params:         0       0       0       0       0
;;      Locals:         3       0       0       0       0
;;      Temps:          0       0       0       0       0
;;      Totals:         3       0       0       0       0
;;Total ram usage:        3 bytes
;; Hardware stack levels used:    1
;; Hardware stack levels required when called:    2
;; This function calls:
;;		_lcd_data
;; This function is called by:
;;		_main
;; This function uses a non-reentrant model
;;
psect	text268
	file	"C:\Users\TECH\Desktop\madhu pic folder\gps&gsm\Eneregy meter using GSM\interrupt test.c"
	line	50
	global	__size_of_lcd_display
	__size_of_lcd_display	equ	__end_of_lcd_display-_lcd_display
	
_lcd_display:	
	opt	stack 7
; Regs used in _lcd_display: [wreg-fsr0h+status,2-btemp+0+pclath+cstack]
;lcd_display@m stored from wreg
	movwf	(lcd_display@m)
	line	51
	
l2490:	
;interrupt test.c: 51: for(int k=0;m[k]!=0;k++)
	movlw	low(0)
	movwf	(lcd_display@k)
	movlw	high(0)
	movwf	((lcd_display@k))+1
	goto	l605
	line	52
	
l606:	
	line	53
	
l2492:	
;interrupt test.c: 52: {
;interrupt test.c: 53: lcd_data(m[k]);
	movf	(lcd_display@k),w
	addwf	(lcd_display@m),w
	movwf	fsr0
	fcall	stringdir
	fcall	_lcd_data
	line	51
	
l2494:	
	movlw	low(01h)
	addwf	(lcd_display@k),f
	skipnc
	incf	(lcd_display@k+1),f
	movlw	high(01h)
	addwf	(lcd_display@k+1),f
	
l605:	
	
l2496:	
	movf	(lcd_display@k),w
	addwf	(lcd_display@m),w
	movwf	fsr0
	fcall	stringdir
	iorlw	0
	skipz
	goto	u2501
	goto	u2500
u2501:
	goto	l606
u2500:
	
l607:	
	line	55
	
l608:	
	return
	opt stack 0
GLOBAL	__end_of_lcd_display
	__end_of_lcd_display:
;; =============== function _lcd_display ends ============

	signat	_lcd_display,4216
	global	_serial
psect	text269,local,class=CODE,delta=2
global __ptext269
__ptext269:

;; *************** function _serial *****************
;; Defined at:
;;		line 176 in file "C:\Users\TECH\Desktop\madhu pic folder\gps&gsm\Eneregy meter using GSM\interrupt test.c"
;; Parameters:    Size  Location     Type
;;  a               1    wreg     PTR const unsigned char 
;;		 -> STR_6(10), STR_5(3), 
;; Auto vars:     Size  Location     Type
;;  a               1    3[COMMON] PTR const unsigned char 
;;		 -> STR_6(10), STR_5(3), 
;;  i               1    4[COMMON] unsigned char 
;; Return value:  Size  Location     Type
;;		None               void
;; Registers used:
;;		wreg, fsr0l, fsr0h, status,2, status,0, pclath, cstack
;; Tracked objects:
;;		On entry : 0/0
;;		On exit  : 0/0
;;		Unchanged: 0/0
;; Data sizes:     COMMON   BANK0   BANK1   BANK3   BANK2
;;      Params:         0       0       0       0       0
;;      Locals:         2       0       0       0       0
;;      Temps:          1       0       0       0       0
;;      Totals:         3       0       0       0       0
;;Total ram usage:        3 bytes
;; Hardware stack levels used:    1
;; Hardware stack levels required when called:    1
;; This function calls:
;;		_delay
;; This function is called by:
;;		_main
;; This function uses a non-reentrant model
;;
psect	text269
	file	"C:\Users\TECH\Desktop\madhu pic folder\gps&gsm\Eneregy meter using GSM\interrupt test.c"
	line	176
	global	__size_of_serial
	__size_of_serial	equ	__end_of_serial-_serial
	
_serial:	
	opt	stack 7
; Regs used in _serial: [wreg-fsr0h+status,2+status,0+pclath+cstack]
;serial@a stored from wreg
	line	178
	movwf	(serial@a)
	
l2480:	
;interrupt test.c: 177: unsigned char i;
;interrupt test.c: 178: for(i=0;a[i]!=0;i++)
	clrc
	movlw	0
	btfsc	status,0
	movlw	1
	movwf	(serial@i)
	goto	l635
	line	179
	
l636:	
	line	180
	
l2482:	
;interrupt test.c: 179: {
;interrupt test.c: 180: TXREG=a[i];
	movf	(serial@i),w
	addwf	(serial@a),w
	movwf	fsr0
	fcall	stringdir
	bcf	status, 5	;RP0=0, select bank0
	bcf	status, 6	;RP1=0, select bank0
	movwf	(25)	;volatile
	line	181
	
l2484:	
;interrupt test.c: 181: delay(20000);
	movlw	low(04E20h)
	movwf	(?_delay)
	movlw	high(04E20h)
	movwf	((?_delay))+1
	fcall	_delay
	line	178
	
l2486:	
	movlw	(01h)
	movwf	(??_serial+0)+0
	movf	(??_serial+0)+0,w
	addwf	(serial@i),f
	
l635:	
	
l2488:	
	movf	(serial@i),w
	addwf	(serial@a),w
	movwf	fsr0
	fcall	stringdir
	iorlw	0
	skipz
	goto	u2491
	goto	u2490
u2491:
	goto	l636
u2490:
	
l637:	
	line	184
	
l638:	
	return
	opt stack 0
GLOBAL	__end_of_serial
	__end_of_serial:
;; =============== function _serial ends ============

	signat	_serial,4216
	global	_sms1
psect	text270,local,class=CODE,delta=2
global __ptext270
__ptext270:

;; *************** function _sms1 *****************
;; Defined at:
;;		line 90 in file "C:\Users\TECH\Desktop\madhu pic folder\gps&gsm\Eneregy meter using GSM\interrupt test.c"
;; Parameters:    Size  Location     Type
;;		None
;; Auto vars:     Size  Location     Type
;;		None
;; Return value:  Size  Location     Type
;;		None               void
;; Registers used:
;;		wreg, fsr0l, fsr0h, status,2, status,0, pclath, cstack
;; Tracked objects:
;;		On entry : 0/0
;;		On exit  : 0/0
;;		Unchanged: 0/0
;; Data sizes:     COMMON   BANK0   BANK1   BANK3   BANK2
;;      Params:         0       0       0       0       0
;;      Locals:         0       0       0       0       0
;;      Temps:          0       0       0       0       0
;;      Totals:         0       0       0       0       0
;;Total ram usage:        0 bytes
;; Hardware stack levels used:    1
;; Hardware stack levels required when called:    2
;; This function calls:
;;		_txs
;;		_delay
;;		_gsm_command
;; This function is called by:
;;		_main
;; This function uses a non-reentrant model
;;
psect	text270
	file	"C:\Users\TECH\Desktop\madhu pic folder\gps&gsm\Eneregy meter using GSM\interrupt test.c"
	line	90
	global	__size_of_sms1
	__size_of_sms1	equ	__end_of_sms1-_sms1
	
_sms1:	
	opt	stack 7
; Regs used in _sms1: [wreg-fsr0h+status,2+status,0+pclath+cstack]
	line	91
	
l2426:	
;interrupt test.c: 91: txs('A');txs('T');txs('+');txs('C');txs('M');txs('G');
	movlw	(041h)
	fcall	_txs
	movlw	(054h)
	fcall	_txs
	movlw	(02Bh)
	fcall	_txs
	movlw	(043h)
	fcall	_txs
	movlw	(04Dh)
	fcall	_txs
	movlw	(047h)
	fcall	_txs
	line	92
;interrupt test.c: 92: txs('S');txs('=');
	movlw	(053h)
	fcall	_txs
	movlw	(03Dh)
	fcall	_txs
	line	93
;interrupt test.c: 93: txs('"');
	movlw	(022h)
	fcall	_txs
	line	94
;interrupt test.c: 94: txs('8');txs('7');txs('7');txs('8');txs('7');
	movlw	(038h)
	fcall	_txs
	movlw	(037h)
	fcall	_txs
	movlw	(037h)
	fcall	_txs
	movlw	(038h)
	fcall	_txs
	movlw	(037h)
	fcall	_txs
	line	95
;interrupt test.c: 95: txs('5');txs('3');txs('9');txs('4');txs('0');
	movlw	(035h)
	fcall	_txs
	movlw	(033h)
	fcall	_txs
	movlw	(039h)
	fcall	_txs
	movlw	(034h)
	fcall	_txs
	movlw	(030h)
	fcall	_txs
	line	96
;interrupt test.c: 96: txs('"');
	movlw	(022h)
	fcall	_txs
	line	97
;interrupt test.c: 97: txs(13); delay(10000);txs(10);
	movlw	(0Dh)
	fcall	_txs
	movlw	low(02710h)
	movwf	(?_delay)
	movlw	high(02710h)
	movwf	((?_delay))+1
	fcall	_delay
	movlw	(0Ah)
	fcall	_txs
	line	99
;interrupt test.c: 99: delay(600);
	movlw	low(0258h)
	movwf	(?_delay)
	movlw	high(0258h)
	movwf	((?_delay))+1
	fcall	_delay
	line	100
;interrupt test.c: 100: delay(600);
	movlw	low(0258h)
	movwf	(?_delay)
	movlw	high(0258h)
	movwf	((?_delay))+1
	fcall	_delay
	line	102
	
l2428:	
;interrupt test.c: 102: gsm_command("sensor abnormal");
	movlw	((STR_1-__stringbase))&0ffh
	fcall	_gsm_command
	line	103
	
l2430:	
;interrupt test.c: 103: delay(5000);
	movlw	low(01388h)
	movwf	(?_delay)
	movlw	high(01388h)
	movwf	((?_delay))+1
	fcall	_delay
	line	104
	
l2432:	
;interrupt test.c: 104: txs(13); delay(10000);txs(10);
	movlw	(0Dh)
	fcall	_txs
	
l2434:	
	movlw	low(02710h)
	movwf	(?_delay)
	movlw	high(02710h)
	movwf	((?_delay))+1
	fcall	_delay
	
l2436:	
	movlw	(0Ah)
	fcall	_txs
	line	106
	
l2438:	
;interrupt test.c: 106: delay(600);
	movlw	low(0258h)
	movwf	(?_delay)
	movlw	high(0258h)
	movwf	((?_delay))+1
	fcall	_delay
	line	107
	
l2440:	
;interrupt test.c: 107: delay(600);
	movlw	low(0258h)
	movwf	(?_delay)
	movlw	high(0258h)
	movwf	((?_delay))+1
	fcall	_delay
	line	109
	
l2442:	
;interrupt test.c: 109: delay(5000);
	movlw	low(01388h)
	movwf	(?_delay)
	movlw	high(01388h)
	movwf	((?_delay))+1
	fcall	_delay
	line	110
	
l2444:	
;interrupt test.c: 110: TXREG=(a+0x30);
	bcf	status, 5	;RP0=0, select bank0
	bcf	status, 6	;RP1=0, select bank0
	movf	(_a),w
	addlw	030h
	movwf	(25)	;volatile
	line	111
	
l2446:	
;interrupt test.c: 111: delay(1000);
	movlw	low(03E8h)
	movwf	(?_delay)
	movlw	high(03E8h)
	movwf	((?_delay))+1
	fcall	_delay
	line	112
	
l2448:	
;interrupt test.c: 112: TXREG=(z+0x30);
	bcf	status, 5	;RP0=0, select bank0
	bcf	status, 6	;RP1=0, select bank0
	movf	(_z),w
	addlw	030h
	movwf	(25)	;volatile
	line	113
	
l2450:	
;interrupt test.c: 113: delay(1000);
	movlw	low(03E8h)
	movwf	(?_delay)
	movlw	high(03E8h)
	movwf	((?_delay))+1
	fcall	_delay
	line	114
	
l2452:	
;interrupt test.c: 114: TXREG=(e+0x30);
	bcf	status, 5	;RP0=0, select bank0
	bcf	status, 6	;RP1=0, select bank0
	movf	(_e),w
	addlw	030h
	movwf	(25)	;volatile
	line	115
	
l2454:	
;interrupt test.c: 115: delay(1000);
	movlw	low(03E8h)
	movwf	(?_delay)
	movlw	high(03E8h)
	movwf	((?_delay))+1
	fcall	_delay
	line	116
	
l2456:	
;interrupt test.c: 116: TXREG=(f+0x30);
	bcf	status, 5	;RP0=0, select bank0
	bcf	status, 6	;RP1=0, select bank0
	movf	(_f),w
	addlw	030h
	movwf	(25)	;volatile
	line	117
	
l2458:	
;interrupt test.c: 117: delay(1000);
	movlw	low(03E8h)
	movwf	(?_delay)
	movlw	high(03E8h)
	movwf	((?_delay))+1
	fcall	_delay
	line	121
	
l2460:	
;interrupt test.c: 121: delay(600);
	movlw	low(0258h)
	movwf	(?_delay)
	movlw	high(0258h)
	movwf	((?_delay))+1
	fcall	_delay
	line	122
	
l2462:	
;interrupt test.c: 122: txs(13);delay(60000);
	movlw	(0Dh)
	fcall	_txs
	
l2464:	
	movlw	low(0EA60h)
	movwf	(?_delay)
	movlw	high(0EA60h)
	movwf	((?_delay))+1
	fcall	_delay
	line	123
	
l2466:	
;interrupt test.c: 123: txs(10);
	movlw	(0Ah)
	fcall	_txs
	line	124
	
l2468:	
;interrupt test.c: 124: delay(10000);
	movlw	low(02710h)
	movwf	(?_delay)
	movlw	high(02710h)
	movwf	((?_delay))+1
	fcall	_delay
	line	126
	
l2470:	
;interrupt test.c: 126: txs(26);
	movlw	(01Ah)
	fcall	_txs
	line	127
	
l2472:	
;interrupt test.c: 127: delay(50000);delay(50000);
	movlw	low(0C350h)
	movwf	(?_delay)
	movlw	high(0C350h)
	movwf	((?_delay))+1
	fcall	_delay
	
l2474:	
	movlw	low(0C350h)
	movwf	(?_delay)
	movlw	high(0C350h)
	movwf	((?_delay))+1
	fcall	_delay
	line	128
	
l2476:	
;interrupt test.c: 128: delay(50000);delay(50000);
	movlw	low(0C350h)
	movwf	(?_delay)
	movlw	high(0C350h)
	movwf	((?_delay))+1
	fcall	_delay
	
l2478:	
	movlw	low(0C350h)
	movwf	(?_delay)
	movlw	high(0C350h)
	movwf	((?_delay))+1
	fcall	_delay
	line	129
	
l629:	
	return
	opt stack 0
GLOBAL	__end_of_sms1
	__end_of_sms1:
;; =============== function _sms1 ends ============

	signat	_sms1,88
	global	_lcd_data
psect	text271,local,class=CODE,delta=2
global __ptext271
__ptext271:

;; *************** function _lcd_data *****************
;; Defined at:
;;		line 34 in file "C:\Users\TECH\Desktop\madhu pic folder\gps&gsm\Eneregy meter using GSM\interrupt test.c"
;; Parameters:    Size  Location     Type
;;  dat             1    wreg     unsigned char 
;; Auto vars:     Size  Location     Type
;;  dat             1    4[COMMON] unsigned char 
;; Return value:  Size  Location     Type
;;		None               void
;; Registers used:
;;		wreg, status,2, status,0, btemp+0, pclath, cstack
;; Tracked objects:
;;		On entry : 0/0
;;		On exit  : 0/0
;;		Unchanged: 0/0
;; Data sizes:     COMMON   BANK0   BANK1   BANK3   BANK2
;;      Params:         0       0       0       0       0
;;      Locals:         1       0       0       0       0
;;      Temps:          2       0       0       0       0
;;      Totals:         3       0       0       0       0
;;Total ram usage:        3 bytes
;; Hardware stack levels used:    1
;; Hardware stack levels required when called:    1
;; This function calls:
;;		_delay
;; This function is called by:
;;		_lcd_display
;;		_main
;; This function uses a non-reentrant model
;;
psect	text271
	file	"C:\Users\TECH\Desktop\madhu pic folder\gps&gsm\Eneregy meter using GSM\interrupt test.c"
	line	34
	global	__size_of_lcd_data
	__size_of_lcd_data	equ	__end_of_lcd_data-_lcd_data
	
_lcd_data:	
	opt	stack 7
; Regs used in _lcd_data: [wreg+status,2-btemp+0+pclath+cstack]
;lcd_data@dat stored from wreg
	movwf	(lcd_data@dat)
	line	35
	
l2400:	
;interrupt test.c: 35: PORTD=(dat&0xf0);
	movf	(lcd_data@dat),w
	andlw	0F0h
	bcf	status, 5	;RP0=0, select bank0
	bcf	status, 6	;RP1=0, select bank0
	movwf	(8)	;volatile
	line	36
	
l2402:	
;interrupt test.c: 36: RD1=1;
	bsf	(65/8),(65)&7
	line	37
	
l2404:	
;interrupt test.c: 37: RD2=0;
	bcf	(66/8),(66)&7
	line	38
	
l2406:	
;interrupt test.c: 38: RD3=1;
	bsf	(67/8),(67)&7
	line	39
	
l2408:	
;interrupt test.c: 39: delay(200);
	movlw	low(0C8h)
	movwf	(?_delay)
	movlw	high(0C8h)
	movwf	((?_delay))+1
	fcall	_delay
	line	40
	
l2410:	
;interrupt test.c: 40: RD3=0;
	bcf	status, 5	;RP0=0, select bank0
	bcf	status, 6	;RP1=0, select bank0
	bcf	(67/8),(67)&7
	line	41
	
l2412:	
;interrupt test.c: 41: temp=dat<<4;
	movf	(lcd_data@dat),w
	movwf	(??_lcd_data+0)+0
	clrf	(??_lcd_data+0)+0+1
	movlw	04h
	movwf	btemp+0
u2485:
	clrc
	rlf	(??_lcd_data+0)+0,f
	rlf	(??_lcd_data+0)+1,f
	decfsz	btemp+0,f
	goto	u2485
	movf	0+(??_lcd_data+0)+0,w
	movwf	(_temp)
	movf	1+(??_lcd_data+0)+0,w
	movwf	(_temp+1)
	line	42
	
l2414:	
;interrupt test.c: 42: PORTD=(temp&0xf0);
	movf	(_temp),w
	andlw	0F0h
	movwf	(8)	;volatile
	line	43
	
l2416:	
;interrupt test.c: 43: RD1=1;
	bsf	(65/8),(65)&7
	line	44
	
l2418:	
;interrupt test.c: 44: RD2=0;
	bcf	(66/8),(66)&7
	line	45
	
l2420:	
;interrupt test.c: 45: RD3=1;
	bsf	(67/8),(67)&7
	line	46
	
l2422:	
;interrupt test.c: 46: delay(200);
	movlw	low(0C8h)
	movwf	(?_delay)
	movlw	high(0C8h)
	movwf	((?_delay))+1
	fcall	_delay
	line	47
	
l2424:	
;interrupt test.c: 47: RD3=0;
	bcf	status, 5	;RP0=0, select bank0
	bcf	status, 6	;RP1=0, select bank0
	bcf	(67/8),(67)&7
	line	48
	
l602:	
	return
	opt stack 0
GLOBAL	__end_of_lcd_data
	__end_of_lcd_data:
;; =============== function _lcd_data ends ============

	signat	_lcd_data,4216
	global	_lcd_cmd
psect	text272,local,class=CODE,delta=2
global __ptext272
__ptext272:

;; *************** function _lcd_cmd *****************
;; Defined at:
;;		line 18 in file "C:\Users\TECH\Desktop\madhu pic folder\gps&gsm\Eneregy meter using GSM\interrupt test.c"
;; Parameters:    Size  Location     Type
;;  com             1    wreg     unsigned char 
;; Auto vars:     Size  Location     Type
;;  com             1    4[COMMON] unsigned char 
;; Return value:  Size  Location     Type
;;		None               void
;; Registers used:
;;		wreg, status,2, status,0, btemp+0, pclath, cstack
;; Tracked objects:
;;		On entry : 0/0
;;		On exit  : 0/0
;;		Unchanged: 0/0
;; Data sizes:     COMMON   BANK0   BANK1   BANK3   BANK2
;;      Params:         0       0       0       0       0
;;      Locals:         1       0       0       0       0
;;      Temps:          2       0       0       0       0
;;      Totals:         3       0       0       0       0
;;Total ram usage:        3 bytes
;; Hardware stack levels used:    1
;; Hardware stack levels required when called:    1
;; This function calls:
;;		_delay
;; This function is called by:
;;		_lcd_init
;;		_main
;; This function uses a non-reentrant model
;;
psect	text272
	file	"C:\Users\TECH\Desktop\madhu pic folder\gps&gsm\Eneregy meter using GSM\interrupt test.c"
	line	18
	global	__size_of_lcd_cmd
	__size_of_lcd_cmd	equ	__end_of_lcd_cmd-_lcd_cmd
	
_lcd_cmd:	
	opt	stack 7
; Regs used in _lcd_cmd: [wreg+status,2-btemp+0+pclath+cstack]
;lcd_cmd@com stored from wreg
	movwf	(lcd_cmd@com)
	line	19
	
l2374:	
;interrupt test.c: 19: PORTD=(com&0xf0);
	movf	(lcd_cmd@com),w
	andlw	0F0h
	bcf	status, 5	;RP0=0, select bank0
	bcf	status, 6	;RP1=0, select bank0
	movwf	(8)	;volatile
	line	20
	
l2376:	
;interrupt test.c: 20: RD1=0;
	bcf	(65/8),(65)&7
	line	21
	
l2378:	
;interrupt test.c: 21: RD2=0;
	bcf	(66/8),(66)&7
	line	22
	
l2380:	
;interrupt test.c: 22: RD3=1;
	bsf	(67/8),(67)&7
	line	23
	
l2382:	
;interrupt test.c: 23: delay(200);
	movlw	low(0C8h)
	movwf	(?_delay)
	movlw	high(0C8h)
	movwf	((?_delay))+1
	fcall	_delay
	line	24
	
l2384:	
;interrupt test.c: 24: RD3=0;
	bcf	status, 5	;RP0=0, select bank0
	bcf	status, 6	;RP1=0, select bank0
	bcf	(67/8),(67)&7
	line	25
	
l2386:	
;interrupt test.c: 25: temp=com<<4;
	movf	(lcd_cmd@com),w
	movwf	(??_lcd_cmd+0)+0
	clrf	(??_lcd_cmd+0)+0+1
	movlw	04h
	movwf	btemp+0
u2475:
	clrc
	rlf	(??_lcd_cmd+0)+0,f
	rlf	(??_lcd_cmd+0)+1,f
	decfsz	btemp+0,f
	goto	u2475
	movf	0+(??_lcd_cmd+0)+0,w
	movwf	(_temp)
	movf	1+(??_lcd_cmd+0)+0,w
	movwf	(_temp+1)
	line	26
	
l2388:	
;interrupt test.c: 26: PORTD=(temp&0xf0);
	movf	(_temp),w
	andlw	0F0h
	movwf	(8)	;volatile
	line	27
	
l2390:	
;interrupt test.c: 27: RD1=0;
	bcf	(65/8),(65)&7
	line	28
	
l2392:	
;interrupt test.c: 28: RD2=0;
	bcf	(66/8),(66)&7
	line	29
	
l2394:	
;interrupt test.c: 29: RD3=1;
	bsf	(67/8),(67)&7
	line	30
	
l2396:	
;interrupt test.c: 30: delay(200);
	movlw	low(0C8h)
	movwf	(?_delay)
	movlw	high(0C8h)
	movwf	((?_delay))+1
	fcall	_delay
	line	31
	
l2398:	
;interrupt test.c: 31: RD3=0;
	bcf	status, 5	;RP0=0, select bank0
	bcf	status, 6	;RP1=0, select bank0
	bcf	(67/8),(67)&7
	line	32
	
l599:	
	return
	opt stack 0
GLOBAL	__end_of_lcd_cmd
	__end_of_lcd_cmd:
;; =============== function _lcd_cmd ends ============

	signat	_lcd_cmd,4216
	global	___awmod
psect	text273,local,class=CODE,delta=2
global __ptext273
__ptext273:

;; *************** function ___awmod *****************
;; Defined at:
;;		line 5 in file "C:\Program Files (x86)\HI-TECH Software\PICC\9.71a\sources\awmod.c"
;; Parameters:    Size  Location     Type
;;  divisor         2    0[COMMON] int 
;;  dividend        2    2[COMMON] int 
;; Auto vars:     Size  Location     Type
;;  sign            1    6[COMMON] unsigned char 
;;  counter         1    5[COMMON] unsigned char 
;; Return value:  Size  Location     Type
;;                  2    0[COMMON] int 
;; Registers used:
;;		wreg, status,2, status,0
;; Tracked objects:
;;		On entry : 0/0
;;		On exit  : 0/0
;;		Unchanged: 0/0
;; Data sizes:     COMMON   BANK0   BANK1   BANK3   BANK2
;;      Params:         4       0       0       0       0
;;      Locals:         2       0       0       0       0
;;      Temps:          1       0       0       0       0
;;      Totals:         7       0       0       0       0
;;Total ram usage:        7 bytes
;; Hardware stack levels used:    1
;; This function calls:
;;		Nothing
;; This function is called by:
;;		_main
;; This function uses a non-reentrant model
;;
psect	text273
	file	"C:\Program Files (x86)\HI-TECH Software\PICC\9.71a\sources\awmod.c"
	line	5
	global	__size_of___awmod
	__size_of___awmod	equ	__end_of___awmod-___awmod
	
___awmod:	
	opt	stack 7
; Regs used in ___awmod: [wreg+status,2+status,0]
	line	8
	
l2338:	
	clrc
	movlw	0
	btfsc	status,0
	movlw	1
	movwf	(___awmod@sign)
	line	9
	
l2340:	
	btfss	(___awmod@dividend+1),7
	goto	u2381
	goto	u2380
u2381:
	goto	l862
u2380:
	line	10
	
l2342:	
	comf	(___awmod@dividend),f
	comf	(___awmod@dividend+1),f
	incf	(___awmod@dividend),f
	skipnz
	incf	(___awmod@dividend+1),f
	line	11
	clrf	(___awmod@sign)
	bsf	status,0
	rlf	(___awmod@sign),f
	line	12
	
l862:	
	line	13
	
l2344:	
	btfss	(___awmod@divisor+1),7
	goto	u2391
	goto	u2390
u2391:
	goto	l863
u2390:
	line	14
	
l2346:	
	comf	(___awmod@divisor),f
	comf	(___awmod@divisor+1),f
	incf	(___awmod@divisor),f
	skipnz
	incf	(___awmod@divisor+1),f
	
l863:	
	line	15
	
l2348:	
	movf	(___awmod@divisor+1),w
	iorwf	(___awmod@divisor),w
	skipnz
	goto	u2401
	goto	u2400
u2401:
	goto	l864
u2400:
	line	16
	
l2350:	
	clrf	(___awmod@counter)
	bsf	status,0
	rlf	(___awmod@counter),f
	line	17
	goto	l865
	
l866:	
	line	18
	
l2352:	
	movlw	01h
	
u2415:
	clrc
	rlf	(___awmod@divisor),f
	rlf	(___awmod@divisor+1),f
	addlw	-1
	skipz
	goto	u2415
	line	19
	
l2354:	
	movlw	(01h)
	movwf	(??___awmod+0)+0
	movf	(??___awmod+0)+0,w
	addwf	(___awmod@counter),f
	line	20
	
l865:	
	line	17
	
l2356:	
	btfss	(___awmod@divisor+1),(15)&7
	goto	u2421
	goto	u2420
u2421:
	goto	l866
u2420:
	
l867:	
	line	21
	
l868:	
	line	22
	
l2358:	
	movf	(___awmod@divisor+1),w
	subwf	(___awmod@dividend+1),w
	skipz
	goto	u2435
	movf	(___awmod@divisor),w
	subwf	(___awmod@dividend),w
u2435:
	skipc
	goto	u2431
	goto	u2430
u2431:
	goto	l869
u2430:
	line	23
	
l2360:	
	movf	(___awmod@divisor),w
	subwf	(___awmod@dividend),f
	movf	(___awmod@divisor+1),w
	skipc
	decf	(___awmod@dividend+1),f
	subwf	(___awmod@dividend+1),f
	
l869:	
	line	24
	
l2362:	
	movlw	01h
	
u2445:
	clrc
	rrf	(___awmod@divisor+1),f
	rrf	(___awmod@divisor),f
	addlw	-1
	skipz
	goto	u2445
	line	25
	
l2364:	
	movlw	low(01h)
	subwf	(___awmod@counter),f
	btfss	status,2
	goto	u2451
	goto	u2450
u2451:
	goto	l868
u2450:
	
l870:	
	line	26
	
l864:	
	line	27
	
l2366:	
	movf	(___awmod@sign),w
	skipz
	goto	u2460
	goto	l871
u2460:
	line	28
	
l2368:	
	comf	(___awmod@dividend),f
	comf	(___awmod@dividend+1),f
	incf	(___awmod@dividend),f
	skipnz
	incf	(___awmod@dividend+1),f
	
l871:	
	line	29
	
l2370:	
	movf	(___awmod@dividend+1),w
	clrf	(?___awmod+1)
	addwf	(?___awmod+1)
	movf	(___awmod@dividend),w
	clrf	(?___awmod)
	addwf	(?___awmod)

	
l2372:	
	line	30
	
l872:	
	return
	opt stack 0
GLOBAL	__end_of___awmod
	__end_of___awmod:
;; =============== function ___awmod ends ============

	signat	___awmod,8314
	global	___awdiv
psect	text274,local,class=CODE,delta=2
global __ptext274
__ptext274:

;; *************** function ___awdiv *****************
;; Defined at:
;;		line 5 in file "C:\Program Files (x86)\HI-TECH Software\PICC\9.71a\sources\awdiv.c"
;; Parameters:    Size  Location     Type
;;  divisor         2    0[COMMON] int 
;;  dividend        2    2[COMMON] int 
;; Auto vars:     Size  Location     Type
;;  quotient        2    7[COMMON] int 
;;  sign            1    6[COMMON] unsigned char 
;;  counter         1    5[COMMON] unsigned char 
;; Return value:  Size  Location     Type
;;                  2    0[COMMON] int 
;; Registers used:
;;		wreg, status,2, status,0
;; Tracked objects:
;;		On entry : 0/0
;;		On exit  : 0/0
;;		Unchanged: 0/0
;; Data sizes:     COMMON   BANK0   BANK1   BANK3   BANK2
;;      Params:         4       0       0       0       0
;;      Locals:         4       0       0       0       0
;;      Temps:          1       0       0       0       0
;;      Totals:         9       0       0       0       0
;;Total ram usage:        9 bytes
;; Hardware stack levels used:    1
;; This function calls:
;;		Nothing
;; This function is called by:
;;		_main
;; This function uses a non-reentrant model
;;
psect	text274
	file	"C:\Program Files (x86)\HI-TECH Software\PICC\9.71a\sources\awdiv.c"
	line	5
	global	__size_of___awdiv
	__size_of___awdiv	equ	__end_of___awdiv-___awdiv
	
___awdiv:	
	opt	stack 7
; Regs used in ___awdiv: [wreg+status,2+status,0]
	line	9
	
l2300:	
	clrc
	movlw	0
	btfsc	status,0
	movlw	1
	movwf	(___awdiv@sign)
	line	10
	
l2302:	
	btfss	(___awdiv@divisor+1),7
	goto	u2281
	goto	u2280
u2281:
	goto	l794
u2280:
	line	11
	
l2304:	
	comf	(___awdiv@divisor),f
	comf	(___awdiv@divisor+1),f
	incf	(___awdiv@divisor),f
	skipnz
	incf	(___awdiv@divisor+1),f
	line	12
	clrf	(___awdiv@sign)
	bsf	status,0
	rlf	(___awdiv@sign),f
	line	13
	
l794:	
	line	14
	
l2306:	
	btfss	(___awdiv@dividend+1),7
	goto	u2291
	goto	u2290
u2291:
	goto	l795
u2290:
	line	15
	
l2308:	
	comf	(___awdiv@dividend),f
	comf	(___awdiv@dividend+1),f
	incf	(___awdiv@dividend),f
	skipnz
	incf	(___awdiv@dividend+1),f
	line	16
	
l2310:	
	movlw	(01h)
	movwf	(??___awdiv+0)+0
	movf	(??___awdiv+0)+0,w
	xorwf	(___awdiv@sign),f
	line	17
	
l795:	
	line	18
	movlw	low(0)
	movwf	(___awdiv@quotient)
	movlw	high(0)
	movwf	((___awdiv@quotient))+1
	line	19
	movf	(___awdiv@divisor+1),w
	iorwf	(___awdiv@divisor),w
	skipnz
	goto	u2301
	goto	u2300
u2301:
	goto	l796
u2300:
	line	20
	
l2312:	
	clrf	(___awdiv@counter)
	bsf	status,0
	rlf	(___awdiv@counter),f
	line	21
	goto	l797
	
l798:	
	line	22
	
l2314:	
	movlw	01h
	
u2315:
	clrc
	rlf	(___awdiv@divisor),f
	rlf	(___awdiv@divisor+1),f
	addlw	-1
	skipz
	goto	u2315
	line	23
	
l2316:	
	movlw	(01h)
	movwf	(??___awdiv+0)+0
	movf	(??___awdiv+0)+0,w
	addwf	(___awdiv@counter),f
	line	24
	
l797:	
	line	21
	
l2318:	
	btfss	(___awdiv@divisor+1),(15)&7
	goto	u2321
	goto	u2320
u2321:
	goto	l798
u2320:
	
l799:	
	line	25
	
l800:	
	line	26
	
l2320:	
	movlw	01h
	
u2335:
	clrc
	rlf	(___awdiv@quotient),f
	rlf	(___awdiv@quotient+1),f
	addlw	-1
	skipz
	goto	u2335
	line	27
	movf	(___awdiv@divisor+1),w
	subwf	(___awdiv@dividend+1),w
	skipz
	goto	u2345
	movf	(___awdiv@divisor),w
	subwf	(___awdiv@dividend),w
u2345:
	skipc
	goto	u2341
	goto	u2340
u2341:
	goto	l801
u2340:
	line	28
	
l2322:	
	movf	(___awdiv@divisor),w
	subwf	(___awdiv@dividend),f
	movf	(___awdiv@divisor+1),w
	skipc
	decf	(___awdiv@dividend+1),f
	subwf	(___awdiv@dividend+1),f
	line	29
	
l2324:	
	bsf	(___awdiv@quotient)+(0/8),(0)&7
	line	30
	
l801:	
	line	31
	
l2326:	
	movlw	01h
	
u2355:
	clrc
	rrf	(___awdiv@divisor+1),f
	rrf	(___awdiv@divisor),f
	addlw	-1
	skipz
	goto	u2355
	line	32
	
l2328:	
	movlw	low(01h)
	subwf	(___awdiv@counter),f
	btfss	status,2
	goto	u2361
	goto	u2360
u2361:
	goto	l800
u2360:
	
l802:	
	line	33
	
l796:	
	line	34
	
l2330:	
	movf	(___awdiv@sign),w
	skipz
	goto	u2370
	goto	l803
u2370:
	line	35
	
l2332:	
	comf	(___awdiv@quotient),f
	comf	(___awdiv@quotient+1),f
	incf	(___awdiv@quotient),f
	skipnz
	incf	(___awdiv@quotient+1),f
	
l803:	
	line	36
	
l2334:	
	movf	(___awdiv@quotient+1),w
	clrf	(?___awdiv+1)
	addwf	(?___awdiv+1)
	movf	(___awdiv@quotient),w
	clrf	(?___awdiv)
	addwf	(?___awdiv)

	
l2336:	
	line	37
	
l804:	
	return
	opt stack 0
GLOBAL	__end_of___awdiv
	__end_of___awdiv:
;; =============== function ___awdiv ends ============

	signat	___awdiv,8314
	global	_txs
psect	text275,local,class=CODE,delta=2
global __ptext275
__ptext275:

;; *************** function _txs *****************
;; Defined at:
;;		line 81 in file "C:\Users\TECH\Desktop\madhu pic folder\gps&gsm\Eneregy meter using GSM\interrupt test.c"
;; Parameters:    Size  Location     Type
;;  val             1    wreg     unsigned char 
;; Auto vars:     Size  Location     Type
;;  val             1    0[COMMON] unsigned char 
;; Return value:  Size  Location     Type
;;		None               void
;; Registers used:
;;		wreg
;; Tracked objects:
;;		On entry : 0/0
;;		On exit  : 0/0
;;		Unchanged: 0/0
;; Data sizes:     COMMON   BANK0   BANK1   BANK3   BANK2
;;      Params:         0       0       0       0       0
;;      Locals:         1       0       0       0       0
;;      Temps:          0       0       0       0       0
;;      Totals:         1       0       0       0       0
;;Total ram usage:        1 bytes
;; Hardware stack levels used:    1
;; This function calls:
;;		Nothing
;; This function is called by:
;;		_sms1
;;		_main
;;		_sms2
;; This function uses a non-reentrant model
;;
psect	text275
	file	"C:\Users\TECH\Desktop\madhu pic folder\gps&gsm\Eneregy meter using GSM\interrupt test.c"
	line	81
	global	__size_of_txs
	__size_of_txs	equ	__end_of_txs-_txs
	
_txs:	
	opt	stack 6
; Regs used in _txs: [wreg]
;txs@val stored from wreg
	movwf	(txs@val)
	line	82
	
l2244:	
;interrupt test.c: 82: while(!TXIF)
	goto	l623
	
l624:	
	line	84
;interrupt test.c: 83: {
	
l623:	
	line	82
	bcf	status, 5	;RP0=0, select bank0
	bcf	status, 6	;RP1=0, select bank0
	btfss	(100/8),(100)&7
	goto	u2271
	goto	u2270
u2271:
	goto	l624
u2270:
	
l625:	
	line	85
;interrupt test.c: 84: }
;interrupt test.c: 85: OERR=0;
	bcf	(193/8),(193)&7
	line	86
	
l2246:	
;interrupt test.c: 86: TXREG=val;
	movf	(txs@val),w
	movwf	(25)	;volatile
	line	87
	
l626:	
	return
	opt stack 0
GLOBAL	__end_of_txs
	__end_of_txs:
;; =============== function _txs ends ============

	signat	_txs,4216
	global	_gsm_command
psect	text276,local,class=CODE,delta=2
global __ptext276
__ptext276:

;; *************** function _gsm_command *****************
;; Defined at:
;;		line 68 in file "C:\Users\TECH\Desktop\madhu pic folder\gps&gsm\Eneregy meter using GSM\interrupt test.c"
;; Parameters:    Size  Location     Type
;;  da              1    wreg     PTR const unsigned char 
;;		 -> STR_2(16), STR_1(16), 
;; Auto vars:     Size  Location     Type
;;  da              1    0[COMMON] PTR const unsigned char 
;;		 -> STR_2(16), STR_1(16), 
;;  s               2    1[COMMON] unsigned int 
;; Return value:  Size  Location     Type
;;		None               void
;; Registers used:
;;		wreg, fsr0l, fsr0h, status,2, status,0, pclath
;; Tracked objects:
;;		On entry : 0/0
;;		On exit  : 0/0
;;		Unchanged: 0/0
;; Data sizes:     COMMON   BANK0   BANK1   BANK3   BANK2
;;      Params:         0       0       0       0       0
;;      Locals:         3       0       0       0       0
;;      Temps:          0       0       0       0       0
;;      Totals:         3       0       0       0       0
;;Total ram usage:        3 bytes
;; Hardware stack levels used:    2
;; This function calls:
;;		Nothing
;; This function is called by:
;;		_sms1
;;		_sms2
;; This function uses a non-reentrant model
;;
psect	text276
	file	"C:\Users\TECH\Desktop\madhu pic folder\gps&gsm\Eneregy meter using GSM\interrupt test.c"
	line	68
	global	__size_of_gsm_command
	__size_of_gsm_command	equ	__end_of_gsm_command-_gsm_command
	
_gsm_command:	
	opt	stack 5
; Regs used in _gsm_command: [wreg-fsr0h+status,2+status,0+pclath]
;gsm_command@da stored from wreg
	line	70
	movwf	(gsm_command@da)
	
l2236:	
;interrupt test.c: 69: unsigned int s;
;interrupt test.c: 70: for(s=0;da[s]!=0;s++)
	movlw	low(0)
	movwf	(gsm_command@s)
	movlw	high(0)
	movwf	((gsm_command@s))+1
	goto	l614
	line	71
	
l615:	
	line	72
;interrupt test.c: 71: {
;interrupt test.c: 72: while(!TXIF)
	goto	l616
	
l617:	
	line	74
;interrupt test.c: 73: {
	
l616:	
	line	72
	bcf	status, 5	;RP0=0, select bank0
	bcf	status, 6	;RP1=0, select bank0
	btfss	(100/8),(100)&7
	goto	u2251
	goto	u2250
u2251:
	goto	l617
u2250:
	
l618:	
	line	75
;interrupt test.c: 74: }
;interrupt test.c: 75: OERR=0;
	bcf	(193/8),(193)&7
	line	76
	
l2238:	
;interrupt test.c: 76: TXREG=da[s];
	movf	(gsm_command@s),w
	addwf	(gsm_command@da),w
	movwf	fsr0
	fcall	stringdir
	movwf	(25)	;volatile
	line	70
	
l2240:	
	movlw	low(01h)
	addwf	(gsm_command@s),f
	skipnc
	incf	(gsm_command@s+1),f
	movlw	high(01h)
	addwf	(gsm_command@s+1),f
	
l614:	
	
l2242:	
	movf	(gsm_command@s),w
	addwf	(gsm_command@da),w
	movwf	fsr0
	fcall	stringdir
	iorlw	0
	skipz
	goto	u2261
	goto	u2260
u2261:
	goto	l615
u2260:
	
l619:	
	line	78
	
l620:	
	return
	opt stack 0
GLOBAL	__end_of_gsm_command
	__end_of_gsm_command:
;; =============== function _gsm_command ends ============

	signat	_gsm_command,4216
	global	_delay
psect	text277,local,class=CODE,delta=2
global __ptext277
__ptext277:

;; *************** function _delay *****************
;; Defined at:
;;		line 13 in file "C:\Users\TECH\Desktop\madhu pic folder\gps&gsm\Eneregy meter using GSM\interrupt test.c"
;; Parameters:    Size  Location     Type
;;  a               2    0[COMMON] unsigned int 
;; Auto vars:     Size  Location     Type
;;		None
;; Return value:  Size  Location     Type
;;		None               void
;; Registers used:
;;		wreg
;; Tracked objects:
;;		On entry : 0/0
;;		On exit  : 0/0
;;		Unchanged: 0/0
;; Data sizes:     COMMON   BANK0   BANK1   BANK3   BANK2
;;      Params:         2       0       0       0       0
;;      Locals:         0       0       0       0       0
;;      Temps:          0       0       0       0       0
;;      Totals:         2       0       0       0       0
;;Total ram usage:        2 bytes
;; Hardware stack levels used:    1
;; This function calls:
;;		Nothing
;; This function is called by:
;;		_lcd_cmd
;;		_lcd_data
;;		_sms1
;;		_serial
;;		_main
;;		_sms2
;; This function uses a non-reentrant model
;;
psect	text277
	file	"C:\Users\TECH\Desktop\madhu pic folder\gps&gsm\Eneregy meter using GSM\interrupt test.c"
	line	13
	global	__size_of_delay
	__size_of_delay	equ	__end_of_delay-_delay
	
_delay:	
	opt	stack 6
; Regs used in _delay: [wreg]
	line	14
	
l2232:	
;interrupt test.c: 14: while(a--);
	goto	l593
	
l594:	
	
l593:	
	
l2234:	
	movlw	low(01h)
	subwf	(delay@a),f
	movlw	high(01h)
	skipc
	decf	(delay@a+1),f
	subwf	(delay@a+1),f
	movlw	high(0FFFFh)
	xorwf	((delay@a+1)),w
	skipz
	goto	u2245
	movlw	low(0FFFFh)
	xorwf	((delay@a)),w
u2245:

	skipz
	goto	u2241
	goto	u2240
u2241:
	goto	l594
u2240:
	
l595:	
	line	15
	
l596:	
	return
	opt stack 0
GLOBAL	__end_of_delay
	__end_of_delay:
;; =============== function _delay ends ============

	signat	_delay,4216
psect	text278,local,class=CODE,delta=2
global __ptext278
__ptext278:
	global	btemp
	btemp set 07Eh

	DABS	1,126,2	;btemp
	global	wtemp0
	wtemp0 set btemp
	end
