

HI-TECH Software PIC LITE Macro Assembler V9.71a build 6446 
                                                                                               Wed Feb 18 10:58:52 2026

HI-TECH Software Omniscient Code Generator (Lite mode) build 6446
     1  0000                     opt subtitle "HI-TECH Software Omniscient Code Generator (Lite mode) build 6446"
     2                           
     3                           opt pagewidth 120
     4                           
     5                           	opt lm
     6                           
     7                           	processor	16F877A
     8                           clrc	macro
     9                           	bcf	3,0
    10  0000                     	endm
    11                           clrz	macro
    12                           	bcf	3,2
    13  0000                     	endm
    14                           setc	macro
    15                           	bsf	3,0
    16  0000                     	endm
    17                           setz	macro
    18                           	bsf	3,2
    19  0000                     	endm
    20                           skipc	macro
    21                           	btfss	3,0
    22  0000                     	endm
    23                           skipz	macro
    24                           	btfss	3,2
    25  0000                     	endm
    26                           skipnc	macro
    27                           	btfsc	3,0
    28  0000                     	endm
    29                           skipnz	macro
    30                           	btfsc	3,2
    31  0000                     	endm
    32  0000                     indf	equ	0
    33  0000                     indf0	equ	0
    34  0002                     pc	equ	2
    35  0002                     pcl	equ	2
    36  0003                     status	equ	3
    37  0004                     fsr	equ	4
    38  0004                     fsr0	equ	4
    39  0001                     c	equ	1
    40  0000                     z	equ	0
    41  000A                     pclath	equ	10
    42                           # 2 "E:\Embedded_Program\pic task\pic task\serial communication\uart\task\2 led +lcd+vir
                                 tual terminal(ZIGBEE)\2 led on serial com.c"
    43                           	psect config,class=CONFIG,delta=2 ;#
    44                           # 2 "E:\Embedded_Program\pic task\pic task\serial communication\uart\task\2 led +lcd+vir
                                 tual terminal(ZIGBEE)\2 led on serial com.c"
    45  2007  3F72               	dw 0X3F72 ;#
    46                           	FNCALL	_main,_lcd_init
    47                           	FNCALL	_main,_delay
    48                           	FNCALL	_main,_lcd_cmd
    49                           	FNCALL	_main,_lcd_display
    50                           	FNCALL	_main,_serial
    51                           	FNCALL	_lcd_display,_lcd_data
    52                           	FNCALL	_lcd_init,_lcd_cmd
    53                           	FNCALL	_serial,_delay
    54                           	FNCALL	_lcd_data,_delay
    55                           	FNCALL	_lcd_cmd,_delay
    56                           	FNROOT	_main
    57                           	FNCALL	intlevel1,_rcx
    58                           	global	intlevel1
    59                           	FNROOT	intlevel1
    60                           	global	_b
    61                           	global	_i
    62                           	global	_temp
    63                           	global	_PORTC
    64                           psect	text286,local,class=CODE,delta=2
    65                           global __ptext286
    66  0000                     __ptext286:
    67  0007                     _PORTC	set	7
    68                           	global	_PORTD
    69  0008                     _PORTD	set	8
    70                           	global	_RCREG
    71  001A                     _RCREG	set	26
    72                           	global	_RCSTA
    73  0018                     _RCSTA	set	24
    74                           	global	_TXREG
    75  0019                     _TXREG	set	25
    76                           	global	_GIE
    77  005F                     _GIE	set	95
    78                           	global	_INTE
    79  005C                     _INTE	set	92
    80                           	global	_PEIE
    81  005E                     _PEIE	set	94
    82                           	global	_RC0
    83  0038                     _RC0	set	56
    84                           	global	_RC1
    85  0039                     _RC1	set	57
    86                           	global	_RCIF
    87  0065                     _RCIF	set	101
    88                           	global	_RD1
    89  0041                     _RD1	set	65
    90                           	global	_RD2
    91  0042                     _RD2	set	66
    92                           	global	_RD3
    93  0043                     _RD3	set	67
    94                           	global	_SPBRG
    95  0099                     _SPBRG	set	153
    96                           	global	_TRISC
    97  0087                     _TRISC	set	135
    98                           	global	_TRISD
    99  0088                     _TRISD	set	136
   100                           	global	_TXSTA
   101  0098                     _TXSTA	set	152
   102                           	global	_RCIE
   103  0465                     _RCIE	set	1125
   104                           psect	strings,class=STRING,delta=2
   105                           global __pstrings
   106  0013                     __pstrings:
   107                           ;	global	stringdir,stringtab,__stringbase
   108  0013                     stringtab:
   109                           ;	String table - string pointers are 1 byte each
   110  0013                     stringcode:stringdir:
      + 0013                     stringdir:	
   111  0013  3000               movlw high(stringdir)
   112  0014  008A               movwf pclath
   113  0015  0804               movf fsr,w
   114  0016  0A84               incf fsr
   115  0017  0782               	addwf pc
   116  0018                     __stringbase:
   117  0018  3400               	retlw	0
   118                           psect	strings
   119                           	
   120  0019                     STR_6:	
   121  0019  344C               	retlw	76	;'L'
   122  001A  3469               	retlw	105	;'i'
   123  001B  3467               	retlw	103	;'g'
   124  001C  3468               	retlw	104	;'h'
   125  001D  3474               	retlw	116	;'t'
   126  001E  3420               	retlw	32	;' '
   127  001F  346F               	retlw	111	;'o'
   128  0020  3466               	retlw	102	;'f'
   129  0021  3466               	retlw	102	;'f'
   130  0022  3400               	retlw	0
   131                           psect	strings
   132                           	
   133  0023                     STR_2:	
   134  0023  344C               	retlw	76	;'L'
   135  0024  3469               	retlw	105	;'i'
   136  0025  3467               	retlw	103	;'g'
   137  0026  3468               	retlw	104	;'h'
   138  0027  3474               	retlw	116	;'t'
   139  0028  3420               	retlw	32	;' '
   140  0029  346F               	retlw	111	;'o'
   141  002A  346E               	retlw	110	;'n'
   142  002B  3400               	retlw	0
   143                           psect	strings
   144                           	
   145  002C                     STR_1:	
   146  002C  3457               	retlw	87	;'W'
   147  002D  3445               	retlw	69	;'E'
   148  002E  344C               	retlw	76	;'L'
   149  002F  3443               	retlw	67	;'C'
   150  0030  344F               	retlw	79	;'O'
   151  0031  344D               	retlw	77	;'M'
   152  0032  3445               	retlw	69	;'E'
   153  0033  3400               	retlw	0
   154                           psect	strings
   155                           	
   156  0034                     STR_8:	
   157  0034  3446               	retlw	70	;'F'
   158  0035  3461               	retlw	97	;'a'
   159  0036  346E               	retlw	110	;'n'
   160  0037  3420               	retlw	32	;' '
   161  0038  346F               	retlw	111	;'o'
   162  0039  3466               	retlw	102	;'f'
   163  003A  3466               	retlw	102	;'f'
   164  003B  3400               	retlw	0
   165                           psect	strings
   166                           	
   167  003C                     STR_4:	
   168  003C  3446               	retlw	70	;'F'
   169  003D  3461               	retlw	97	;'a'
   170  003E  346E               	retlw	110	;'n'
   171  003F  3420               	retlw	32	;' '
   172  0040  346F               	retlw	111	;'o'
   173  0041  346E               	retlw	110	;'n'
   174  0042  3400               	retlw	0
   175                           psect	strings
   176  0023                     STR_3	equ	STR_2+0
   177  003C                     STR_5	equ	STR_4+0
   178  0019                     STR_7	equ	STR_6+0
   179  0034                     STR_9	equ	STR_8+0
   180                           	file	"2 led on serial com.as"
   181                           	line	#
   182                           psect cinit,class=CODE,delta=2
   183                           global start_initialization
   184  02B9                     start_initialization:
   185                           
   186                           psect	bssCOMMON,class=COMMON,space=1
   187                           global __pbssCOMMON
   188  0076                     __pbssCOMMON:
   189  0076                     _i:
   190  0076                            ds      2
   191                           
   192  0078                     _temp:
   193  0078                            ds      2
   194                           
   195                           psect	bssBANK0,class=BANK0,space=1
   196                           global __pbssBANK0
   197  0028                     __pbssBANK0:
   198  0028                     _b:
   199  0028                            ds      2
   200                           
   201                           ; Clear objects allocated to COMMON
   202                           psect cinit,class=CODE,delta=2
   203  02B9  01F6               	clrf	((__pbssCOMMON)+0)&07Fh
   204  02BA  01F7               	clrf	((__pbssCOMMON)+1)&07Fh
   205  02BB  01F8               	clrf	((__pbssCOMMON)+2)&07Fh
   206  02BC  01F9               	clrf	((__pbssCOMMON)+3)&07Fh
   207                           ; Clear objects allocated to BANK0
   208                           psect cinit,class=CODE,delta=2
   209  02BD  01A8               	clrf	((__pbssBANK0)+0)&07Fh
   210  02BE  01A9               	clrf	((__pbssBANK0)+1)&07Fh
   211                           psect cinit,class=CODE,delta=2
   212                           global end_of_initialization
   213                           
   214                           ;End of C runtime variable initialization code
   215                           
   216  02BF                     end_of_initialization:
   217  02BF  0183               clrf status
   218  02C0  120A  118A  2843   ljmp _main	;jump to C main() function
   219                           psect	cstackCOMMON,class=COMMON,space=1
   220                           global __pcstackCOMMON
   221  0070                     __pcstackCOMMON:
   222                           	global	?_lcd_cmd
   223  0070                     ?_lcd_cmd:	; 0 bytes @ 0x0
   224                           	global	?_lcd_init
   225  0070                     ?_lcd_init:	; 0 bytes @ 0x0
   226                           	global	?_lcd_data
   227  0070                     ?_lcd_data:	; 0 bytes @ 0x0
   228                           	global	?_lcd_display
   229  0070                     ?_lcd_display:	; 0 bytes @ 0x0
   230                           	global	?_rcx
   231  0070                     ?_rcx:	; 0 bytes @ 0x0
   232                           	global	??_rcx
   233  0070                     ??_rcx:	; 0 bytes @ 0x0
   234                           	global	?_serial
   235  0070                     ?_serial:	; 0 bytes @ 0x0
   236                           	global	?_main
   237  0070                     ?_main:	; 2 bytes @ 0x0
   238  0070                     	ds	6
   239                           psect	cstackBANK0,class=BANK0,space=1
   240                           global __pcstackBANK0
   241  0020                     __pcstackBANK0:
   242                           	global	?_delay
   243  0020                     ?_delay:	; 0 bytes @ 0x0
   244                           	global	delay@x
   245  0020                     delay@x:	; 2 bytes @ 0x0
   246  0020                     	ds	2
   247                           	global	??_delay
   248  0022                     ??_delay:	; 0 bytes @ 0x2
   249                           	global	??_lcd_cmd
   250  0022                     ??_lcd_cmd:	; 0 bytes @ 0x2
   251                           	global	??_lcd_data
   252  0022                     ??_lcd_data:	; 0 bytes @ 0x2
   253                           	global	??_serial
   254  0022                     ??_serial:	; 0 bytes @ 0x2
   255                           	global	serial@a
   256  0022                     serial@a:	; 1 bytes @ 0x2
   257  0022                     	ds	1
   258                           	global	serial@j
   259  0023                     serial@j:	; 2 bytes @ 0x3
   260  0023                     	ds	1
   261                           	global	lcd_cmd@com
   262  0024                     lcd_cmd@com:	; 1 bytes @ 0x4
   263                           	global	lcd_data@dat
   264  0024                     lcd_data@dat:	; 1 bytes @ 0x4
   265  0024                     	ds	1
   266                           	global	??_lcd_init
   267  0025                     ??_lcd_init:	; 0 bytes @ 0x5
   268                           	global	??_lcd_display
   269  0025                     ??_lcd_display:	; 0 bytes @ 0x5
   270                           	global	lcd_display@m
   271  0025                     lcd_display@m:	; 1 bytes @ 0x5
   272  0025                     	ds	1
   273                           	global	lcd_display@i
   274  0026                     lcd_display@i:	; 2 bytes @ 0x6
   275  0026                     	ds	2
   276                           	global	??_main
   277  0028                     ??_main:	; 0 bytes @ 0x8
   278 ;;Data sizes: Strings 42, constant 0, data 0, bss 6, persistent 0 stack 0
   279 ;;Auto spaces:   Size  Autos    Used
   280 ;; COMMON          14      6      10
   281 ;; BANK0           80      8      10
   282 ;; BANK1           80      0       0
   283 ;; BANK3           96      0       0
   284 ;; BANK2           96      0       0
   285                           
   286 ;;
   287 ;; Pointer list with targets:
   288                           
   289 ;; serial@a	PTR unsigned char  size(1) Largest target is 10
   290 ;;		 -> STR_9(CODE[8]), STR_7(CODE[10]), STR_5(CODE[7]), STR_3(CODE[9]), 
   291 ;;
   292 ;; lcd_display@m	PTR unsigned char  size(1) Largest target is 10
   293 ;;		 -> STR_8(CODE[8]), STR_6(CODE[10]), STR_4(CODE[7]), STR_2(CODE[9]), 
   294 ;;		 -> STR_1(CODE[8]), 
   295 ;;
   296                           
   297                           
   298 ;;
   299 ;; Critical Paths under _main in COMMON
   300 ;;
   301 ;;   None.
   302 ;;
   303 ;; Critical Paths under _rcx in COMMON
   304 ;;
   305 ;;   None.
   306 ;;
   307 ;; Critical Paths under _main in BANK0
   308 ;;
   309 ;;   _main->_lcd_display
   310 ;;   _lcd_display->_lcd_data
   311 ;;   _lcd_init->_lcd_cmd
   312 ;;   _serial->_delay
   313 ;;   _lcd_data->_delay
   314 ;;   _lcd_cmd->_delay
   315 ;;
   316 ;; Critical Paths under _rcx in BANK0
   317 ;;
   318 ;;   None.
   319 ;;
   320 ;; Critical Paths under _main in BANK1
   321 ;;
   322 ;;   None.
   323 ;;
   324 ;; Critical Paths under _rcx in BANK1
   325 ;;
   326 ;;   None.
   327 ;;
   328 ;; Critical Paths under _main in BANK3
   329 ;;
   330 ;;   None.
   331 ;;
   332 ;; Critical Paths under _rcx in BANK3
   333 ;;
   334 ;;   None.
   335 ;;
   336 ;; Critical Paths under _main in BANK2
   337 ;;
   338 ;;   None.
   339 ;;
   340 ;; Critical Paths under _rcx in BANK2
   341 ;;
   342 ;;   None.
   343                           
   344 ;;
   345 ;;Main: autosize = 0, tempsize = 0, incstack = 0, save=0
   346 ;;
   347                           
   348 ;;
   349 ;;Call Graph Tables:
   350 ;;
   351 ;; ---------------------------------------------------------------------------------
   352 ;; (Depth) Function   	        Calls       Base Space   Used Autos Params    Refs
   353 ;; ---------------------------------------------------------------------------------
   354 ;; (0) _main                                                 0     0      0     601
   355 ;;                           _lcd_init
   356 ;;                              _delay
   357 ;;                            _lcd_cmd
   358 ;;                        _lcd_display
   359 ;;                             _serial
   360 ;; ---------------------------------------------------------------------------------
   361 ;; (1) _lcd_display                                          3     3      0     223
   362 ;;                                              5 BANK0      3     3      0
   363 ;;                           _lcd_data
   364 ;; ---------------------------------------------------------------------------------
   365 ;; (1) _lcd_init                                             0     0      0      93
   366 ;;                            _lcd_cmd
   367 ;; ---------------------------------------------------------------------------------
   368 ;; (1) _serial                                               3     3      0     161
   369 ;;                                              2 BANK0      3     3      0
   370 ;;                              _delay
   371 ;; ---------------------------------------------------------------------------------
   372 ;; (2) _lcd_data                                             3     3      0      93
   373 ;;                                              2 BANK0      3     3      0
   374 ;;                              _delay
   375 ;; ---------------------------------------------------------------------------------
   376 ;; (1) _lcd_cmd                                              3     3      0      93
   377 ;;                                              2 BANK0      3     3      0
   378 ;;                              _delay
   379 ;; ---------------------------------------------------------------------------------
   380 ;; (2) _delay                                                2     0      2      31
   381 ;;                                              0 BANK0      2     0      2
   382 ;; ---------------------------------------------------------------------------------
   383 ;; Estimated maximum stack depth 2
   384 ;; ---------------------------------------------------------------------------------
   385 ;; (Depth) Function   	        Calls       Base Space   Used Autos Params    Refs
   386 ;; ---------------------------------------------------------------------------------
   387 ;; (4) _rcx                                                  6     6      0       0
   388 ;;                                              0 COMMON     6     6      0
   389 ;; ---------------------------------------------------------------------------------
   390 ;; Estimated maximum stack depth 4
   391 ;; ---------------------------------------------------------------------------------
   392                           
   393 ;; Call Graph Graphs:
   394                           
   395 ;; _main (ROOT)
   396 ;;   _lcd_init
   397 ;;     _lcd_cmd
   398 ;;       _delay
   399 ;;   _delay
   400 ;;   _lcd_cmd
   401 ;;     _delay
   402 ;;   _lcd_display
   403 ;;     _lcd_data
   404 ;;       _delay
   405 ;;   _serial
   406 ;;     _delay
   407 ;;
   408 ;; _rcx (ROOT)
   409 ;;
   410                           
   411 ;; Address spaces:
   412                           
   413 ;;Name               Size   Autos  Total    Cost      Usage
   414 ;;BITCOMMON            E      0       0       0        0.0%
   415 ;;EEDATA             100      0       0       0        0.0%
   416 ;;NULL                 0      0       0       0        0.0%
   417 ;;CODE                 0      0       0       0        0.0%
   418 ;;COMMON               E      6       A       1       71.4%
   419 ;;BITSFR0              0      0       0       1        0.0%
   420 ;;SFR0                 0      0       0       1        0.0%
   421 ;;BITSFR1              0      0       0       2        0.0%
   422 ;;SFR1                 0      0       0       2        0.0%
   423 ;;STACK                0      0       3       2        0.0%
   424 ;;ABS                  0      0      14       3        0.0%
   425 ;;BITBANK0            50      0       0       4        0.0%
   426 ;;BITSFR3              0      0       0       4        0.0%
   427 ;;SFR3                 0      0       0       4        0.0%
   428 ;;BANK0               50      8       A       5       12.5%
   429 ;;BITSFR2              0      0       0       5        0.0%
   430 ;;SFR2                 0      0       0       5        0.0%
   431 ;;BITBANK1            50      0       0       6        0.0%
   432 ;;BANK1               50      0       0       7        0.0%
   433 ;;BITBANK3            60      0       0       8        0.0%
   434 ;;BANK3               60      0       0       9        0.0%
   435 ;;BITBANK2            60      0       0      10        0.0%
   436 ;;BANK2               60      0       0      11        0.0%
   437 ;;DATA                 0      0      17      12        0.0%
   438                           
   439                           	global	_main
   440                           psect	maintext,global,class=CODE,delta=2
   441                           global __pmaintext
   442  0043                     __pmaintext:
   443                           
   444 ;; *************** function _main *****************
   445 ;; Defined at:
   446 ;;		line 84 in file "E:\Embedded_Program\pic task\pic task\serial communication\uart\task\2 led +lcd+virtual terminal(ZI
       GBEE)\2 led on serial com.c"
   447 ;; Parameters:    Size  Location     Type
   448 ;;		None
   449 ;; Auto vars:     Size  Location     Type
   450 ;;		None
   451 ;; Return value:  Size  Location     Type
   452 ;;                  2  595[COMMON] int 
   453 ;; Registers used:
   454 ;;		wreg, fsr0l, fsr0h, status,2, status,0, btemp+0, pclath, cstack
   455 ;; Tracked objects:
   456 ;;		On entry : 17F/0
   457 ;;		On exit  : 0/0
   458 ;;		Unchanged: 0/0
   459 ;; Data sizes:     COMMON   BANK0   BANK1   BANK3   BANK2
   460 ;;      Params:         0       0       0       0       0
   461 ;;      Locals:         0       0       0       0       0
   462 ;;      Temps:          0       0       0       0       0
   463 ;;      Totals:         0       0       0       0       0
   464 ;;Total ram usage:        0 bytes
   465 ;; Hardware stack levels required when called:    4
   466 ;; This function calls:
   467 ;;		_lcd_init
   468 ;;		_delay
   469 ;;		_lcd_cmd
   470 ;;		_lcd_display
   471 ;;		_serial
   472 ;; This function is called by:
   473 ;;		Startup code after reset
   474 ;; This function uses a non-reentrant model
   475 ;;
   476                           psect	maintext
   477                           	file	"E:\Embedded_Program\pic task\pic task\serial communication\uart\task\2 led +lcd+v
                                 irtual terminal(ZIGBEE)\2 led on serial com.c"
   478                           	line	84
   479                           	global	__size_of_main
   480  015B                     	__size_of_main	equ	__end_of_main-_main
   481                           	
   482  0043                     _main:	
   483                           	opt	stack 8
   484                           ; Regs used in _main: [wreg-fsr0h+status,2-btemp+0+pclath+cstack]
   485                           	line	85
   486                           	
   487  0043                     l2200:	
   488                           ;2 led on serial com.c: 85: TRISC=0X80;
   489  0043  3080               	movlw	(080h)
   490  0044  1683               	bsf	status, 5	;RP0=1, select bank1
   491  0045  1303               	bcf	status, 6	;RP1=0, select bank1
   492  0046  0087               	movwf	(135)^080h	;volatile
   493                           	line	86
   494                           	
   495  0047                     l2202:	
   496                           ;2 led on serial com.c: 86: PORTC=0X00;
   497  0047  1283               	bcf	status, 5	;RP0=0, select bank0
   498  0048  1303               	bcf	status, 6	;RP1=0, select bank0
   499  0049  0187               	clrf	(7)	;volatile
   500                           	line	87
   501                           	
   502  004A                     l2204:	
   503                           ;2 led on serial com.c: 87: TRISD=0X00;
   504  004A  1683               	bsf	status, 5	;RP0=1, select bank1
   505  004B  1303               	bcf	status, 6	;RP1=0, select bank1
   506  004C  0188               	clrf	(136)^080h	;volatile
   507                           	line	88
   508                           	
   509  004D                     l2206:	
   510                           ;2 led on serial com.c: 88: PORTD=0X00;
   511  004D  1283               	bcf	status, 5	;RP0=0, select bank0
   512  004E  1303               	bcf	status, 6	;RP1=0, select bank0
   513  004F  0188               	clrf	(8)	;volatile
   514                           	line	90
   515                           	
   516  0050                     l2208:	
   517                           ;2 led on serial com.c: 90: TXSTA=0X24;
   518  0050  3024               	movlw	(024h)
   519  0051  1683               	bsf	status, 5	;RP0=1, select bank1
   520  0052  1303               	bcf	status, 6	;RP1=0, select bank1
   521  0053  0098               	movwf	(152)^080h	;volatile
   522                           	line	91
   523                           	
   524  0054                     l2210:	
   525                           ;2 led on serial com.c: 91: RCSTA=0X90;
   526  0054  3090               	movlw	(090h)
   527  0055  1283               	bcf	status, 5	;RP0=0, select bank0
   528  0056  1303               	bcf	status, 6	;RP1=0, select bank0
   529  0057  0098               	movwf	(24)	;volatile
   530                           	line	92
   531                           	
   532  0058                     l2212:	
   533                           ;2 led on serial com.c: 92: SPBRG=25;
   534  0058  3019               	movlw	(019h)
   535  0059  1683               	bsf	status, 5	;RP0=1, select bank1
   536  005A  1303               	bcf	status, 6	;RP1=0, select bank1
   537  005B  0099               	movwf	(153)^080h	;volatile
   538                           	line	93
   539                           	
   540  005C                     l2214:	
   541                           ;2 led on serial com.c: 93: PEIE=1;
   542  005C  170B               	bsf	(94/8),(94)&7
   543                           	line	94
   544                           	
   545  005D                     l2216:	
   546                           ;2 led on serial com.c: 94: GIE=1;
   547  005D  178B               	bsf	(95/8),(95)&7
   548                           	line	95
   549                           	
   550  005E                     l2218:	
   551                           ;2 led on serial com.c: 95: INTE=1;
   552  005E  160B               	bsf	(92/8),(92)&7
   553                           	line	96
   554                           	
   555  005F                     l2220:	
   556                           ;2 led on serial com.c: 96: RCIE=1;
   557  005F  168C               	bsf	(1125/8)^080h,(1125)&7
   558                           	line	98
   559                           	
   560  0060                     l2222:	
   561                           ;2 led on serial com.c: 98: lcd_init();
   562  0060  120A  118A  2267   	fcall	_lcd_init
              120A  118A         
   563                           	line	99
   564                           	
   565  0065                     l2224:	
   566                           ;2 led on serial com.c: 99: delay(5000);
   567  0065  3088               	movlw	low(01388h)
   568  0066  1283               	bcf	status, 5	;RP0=0, select bank0
   569  0067  1303               	bcf	status, 6	;RP1=0, select bank0
   570  0068  00A0               	movwf	(?_delay)
   571  0069  3013               	movlw	high(01388h)
   572  006A  00A1               	movwf	((?_delay))+1
   573  006B  120A  118A  22A5   	fcall	_delay
              120A  118A         
   574                           	line	101
   575                           	
   576  0070                     l2226:	
   577                           ;2 led on serial com.c: 101: lcd_cmd(0x01);
   578  0070  3001               	movlw	(01h)
   579  0071  120A  118A  21D4   	fcall	_lcd_cmd
              120A  118A         
   580                           	line	102
   581                           	
   582  0076                     l2228:	
   583                           ;2 led on serial com.c: 102: lcd_cmd(0x80);
   584  0076  3080               	movlw	(080h)
   585  0077  120A  118A  21D4   	fcall	_lcd_cmd
              120A  118A         
   586                           	line	103
   587                           	
   588  007C                     l2230:	
   589                           ;2 led on serial com.c: 103: lcd_display("WELCOME");
   590  007C  3014               	movlw	((STR_1-__stringbase))&0ffh
   591  007D  120A  118A  223C   	fcall	_lcd_display
              120A  118A         
   592                           	line	104
   593                           	
   594  0082                     l2232:	
   595                           ;2 led on serial com.c: 104: delay(50000);delay(50000);
   596  0082  3050               	movlw	low(0C350h)
   597  0083  1283               	bcf	status, 5	;RP0=0, select bank0
   598  0084  1303               	bcf	status, 6	;RP1=0, select bank0
   599  0085  00A0               	movwf	(?_delay)
   600  0086  30C3               	movlw	high(0C350h)
   601  0087  00A1               	movwf	((?_delay))+1
   602  0088  120A  118A  22A5   	fcall	_delay
              120A  118A         
   603                           	
   604  008D                     l2234:	
   605  008D  3050               	movlw	low(0C350h)
   606  008E  1283               	bcf	status, 5	;RP0=0, select bank0
   607  008F  1303               	bcf	status, 6	;RP1=0, select bank0
   608  0090  00A0               	movwf	(?_delay)
   609  0091  30C3               	movlw	high(0C350h)
   610  0092  00A1               	movwf	((?_delay))+1
   611  0093  120A  118A  22A5   	fcall	_delay
              120A  118A         
   612                           	line	105
   613                           	
   614  0098                     l2236:	
   615                           ;2 led on serial com.c: 105: delay(50000);delay(50000);
   616  0098  3050               	movlw	low(0C350h)
   617  0099  1283               	bcf	status, 5	;RP0=0, select bank0
   618  009A  1303               	bcf	status, 6	;RP1=0, select bank0
   619  009B  00A0               	movwf	(?_delay)
   620  009C  30C3               	movlw	high(0C350h)
   621  009D  00A1               	movwf	((?_delay))+1
   622  009E  120A  118A  22A5   	fcall	_delay
              120A  118A         
   623                           	
   624  00A3                     l2238:	
   625  00A3  3050               	movlw	low(0C350h)
   626  00A4  1283               	bcf	status, 5	;RP0=0, select bank0
   627  00A5  1303               	bcf	status, 6	;RP1=0, select bank0
   628  00A6  00A0               	movwf	(?_delay)
   629  00A7  30C3               	movlw	high(0C350h)
   630  00A8  00A1               	movwf	((?_delay))+1
   631  00A9  120A  118A  22A5   	fcall	_delay
              120A  118A         
   632                           	line	107
   633                           ;2 led on serial com.c: 107: while(1)
   634                           	
   635  00AE                     l596:	
   636                           	line	110
   637                           	
   638  00AE                     l2240:	
   639                           ;2 led on serial com.c: 108: {
   640                           ;2 led on serial com.c: 110: if(b=='1')
   641  00AE  3031               	movlw	031h
   642  00AF  1283               	bcf	status, 5	;RP0=0, select bank0
   643  00B0  1303               	bcf	status, 6	;RP1=0, select bank0
   644  00B1  0628               	xorwf	(_b),w
   645  00B2  0429               	iorwf	(_b+1),w
   646  00B3  1D03               	skipz
   647  00B4  28B6               	goto	u2391
   648  00B5  28B7               	goto	u2390
   649  00B6                     u2391:
   650  00B6  28E9               	goto	l597
   651  00B7                     u2390:
   652                           	line	112
   653                           	
   654  00B7                     l2242:	
   655                           ;2 led on serial com.c: 111: {
   656                           ;2 led on serial com.c: 112: RC0=1;
   657  00B7  1407               	bsf	(56/8),(56)&7
   658                           	line	113
   659                           	
   660  00B8                     l2244:	
   661                           ;2 led on serial com.c: 113: delay(5000);
   662  00B8  3088               	movlw	low(01388h)
   663  00B9  00A0               	movwf	(?_delay)
   664  00BA  3013               	movlw	high(01388h)
   665  00BB  00A1               	movwf	((?_delay))+1
   666  00BC  120A  118A  22A5   	fcall	_delay
              120A  118A         
   667                           	line	114
   668                           	
   669  00C1                     l2246:	
   670                           ;2 led on serial com.c: 114: lcd_cmd(0x80);
   671  00C1  3080               	movlw	(080h)
   672  00C2  120A  118A  21D4   	fcall	_lcd_cmd
              120A  118A         
   673                           	line	115
   674                           	
   675  00C7                     l2248:	
   676                           ;2 led on serial com.c: 115: lcd_display("Light on");
   677  00C7  300B               	movlw	((STR_2-__stringbase))&0ffh
   678  00C8  120A  118A  223C   	fcall	_lcd_display
              120A  118A         
   679                           	line	116
   680                           	
   681  00CD                     l2250:	
   682                           ;2 led on serial com.c: 116: delay(50000);
   683  00CD  3050               	movlw	low(0C350h)
   684  00CE  1283               	bcf	status, 5	;RP0=0, select bank0
   685  00CF  1303               	bcf	status, 6	;RP1=0, select bank0
   686  00D0  00A0               	movwf	(?_delay)
   687  00D1  30C3               	movlw	high(0C350h)
   688  00D2  00A1               	movwf	((?_delay))+1
   689  00D3  120A  118A  22A5   	fcall	_delay
              120A  118A         
   690                           	line	117
   691                           	
   692  00D8                     l2252:	
   693                           ;2 led on serial com.c: 117: serial("Light on");
   694  00D8  300B               	movlw	((STR_3-__stringbase))&0ffh
   695  00D9  120A  118A  220A   	fcall	_serial
              120A  118A         
   696                           	line	118
   697                           ;2 led on serial com.c: 118: delay(50000);
   698  00DE  3050               	movlw	low(0C350h)
   699  00DF  1283               	bcf	status, 5	;RP0=0, select bank0
   700  00E0  1303               	bcf	status, 6	;RP1=0, select bank0
   701  00E1  00A0               	movwf	(?_delay)
   702  00E2  30C3               	movlw	high(0C350h)
   703  00E3  00A1               	movwf	((?_delay))+1
   704  00E4  120A  118A  22A5   	fcall	_delay
              120A  118A         
   705                           	line	119
   706                           	
   707  00E9                     l597:	
   708                           	line	121
   709                           	
   710  00E9                     l2254:	
   711                           ;2 led on serial com.c: 119: }
   712                           ;2 led on serial com.c: 121: if(b=='2')
   713  00E9  3032               	movlw	032h
   714  00EA  1283               	bcf	status, 5	;RP0=0, select bank0
   715  00EB  1303               	bcf	status, 6	;RP1=0, select bank0
   716  00EC  0628               	xorwf	(_b),w
   717  00ED  0429               	iorwf	(_b+1),w
   718  00EE  1D03               	skipz
   719  00EF  28F1               	goto	u2401
   720  00F0  28F2               	goto	u2400
   721  00F1                     u2401:
   722  00F1  2924               	goto	l598
   723  00F2                     u2400:
   724                           	line	123
   725                           	
   726  00F2                     l2256:	
   727                           ;2 led on serial com.c: 122: {
   728                           ;2 led on serial com.c: 123: RC1=1;
   729  00F2  1487               	bsf	(57/8),(57)&7
   730                           	line	124
   731                           	
   732  00F3                     l2258:	
   733                           ;2 led on serial com.c: 124: delay(5000);
   734  00F3  3088               	movlw	low(01388h)
   735  00F4  00A0               	movwf	(?_delay)
   736  00F5  3013               	movlw	high(01388h)
   737  00F6  00A1               	movwf	((?_delay))+1
   738  00F7  120A  118A  22A5   	fcall	_delay
              120A  118A         
   739                           	line	126
   740                           	
   741  00FC                     l2260:	
   742                           ;2 led on serial com.c: 126: lcd_cmd(0x80);
   743  00FC  3080               	movlw	(080h)
   744  00FD  120A  118A  21D4   	fcall	_lcd_cmd
              120A  118A         
   745                           	line	127
   746                           	
   747  0102                     l2262:	
   748                           ;2 led on serial com.c: 127: lcd_display("Fan on");
   749  0102  3024               	movlw	((STR_4-__stringbase))&0ffh
   750  0103  120A  118A  223C   	fcall	_lcd_display
              120A  118A         
   751                           	line	128
   752                           	
   753  0108                     l2264:	
   754                           ;2 led on serial com.c: 128: delay(50000);
   755  0108  3050               	movlw	low(0C350h)
   756  0109  1283               	bcf	status, 5	;RP0=0, select bank0
   757  010A  1303               	bcf	status, 6	;RP1=0, select bank0
   758  010B  00A0               	movwf	(?_delay)
   759  010C  30C3               	movlw	high(0C350h)
   760  010D  00A1               	movwf	((?_delay))+1
   761  010E  120A  118A  22A5   	fcall	_delay
              120A  118A         
   762                           	line	129
   763                           	
   764  0113                     l2266:	
   765                           ;2 led on serial com.c: 129: serial("Fan on");
   766  0113  3024               	movlw	((STR_5-__stringbase))&0ffh
   767  0114  120A  118A  220A   	fcall	_serial
              120A  118A         
   768                           	line	130
   769                           ;2 led on serial com.c: 130: delay(50000);
   770  0119  3050               	movlw	low(0C350h)
   771  011A  1283               	bcf	status, 5	;RP0=0, select bank0
   772  011B  1303               	bcf	status, 6	;RP1=0, select bank0
   773  011C  00A0               	movwf	(?_delay)
   774  011D  30C3               	movlw	high(0C350h)
   775  011E  00A1               	movwf	((?_delay))+1
   776  011F  120A  118A  22A5   	fcall	_delay
              120A  118A         
   777                           	line	131
   778                           	
   779  0124                     l598:	
   780                           	line	133
   781                           	
   782  0124                     l2268:	
   783                           ;2 led on serial com.c: 131: }
   784                           ;2 led on serial com.c: 133: if(b=='3')
   785  0124  3033               	movlw	033h
   786  0125  1283               	bcf	status, 5	;RP0=0, select bank0
   787  0126  1303               	bcf	status, 6	;RP1=0, select bank0
   788  0127  0628               	xorwf	(_b),w
   789  0128  0429               	iorwf	(_b+1),w
   790  0129  1D03               	skipz
   791  012A  292C               	goto	u2411
   792  012B  292D               	goto	u2410
   793  012C                     u2411:
   794  012C  295F               	goto	l599
   795  012D                     u2410:
   796                           	line	135
   797                           	
   798  012D                     l2270:	
   799                           ;2 led on serial com.c: 134: {
   800                           ;2 led on serial com.c: 135: RC0=0;
   801  012D  1007               	bcf	(56/8),(56)&7
   802                           	line	136
   803                           	
   804  012E                     l2272:	
   805                           ;2 led on serial com.c: 136: delay(5000);
   806  012E  3088               	movlw	low(01388h)
   807  012F  00A0               	movwf	(?_delay)
   808  0130  3013               	movlw	high(01388h)
   809  0131  00A1               	movwf	((?_delay))+1
   810  0132  120A  118A  22A5   	fcall	_delay
              120A  118A         
   811                           	line	137
   812                           	
   813  0137                     l2274:	
   814                           ;2 led on serial com.c: 137: lcd_cmd(0x80);
   815  0137  3080               	movlw	(080h)
   816  0138  120A  118A  21D4   	fcall	_lcd_cmd
              120A  118A         
   817                           	line	138
   818                           	
   819  013D                     l2276:	
   820                           ;2 led on serial com.c: 138: lcd_display("Light off");
   821  013D  3001               	movlw	((STR_6-__stringbase))&0ffh
   822  013E  120A  118A  223C   	fcall	_lcd_display
              120A  118A         
   823                           	line	139
   824                           	
   825  0143                     l2278:	
   826                           ;2 led on serial com.c: 139: delay(50000);
   827  0143  3050               	movlw	low(0C350h)
   828  0144  1283               	bcf	status, 5	;RP0=0, select bank0
   829  0145  1303               	bcf	status, 6	;RP1=0, select bank0
   830  0146  00A0               	movwf	(?_delay)
   831  0147  30C3               	movlw	high(0C350h)
   832  0148  00A1               	movwf	((?_delay))+1
   833  0149  120A  118A  22A5   	fcall	_delay
              120A  118A         
   834                           	line	140
   835                           	
   836  014E                     l2280:	
   837                           ;2 led on serial com.c: 140: serial("Light off");
   838  014E  3001               	movlw	((STR_7-__stringbase))&0ffh
   839  014F  120A  118A  220A   	fcall	_serial
              120A  118A         
   840                           	line	141
   841                           ;2 led on serial com.c: 141: delay(50000);
   842  0154  3050               	movlw	low(0C350h)
   843  0155  1283               	bcf	status, 5	;RP0=0, select bank0
   844  0156  1303               	bcf	status, 6	;RP1=0, select bank0
   845  0157  00A0               	movwf	(?_delay)
   846  0158  30C3               	movlw	high(0C350h)
   847  0159  00A1               	movwf	((?_delay))+1
   848  015A  120A  118A  22A5   	fcall	_delay
              120A  118A         
   849                           	line	142
   850                           	
   851  015F                     l599:	
   852                           	line	144
   853                           	
   854  015F                     l2282:	
   855                           ;2 led on serial com.c: 142: }
   856                           ;2 led on serial com.c: 144: if(b=='4')
   857  015F  3034               	movlw	034h
   858  0160  1283               	bcf	status, 5	;RP0=0, select bank0
   859  0161  1303               	bcf	status, 6	;RP1=0, select bank0
   860  0162  0628               	xorwf	(_b),w
   861  0163  0429               	iorwf	(_b+1),w
   862  0164  1D03               	skipz
   863  0165  2967               	goto	u2421
   864  0166  2968               	goto	u2420
   865  0167                     u2421:
   866  0167  299A               	goto	l600
   867  0168                     u2420:
   868                           	line	146
   869                           	
   870  0168                     l2284:	
   871                           ;2 led on serial com.c: 145: {
   872                           ;2 led on serial com.c: 146: RC1=0;
   873  0168  1087               	bcf	(57/8),(57)&7
   874                           	line	147
   875                           	
   876  0169                     l2286:	
   877                           ;2 led on serial com.c: 147: delay(5000);
   878  0169  3088               	movlw	low(01388h)
   879  016A  00A0               	movwf	(?_delay)
   880  016B  3013               	movlw	high(01388h)
   881  016C  00A1               	movwf	((?_delay))+1
   882  016D  120A  118A  22A5   	fcall	_delay
              120A  118A         
   883                           	line	148
   884                           	
   885  0172                     l2288:	
   886                           ;2 led on serial com.c: 148: lcd_cmd(0x80);
   887  0172  3080               	movlw	(080h)
   888  0173  120A  118A  21D4   	fcall	_lcd_cmd
              120A  118A         
   889                           	line	149
   890                           	
   891  0178                     l2290:	
   892                           ;2 led on serial com.c: 149: lcd_display("Fan off");
   893  0178  301C               	movlw	((STR_8-__stringbase))&0ffh
   894  0179  120A  118A  223C   	fcall	_lcd_display
              120A  118A         
   895                           	line	150
   896                           	
   897  017E                     l2292:	
   898                           ;2 led on serial com.c: 150: delay(50000);
   899  017E  3050               	movlw	low(0C350h)
   900  017F  1283               	bcf	status, 5	;RP0=0, select bank0
   901  0180  1303               	bcf	status, 6	;RP1=0, select bank0
   902  0181  00A0               	movwf	(?_delay)
   903  0182  30C3               	movlw	high(0C350h)
   904  0183  00A1               	movwf	((?_delay))+1
   905  0184  120A  118A  22A5   	fcall	_delay
              120A  118A         
   906                           	line	151
   907                           	
   908  0189                     l2294:	
   909                           ;2 led on serial com.c: 151: serial("Fan off");
   910  0189  301C               	movlw	((STR_9-__stringbase))&0ffh
   911  018A  120A  118A  220A   	fcall	_serial
              120A  118A         
   912                           	line	152
   913                           ;2 led on serial com.c: 152: delay(50000);
   914  018F  3050               	movlw	low(0C350h)
   915  0190  1283               	bcf	status, 5	;RP0=0, select bank0
   916  0191  1303               	bcf	status, 6	;RP1=0, select bank0
   917  0192  00A0               	movwf	(?_delay)
   918  0193  30C3               	movlw	high(0C350h)
   919  0194  00A1               	movwf	((?_delay))+1
   920  0195  120A  118A  22A5   	fcall	_delay
              120A  118A         
   921                           	line	153
   922                           	
   923  019A                     l600:	
   924                           	line	155
   925                           	
   926  019A                     l601:	
   927                           	line	107
   928  019A  28AE               	goto	l596
   929                           	
   930  019B                     l602:	
   931                           	line	156
   932                           	
   933  019B                     l603:	
   934                           	global	start
   935  019B  120A  118A  2810   	ljmp	start
   936                           	opt stack 0
   937                           GLOBAL	__end_of_main
   938  019E                     	__end_of_main:
   939 ;; =============== function _main ends ============
   940                           
   941                           	signat	_main,90
   942                           	global	_lcd_display
   943                           psect	text287,local,class=CODE,delta=2
   944                           global __ptext287
   945  023C                     __ptext287:
   946                           
   947 ;; *************** function _lcd_display *****************
   948 ;; Defined at:
   949 ;;		line 57 in file "E:\Embedded_Program\pic task\pic task\serial communication\uart\task\2 led +lcd+virtual terminal(ZI
       GBEE)\2 led on serial com.c"
   950 ;; Parameters:    Size  Location     Type
   951 ;;  m               1    wreg     PTR unsigned char 
   952 ;;		 -> STR_8(8), STR_6(10), STR_4(7), STR_2(9), 
   953 ;;		 -> STR_1(8), 
   954 ;; Auto vars:     Size  Location     Type
   955 ;;  m               1    5[BANK0 ] PTR unsigned char 
   956 ;;		 -> STR_8(8), STR_6(10), STR_4(7), STR_2(9), 
   957 ;;		 -> STR_1(8), 
   958 ;;  i               2    6[BANK0 ] int 
   959 ;; Return value:  Size  Location     Type
   960 ;;		None               void
   961 ;; Registers used:
   962 ;;		wreg, fsr0l, fsr0h, status,2, status,0, btemp+0, pclath, cstack
   963 ;; Tracked objects:
   964 ;;		On entry : 0/0
   965 ;;		On exit  : 0/0
   966 ;;		Unchanged: 0/0
   967 ;; Data sizes:     COMMON   BANK0   BANK1   BANK3   BANK2
   968 ;;      Params:         0       0       0       0       0
   969 ;;      Locals:         0       3       0       0       0
   970 ;;      Temps:          0       0       0       0       0
   971 ;;      Totals:         0       3       0       0       0
   972 ;;Total ram usage:        3 bytes
   973 ;; Hardware stack levels used:    1
   974 ;; Hardware stack levels required when called:    3
   975 ;; This function calls:
   976 ;;		_lcd_data
   977 ;; This function is called by:
   978 ;;		_main
   979 ;; This function uses a non-reentrant model
   980 ;;
   981                           psect	text287
   982                           	file	"E:\Embedded_Program\pic task\pic task\serial communication\uart\task\2 led +lcd+v
                                 irtual terminal(ZIGBEE)\2 led on serial com.c"
   983                           	line	57
   984                           	global	__size_of_lcd_display
   985  002B                     	__size_of_lcd_display	equ	__end_of_lcd_display-_lcd_display
   986                           	
   987  023C                     _lcd_display:	
   988                           	opt	stack 7
   989                           ; Regs used in _lcd_display: [wreg-fsr0h+status,2-btemp+0+pclath+cstack]
   990                           ;lcd_display@m stored from wreg
   991  023C  1283               	bcf	status, 5	;RP0=0, select bank0
   992  023D  1303               	bcf	status, 6	;RP1=0, select bank0
   993  023E  00A5               	movwf	(lcd_display@m)
   994                           	line	58
   995                           	
   996  023F                     l2192:	
   997                           ;2 led on serial com.c: 58: for(int i=0;m[i]!=0;i++)
   998  023F  3000               	movlw	low(0)
   999  0240  00A6               	movwf	(lcd_display@i)
  1000  0241  3000               	movlw	high(0)
  1001  0242  00A7               	movwf	((lcd_display@i))+1
  1002  0243  2A59               	goto	l580
  1003                           	line	59
  1004                           	
  1005  0244                     l581:	
  1006                           	line	60
  1007                           	
  1008  0244                     l2194:	
  1009                           ;2 led on serial com.c: 59: {
  1010                           ;2 led on serial com.c: 60: lcd_data(m[i]);
  1011  0244  0826               	movf	(lcd_display@i),w
  1012  0245  0725               	addwf	(lcd_display@m),w
  1013  0246  0084               	movwf	fsr0
  1014  0247  120A  118A  2013   	fcall	stringdir
              120A  118A         
  1015  024C  120A  118A  219E   	fcall	_lcd_data
              120A  118A         
  1016                           	line	58
  1017                           	
  1018  0251                     l2196:	
  1019  0251  3001               	movlw	low(01h)
  1020  0252  1283               	bcf	status, 5	;RP0=0, select bank0
  1021  0253  1303               	bcf	status, 6	;RP1=0, select bank0
  1022  0254  07A6               	addwf	(lcd_display@i),f
  1023  0255  1803               	skipnc
  1024  0256  0AA7               	incf	(lcd_display@i+1),f
  1025  0257  3000               	movlw	high(01h)
  1026  0258  07A7               	addwf	(lcd_display@i+1),f
  1027                           	
  1028  0259                     l580:	
  1029                           	
  1030  0259                     l2198:	
  1031  0259  0826               	movf	(lcd_display@i),w
  1032  025A  0725               	addwf	(lcd_display@m),w
  1033  025B  0084               	movwf	fsr0
  1034  025C  120A  118A  2013   	fcall	stringdir
              120A  118A         
  1035  0261  3800               	iorlw	0
  1036  0262  1D03               	skipz
  1037  0263  2A65               	goto	u2381
  1038  0264  2A66               	goto	u2380
  1039  0265                     u2381:
  1040  0265  2A44               	goto	l581
  1041  0266                     u2380:
  1042                           	
  1043  0266                     l582:	
  1044                           	line	62
  1045                           	
  1046  0266                     l583:	
  1047  0266  0008               	return
  1048                           	opt stack 0
  1049                           GLOBAL	__end_of_lcd_display
  1050  0267                     	__end_of_lcd_display:
  1051 ;; =============== function _lcd_display ends ============
  1052                           
  1053                           	signat	_lcd_display,4216
  1054                           	global	_lcd_init
  1055                           psect	text288,local,class=CODE,delta=2
  1056                           global __ptext288
  1057  0267                     __ptext288:
  1058                           
  1059 ;; *************** function _lcd_init *****************
  1060 ;; Defined at:
  1061 ;;		line 32 in file "E:\Embedded_Program\pic task\pic task\serial communication\uart\task\2 led +lcd+virtual terminal(ZI
       GBEE)\2 led on serial com.c"
  1062 ;; Parameters:    Size  Location     Type
  1063 ;;		None
  1064 ;; Auto vars:     Size  Location     Type
  1065 ;;		None
  1066 ;; Return value:  Size  Location     Type
  1067 ;;		None               void
  1068 ;; Registers used:
  1069 ;;		wreg, status,2, status,0, btemp+0, pclath, cstack
  1070 ;; Tracked objects:
  1071 ;;		On entry : 0/0
  1072 ;;		On exit  : 0/0
  1073 ;;		Unchanged: 0/0
  1074 ;; Data sizes:     COMMON   BANK0   BANK1   BANK3   BANK2
  1075 ;;      Params:         0       0       0       0       0
  1076 ;;      Locals:         0       0       0       0       0
  1077 ;;      Temps:          0       0       0       0       0
  1078 ;;      Totals:         0       0       0       0       0
  1079 ;;Total ram usage:        0 bytes
  1080 ;; Hardware stack levels used:    1
  1081 ;; Hardware stack levels required when called:    3
  1082 ;; This function calls:
  1083 ;;		_lcd_cmd
  1084 ;; This function is called by:
  1085 ;;		_main
  1086 ;; This function uses a non-reentrant model
  1087 ;;
  1088                           psect	text288
  1089                           	file	"E:\Embedded_Program\pic task\pic task\serial communication\uart\task\2 led +lcd+v
                                 irtual terminal(ZIGBEE)\2 led on serial com.c"
  1090                           	line	32
  1091                           	global	__size_of_lcd_init
  1092  0025                     	__size_of_lcd_init	equ	__end_of_lcd_init-_lcd_init
  1093                           	
  1094  0267                     _lcd_init:	
  1095                           	opt	stack 7
  1096                           ; Regs used in _lcd_init: [wreg+status,2-btemp+0+pclath+cstack]
  1097                           	line	33
  1098                           	
  1099  0267                     l2190:	
  1100                           ;2 led on serial com.c: 33: lcd_cmd(0x02);
  1101  0267  3002               	movlw	(02h)
  1102  0268  120A  118A  21D4   	fcall	_lcd_cmd
              120A  118A         
  1103                           	line	34
  1104                           ;2 led on serial com.c: 34: lcd_cmd(0x2c);
  1105  026D  302C               	movlw	(02Ch)
  1106  026E  120A  118A  21D4   	fcall	_lcd_cmd
              120A  118A         
  1107                           	line	35
  1108                           ;2 led on serial com.c: 35: lcd_cmd(0x06);
  1109  0273  3006               	movlw	(06h)
  1110  0274  120A  118A  21D4   	fcall	_lcd_cmd
              120A  118A         
  1111                           	line	36
  1112                           ;2 led on serial com.c: 36: lcd_cmd(0x01);
  1113  0279  3001               	movlw	(01h)
  1114  027A  120A  118A  21D4   	fcall	_lcd_cmd
              120A  118A         
  1115                           	line	37
  1116                           ;2 led on serial com.c: 37: lcd_cmd(0x0c);
  1117  027F  300C               	movlw	(0Ch)
  1118  0280  120A  118A  21D4   	fcall	_lcd_cmd
              120A  118A         
  1119                           	line	38
  1120                           ;2 led on serial com.c: 38: lcd_cmd(0x80);
  1121  0285  3080               	movlw	(080h)
  1122  0286  120A  118A  21D4   	fcall	_lcd_cmd
              120A  118A         
  1123                           	line	39
  1124                           	
  1125  028B                     l574:	
  1126  028B  0008               	return
  1127                           	opt stack 0
  1128                           GLOBAL	__end_of_lcd_init
  1129  028C                     	__end_of_lcd_init:
  1130 ;; =============== function _lcd_init ends ============
  1131                           
  1132                           	signat	_lcd_init,88
  1133                           	global	_serial
  1134                           psect	text289,local,class=CODE,delta=2
  1135                           global __ptext289
  1136  020A                     __ptext289:
  1137                           
  1138 ;; *************** function _serial *****************
  1139 ;; Defined at:
  1140 ;;		line 75 in file "E:\Embedded_Program\pic task\pic task\serial communication\uart\task\2 led +lcd+virtual terminal(ZI
       GBEE)\2 led on serial com.c"
  1141 ;; Parameters:    Size  Location     Type
  1142 ;;  a               1    wreg     PTR unsigned char 
  1143 ;;		 -> STR_9(8), STR_7(10), STR_5(7), STR_3(9), 
  1144 ;; Auto vars:     Size  Location     Type
  1145 ;;  a               1    2[BANK0 ] PTR unsigned char 
  1146 ;;		 -> STR_9(8), STR_7(10), STR_5(7), STR_3(9), 
  1147 ;;  j               2    3[BANK0 ] int 
  1148 ;; Return value:  Size  Location     Type
  1149 ;;		None               void
  1150 ;; Registers used:
  1151 ;;		wreg, fsr0l, fsr0h, status,2, status,0, pclath, cstack
  1152 ;; Tracked objects:
  1153 ;;		On entry : 0/0
  1154 ;;		On exit  : 0/0
  1155 ;;		Unchanged: 0/0
  1156 ;; Data sizes:     COMMON   BANK0   BANK1   BANK3   BANK2
  1157 ;;      Params:         0       0       0       0       0
  1158 ;;      Locals:         0       3       0       0       0
  1159 ;;      Temps:          0       0       0       0       0
  1160 ;;      Totals:         0       3       0       0       0
  1161 ;;Total ram usage:        3 bytes
  1162 ;; Hardware stack levels used:    1
  1163 ;; Hardware stack levels required when called:    2
  1164 ;; This function calls:
  1165 ;;		_delay
  1166 ;; This function is called by:
  1167 ;;		_main
  1168 ;; This function uses a non-reentrant model
  1169 ;;
  1170                           psect	text289
  1171                           	file	"E:\Embedded_Program\pic task\pic task\serial communication\uart\task\2 led +lcd+v
                                 irtual terminal(ZIGBEE)\2 led on serial com.c"
  1172                           	line	75
  1173                           	global	__size_of_serial
  1174  0032                     	__size_of_serial	equ	__end_of_serial-_serial
  1175                           	
  1176  020A                     _serial:	
  1177                           	opt	stack 7
  1178                           ; Regs used in _serial: [wreg-fsr0h+status,2+status,0+pclath+cstack]
  1179                           ;serial@a stored from wreg
  1180  020A  1283               	bcf	status, 5	;RP0=0, select bank0
  1181  020B  1303               	bcf	status, 6	;RP1=0, select bank0
  1182  020C  00A2               	movwf	(serial@a)
  1183                           	line	76
  1184                           	
  1185  020D                     l2178:	
  1186                           ;2 led on serial com.c: 76: for(int j=0;a[j]!=0;j++)
  1187  020D  3000               	movlw	low(0)
  1188  020E  00A3               	movwf	(serial@j)
  1189  020F  3000               	movlw	high(0)
  1190  0210  00A4               	movwf	((serial@j))+1
  1191  0211  2A2C               	goto	l590
  1192                           	line	77
  1193                           	
  1194  0212                     l591:	
  1195                           	line	78
  1196                           	
  1197  0212                     l2180:	
  1198                           ;2 led on serial com.c: 77: {
  1199                           ;2 led on serial com.c: 78: TXREG=a[j];
  1200  0212  0823               	movf	(serial@j),w
  1201  0213  0722               	addwf	(serial@a),w
  1202  0214  0084               	movwf	fsr0
  1203  0215  120A  118A  2013   	fcall	stringdir
              120A  118A         
  1204  021A  0099               	movwf	(25)	;volatile
  1205                           	line	79
  1206                           	
  1207  021B                     l2182:	
  1208                           ;2 led on serial com.c: 79: delay(20000);
  1209  021B  3020               	movlw	low(04E20h)
  1210  021C  00A0               	movwf	(?_delay)
  1211  021D  304E               	movlw	high(04E20h)
  1212  021E  00A1               	movwf	((?_delay))+1
  1213  021F  120A  118A  22A5   	fcall	_delay
              120A  118A         
  1214                           	line	76
  1215                           	
  1216  0224                     l2184:	
  1217  0224  3001               	movlw	low(01h)
  1218  0225  1283               	bcf	status, 5	;RP0=0, select bank0
  1219  0226  1303               	bcf	status, 6	;RP1=0, select bank0
  1220  0227  07A3               	addwf	(serial@j),f
  1221  0228  1803               	skipnc
  1222  0229  0AA4               	incf	(serial@j+1),f
  1223  022A  3000               	movlw	high(01h)
  1224  022B  07A4               	addwf	(serial@j+1),f
  1225                           	
  1226  022C                     l590:	
  1227                           	
  1228  022C                     l2186:	
  1229  022C  0823               	movf	(serial@j),w
  1230  022D  0722               	addwf	(serial@a),w
  1231  022E  0084               	movwf	fsr0
  1232  022F  120A  118A  2013   	fcall	stringdir
              120A  118A         
  1233  0234  3800               	iorlw	0
  1234  0235  1D03               	skipz
  1235  0236  2A38               	goto	u2371
  1236  0237  2A39               	goto	u2370
  1237  0238                     u2371:
  1238  0238  2A12               	goto	l591
  1239  0239                     u2370:
  1240                           	
  1241  0239                     l592:	
  1242                           	line	81
  1243                           	
  1244  0239                     l2188:	
  1245                           ;2 led on serial com.c: 80: }
  1246                           ;2 led on serial com.c: 81: TXREG=0X1D;
  1247  0239  301D               	movlw	(01Dh)
  1248  023A  0099               	movwf	(25)	;volatile
  1249                           	line	82
  1250                           	
  1251  023B                     l593:	
  1252  023B  0008               	return
  1253                           	opt stack 0
  1254                           GLOBAL	__end_of_serial
  1255  023C                     	__end_of_serial:
  1256 ;; =============== function _serial ends ============
  1257                           
  1258                           	signat	_serial,4216
  1259                           	global	_lcd_data
  1260                           psect	text290,local,class=CODE,delta=2
  1261                           global __ptext290
  1262  019E                     __ptext290:
  1263                           
  1264 ;; *************** function _lcd_data *****************
  1265 ;; Defined at:
  1266 ;;		line 41 in file "E:\Embedded_Program\pic task\pic task\serial communication\uart\task\2 led +lcd+virtual terminal(ZI
       GBEE)\2 led on serial com.c"
  1267 ;; Parameters:    Size  Location     Type
  1268 ;;  dat             1    wreg     unsigned char 
  1269 ;; Auto vars:     Size  Location     Type
  1270 ;;  dat             1    4[BANK0 ] unsigned char 
  1271 ;; Return value:  Size  Location     Type
  1272 ;;		None               void
  1273 ;; Registers used:
  1274 ;;		wreg, status,2, status,0, btemp+0, pclath, cstack
  1275 ;; Tracked objects:
  1276 ;;		On entry : 0/0
  1277 ;;		On exit  : 0/0
  1278 ;;		Unchanged: 0/0
  1279 ;; Data sizes:     COMMON   BANK0   BANK1   BANK3   BANK2
  1280 ;;      Params:         0       0       0       0       0
  1281 ;;      Locals:         0       1       0       0       0
  1282 ;;      Temps:          0       2       0       0       0
  1283 ;;      Totals:         0       3       0       0       0
  1284 ;;Total ram usage:        3 bytes
  1285 ;; Hardware stack levels used:    1
  1286 ;; Hardware stack levels required when called:    2
  1287 ;; This function calls:
  1288 ;;		_delay
  1289 ;; This function is called by:
  1290 ;;		_lcd_display
  1291 ;; This function uses a non-reentrant model
  1292 ;;
  1293                           psect	text290
  1294                           	file	"E:\Embedded_Program\pic task\pic task\serial communication\uart\task\2 led +lcd+v
                                 irtual terminal(ZIGBEE)\2 led on serial com.c"
  1295                           	line	41
  1296                           	global	__size_of_lcd_data
  1297  0036                     	__size_of_lcd_data	equ	__end_of_lcd_data-_lcd_data
  1298                           	
  1299  019E                     _lcd_data:	
  1300                           	opt	stack 6
  1301                           ; Regs used in _lcd_data: [wreg+status,2-btemp+0+pclath+cstack]
  1302                           ;lcd_data@dat stored from wreg
  1303  019E  1283               	bcf	status, 5	;RP0=0, select bank0
  1304  019F  1303               	bcf	status, 6	;RP1=0, select bank0
  1305  01A0  00A4               	movwf	(lcd_data@dat)
  1306                           	line	42
  1307                           	
  1308  01A1                     l2152:	
  1309                           ;2 led on serial com.c: 42: PORTD=(dat&0xf0);
  1310  01A1  0824               	movf	(lcd_data@dat),w
  1311  01A2  39F0               	andlw	0F0h
  1312  01A3  0088               	movwf	(8)	;volatile
  1313                           	line	43
  1314                           	
  1315  01A4                     l2154:	
  1316                           ;2 led on serial com.c: 43: RD1=1;
  1317  01A4  1488               	bsf	(65/8),(65)&7
  1318                           	line	44
  1319                           	
  1320  01A5                     l2156:	
  1321                           ;2 led on serial com.c: 44: RD2=0;
  1322  01A5  1108               	bcf	(66/8),(66)&7
  1323                           	line	45
  1324                           	
  1325  01A6                     l2158:	
  1326                           ;2 led on serial com.c: 45: RD3=1;
  1327  01A6  1588               	bsf	(67/8),(67)&7
  1328                           	line	46
  1329                           	
  1330  01A7                     l2160:	
  1331                           ;2 led on serial com.c: 46: delay(200);
  1332  01A7  30C8               	movlw	low(0C8h)
  1333  01A8  00A0               	movwf	(?_delay)
  1334  01A9  3000               	movlw	high(0C8h)
  1335  01AA  00A1               	movwf	((?_delay))+1
  1336  01AB  120A  118A  22A5   	fcall	_delay
              120A  118A         
  1337                           	line	47
  1338                           	
  1339  01B0                     l2162:	
  1340                           ;2 led on serial com.c: 47: RD3=0;
  1341  01B0  1283               	bcf	status, 5	;RP0=0, select bank0
  1342  01B1  1303               	bcf	status, 6	;RP1=0, select bank0
  1343  01B2  1188               	bcf	(67/8),(67)&7
  1344                           	line	48
  1345                           	
  1346  01B3                     l2164:	
  1347                           ;2 led on serial com.c: 48: temp=dat<<4;
  1348  01B3  0824               	movf	(lcd_data@dat),w
  1349  01B4  00A2               	movwf	(??_lcd_data+0)+0
  1350  01B5  01A3               	clrf	(??_lcd_data+0)+0+1
  1351  01B6  3004               	movlw	04h
  1352  01B7  00FE               	movwf	btemp+0
  1353  01B8                     u2365:
  1354  01B8  1003               	clrc
  1355  01B9  0DA2               	rlf	(??_lcd_data+0)+0,f
  1356  01BA  0DA3               	rlf	(??_lcd_data+0)+1,f
  1357  01BB  0BFE               	decfsz	btemp+0,f
  1358  01BC  29B8               	goto	u2365
  1359  01BD  0822               	movf	0+(??_lcd_data+0)+0,w
  1360  01BE  00F8               	movwf	(_temp)
  1361  01BF  0823               	movf	1+(??_lcd_data+0)+0,w
  1362  01C0  00F9               	movwf	(_temp+1)
  1363                           	line	49
  1364                           	
  1365  01C1                     l2166:	
  1366                           ;2 led on serial com.c: 49: PORTD=(temp&0xf0);
  1367  01C1  0878               	movf	(_temp),w
  1368  01C2  39F0               	andlw	0F0h
  1369  01C3  0088               	movwf	(8)	;volatile
  1370                           	line	50
  1371                           	
  1372  01C4                     l2168:	
  1373                           ;2 led on serial com.c: 50: RD1=1;
  1374  01C4  1488               	bsf	(65/8),(65)&7
  1375                           	line	51
  1376                           	
  1377  01C5                     l2170:	
  1378                           ;2 led on serial com.c: 51: RD2=0;
  1379  01C5  1108               	bcf	(66/8),(66)&7
  1380                           	line	52
  1381                           	
  1382  01C6                     l2172:	
  1383                           ;2 led on serial com.c: 52: RD3=1;
  1384  01C6  1588               	bsf	(67/8),(67)&7
  1385                           	line	53
  1386                           	
  1387  01C7                     l2174:	
  1388                           ;2 led on serial com.c: 53: delay(200);
  1389  01C7  30C8               	movlw	low(0C8h)
  1390  01C8  00A0               	movwf	(?_delay)
  1391  01C9  3000               	movlw	high(0C8h)
  1392  01CA  00A1               	movwf	((?_delay))+1
  1393  01CB  120A  118A  22A5   	fcall	_delay
              120A  118A         
  1394                           	line	54
  1395                           	
  1396  01D0                     l2176:	
  1397                           ;2 led on serial com.c: 54: RD3=0;
  1398  01D0  1283               	bcf	status, 5	;RP0=0, select bank0
  1399  01D1  1303               	bcf	status, 6	;RP1=0, select bank0
  1400  01D2  1188               	bcf	(67/8),(67)&7
  1401                           	line	55
  1402                           	
  1403  01D3                     l577:	
  1404  01D3  0008               	return
  1405                           	opt stack 0
  1406                           GLOBAL	__end_of_lcd_data
  1407  01D4                     	__end_of_lcd_data:
  1408 ;; =============== function _lcd_data ends ============
  1409                           
  1410                           	signat	_lcd_data,4216
  1411                           	global	_lcd_cmd
  1412                           psect	text291,local,class=CODE,delta=2
  1413                           global __ptext291
  1414  01D4                     __ptext291:
  1415                           
  1416 ;; *************** function _lcd_cmd *****************
  1417 ;; Defined at:
  1418 ;;		line 16 in file "E:\Embedded_Program\pic task\pic task\serial communication\uart\task\2 led +lcd+virtual terminal(ZI
       GBEE)\2 led on serial com.c"
  1419 ;; Parameters:    Size  Location     Type
  1420 ;;  com             1    wreg     unsigned char 
  1421 ;; Auto vars:     Size  Location     Type
  1422 ;;  com             1    4[BANK0 ] unsigned char 
  1423 ;; Return value:  Size  Location     Type
  1424 ;;		None               void
  1425 ;; Registers used:
  1426 ;;		wreg, status,2, status,0, btemp+0, pclath, cstack
  1427 ;; Tracked objects:
  1428 ;;		On entry : 0/0
  1429 ;;		On exit  : 0/0
  1430 ;;		Unchanged: 0/0
  1431 ;; Data sizes:     COMMON   BANK0   BANK1   BANK3   BANK2
  1432 ;;      Params:         0       0       0       0       0
  1433 ;;      Locals:         0       1       0       0       0
  1434 ;;      Temps:          0       2       0       0       0
  1435 ;;      Totals:         0       3       0       0       0
  1436 ;;Total ram usage:        3 bytes
  1437 ;; Hardware stack levels used:    1
  1438 ;; Hardware stack levels required when called:    2
  1439 ;; This function calls:
  1440 ;;		_delay
  1441 ;; This function is called by:
  1442 ;;		_lcd_init
  1443 ;;		_main
  1444 ;; This function uses a non-reentrant model
  1445 ;;
  1446                           psect	text291
  1447                           	file	"E:\Embedded_Program\pic task\pic task\serial communication\uart\task\2 led +lcd+v
                                 irtual terminal(ZIGBEE)\2 led on serial com.c"
  1448                           	line	16
  1449                           	global	__size_of_lcd_cmd
  1450  0036                     	__size_of_lcd_cmd	equ	__end_of_lcd_cmd-_lcd_cmd
  1451                           	
  1452  01D4                     _lcd_cmd:	
  1453                           	opt	stack 7
  1454                           ; Regs used in _lcd_cmd: [wreg+status,2-btemp+0+pclath+cstack]
  1455                           ;lcd_cmd@com stored from wreg
  1456  01D4  1283               	bcf	status, 5	;RP0=0, select bank0
  1457  01D5  1303               	bcf	status, 6	;RP1=0, select bank0
  1458  01D6  00A4               	movwf	(lcd_cmd@com)
  1459                           	line	17
  1460                           	
  1461  01D7                     l2126:	
  1462                           ;2 led on serial com.c: 17: PORTD=(com&0xf0);
  1463  01D7  0824               	movf	(lcd_cmd@com),w
  1464  01D8  39F0               	andlw	0F0h
  1465  01D9  0088               	movwf	(8)	;volatile
  1466                           	line	18
  1467                           	
  1468  01DA                     l2128:	
  1469                           ;2 led on serial com.c: 18: RD1=0;
  1470  01DA  1088               	bcf	(65/8),(65)&7
  1471                           	line	19
  1472                           	
  1473  01DB                     l2130:	
  1474                           ;2 led on serial com.c: 19: RD2=0;
  1475  01DB  1108               	bcf	(66/8),(66)&7
  1476                           	line	20
  1477                           	
  1478  01DC                     l2132:	
  1479                           ;2 led on serial com.c: 20: RD3=1;
  1480  01DC  1588               	bsf	(67/8),(67)&7
  1481                           	line	21
  1482                           	
  1483  01DD                     l2134:	
  1484                           ;2 led on serial com.c: 21: delay(200);
  1485  01DD  30C8               	movlw	low(0C8h)
  1486  01DE  00A0               	movwf	(?_delay)
  1487  01DF  3000               	movlw	high(0C8h)
  1488  01E0  00A1               	movwf	((?_delay))+1
  1489  01E1  120A  118A  22A5   	fcall	_delay
              120A  118A         
  1490                           	line	22
  1491                           	
  1492  01E6                     l2136:	
  1493                           ;2 led on serial com.c: 22: RD3=0;
  1494  01E6  1283               	bcf	status, 5	;RP0=0, select bank0
  1495  01E7  1303               	bcf	status, 6	;RP1=0, select bank0
  1496  01E8  1188               	bcf	(67/8),(67)&7
  1497                           	line	23
  1498                           	
  1499  01E9                     l2138:	
  1500                           ;2 led on serial com.c: 23: temp=com<<4;
  1501  01E9  0824               	movf	(lcd_cmd@com),w
  1502  01EA  00A2               	movwf	(??_lcd_cmd+0)+0
  1503  01EB  01A3               	clrf	(??_lcd_cmd+0)+0+1
  1504  01EC  3004               	movlw	04h
  1505  01ED  00FE               	movwf	btemp+0
  1506  01EE                     u2355:
  1507  01EE  1003               	clrc
  1508  01EF  0DA2               	rlf	(??_lcd_cmd+0)+0,f
  1509  01F0  0DA3               	rlf	(??_lcd_cmd+0)+1,f
  1510  01F1  0BFE               	decfsz	btemp+0,f
  1511  01F2  29EE               	goto	u2355
  1512  01F3  0822               	movf	0+(??_lcd_cmd+0)+0,w
  1513  01F4  00F8               	movwf	(_temp)
  1514  01F5  0823               	movf	1+(??_lcd_cmd+0)+0,w
  1515  01F6  00F9               	movwf	(_temp+1)
  1516                           	line	24
  1517                           	
  1518  01F7                     l2140:	
  1519                           ;2 led on serial com.c: 24: PORTD=(temp&0xf0);
  1520  01F7  0878               	movf	(_temp),w
  1521  01F8  39F0               	andlw	0F0h
  1522  01F9  0088               	movwf	(8)	;volatile
  1523                           	line	25
  1524                           	
  1525  01FA                     l2142:	
  1526                           ;2 led on serial com.c: 25: RD1=0;
  1527  01FA  1088               	bcf	(65/8),(65)&7
  1528                           	line	26
  1529                           	
  1530  01FB                     l2144:	
  1531                           ;2 led on serial com.c: 26: RD2=0;
  1532  01FB  1108               	bcf	(66/8),(66)&7
  1533                           	line	27
  1534                           	
  1535  01FC                     l2146:	
  1536                           ;2 led on serial com.c: 27: RD3=1;
  1537  01FC  1588               	bsf	(67/8),(67)&7
  1538                           	line	28
  1539                           	
  1540  01FD                     l2148:	
  1541                           ;2 led on serial com.c: 28: delay(200);
  1542  01FD  30C8               	movlw	low(0C8h)
  1543  01FE  00A0               	movwf	(?_delay)
  1544  01FF  3000               	movlw	high(0C8h)
  1545  0200  00A1               	movwf	((?_delay))+1
  1546  0201  120A  118A  22A5   	fcall	_delay
              120A  118A         
  1547                           	line	29
  1548                           	
  1549  0206                     l2150:	
  1550                           ;2 led on serial com.c: 29: RD3=0;
  1551  0206  1283               	bcf	status, 5	;RP0=0, select bank0
  1552  0207  1303               	bcf	status, 6	;RP1=0, select bank0
  1553  0208  1188               	bcf	(67/8),(67)&7
  1554                           	line	30
  1555                           	
  1556  0209                     l571:	
  1557  0209  0008               	return
  1558                           	opt stack 0
  1559                           GLOBAL	__end_of_lcd_cmd
  1560  020A                     	__end_of_lcd_cmd:
  1561 ;; =============== function _lcd_cmd ends ============
  1562                           
  1563                           	signat	_lcd_cmd,4216
  1564                           	global	_delay
  1565                           psect	text292,local,class=CODE,delta=2
  1566                           global __ptext292
  1567  02A5                     __ptext292:
  1568                           
  1569 ;; *************** function _delay *****************
  1570 ;; Defined at:
  1571 ;;		line 12 in file "E:\Embedded_Program\pic task\pic task\serial communication\uart\task\2 led +lcd+virtual terminal(ZI
       GBEE)\2 led on serial com.c"
  1572 ;; Parameters:    Size  Location     Type
  1573 ;;  x               2    0[BANK0 ] unsigned int 
  1574 ;; Auto vars:     Size  Location     Type
  1575 ;;		None
  1576 ;; Return value:  Size  Location     Type
  1577 ;;		None               void
  1578 ;; Registers used:
  1579 ;;		wreg
  1580 ;; Tracked objects:
  1581 ;;		On entry : 0/0
  1582 ;;		On exit  : 0/0
  1583 ;;		Unchanged: 0/0
  1584 ;; Data sizes:     COMMON   BANK0   BANK1   BANK3   BANK2
  1585 ;;      Params:         0       2       0       0       0
  1586 ;;      Locals:         0       0       0       0       0
  1587 ;;      Temps:          0       0       0       0       0
  1588 ;;      Totals:         0       2       0       0       0
  1589 ;;Total ram usage:        2 bytes
  1590 ;; Hardware stack levels used:    1
  1591 ;; Hardware stack levels required when called:    1
  1592 ;; This function calls:
  1593 ;;		Nothing
  1594 ;; This function is called by:
  1595 ;;		_lcd_cmd
  1596 ;;		_lcd_data
  1597 ;;		_serial
  1598 ;;		_main
  1599 ;; This function uses a non-reentrant model
  1600 ;;
  1601                           psect	text292
  1602                           	file	"E:\Embedded_Program\pic task\pic task\serial communication\uart\task\2 led +lcd+v
                                 irtual terminal(ZIGBEE)\2 led on serial com.c"
  1603                           	line	12
  1604                           	global	__size_of_delay
  1605  0014                     	__size_of_delay	equ	__end_of_delay-_delay
  1606                           	
  1607  02A5                     _delay:	
  1608                           	opt	stack 6
  1609                           ; Regs used in _delay: [wreg]
  1610                           	line	13
  1611                           	
  1612  02A5                     l2122:	
  1613                           ;2 led on serial com.c: 13: while(x--);
  1614  02A5  2AA6               	goto	l565
  1615                           	
  1616  02A6                     l566:	
  1617                           	
  1618  02A6                     l565:	
  1619                           	
  1620  02A6                     l2124:	
  1621  02A6  3001               	movlw	low(01h)
  1622  02A7  1283               	bcf	status, 5	;RP0=0, select bank0
  1623  02A8  1303               	bcf	status, 6	;RP1=0, select bank0
  1624  02A9  02A0               	subwf	(delay@x),f
  1625  02AA  3000               	movlw	high(01h)
  1626  02AB  1C03               	skipc
  1627  02AC  03A1               	decf	(delay@x+1),f
  1628  02AD  02A1               	subwf	(delay@x+1),f
  1629  02AE  30FF               	movlw	high(0FFFFh)
  1630  02AF  0621               	xorwf	((delay@x+1)),w
  1631  02B0  1D03               	skipz
  1632  02B1  2AB4               	goto	u2345
  1633  02B2  30FF               	movlw	low(0FFFFh)
  1634  02B3  0620               	xorwf	((delay@x)),w
  1635  02B4                     u2345:
  1636                           
  1637  02B4  1D03               	skipz
  1638  02B5  2AB7               	goto	u2341
  1639  02B6  2AB8               	goto	u2340
  1640  02B7                     u2341:
  1641  02B7  2AA6               	goto	l566
  1642  02B8                     u2340:
  1643                           	
  1644  02B8                     l567:	
  1645                           	line	14
  1646                           	
  1647  02B8                     l568:	
  1648  02B8  0008               	return
  1649                           	opt stack 0
  1650                           GLOBAL	__end_of_delay
  1651  02B9                     	__end_of_delay:
  1652 ;; =============== function _delay ends ============
  1653                           
  1654                           	signat	_delay,4216
  1655                           	global	_rcx
  1656                           psect	text293,local,class=CODE,delta=2
  1657                           global __ptext293
  1658  028C                     __ptext293:
  1659                           
  1660 ;; *************** function _rcx *****************
  1661 ;; Defined at:
  1662 ;;		line 65 in file "E:\Embedded_Program\pic task\pic task\serial communication\uart\task\2 led +lcd+virtual terminal(ZI
       GBEE)\2 led on serial com.c"
  1663 ;; Parameters:    Size  Location     Type
  1664 ;;		None
  1665 ;; Auto vars:     Size  Location     Type
  1666 ;;		None
  1667 ;; Return value:  Size  Location     Type
  1668 ;;		None               void
  1669 ;; Registers used:
  1670 ;;		wreg
  1671 ;; Tracked objects:
  1672 ;;		On entry : 0/0
  1673 ;;		On exit  : 0/0
  1674 ;;		Unchanged: 0/0
  1675 ;; Data sizes:     COMMON   BANK0   BANK1   BANK3   BANK2
  1676 ;;      Params:         0       0       0       0       0
  1677 ;;      Locals:         0       0       0       0       0
  1678 ;;      Temps:          6       0       0       0       0
  1679 ;;      Totals:         6       0       0       0       0
  1680 ;;Total ram usage:        6 bytes
  1681 ;; Hardware stack levels used:    1
  1682 ;; This function calls:
  1683 ;;		Nothing
  1684 ;; This function is called by:
  1685 ;;		Interrupt level 1
  1686 ;; This function uses a non-reentrant model
  1687 ;;
  1688                           psect	text293
  1689                           	file	"E:\Embedded_Program\pic task\pic task\serial communication\uart\task\2 led +lcd+v
                                 irtual terminal(ZIGBEE)\2 led on serial com.c"
  1690                           	line	65
  1691                           	global	__size_of_rcx
  1692  0019                     	__size_of_rcx	equ	__end_of_rcx-_rcx
  1693                           	
  1694  028C                     _rcx:	
  1695                           	opt	stack 4
  1696                           ; Regs used in _rcx: [wreg]
  1697                           psect	intentry,class=CODE,delta=2
  1698                           global __pintentry
  1699  0004                     __pintentry:
  1700                           global interrupt_function
  1701  0004                     interrupt_function:
  1702                           	global saved_w
  1703  007E                     	saved_w	set	btemp+0
  1704  0004  00FE               	movwf	saved_w
  1705  0005  0803               	movf	status,w
  1706  0006  00F2               	movwf	(??_rcx+2)
  1707  0007  0804               	movf	fsr0,w
  1708  0008  00F3               	movwf	(??_rcx+3)
  1709  0009  080A               	movf	pclath,w
  1710  000A  00F4               	movwf	(??_rcx+4)
  1711  000B  087F               	movf	btemp+1,w
  1712  000C  00F5               	movwf	(??_rcx+5)
  1713  000D  120A  118A  2A8C   	ljmp	_rcx
  1714                           psect	text293
  1715                           	line	66
  1716                           	
  1717  028C                     i1l1946:	
  1718                           ;2 led on serial com.c: 66: if(RCIF==1)
  1719  028C  1283               	bcf	status, 5	;RP0=0, select bank0
  1720  028D  1303               	bcf	status, 6	;RP1=0, select bank0
  1721  028E  1E8C               	btfss	(101/8),(101)&7
  1722  028F  2A91               	goto	u225_21
  1723  0290  2A92               	goto	u225_20
  1724  0291                     u225_21:
  1725  0291  2A9A               	goto	i1l586
  1726  0292                     u225_20:
  1727                           	line	68
  1728                           	
  1729  0292                     i1l1948:	
  1730                           ;2 led on serial com.c: 67: {
  1731                           ;2 led on serial com.c: 68: RCIF=0;
  1732  0292  128C               	bcf	(101/8),(101)&7
  1733                           	line	69
  1734                           	
  1735  0293                     i1l1950:	
  1736                           ;2 led on serial com.c: 69: b=RCREG;
  1737  0293  081A               	movf	(26),w	;volatile
  1738  0294  00F0               	movwf	(??_rcx+0)+0
  1739  0295  01F1               	clrf	(??_rcx+0)+0+1
  1740  0296  0870               	movf	0+(??_rcx+0)+0,w
  1741  0297  00A8               	movwf	(_b)
  1742  0298  0871               	movf	1+(??_rcx+0)+0,w
  1743  0299  00A9               	movwf	(_b+1)
  1744                           	line	70
  1745                           	
  1746  029A                     i1l586:	
  1747                           	line	71
  1748                           	
  1749  029A                     i1l587:	
  1750  029A  0875               	movf	(??_rcx+5),w
  1751  029B  00FF               	movwf	btemp+1
  1752  029C  0874               	movf	(??_rcx+4),w
  1753  029D  008A               	movwf	pclath
  1754  029E  0873               	movf	(??_rcx+3),w
  1755  029F  0084               	movwf	fsr0
  1756  02A0  0872               	movf	(??_rcx+2),w
  1757  02A1  0083               	movwf	status
  1758  02A2  0EFE               	swapf	saved_w,f
  1759  02A3  0E7E               	swapf	saved_w,w
  1760  02A4  0009               	retfie
  1761                           	opt stack 0
  1762                           GLOBAL	__end_of_rcx
  1763  02A5                     	__end_of_rcx:
  1764 ;; =============== function _rcx ends ============
  1765                           
  1766                           	signat	_rcx,88
  1767                           psect	text294,local,class=CODE,delta=2
  1768                           global __ptext294
  1769  0000                     __ptext294:
  1770                           	global	btemp
  1771  007E                     	btemp set 07Eh
  1772                           
  1773                           	DABS	1,126,2	;btemp
  1774                           	global	wtemp0
  1775  007E                     	wtemp0 set btemp


HI-TECH Software PICC Macro Assembler V9.71a build 6446 
Symbol Table                                                                                   Wed Feb 18 10:58:52 2026

         lcd_data@dat 0024                     _b 0028                     _i 0076                     pc 0002  
                  fsr 0004                   l600 019A                   l601 019A                   l602 019B  
                 l603 019B                   l571 0209                   l580 0259                   l565 02A6  
                 l581 0244                   l566 02A6                   l590 022C                   l574 028B  
                 l582 0266                   l567 02B8                   l591 0212                   l583 0266  
                 l568 02B8                   l592 0239                   l577 01D3                   l593 023B  
                 l596 00AE                   l597 00E9                   l598 0124                   l599 015F  
                 _GIE 005F                   _RC0 0038                   _RC1 0039                   _RD1 0041  
                 _RD2 0042                   _RD3 0043                   _rcx 028C                   fsr0 0004  
        lcd_display@i 0026          lcd_display@m 0025                  l2200 0043                  l2122 02A5  
                l2130 01DB                  l2210 0054                  l2202 0047                  l2124 02A6  
                l2140 01F7                  l2132 01DC                  l2220 005F                  l2212 0058  
                l2204 004A                  l2150 0206                  l2142 01FA                  l2134 01DD  
                l2126 01D7                  l2230 007C                  l2222 0060                  l2214 005C  
                l2206 004D                  l2144 01FB                  l2136 01E6                  l2128 01DA  
                l2160 01A7                  l2152 01A1                  l2240 00AE                  l2232 0082  
                l2224 0065                  l2216 005D                  l2208 0050                  l2146 01FC  
                l2138 01E9                  l2170 01C5                  l2162 01B0                  l2154 01A4  
                l2250 00CD                  l2242 00B7                  l2234 008D                  l2226 0070  
                l2218 005E                  l2148 01FD                  l2172 01C6                  l2164 01B3  
                l2156 01A5                  l2180 0212                  l2260 00FC                  l2252 00D8  
                l2244 00B8                  l2236 0098                  l2228 0076                  l2174 01C7  
                l2166 01C1                  l2158 01A6                  l2182 021B                  l2190 0267  
                l2270 012D                  l2262 0102                  l2254 00E9                  l2246 00C1  
                l2238 00A3                  l2176 01D0                  l2168 01C4                  l2184 0224  
                l2192 023F                  l2280 014E                  l2272 012E                  l2264 0108  
                l2256 00F2                  l2248 00C7                  l2186 022C                  l2178 020D  
                l2194 0244                  l2290 0178                  l2282 015F                  l2274 0137  
                l2266 0113                  l2258 00F3                  l2188 0239                  l2196 0251  
                l2292 017E                  l2284 0168                  l2276 013D                  l2268 0124  
                l2198 0259                  l2294 0189                  l2286 0169                  l2278 0143  
                l2288 0172                  ?_rcx 0070                  STR_1 002C                  STR_2 0023  
                STR_3 0023                  STR_4 003C                  STR_5 003C                  STR_6 0019  
                STR_7 0019                  STR_8 0034                  STR_9 0034                  u2400 00F2  
                u2401 00F1                  u2410 012D                  u2411 012C                  u2340 02B8  
                u2420 0168                  u2341 02B7                  u2421 0167                  u2345 02B4  
                u2370 0239                  u2355 01EE                  u2371 0238                  u2380 0266  
                u2365 01B8                  u2381 0265                  u2390 00B7                  u2391 00B6  
                _PEIE 005E                  _INTE 005C                  _RCIE 0465                  _RCIF 0065  
                _main 0043                  _temp 0078                  btemp 007E                  start 0010  
               ??_rcx 0070                 ?_main 0070                 i1l586 029A                 i1l587 029A  
               _RCREG 001A                 _RCSTA 0018                 _SPBRG 0099                 _PORTC 0007  
               _PORTD 0008                 _TRISC 0087                 _TRISD 0088                 _TXREG 0019  
               _TXSTA 0098       __end_of_lcd_cmd 020A                 _delay 02A5                 pclath 000A  
               status 0003                 wtemp0 007E          __end_of_main 019E                ??_main 0028  
              ?_delay 0020                i1l1950 0293                i1l1946 028C                i1l1948 0292  
              u225_20 0292                u225_21 0291      __end_of_lcd_data 01D4      __end_of_lcd_init 028C  
__size_of_lcd_display 002B                delay@x 0020                _serial 020A             ??_lcd_cmd 0022  
              saved_w 007E        __pcstackCOMMON 0070         __end_of_delay 02B9               ??_delay 0022  
          __pbssBANK0 0028            __pmaintext 0043            __pintentry 0004               ?_serial 0070  
           ?_lcd_data 0070             ?_lcd_init 0070       __size_of_serial 0032               _lcd_cmd 01D4  
        __size_of_rcx 0019            ??_lcd_data 0022            ??_lcd_init 0025  end_of_initialization 02BF  
             serial@a 0022               serial@j 0023            lcd_cmd@com 0024         ??_lcd_display 0025  
      __end_of_serial 023C   start_initialization 02B9           __end_of_rcx 02A5   __end_of_lcd_display 0267  
            ??_serial 0022           __pbssCOMMON 0076         __pcstackBANK0 0020     __size_of_lcd_data 0036  
   __size_of_lcd_init 0025             __ptext290 019E             __ptext291 01D4             __ptext292 02A5  
           __ptext293 028C             __ptext294 0000             __ptext286 0000             __ptext287 023C  
           __ptext288 0267             __ptext289 020A             __pstrings 0013              ?_lcd_cmd 0070  
      __size_of_delay 0014     interrupt_function 0004           _lcd_display 023C           __stringbase 0018  
    __size_of_lcd_cmd 0036              _lcd_data 019E              _lcd_init 0267         __size_of_main 015B  
            intlevel1 0000             stringcode 0013              stringdir 0013              stringtab 0013  
        ?_lcd_display 0070  
