opt subtitle "HI-TECH Software Omniscient Code Generator (Lite mode) build 6446"

opt pagewidth 120

	opt lm

	processor	16F877A
clrc	macro
	bcf	3,0
	endm
clrz	macro
	bcf	3,2
	endm
setc	macro
	bsf	3,0
	endm
setz	macro
	bsf	3,2
	endm
skipc	macro
	btfss	3,0
	endm
skipz	macro
	btfss	3,2
	endm
skipnc	macro
	btfsc	3,0
	endm
skipnz	macro
	btfsc	3,2
	endm
indf	equ	0
indf0	equ	0
pc	equ	2
pcl	equ	2
status	equ	3
fsr	equ	4
fsr0	equ	4
c	equ	1
z	equ	0
pclath	equ	10
	FNCALL	_main,_lcd_init
	FNCALL	_main,_delay
	FNCALL	_main,___awdiv
	FNCALL	_main,___awmod
	FNCALL	_main,_lcd_command
	FNCALL	_main,_lcd_display
	FNCALL	_main,_lcd_data
	FNCALL	_lcd_display,_lcd_data
	FNCALL	_lcd_init,_lcd_command
	FNCALL	_lcd_data,_delay
	FNCALL	_lcd_command,_delay
	FNROOT	_main
	global	_PORTB
psect	text166,local,class=CODE,delta=2
global __ptext166
__ptext166:
_PORTB	set	6
	global	_PORTC
_PORTC	set	7
	global	_PORTD
_PORTD	set	8
	global	_T1CON
_T1CON	set	16
	global	_TMR1H
_TMR1H	set	15
	global	_TMR1L
_TMR1L	set	14
	global	_RB0
_RB0	set	48
	global	_RB1
_RB1	set	49
	global	_RB2
_RB2	set	50
	global	_TRISB
_TRISB	set	134
	global	_TRISC
_TRISC	set	135
	global	_TRISD
_TRISD	set	136
psect	strings,class=STRING,delta=2
global __pstrings
__pstrings:
;	global	stringdir,stringtab,__stringbase
stringtab:
;	String table - string pointers are 1 byte each
stringcode:stringdir:
movlw high(stringdir)
movwf pclath
movf fsr,w
incf fsr
	addwf pc
__stringbase:
	retlw	0
psect	strings
	
STR_1:	
	retlw	99	;'c'
	retlw	111	;'o'
	retlw	117	;'u'
	retlw	110	;'n'
	retlw	116	;'t'
	retlw	101	;'e'
	retlw	114	;'r'
	retlw	0
psect	strings
	file	"counter1 test.as"
	line	#
psect cinit,class=CODE,delta=2
global start_initialization
start_initialization:

psect cinit,class=CODE,delta=2
global end_of_initialization

;End of C runtime variable initialization code

end_of_initialization:
clrf status
ljmp _main	;jump to C main() function
psect	cstackCOMMON,class=COMMON,space=1
global __pcstackCOMMON
__pcstackCOMMON:
	global	?_delay
?_delay:	; 0 bytes @ 0x0
	global	?_lcd_command
?_lcd_command:	; 0 bytes @ 0x0
	global	?_lcd_init
?_lcd_init:	; 0 bytes @ 0x0
	global	?_lcd_data
?_lcd_data:	; 0 bytes @ 0x0
	global	?_lcd_display
?_lcd_display:	; 0 bytes @ 0x0
	global	?_main
?_main:	; 0 bytes @ 0x0
	global	?___awdiv
?___awdiv:	; 2 bytes @ 0x0
	global	?___awmod
?___awmod:	; 2 bytes @ 0x0
	global	delay@x
delay@x:	; 2 bytes @ 0x0
	global	___awdiv@divisor
___awdiv@divisor:	; 2 bytes @ 0x0
	global	___awmod@divisor
___awmod@divisor:	; 2 bytes @ 0x0
	ds	2
	global	??_delay
??_delay:	; 0 bytes @ 0x2
	global	??_lcd_command
??_lcd_command:	; 0 bytes @ 0x2
	global	??_lcd_data
??_lcd_data:	; 0 bytes @ 0x2
	global	lcd_command@com
lcd_command@com:	; 1 bytes @ 0x2
	global	lcd_data@data
lcd_data@data:	; 1 bytes @ 0x2
	global	___awdiv@dividend
___awdiv@dividend:	; 2 bytes @ 0x2
	global	___awmod@dividend
___awmod@dividend:	; 2 bytes @ 0x2
	ds	1
	global	??_lcd_init
??_lcd_init:	; 0 bytes @ 0x3
	global	??_lcd_display
??_lcd_display:	; 0 bytes @ 0x3
	global	lcd_display@m
lcd_display@m:	; 1 bytes @ 0x3
	ds	1
	global	??___awdiv
??___awdiv:	; 0 bytes @ 0x4
	global	??___awmod
??___awmod:	; 0 bytes @ 0x4
	global	lcd_display@i
lcd_display@i:	; 2 bytes @ 0x4
	ds	1
	global	___awdiv@counter
___awdiv@counter:	; 1 bytes @ 0x5
	global	___awmod@counter
___awmod@counter:	; 1 bytes @ 0x5
	ds	1
	global	___awdiv@sign
___awdiv@sign:	; 1 bytes @ 0x6
	global	___awmod@sign
___awmod@sign:	; 1 bytes @ 0x6
	ds	1
	global	___awdiv@quotient
___awdiv@quotient:	; 2 bytes @ 0x7
	ds	2
	global	??_main
??_main:	; 0 bytes @ 0x9
	ds	2
psect	cstackBANK0,class=BANK0,space=1
global __pcstackBANK0
__pcstackBANK0:
	global	main@a
main@a:	; 2 bytes @ 0x0
	ds	2
	global	main@c
main@c:	; 2 bytes @ 0x2
	ds	2
	global	main@e
main@e:	; 2 bytes @ 0x4
	ds	2
	global	main@g
main@g:	; 2 bytes @ 0x6
	ds	2
	global	main@h
main@h:	; 2 bytes @ 0x8
	ds	2
	global	main@b
main@b:	; 2 bytes @ 0xA
	ds	2
	global	main@d
main@d:	; 2 bytes @ 0xC
	ds	2
	global	main@f
main@f:	; 2 bytes @ 0xE
	ds	2
	global	main@temp
main@temp:	; 2 bytes @ 0x10
	ds	2
;;Data sizes: Strings 8, constant 0, data 0, bss 0, persistent 0 stack 0
;;Auto spaces:   Size  Autos    Used
;; COMMON          14     11      11
;; BANK0           80     18      18
;; BANK1           80      0       0
;; BANK3           96      0       0
;; BANK2           96      0       0

;;
;; Pointer list with targets:

;; ?___awmod	int  size(1) Largest target is 0
;;
;; ?___awdiv	int  size(1) Largest target is 0
;;
;; lcd_display@m	PTR unsigned char  size(1) Largest target is 8
;;		 -> STR_1(CODE[8]), 
;;


;;
;; Critical Paths under _main in COMMON
;;
;;   _main->___awdiv
;;   _lcd_display->_lcd_data
;;   _lcd_init->_lcd_command
;;   _lcd_data->_delay
;;   _lcd_command->_delay
;;
;; Critical Paths under _main in BANK0
;;
;;   None.
;;
;; Critical Paths under _main in BANK1
;;
;;   None.
;;
;; Critical Paths under _main in BANK3
;;
;;   None.
;;
;; Critical Paths under _main in BANK2
;;
;;   None.

;;
;;Main: autosize = 0, tempsize = 2, incstack = 0, save=0
;;

;;
;;Call Graph Tables:
;;
;; ---------------------------------------------------------------------------------
;; (Depth) Function   	        Calls       Base Space   Used Autos Params    Refs
;; ---------------------------------------------------------------------------------
;; (0) _main                                                20    20      0    1203
;;                                              9 COMMON     2     2      0
;;                                              0 BANK0     18    18      0
;;                           _lcd_init
;;                              _delay
;;                            ___awdiv
;;                            ___awmod
;;                        _lcd_command
;;                        _lcd_display
;;                           _lcd_data
;; ---------------------------------------------------------------------------------
;; (1) _lcd_display                                          3     3      0     134
;;                                              3 COMMON     3     3      0
;;                           _lcd_data
;; ---------------------------------------------------------------------------------
;; (1) _lcd_init                                             0     0      0      44
;;                        _lcd_command
;; ---------------------------------------------------------------------------------
;; (1) _lcd_data                                             1     1      0      44
;;                                              2 COMMON     1     1      0
;;                              _delay
;; ---------------------------------------------------------------------------------
;; (1) _lcd_command                                          1     1      0      44
;;                                              2 COMMON     1     1      0
;;                              _delay
;; ---------------------------------------------------------------------------------
;; (1) ___awmod                                              7     3      4     296
;;                                              0 COMMON     7     3      4
;; ---------------------------------------------------------------------------------
;; (1) ___awdiv                                              9     5      4     300
;;                                              0 COMMON     9     5      4
;; ---------------------------------------------------------------------------------
;; (2) _delay                                                2     0      2      22
;;                                              0 COMMON     2     0      2
;; ---------------------------------------------------------------------------------
;; Estimated maximum stack depth 2
;; ---------------------------------------------------------------------------------

;; Call Graph Graphs:

;; _main (ROOT)
;;   _lcd_init
;;     _lcd_command
;;       _delay
;;   _delay
;;   ___awdiv
;;   ___awmod
;;   _lcd_command
;;     _delay
;;   _lcd_display
;;     _lcd_data
;;       _delay
;;   _lcd_data
;;     _delay
;;

;; Address spaces:

;;Name               Size   Autos  Total    Cost      Usage
;;BITCOMMON            E      0       0       0        0.0%
;;EEDATA             100      0       0       0        0.0%
;;NULL                 0      0       0       0        0.0%
;;CODE                 0      0       0       0        0.0%
;;COMMON               E      B       B       1       78.6%
;;BITSFR0              0      0       0       1        0.0%
;;SFR0                 0      0       0       1        0.0%
;;BITSFR1              0      0       0       2        0.0%
;;SFR1                 0      0       0       2        0.0%
;;STACK                0      0       3       2        0.0%
;;ABS                  0      0       0       3        0.0%
;;BITBANK0            50      0       0       4        0.0%
;;BITSFR3              0      0       0       4        0.0%
;;SFR3                 0      0       0       4        0.0%
;;BANK0               50     12      12       5       22.5%
;;BITSFR2              0      0       0       5        0.0%
;;SFR2                 0      0       0       5        0.0%
;;BITBANK1            50      0       0       6        0.0%
;;BANK1               50      0       0       7        0.0%
;;BITBANK3            60      0       0       8        0.0%
;;BANK3               60      0       0       9        0.0%
;;BITBANK2            60      0       0      10        0.0%
;;BANK2               60      0       0      11        0.0%
;;DATA                 0      0       0      12        0.0%

	global	_main
psect	maintext,global,class=CODE,delta=2
global __pmaintext
__pmaintext:

;; *************** function _main *****************
;; Defined at:
;;		line 42 in file "D:\Madhu\madhu pic folder\pic task\counter 0\counter1\counter1 test.c"
;; Parameters:    Size  Location     Type
;;		None
;; Auto vars:     Size  Location     Type
;;  temp            2   16[BANK0 ] int 
;;  f               2   14[BANK0 ] int 
;;  d               2   12[BANK0 ] int 
;;  b               2   10[BANK0 ] int 
;;  h               2    8[BANK0 ] int 
;;  g               2    6[BANK0 ] int 
;;  e               2    4[BANK0 ] int 
;;  c               2    2[BANK0 ] int 
;;  a               2    0[BANK0 ] int 
;; Return value:  Size  Location     Type
;;		None               void
;; Registers used:
;;		wreg, fsr0l, fsr0h, status,2, status,0, btemp+0, pclath, cstack
;; Tracked objects:
;;		On entry : 17F/0
;;		On exit  : 0/0
;;		Unchanged: 0/0
;; Data sizes:     COMMON   BANK0   BANK1   BANK3   BANK2
;;      Params:         0       0       0       0       0
;;      Locals:         0      18       0       0       0
;;      Temps:          2       0       0       0       0
;;      Totals:         2      18       0       0       0
;;Total ram usage:       20 bytes
;; Hardware stack levels required when called:    3
;; This function calls:
;;		_lcd_init
;;		_delay
;;		___awdiv
;;		___awmod
;;		_lcd_command
;;		_lcd_display
;;		_lcd_data
;; This function is called by:
;;		Startup code after reset
;; This function uses a non-reentrant model
;;
psect	maintext
	file	"D:\Madhu\madhu pic folder\pic task\counter 0\counter1\counter1 test.c"
	line	42
	global	__size_of_main
	__size_of_main	equ	__end_of_main-_main
	
_main:	
	opt	stack 8
; Regs used in _main: [wreg-fsr0h+status,2-btemp+0+pclath+cstack]
	line	43
	
l2076:	
;counter1 test.c: 43: TRISD=0x00;
	bsf	status, 5	;RP0=1, select bank1
	bcf	status, 6	;RP1=0, select bank1
	clrf	(136)^080h	;volatile
	line	44
;counter1 test.c: 44: PORTD=0x00;
	bcf	status, 5	;RP0=0, select bank0
	bcf	status, 6	;RP1=0, select bank0
	clrf	(8)	;volatile
	line	45
;counter1 test.c: 45: TRISB=0x00;
	bsf	status, 5	;RP0=1, select bank1
	bcf	status, 6	;RP1=0, select bank1
	clrf	(134)^080h	;volatile
	line	46
;counter1 test.c: 46: PORTB=0x00;
	bcf	status, 5	;RP0=0, select bank0
	bcf	status, 6	;RP1=0, select bank0
	clrf	(6)	;volatile
	line	47
	
l2078:	
;counter1 test.c: 47: TRISC=0x01;
	movlw	(01h)
	bsf	status, 5	;RP0=1, select bank1
	bcf	status, 6	;RP1=0, select bank1
	movwf	(135)^080h	;volatile
	line	48
	
l2080:	
;counter1 test.c: 48: PORTC=0x00;
	bcf	status, 5	;RP0=0, select bank0
	bcf	status, 6	;RP1=0, select bank0
	clrf	(7)	;volatile
	line	49
;counter1 test.c: 49: T1CON=0x0B;
	movlw	(0Bh)
	movwf	(16)	;volatile
	line	50
	
l2082:	
;counter1 test.c: 50: TMR1H=0x00;
	clrf	(15)	;volatile
	line	51
	
l2084:	
;counter1 test.c: 51: TMR1L=0x00;
	clrf	(14)	;volatile
	line	53
	
l2086:	
;counter1 test.c: 53: lcd_init();
	fcall	_lcd_init
	line	54
	
l2088:	
;counter1 test.c: 54: delay(100);
	movlw	low(064h)
	movwf	(?_delay)
	movlw	high(064h)
	movwf	((?_delay))+1
	fcall	_delay
	line	56
;counter1 test.c: 56: while(1)
	
l580:	
	line	58
;counter1 test.c: 57: {
;counter1 test.c: 58: int a,b,c,d,e,f,g,h,temp=0;
	movlw	low(0)
	bcf	status, 5	;RP0=0, select bank0
	bcf	status, 6	;RP1=0, select bank0
	movwf	(main@temp)
	movlw	high(0)
	movwf	((main@temp))+1
	line	59
	
l2090:	
;counter1 test.c: 59: temp=TMR1H<<8;
	movf	(15),w	;volatile
	movwf	(??_main+0)+0
	clrf	(??_main+0)+0+1
	movlw	08h
	movwf	btemp+0
u2385:
	clrc
	rlf	(??_main+0)+0,f
	rlf	(??_main+0)+1,f
	decfsz	btemp+0,f
	goto	u2385
	movf	0+(??_main+0)+0,w
	movwf	(main@temp)
	movf	1+(??_main+0)+0,w
	movwf	(main@temp+1)
	line	60
	
l2092:	
;counter1 test.c: 60: temp=temp+TMR1L;
	movf	(14),w	;volatile
	addwf	(main@temp),w
	movwf	(main@temp)
	movf	(main@temp+1),w
	skipnc
	incf	(main@temp+1),w
	movwf	((main@temp))+1
	line	61
	
l2094:	
;counter1 test.c: 61: a=temp/10000;
	movlw	low(02710h)
	movwf	(?___awdiv)
	movlw	high(02710h)
	movwf	((?___awdiv))+1
	movf	(main@temp+1),w
	clrf	1+(?___awdiv)+02h
	addwf	1+(?___awdiv)+02h
	movf	(main@temp),w
	clrf	0+(?___awdiv)+02h
	addwf	0+(?___awdiv)+02h

	fcall	___awdiv
	movf	(1+(?___awdiv)),w
	bcf	status, 5	;RP0=0, select bank0
	bcf	status, 6	;RP1=0, select bank0
	clrf	(main@a+1)
	addwf	(main@a+1)
	movf	(0+(?___awdiv)),w
	clrf	(main@a)
	addwf	(main@a)

	line	62
	
l2096:	
;counter1 test.c: 62: b=temp%10000;
	movlw	low(02710h)
	movwf	(?___awmod)
	movlw	high(02710h)
	movwf	((?___awmod))+1
	movf	(main@temp+1),w
	clrf	1+(?___awmod)+02h
	addwf	1+(?___awmod)+02h
	movf	(main@temp),w
	clrf	0+(?___awmod)+02h
	addwf	0+(?___awmod)+02h

	fcall	___awmod
	movf	(1+(?___awmod)),w
	bcf	status, 5	;RP0=0, select bank0
	bcf	status, 6	;RP1=0, select bank0
	clrf	(main@b+1)
	addwf	(main@b+1)
	movf	(0+(?___awmod)),w
	clrf	(main@b)
	addwf	(main@b)

	line	63
	
l2098:	
;counter1 test.c: 63: c=b/1000;
	movlw	low(03E8h)
	movwf	(?___awdiv)
	movlw	high(03E8h)
	movwf	((?___awdiv))+1
	movf	(main@b+1),w
	clrf	1+(?___awdiv)+02h
	addwf	1+(?___awdiv)+02h
	movf	(main@b),w
	clrf	0+(?___awdiv)+02h
	addwf	0+(?___awdiv)+02h

	fcall	___awdiv
	movf	(1+(?___awdiv)),w
	bcf	status, 5	;RP0=0, select bank0
	bcf	status, 6	;RP1=0, select bank0
	clrf	(main@c+1)
	addwf	(main@c+1)
	movf	(0+(?___awdiv)),w
	clrf	(main@c)
	addwf	(main@c)

	line	64
	
l2100:	
;counter1 test.c: 64: d=b%1000;
	movlw	low(03E8h)
	movwf	(?___awmod)
	movlw	high(03E8h)
	movwf	((?___awmod))+1
	movf	(main@b+1),w
	clrf	1+(?___awmod)+02h
	addwf	1+(?___awmod)+02h
	movf	(main@b),w
	clrf	0+(?___awmod)+02h
	addwf	0+(?___awmod)+02h

	fcall	___awmod
	movf	(1+(?___awmod)),w
	bcf	status, 5	;RP0=0, select bank0
	bcf	status, 6	;RP1=0, select bank0
	clrf	(main@d+1)
	addwf	(main@d+1)
	movf	(0+(?___awmod)),w
	clrf	(main@d)
	addwf	(main@d)

	line	65
	
l2102:	
;counter1 test.c: 65: e=d/100;
	movlw	low(064h)
	movwf	(?___awdiv)
	movlw	high(064h)
	movwf	((?___awdiv))+1
	movf	(main@d+1),w
	clrf	1+(?___awdiv)+02h
	addwf	1+(?___awdiv)+02h
	movf	(main@d),w
	clrf	0+(?___awdiv)+02h
	addwf	0+(?___awdiv)+02h

	fcall	___awdiv
	movf	(1+(?___awdiv)),w
	bcf	status, 5	;RP0=0, select bank0
	bcf	status, 6	;RP1=0, select bank0
	clrf	(main@e+1)
	addwf	(main@e+1)
	movf	(0+(?___awdiv)),w
	clrf	(main@e)
	addwf	(main@e)

	line	66
	
l2104:	
;counter1 test.c: 66: f=d%100;
	movlw	low(064h)
	movwf	(?___awmod)
	movlw	high(064h)
	movwf	((?___awmod))+1
	movf	(main@d+1),w
	clrf	1+(?___awmod)+02h
	addwf	1+(?___awmod)+02h
	movf	(main@d),w
	clrf	0+(?___awmod)+02h
	addwf	0+(?___awmod)+02h

	fcall	___awmod
	movf	(1+(?___awmod)),w
	bcf	status, 5	;RP0=0, select bank0
	bcf	status, 6	;RP1=0, select bank0
	clrf	(main@f+1)
	addwf	(main@f+1)
	movf	(0+(?___awmod)),w
	clrf	(main@f)
	addwf	(main@f)

	line	67
	
l2106:	
;counter1 test.c: 67: g=f/10;
	movlw	low(0Ah)
	movwf	(?___awdiv)
	movlw	high(0Ah)
	movwf	((?___awdiv))+1
	movf	(main@f+1),w
	clrf	1+(?___awdiv)+02h
	addwf	1+(?___awdiv)+02h
	movf	(main@f),w
	clrf	0+(?___awdiv)+02h
	addwf	0+(?___awdiv)+02h

	fcall	___awdiv
	movf	(1+(?___awdiv)),w
	bcf	status, 5	;RP0=0, select bank0
	bcf	status, 6	;RP1=0, select bank0
	clrf	(main@g+1)
	addwf	(main@g+1)
	movf	(0+(?___awdiv)),w
	clrf	(main@g)
	addwf	(main@g)

	line	68
	
l2108:	
;counter1 test.c: 68: h=f%10;
	movlw	low(0Ah)
	movwf	(?___awmod)
	movlw	high(0Ah)
	movwf	((?___awmod))+1
	movf	(main@f+1),w
	clrf	1+(?___awmod)+02h
	addwf	1+(?___awmod)+02h
	movf	(main@f),w
	clrf	0+(?___awmod)+02h
	addwf	0+(?___awmod)+02h

	fcall	___awmod
	movf	(1+(?___awmod)),w
	bcf	status, 5	;RP0=0, select bank0
	bcf	status, 6	;RP1=0, select bank0
	clrf	(main@h+1)
	addwf	(main@h+1)
	movf	(0+(?___awmod)),w
	clrf	(main@h)
	addwf	(main@h)

	line	70
	
l2110:	
;counter1 test.c: 70: lcd_command(0x80);
	movlw	(080h)
	fcall	_lcd_command
	line	71
	
l2112:	
;counter1 test.c: 71: lcd_display("counter");
	movlw	((STR_1-__stringbase))&0ffh
	fcall	_lcd_display
	line	73
	
l2114:	
;counter1 test.c: 73: lcd_command(0xC0);
	movlw	(0C0h)
	fcall	_lcd_command
	line	74
	
l2116:	
;counter1 test.c: 74: lcd_data(a+0x30);
	bcf	status, 5	;RP0=0, select bank0
	bcf	status, 6	;RP1=0, select bank0
	movf	(main@a),w
	addlw	030h
	fcall	_lcd_data
	line	75
	
l2118:	
;counter1 test.c: 75: lcd_data(c+0x30);
	bcf	status, 5	;RP0=0, select bank0
	bcf	status, 6	;RP1=0, select bank0
	movf	(main@c),w
	addlw	030h
	fcall	_lcd_data
	line	76
	
l2120:	
;counter1 test.c: 76: lcd_data(e+0x30);
	bcf	status, 5	;RP0=0, select bank0
	bcf	status, 6	;RP1=0, select bank0
	movf	(main@e),w
	addlw	030h
	fcall	_lcd_data
	line	77
	
l2122:	
;counter1 test.c: 77: lcd_data(g+0x30);
	bcf	status, 5	;RP0=0, select bank0
	bcf	status, 6	;RP1=0, select bank0
	movf	(main@g),w
	addlw	030h
	fcall	_lcd_data
	line	78
	
l2124:	
;counter1 test.c: 78: lcd_data(h+0x30);
	bcf	status, 5	;RP0=0, select bank0
	bcf	status, 6	;RP1=0, select bank0
	movf	(main@h),w
	addlw	030h
	fcall	_lcd_data
	line	79
	
l2126:	
;counter1 test.c: 79: delay(10000);
	movlw	low(02710h)
	movwf	(?_delay)
	movlw	high(02710h)
	movwf	((?_delay))+1
	fcall	_delay
	line	80
	
l581:	
	line	56
	goto	l580
	
l582:	
	line	81
	
l583:	
	global	start
	ljmp	start
	opt stack 0
GLOBAL	__end_of_main
	__end_of_main:
;; =============== function _main ends ============

	signat	_main,88
	global	_lcd_display
psect	text167,local,class=CODE,delta=2
global __ptext167
__ptext167:

;; *************** function _lcd_display *****************
;; Defined at:
;;		line 35 in file "D:\Madhu\madhu pic folder\pic task\counter 0\counter1\counter1 test.c"
;; Parameters:    Size  Location     Type
;;  m               1    wreg     PTR unsigned char 
;;		 -> STR_1(8), 
;; Auto vars:     Size  Location     Type
;;  m               1    3[COMMON] PTR unsigned char 
;;		 -> STR_1(8), 
;;  i               2    4[COMMON] int 
;; Return value:  Size  Location     Type
;;		None               void
;; Registers used:
;;		wreg, fsr0l, fsr0h, status,2, status,0, pclath, cstack
;; Tracked objects:
;;		On entry : 0/0
;;		On exit  : 0/0
;;		Unchanged: 0/0
;; Data sizes:     COMMON   BANK0   BANK1   BANK3   BANK2
;;      Params:         0       0       0       0       0
;;      Locals:         3       0       0       0       0
;;      Temps:          0       0       0       0       0
;;      Totals:         3       0       0       0       0
;;Total ram usage:        3 bytes
;; Hardware stack levels used:    1
;; Hardware stack levels required when called:    2
;; This function calls:
;;		_lcd_data
;; This function is called by:
;;		_main
;; This function uses a non-reentrant model
;;
psect	text167
	file	"D:\Madhu\madhu pic folder\pic task\counter 0\counter1\counter1 test.c"
	line	35
	global	__size_of_lcd_display
	__size_of_lcd_display	equ	__end_of_lcd_display-_lcd_display
	
_lcd_display:	
	opt	stack 7
; Regs used in _lcd_display: [wreg-fsr0h+status,2+status,0+pclath+cstack]
;lcd_display@m stored from wreg
	movwf	(lcd_display@m)
	line	36
	
l2068:	
;counter1 test.c: 36: for (int i=0;m[i]!=0;i++)
	movlw	low(0)
	movwf	(lcd_display@i)
	movlw	high(0)
	movwf	((lcd_display@i))+1
	goto	l574
	line	37
	
l575:	
	line	38
	
l2070:	
;counter1 test.c: 37: {
;counter1 test.c: 38: lcd_data(m[i]);
	movf	(lcd_display@i),w
	addwf	(lcd_display@m),w
	movwf	fsr0
	fcall	stringdir
	fcall	_lcd_data
	line	36
	
l2072:	
	movlw	low(01h)
	addwf	(lcd_display@i),f
	skipnc
	incf	(lcd_display@i+1),f
	movlw	high(01h)
	addwf	(lcd_display@i+1),f
	
l574:	
	
l2074:	
	movf	(lcd_display@i),w
	addwf	(lcd_display@m),w
	movwf	fsr0
	fcall	stringdir
	iorlw	0
	skipz
	goto	u2371
	goto	u2370
u2371:
	goto	l575
u2370:
	
l576:	
	line	40
	
l577:	
	return
	opt stack 0
GLOBAL	__end_of_lcd_display
	__end_of_lcd_display:
;; =============== function _lcd_display ends ============

	signat	_lcd_display,4216
	global	_lcd_init
psect	text168,local,class=CODE,delta=2
global __ptext168
__ptext168:

;; *************** function _lcd_init *****************
;; Defined at:
;;		line 19 in file "D:\Madhu\madhu pic folder\pic task\counter 0\counter1\counter1 test.c"
;; Parameters:    Size  Location     Type
;;		None
;; Auto vars:     Size  Location     Type
;;		None
;; Return value:  Size  Location     Type
;;		None               void
;; Registers used:
;;		wreg, status,2, status,0, pclath, cstack
;; Tracked objects:
;;		On entry : 0/0
;;		On exit  : 0/0
;;		Unchanged: 0/0
;; Data sizes:     COMMON   BANK0   BANK1   BANK3   BANK2
;;      Params:         0       0       0       0       0
;;      Locals:         0       0       0       0       0
;;      Temps:          0       0       0       0       0
;;      Totals:         0       0       0       0       0
;;Total ram usage:        0 bytes
;; Hardware stack levels used:    1
;; Hardware stack levels required when called:    2
;; This function calls:
;;		_lcd_command
;; This function is called by:
;;		_main
;; This function uses a non-reentrant model
;;
psect	text168
	file	"D:\Madhu\madhu pic folder\pic task\counter 0\counter1\counter1 test.c"
	line	19
	global	__size_of_lcd_init
	__size_of_lcd_init	equ	__end_of_lcd_init-_lcd_init
	
_lcd_init:	
	opt	stack 7
; Regs used in _lcd_init: [wreg+status,2+status,0+pclath+cstack]
	line	20
	
l2066:	
;counter1 test.c: 20: lcd_command(0x38);
	movlw	(038h)
	fcall	_lcd_command
	line	21
;counter1 test.c: 21: lcd_command(0x06);
	movlw	(06h)
	fcall	_lcd_command
	line	22
;counter1 test.c: 22: lcd_command(0x0c);
	movlw	(0Ch)
	fcall	_lcd_command
	line	23
;counter1 test.c: 23: lcd_command(0x01);
	movlw	(01h)
	fcall	_lcd_command
	line	24
	
l568:	
	return
	opt stack 0
GLOBAL	__end_of_lcd_init
	__end_of_lcd_init:
;; =============== function _lcd_init ends ============

	signat	_lcd_init,88
	global	_lcd_data
psect	text169,local,class=CODE,delta=2
global __ptext169
__ptext169:

;; *************** function _lcd_data *****************
;; Defined at:
;;		line 26 in file "D:\Madhu\madhu pic folder\pic task\counter 0\counter1\counter1 test.c"
;; Parameters:    Size  Location     Type
;;  data            1    wreg     unsigned char 
;; Auto vars:     Size  Location     Type
;;  data            1    2[COMMON] unsigned char 
;; Return value:  Size  Location     Type
;;		None               void
;; Registers used:
;;		wreg, status,2, status,0, pclath, cstack
;; Tracked objects:
;;		On entry : 0/0
;;		On exit  : 0/0
;;		Unchanged: 0/0
;; Data sizes:     COMMON   BANK0   BANK1   BANK3   BANK2
;;      Params:         0       0       0       0       0
;;      Locals:         1       0       0       0       0
;;      Temps:          0       0       0       0       0
;;      Totals:         1       0       0       0       0
;;Total ram usage:        1 bytes
;; Hardware stack levels used:    1
;; Hardware stack levels required when called:    1
;; This function calls:
;;		_delay
;; This function is called by:
;;		_lcd_display
;;		_main
;; This function uses a non-reentrant model
;;
psect	text169
	file	"D:\Madhu\madhu pic folder\pic task\counter 0\counter1\counter1 test.c"
	line	26
	global	__size_of_lcd_data
	__size_of_lcd_data	equ	__end_of_lcd_data-_lcd_data
	
_lcd_data:	
	opt	stack 7
; Regs used in _lcd_data: [wreg+status,2+status,0+pclath+cstack]
;lcd_data@data stored from wreg
	movwf	(lcd_data@data)
	line	27
	
l2054:	
;counter1 test.c: 27: PORTD=data;
	movf	(lcd_data@data),w
	bcf	status, 5	;RP0=0, select bank0
	bcf	status, 6	;RP1=0, select bank0
	movwf	(8)	;volatile
	line	28
	
l2056:	
;counter1 test.c: 28: RB0=1;
	bsf	(48/8),(48)&7
	line	29
	
l2058:	
;counter1 test.c: 29: RB1=0;
	bcf	(49/8),(49)&7
	line	30
	
l2060:	
;counter1 test.c: 30: RB2=1;
	bsf	(50/8),(50)&7
	line	31
	
l2062:	
;counter1 test.c: 31: delay(100);
	movlw	low(064h)
	movwf	(?_delay)
	movlw	high(064h)
	movwf	((?_delay))+1
	fcall	_delay
	line	32
	
l2064:	
;counter1 test.c: 32: RB2=0;
	bcf	status, 5	;RP0=0, select bank0
	bcf	status, 6	;RP1=0, select bank0
	bcf	(50/8),(50)&7
	line	33
	
l571:	
	return
	opt stack 0
GLOBAL	__end_of_lcd_data
	__end_of_lcd_data:
;; =============== function _lcd_data ends ============

	signat	_lcd_data,4216
	global	_lcd_command
psect	text170,local,class=CODE,delta=2
global __ptext170
__ptext170:

;; *************** function _lcd_command *****************
;; Defined at:
;;		line 10 in file "D:\Madhu\madhu pic folder\pic task\counter 0\counter1\counter1 test.c"
;; Parameters:    Size  Location     Type
;;  com             1    wreg     unsigned char 
;; Auto vars:     Size  Location     Type
;;  com             1    2[COMMON] unsigned char 
;; Return value:  Size  Location     Type
;;		None               void
;; Registers used:
;;		wreg, status,2, status,0, pclath, cstack
;; Tracked objects:
;;		On entry : 0/0
;;		On exit  : 0/0
;;		Unchanged: 0/0
;; Data sizes:     COMMON   BANK0   BANK1   BANK3   BANK2
;;      Params:         0       0       0       0       0
;;      Locals:         1       0       0       0       0
;;      Temps:          0       0       0       0       0
;;      Totals:         1       0       0       0       0
;;Total ram usage:        1 bytes
;; Hardware stack levels used:    1
;; Hardware stack levels required when called:    1
;; This function calls:
;;		_delay
;; This function is called by:
;;		_lcd_init
;;		_main
;; This function uses a non-reentrant model
;;
psect	text170
	file	"D:\Madhu\madhu pic folder\pic task\counter 0\counter1\counter1 test.c"
	line	10
	global	__size_of_lcd_command
	__size_of_lcd_command	equ	__end_of_lcd_command-_lcd_command
	
_lcd_command:	
	opt	stack 7
; Regs used in _lcd_command: [wreg+status,2+status,0+pclath+cstack]
;lcd_command@com stored from wreg
	movwf	(lcd_command@com)
	line	11
	
l2042:	
;counter1 test.c: 11: PORTD=com;
	movf	(lcd_command@com),w
	bcf	status, 5	;RP0=0, select bank0
	bcf	status, 6	;RP1=0, select bank0
	movwf	(8)	;volatile
	line	12
	
l2044:	
;counter1 test.c: 12: RB0=0;
	bcf	(48/8),(48)&7
	line	13
	
l2046:	
;counter1 test.c: 13: RB1=0;
	bcf	(49/8),(49)&7
	line	14
	
l2048:	
;counter1 test.c: 14: RB2=1;
	bsf	(50/8),(50)&7
	line	15
	
l2050:	
;counter1 test.c: 15: delay(100);
	movlw	low(064h)
	movwf	(?_delay)
	movlw	high(064h)
	movwf	((?_delay))+1
	fcall	_delay
	line	16
	
l2052:	
;counter1 test.c: 16: RB2=0;
	bcf	status, 5	;RP0=0, select bank0
	bcf	status, 6	;RP1=0, select bank0
	bcf	(50/8),(50)&7
	line	17
	
l565:	
	return
	opt stack 0
GLOBAL	__end_of_lcd_command
	__end_of_lcd_command:
;; =============== function _lcd_command ends ============

	signat	_lcd_command,4216
	global	___awmod
psect	text171,local,class=CODE,delta=2
global __ptext171
__ptext171:

;; *************** function ___awmod *****************
;; Defined at:
;;		line 5 in file "C:\Program Files (x86)\HI-TECH Software\PICC\9.71a\sources\awmod.c"
;; Parameters:    Size  Location     Type
;;  divisor         2    0[COMMON] int 
;;  dividend        2    2[COMMON] int 
;; Auto vars:     Size  Location     Type
;;  sign            1    6[COMMON] unsigned char 
;;  counter         1    5[COMMON] unsigned char 
;; Return value:  Size  Location     Type
;;                  2    0[COMMON] int 
;; Registers used:
;;		wreg, status,2, status,0
;; Tracked objects:
;;		On entry : 0/0
;;		On exit  : 0/0
;;		Unchanged: 0/0
;; Data sizes:     COMMON   BANK0   BANK1   BANK3   BANK2
;;      Params:         4       0       0       0       0
;;      Locals:         2       0       0       0       0
;;      Temps:          1       0       0       0       0
;;      Totals:         7       0       0       0       0
;;Total ram usage:        7 bytes
;; Hardware stack levels used:    1
;; This function calls:
;;		Nothing
;; This function is called by:
;;		_main
;; This function uses a non-reentrant model
;;
psect	text171
	file	"C:\Program Files (x86)\HI-TECH Software\PICC\9.71a\sources\awmod.c"
	line	5
	global	__size_of___awmod
	__size_of___awmod	equ	__end_of___awmod-___awmod
	
___awmod:	
	opt	stack 7
; Regs used in ___awmod: [wreg+status,2+status,0]
	line	8
	
l2006:	
	clrc
	movlw	0
	btfsc	status,0
	movlw	1
	movwf	(___awmod@sign)
	line	9
	
l2008:	
	btfss	(___awmod@dividend+1),7
	goto	u2281
	goto	u2280
u2281:
	goto	l800
u2280:
	line	10
	
l2010:	
	comf	(___awmod@dividend),f
	comf	(___awmod@dividend+1),f
	incf	(___awmod@dividend),f
	skipnz
	incf	(___awmod@dividend+1),f
	line	11
	clrf	(___awmod@sign)
	bsf	status,0
	rlf	(___awmod@sign),f
	line	12
	
l800:	
	line	13
	
l2012:	
	btfss	(___awmod@divisor+1),7
	goto	u2291
	goto	u2290
u2291:
	goto	l801
u2290:
	line	14
	
l2014:	
	comf	(___awmod@divisor),f
	comf	(___awmod@divisor+1),f
	incf	(___awmod@divisor),f
	skipnz
	incf	(___awmod@divisor+1),f
	
l801:	
	line	15
	
l2016:	
	movf	(___awmod@divisor+1),w
	iorwf	(___awmod@divisor),w
	skipnz
	goto	u2301
	goto	u2300
u2301:
	goto	l802
u2300:
	line	16
	
l2018:	
	clrf	(___awmod@counter)
	bsf	status,0
	rlf	(___awmod@counter),f
	line	17
	goto	l803
	
l804:	
	line	18
	
l2020:	
	movlw	01h
	
u2315:
	clrc
	rlf	(___awmod@divisor),f
	rlf	(___awmod@divisor+1),f
	addlw	-1
	skipz
	goto	u2315
	line	19
	
l2022:	
	movlw	(01h)
	movwf	(??___awmod+0)+0
	movf	(??___awmod+0)+0,w
	addwf	(___awmod@counter),f
	line	20
	
l803:	
	line	17
	
l2024:	
	btfss	(___awmod@divisor+1),(15)&7
	goto	u2321
	goto	u2320
u2321:
	goto	l804
u2320:
	
l805:	
	line	21
	
l806:	
	line	22
	
l2026:	
	movf	(___awmod@divisor+1),w
	subwf	(___awmod@dividend+1),w
	skipz
	goto	u2335
	movf	(___awmod@divisor),w
	subwf	(___awmod@dividend),w
u2335:
	skipc
	goto	u2331
	goto	u2330
u2331:
	goto	l807
u2330:
	line	23
	
l2028:	
	movf	(___awmod@divisor),w
	subwf	(___awmod@dividend),f
	movf	(___awmod@divisor+1),w
	skipc
	decf	(___awmod@dividend+1),f
	subwf	(___awmod@dividend+1),f
	
l807:	
	line	24
	
l2030:	
	movlw	01h
	
u2345:
	clrc
	rrf	(___awmod@divisor+1),f
	rrf	(___awmod@divisor),f
	addlw	-1
	skipz
	goto	u2345
	line	25
	
l2032:	
	movlw	low(01h)
	subwf	(___awmod@counter),f
	btfss	status,2
	goto	u2351
	goto	u2350
u2351:
	goto	l806
u2350:
	
l808:	
	line	26
	
l802:	
	line	27
	
l2034:	
	movf	(___awmod@sign),w
	skipz
	goto	u2360
	goto	l809
u2360:
	line	28
	
l2036:	
	comf	(___awmod@dividend),f
	comf	(___awmod@dividend+1),f
	incf	(___awmod@dividend),f
	skipnz
	incf	(___awmod@dividend+1),f
	
l809:	
	line	29
	
l2038:	
	movf	(___awmod@dividend+1),w
	clrf	(?___awmod+1)
	addwf	(?___awmod+1)
	movf	(___awmod@dividend),w
	clrf	(?___awmod)
	addwf	(?___awmod)

	
l2040:	
	line	30
	
l810:	
	return
	opt stack 0
GLOBAL	__end_of___awmod
	__end_of___awmod:
;; =============== function ___awmod ends ============

	signat	___awmod,8314
	global	___awdiv
psect	text172,local,class=CODE,delta=2
global __ptext172
__ptext172:

;; *************** function ___awdiv *****************
;; Defined at:
;;		line 5 in file "C:\Program Files (x86)\HI-TECH Software\PICC\9.71a\sources\awdiv.c"
;; Parameters:    Size  Location     Type
;;  divisor         2    0[COMMON] int 
;;  dividend        2    2[COMMON] int 
;; Auto vars:     Size  Location     Type
;;  quotient        2    7[COMMON] int 
;;  sign            1    6[COMMON] unsigned char 
;;  counter         1    5[COMMON] unsigned char 
;; Return value:  Size  Location     Type
;;                  2    0[COMMON] int 
;; Registers used:
;;		wreg, status,2, status,0
;; Tracked objects:
;;		On entry : 0/0
;;		On exit  : 0/0
;;		Unchanged: 0/0
;; Data sizes:     COMMON   BANK0   BANK1   BANK3   BANK2
;;      Params:         4       0       0       0       0
;;      Locals:         4       0       0       0       0
;;      Temps:          1       0       0       0       0
;;      Totals:         9       0       0       0       0
;;Total ram usage:        9 bytes
;; Hardware stack levels used:    1
;; This function calls:
;;		Nothing
;; This function is called by:
;;		_main
;; This function uses a non-reentrant model
;;
psect	text172
	file	"C:\Program Files (x86)\HI-TECH Software\PICC\9.71a\sources\awdiv.c"
	line	5
	global	__size_of___awdiv
	__size_of___awdiv	equ	__end_of___awdiv-___awdiv
	
___awdiv:	
	opt	stack 7
; Regs used in ___awdiv: [wreg+status,2+status,0]
	line	9
	
l1968:	
	clrc
	movlw	0
	btfsc	status,0
	movlw	1
	movwf	(___awdiv@sign)
	line	10
	
l1970:	
	btfss	(___awdiv@divisor+1),7
	goto	u2181
	goto	u2180
u2181:
	goto	l732
u2180:
	line	11
	
l1972:	
	comf	(___awdiv@divisor),f
	comf	(___awdiv@divisor+1),f
	incf	(___awdiv@divisor),f
	skipnz
	incf	(___awdiv@divisor+1),f
	line	12
	clrf	(___awdiv@sign)
	bsf	status,0
	rlf	(___awdiv@sign),f
	line	13
	
l732:	
	line	14
	
l1974:	
	btfss	(___awdiv@dividend+1),7
	goto	u2191
	goto	u2190
u2191:
	goto	l733
u2190:
	line	15
	
l1976:	
	comf	(___awdiv@dividend),f
	comf	(___awdiv@dividend+1),f
	incf	(___awdiv@dividend),f
	skipnz
	incf	(___awdiv@dividend+1),f
	line	16
	
l1978:	
	movlw	(01h)
	movwf	(??___awdiv+0)+0
	movf	(??___awdiv+0)+0,w
	xorwf	(___awdiv@sign),f
	line	17
	
l733:	
	line	18
	movlw	low(0)
	movwf	(___awdiv@quotient)
	movlw	high(0)
	movwf	((___awdiv@quotient))+1
	line	19
	movf	(___awdiv@divisor+1),w
	iorwf	(___awdiv@divisor),w
	skipnz
	goto	u2201
	goto	u2200
u2201:
	goto	l734
u2200:
	line	20
	
l1980:	
	clrf	(___awdiv@counter)
	bsf	status,0
	rlf	(___awdiv@counter),f
	line	21
	goto	l735
	
l736:	
	line	22
	
l1982:	
	movlw	01h
	
u2215:
	clrc
	rlf	(___awdiv@divisor),f
	rlf	(___awdiv@divisor+1),f
	addlw	-1
	skipz
	goto	u2215
	line	23
	
l1984:	
	movlw	(01h)
	movwf	(??___awdiv+0)+0
	movf	(??___awdiv+0)+0,w
	addwf	(___awdiv@counter),f
	line	24
	
l735:	
	line	21
	
l1986:	
	btfss	(___awdiv@divisor+1),(15)&7
	goto	u2221
	goto	u2220
u2221:
	goto	l736
u2220:
	
l737:	
	line	25
	
l738:	
	line	26
	
l1988:	
	movlw	01h
	
u2235:
	clrc
	rlf	(___awdiv@quotient),f
	rlf	(___awdiv@quotient+1),f
	addlw	-1
	skipz
	goto	u2235
	line	27
	movf	(___awdiv@divisor+1),w
	subwf	(___awdiv@dividend+1),w
	skipz
	goto	u2245
	movf	(___awdiv@divisor),w
	subwf	(___awdiv@dividend),w
u2245:
	skipc
	goto	u2241
	goto	u2240
u2241:
	goto	l739
u2240:
	line	28
	
l1990:	
	movf	(___awdiv@divisor),w
	subwf	(___awdiv@dividend),f
	movf	(___awdiv@divisor+1),w
	skipc
	decf	(___awdiv@dividend+1),f
	subwf	(___awdiv@dividend+1),f
	line	29
	
l1992:	
	bsf	(___awdiv@quotient)+(0/8),(0)&7
	line	30
	
l739:	
	line	31
	
l1994:	
	movlw	01h
	
u2255:
	clrc
	rrf	(___awdiv@divisor+1),f
	rrf	(___awdiv@divisor),f
	addlw	-1
	skipz
	goto	u2255
	line	32
	
l1996:	
	movlw	low(01h)
	subwf	(___awdiv@counter),f
	btfss	status,2
	goto	u2261
	goto	u2260
u2261:
	goto	l738
u2260:
	
l740:	
	line	33
	
l734:	
	line	34
	
l1998:	
	movf	(___awdiv@sign),w
	skipz
	goto	u2270
	goto	l741
u2270:
	line	35
	
l2000:	
	comf	(___awdiv@quotient),f
	comf	(___awdiv@quotient+1),f
	incf	(___awdiv@quotient),f
	skipnz
	incf	(___awdiv@quotient+1),f
	
l741:	
	line	36
	
l2002:	
	movf	(___awdiv@quotient+1),w
	clrf	(?___awdiv+1)
	addwf	(?___awdiv+1)
	movf	(___awdiv@quotient),w
	clrf	(?___awdiv)
	addwf	(?___awdiv)

	
l2004:	
	line	37
	
l742:	
	return
	opt stack 0
GLOBAL	__end_of___awdiv
	__end_of___awdiv:
;; =============== function ___awdiv ends ============

	signat	___awdiv,8314
	global	_delay
psect	text173,local,class=CODE,delta=2
global __ptext173
__ptext173:

;; *************** function _delay *****************
;; Defined at:
;;		line 6 in file "D:\Madhu\madhu pic folder\pic task\counter 0\counter1\counter1 test.c"
;; Parameters:    Size  Location     Type
;;  x               2    0[COMMON] unsigned int 
;; Auto vars:     Size  Location     Type
;;		None
;; Return value:  Size  Location     Type
;;		None               void
;; Registers used:
;;		wreg
;; Tracked objects:
;;		On entry : 0/0
;;		On exit  : 0/0
;;		Unchanged: 0/0
;; Data sizes:     COMMON   BANK0   BANK1   BANK3   BANK2
;;      Params:         2       0       0       0       0
;;      Locals:         0       0       0       0       0
;;      Temps:          0       0       0       0       0
;;      Totals:         2       0       0       0       0
;;Total ram usage:        2 bytes
;; Hardware stack levels used:    1
;; This function calls:
;;		Nothing
;; This function is called by:
;;		_lcd_command
;;		_lcd_data
;;		_main
;; This function uses a non-reentrant model
;;
psect	text173
	file	"D:\Madhu\madhu pic folder\pic task\counter 0\counter1\counter1 test.c"
	line	6
	global	__size_of_delay
	__size_of_delay	equ	__end_of_delay-_delay
	
_delay:	
	opt	stack 6
; Regs used in _delay: [wreg]
	line	7
	
l1964:	
;counter1 test.c: 7: while(x--);
	goto	l559
	
l560:	
	
l559:	
	
l1966:	
	movlw	low(01h)
	subwf	(delay@x),f
	movlw	high(01h)
	skipc
	decf	(delay@x+1),f
	subwf	(delay@x+1),f
	movlw	high(0FFFFh)
	xorwf	((delay@x+1)),w
	skipz
	goto	u2175
	movlw	low(0FFFFh)
	xorwf	((delay@x)),w
u2175:

	skipz
	goto	u2171
	goto	u2170
u2171:
	goto	l560
u2170:
	
l561:	
	line	8
	
l562:	
	return
	opt stack 0
GLOBAL	__end_of_delay
	__end_of_delay:
;; =============== function _delay ends ============

	signat	_delay,4216
psect	text174,local,class=CODE,delta=2
global __ptext174
__ptext174:
	global	btemp
	btemp set 07Eh

	DABS	1,126,2	;btemp
	global	wtemp0
	wtemp0 set btemp
	end
