opt subtitle "HI-TECH Software Omniscient Code Generator (Lite mode) build 6446"

opt pagewidth 120

	opt lm

	processor	16F877A
clrc	macro
	bcf	3,0
	endm
clrz	macro
	bcf	3,2
	endm
setc	macro
	bsf	3,0
	endm
setz	macro
	bsf	3,2
	endm
skipc	macro
	btfss	3,0
	endm
skipz	macro
	btfss	3,2
	endm
skipnc	macro
	btfsc	3,0
	endm
skipnz	macro
	btfsc	3,2
	endm
indf	equ	0
indf0	equ	0
pc	equ	2
pcl	equ	2
status	equ	3
fsr	equ	4
fsr0	equ	4
c	equ	1
z	equ	0
pclath	equ	10
	FNCALL	_main,_lcd_init
	FNCALL	_main,_delay
	FNCALL	_main,_lcd_cmd
	FNCALL	_main,_lcd_display
	FNCALL	_lcd_display,_lcd_data
	FNCALL	_lcd_init,_lcd_cmd
	FNCALL	_lcd_data,_delay
	FNCALL	_lcd_cmd,_delay
	FNROOT	_main
	global	_PORTC
psect	text90,local,class=CODE,delta=2
global __ptext90
__ptext90:
_PORTC	set	7
	global	_PORTD
_PORTD	set	8
	global	_RC0
_RC0	set	56
	global	_RC1
_RC1	set	57
	global	_RC2
_RC2	set	58
	global	_TRISC
_TRISC	set	135
	global	_TRISD
_TRISD	set	136
psect	strings,class=STRING,delta=2
global __pstrings
__pstrings:
;	global	stringdir,stringtab,__stringbase
stringtab:
;	String table - string pointers are 1 byte each
stringcode:stringdir:
movlw high(stringdir)
movwf pclath
movf fsr,w
incf fsr
	addwf pc
__stringbase:
	retlw	0
psect	strings
	
STR_1:	
	retlw	87	;'W'
	retlw	69	;'E'
	retlw	76	;'L'
	retlw	67	;'C'
	retlw	79	;'O'
	retlw	77	;'M'
	retlw	69	;'E'
	retlw	0
psect	strings
	file	"welcome_code.as"
	line	#
psect cinit,class=CODE,delta=2
global start_initialization
start_initialization:

psect cinit,class=CODE,delta=2
global end_of_initialization

;End of C runtime variable initialization code

end_of_initialization:
clrf status
ljmp _main	;jump to C main() function
psect	cstackCOMMON,class=COMMON,space=1
global __pcstackCOMMON
__pcstackCOMMON:
	global	?_delay
?_delay:	; 0 bytes @ 0x0
	global	?_lcd_cmd
?_lcd_cmd:	; 0 bytes @ 0x0
	global	?_lcd_data
?_lcd_data:	; 0 bytes @ 0x0
	global	?_lcd_init
?_lcd_init:	; 0 bytes @ 0x0
	global	?_lcd_display
?_lcd_display:	; 0 bytes @ 0x0
	global	?_main
?_main:	; 0 bytes @ 0x0
	global	delay@x
delay@x:	; 2 bytes @ 0x0
	ds	2
	global	??_delay
??_delay:	; 0 bytes @ 0x2
	global	??_lcd_cmd
??_lcd_cmd:	; 0 bytes @ 0x2
	global	??_lcd_data
??_lcd_data:	; 0 bytes @ 0x2
	global	lcd_cmd@cmd
lcd_cmd@cmd:	; 1 bytes @ 0x2
	global	lcd_data@data
lcd_data@data:	; 1 bytes @ 0x2
	ds	1
	global	??_lcd_init
??_lcd_init:	; 0 bytes @ 0x3
	global	??_lcd_display
??_lcd_display:	; 0 bytes @ 0x3
	global	lcd_display@i
lcd_display@i:	; 2 bytes @ 0x3
	ds	2
	global	lcd_display@m
lcd_display@m:	; 1 bytes @ 0x5
	ds	1
	global	??_main
??_main:	; 0 bytes @ 0x6
;;Data sizes: Strings 8, constant 0, data 0, bss 0, persistent 0 stack 0
;;Auto spaces:   Size  Autos    Used
;; COMMON          14      6       6
;; BANK0           80      0       0
;; BANK1           80      0       0
;; BANK3           96      0       0
;; BANK2           96      0       0

;;
;; Pointer list with targets:

;; lcd_display@m	PTR unsigned char  size(1) Largest target is 8
;;		 -> STR_1(CODE[8]), 
;;


;;
;; Critical Paths under _main in COMMON
;;
;;   _main->_lcd_display
;;   _lcd_display->_lcd_data
;;   _lcd_init->_lcd_cmd
;;   _lcd_data->_delay
;;   _lcd_cmd->_delay
;;
;; Critical Paths under _main in BANK0
;;
;;   None.
;;
;; Critical Paths under _main in BANK1
;;
;;   None.
;;
;; Critical Paths under _main in BANK3
;;
;;   None.
;;
;; Critical Paths under _main in BANK2
;;
;;   None.

;;
;;Main: autosize = 0, tempsize = 0, incstack = 0, save=0
;;

;;
;;Call Graph Tables:
;;
;; ---------------------------------------------------------------------------------
;; (Depth) Function   	        Calls       Base Space   Used Autos Params    Refs
;; ---------------------------------------------------------------------------------
;; (0) _main                                                 0     0      0     165
;;                           _lcd_init
;;                              _delay
;;                            _lcd_cmd
;;                        _lcd_display
;; ---------------------------------------------------------------------------------
;; (1) _lcd_display                                          3     3      0      90
;;                                              3 COMMON     3     3      0
;;                           _lcd_data
;; ---------------------------------------------------------------------------------
;; (1) _lcd_init                                             0     0      0      30
;;                            _lcd_cmd
;; ---------------------------------------------------------------------------------
;; (2) _lcd_data                                             1     1      0      30
;;                                              2 COMMON     1     1      0
;;                              _delay
;; ---------------------------------------------------------------------------------
;; (1) _lcd_cmd                                              1     1      0      30
;;                                              2 COMMON     1     1      0
;;                              _delay
;; ---------------------------------------------------------------------------------
;; (3) _delay                                                2     0      2      15
;;                                              0 COMMON     2     0      2
;; ---------------------------------------------------------------------------------
;; Estimated maximum stack depth 3
;; ---------------------------------------------------------------------------------

;; Call Graph Graphs:

;; _main (ROOT)
;;   _lcd_init
;;     _lcd_cmd
;;       _delay
;;   _delay
;;   _lcd_cmd
;;     _delay
;;   _lcd_display
;;     _lcd_data
;;       _delay
;;

;; Address spaces:

;;Name               Size   Autos  Total    Cost      Usage
;;BITCOMMON            E      0       0       0        0.0%
;;EEDATA             100      0       0       0        0.0%
;;NULL                 0      0       0       0        0.0%
;;CODE                 0      0       0       0        0.0%
;;COMMON               E      6       6       1       42.9%
;;BITSFR0              0      0       0       1        0.0%
;;SFR0                 0      0       0       1        0.0%
;;BITSFR1              0      0       0       2        0.0%
;;SFR1                 0      0       0       2        0.0%
;;STACK                0      0       3       2        0.0%
;;ABS                  0      0       0       3        0.0%
;;BITBANK0            50      0       0       4        0.0%
;;BITSFR3              0      0       0       4        0.0%
;;SFR3                 0      0       0       4        0.0%
;;BANK0               50      0       0       5        0.0%
;;BITSFR2              0      0       0       5        0.0%
;;SFR2                 0      0       0       5        0.0%
;;BITBANK1            50      0       0       6        0.0%
;;BANK1               50      0       0       7        0.0%
;;BITBANK3            60      0       0       8        0.0%
;;BANK3               60      0       0       9        0.0%
;;BITBANK2            60      0       0      10        0.0%
;;BANK2               60      0       0      11        0.0%
;;DATA                 0      0       0      12        0.0%

	global	_main
psect	maintext,global,class=CODE,delta=2
global __pmaintext
__pmaintext:

;; *************** function _main *****************
;; Defined at:
;;		line 49 in file "E:\Embedded_Program\LCD_Display_Code\welcome\welcome_code.c"
;; Parameters:    Size  Location     Type
;;		None
;; Auto vars:     Size  Location     Type
;;		None
;; Return value:  Size  Location     Type
;;		None               void
;; Registers used:
;;		wreg, fsr0l, fsr0h, status,2, status,0, pclath, cstack
;; Tracked objects:
;;		On entry : 17F/0
;;		On exit  : 0/0
;;		Unchanged: 0/0
;; Data sizes:     COMMON   BANK0   BANK1   BANK3   BANK2
;;      Params:         0       0       0       0       0
;;      Locals:         0       0       0       0       0
;;      Temps:          0       0       0       0       0
;;      Totals:         0       0       0       0       0
;;Total ram usage:        0 bytes
;; Hardware stack levels required when called:    3
;; This function calls:
;;		_lcd_init
;;		_delay
;;		_lcd_cmd
;;		_lcd_display
;; This function is called by:
;;		Startup code after reset
;; This function uses a non-reentrant model
;;
psect	maintext
	file	"E:\Embedded_Program\LCD_Display_Code\welcome\welcome_code.c"
	line	49
	global	__size_of_main
	__size_of_main	equ	__end_of_main-_main
	
_main:	
	opt	stack 8
; Regs used in _main: [wreg-fsr0h+status,2+status,0+pclath+cstack]
	line	50
	
l1780:	
;welcome_code.c: 50: TRISD=0x00;
	bsf	status, 5	;RP0=1, select bank1
	bcf	status, 6	;RP1=0, select bank1
	clrf	(136)^080h	;volatile
	line	51
;welcome_code.c: 51: PORTD=0x00;
	bcf	status, 5	;RP0=0, select bank0
	bcf	status, 6	;RP1=0, select bank0
	clrf	(8)	;volatile
	line	53
;welcome_code.c: 53: TRISC=0x00;
	bsf	status, 5	;RP0=1, select bank1
	bcf	status, 6	;RP1=0, select bank1
	clrf	(135)^080h	;volatile
	line	54
;welcome_code.c: 54: PORTC=0x00;
	bcf	status, 5	;RP0=0, select bank0
	bcf	status, 6	;RP1=0, select bank0
	clrf	(7)	;volatile
	line	56
	
l1782:	
;welcome_code.c: 56: lcd_init();
	fcall	_lcd_init
	line	57
	
l1784:	
;welcome_code.c: 57: delay(100);
	movlw	low(064h)
	movwf	(?_delay)
	movlw	high(064h)
	movwf	((?_delay))+1
	fcall	_delay
	line	58
;welcome_code.c: 58: while(1)
	
l580:	
	line	60
	
l1786:	
;welcome_code.c: 59: {
;welcome_code.c: 60: lcd_cmd(0X80);
	movlw	(080h)
	fcall	_lcd_cmd
	line	61
	
l1788:	
;welcome_code.c: 61: lcd_display("WELCOME");
	movlw	((STR_1-__stringbase))&0ffh
	fcall	_lcd_display
	line	62
	
l1790:	
;welcome_code.c: 62: delay(50000);
	movlw	low(0C350h)
	movwf	(?_delay)
	movlw	high(0C350h)
	movwf	((?_delay))+1
	fcall	_delay
	line	63
	
l581:	
	line	58
	goto	l580
	
l582:	
	line	64
	
l583:	
	global	start
	ljmp	start
	opt stack 0
GLOBAL	__end_of_main
	__end_of_main:
;; =============== function _main ends ============

	signat	_main,88
	global	_lcd_display
psect	text91,local,class=CODE,delta=2
global __ptext91
__ptext91:

;; *************** function _lcd_display *****************
;; Defined at:
;;		line 41 in file "E:\Embedded_Program\LCD_Display_Code\welcome\welcome_code.c"
;; Parameters:    Size  Location     Type
;;  m               1    wreg     PTR unsigned char 
;;		 -> STR_1(8), 
;; Auto vars:     Size  Location     Type
;;  m               1    5[COMMON] PTR unsigned char 
;;		 -> STR_1(8), 
;;  i               2    3[COMMON] int 
;; Return value:  Size  Location     Type
;;		None               void
;; Registers used:
;;		wreg, fsr0l, fsr0h, status,2, status,0, pclath, cstack
;; Tracked objects:
;;		On entry : 0/0
;;		On exit  : 0/0
;;		Unchanged: 0/0
;; Data sizes:     COMMON   BANK0   BANK1   BANK3   BANK2
;;      Params:         0       0       0       0       0
;;      Locals:         3       0       0       0       0
;;      Temps:          0       0       0       0       0
;;      Totals:         3       0       0       0       0
;;Total ram usage:        3 bytes
;; Hardware stack levels used:    1
;; Hardware stack levels required when called:    2
;; This function calls:
;;		_lcd_data
;; This function is called by:
;;		_main
;; This function uses a non-reentrant model
;;
psect	text91
	file	"E:\Embedded_Program\LCD_Display_Code\welcome\welcome_code.c"
	line	41
	global	__size_of_lcd_display
	__size_of_lcd_display	equ	__end_of_lcd_display-_lcd_display
	
_lcd_display:	
	opt	stack 7
; Regs used in _lcd_display: [wreg-fsr0h+status,2+status,0+pclath+cstack]
;lcd_display@m stored from wreg
	movwf	(lcd_display@m)
	line	42
	
l1772:	
;welcome_code.c: 42: for(int i=0;m[i]!=0;i++)
	movlw	low(0)
	movwf	(lcd_display@i)
	movlw	high(0)
	movwf	((lcd_display@i))+1
	goto	l574
	line	43
	
l575:	
	line	44
	
l1774:	
;welcome_code.c: 43: {
;welcome_code.c: 44: lcd_data(m[i]);
	movf	(lcd_display@i),w
	addwf	(lcd_display@m),w
	movwf	fsr0
	fcall	stringdir
	fcall	_lcd_data
	line	42
	
l1776:	
	movlw	low(01h)
	addwf	(lcd_display@i),f
	skipnc
	incf	(lcd_display@i+1),f
	movlw	high(01h)
	addwf	(lcd_display@i+1),f
	
l574:	
	
l1778:	
	movf	(lcd_display@i),w
	addwf	(lcd_display@m),w
	movwf	fsr0
	fcall	stringdir
	iorlw	0
	skipz
	goto	u2151
	goto	u2150
u2151:
	goto	l575
u2150:
	
l576:	
	line	46
	
l577:	
	return
	opt stack 0
GLOBAL	__end_of_lcd_display
	__end_of_lcd_display:
;; =============== function _lcd_display ends ============

	signat	_lcd_display,4216
	global	_lcd_init
psect	text92,local,class=CODE,delta=2
global __ptext92
__ptext92:

;; *************** function _lcd_init *****************
;; Defined at:
;;		line 32 in file "E:\Embedded_Program\LCD_Display_Code\welcome\welcome_code.c"
;; Parameters:    Size  Location     Type
;;		None
;; Auto vars:     Size  Location     Type
;;		None
;; Return value:  Size  Location     Type
;;		None               void
;; Registers used:
;;		wreg, status,2, status,0, pclath, cstack
;; Tracked objects:
;;		On entry : 0/0
;;		On exit  : 0/0
;;		Unchanged: 0/0
;; Data sizes:     COMMON   BANK0   BANK1   BANK3   BANK2
;;      Params:         0       0       0       0       0
;;      Locals:         0       0       0       0       0
;;      Temps:          0       0       0       0       0
;;      Totals:         0       0       0       0       0
;;Total ram usage:        0 bytes
;; Hardware stack levels used:    1
;; Hardware stack levels required when called:    2
;; This function calls:
;;		_lcd_cmd
;; This function is called by:
;;		_main
;; This function uses a non-reentrant model
;;
psect	text92
	file	"E:\Embedded_Program\LCD_Display_Code\welcome\welcome_code.c"
	line	32
	global	__size_of_lcd_init
	__size_of_lcd_init	equ	__end_of_lcd_init-_lcd_init
	
_lcd_init:	
	opt	stack 7
; Regs used in _lcd_init: [wreg+status,2+status,0+pclath+cstack]
	line	33
	
l1770:	
;welcome_code.c: 33: lcd_cmd(0x38);
	movlw	(038h)
	fcall	_lcd_cmd
	line	34
;welcome_code.c: 34: lcd_cmd(0x06);
	movlw	(06h)
	fcall	_lcd_cmd
	line	35
;welcome_code.c: 35: lcd_cmd(0x0c);
	movlw	(0Ch)
	fcall	_lcd_cmd
	line	36
;welcome_code.c: 36: lcd_cmd(0x01);
	movlw	(01h)
	fcall	_lcd_cmd
	line	37
;welcome_code.c: 37: lcd_cmd(0x80);
	movlw	(080h)
	fcall	_lcd_cmd
	line	38
	
l571:	
	return
	opt stack 0
GLOBAL	__end_of_lcd_init
	__end_of_lcd_init:
;; =============== function _lcd_init ends ============

	signat	_lcd_init,88
	global	_lcd_data
psect	text93,local,class=CODE,delta=2
global __ptext93
__ptext93:

;; *************** function _lcd_data *****************
;; Defined at:
;;		line 22 in file "E:\Embedded_Program\LCD_Display_Code\welcome\welcome_code.c"
;; Parameters:    Size  Location     Type
;;  data            1    wreg     unsigned char 
;; Auto vars:     Size  Location     Type
;;  data            1    2[COMMON] unsigned char 
;; Return value:  Size  Location     Type
;;		None               void
;; Registers used:
;;		wreg, status,2, status,0, pclath, cstack
;; Tracked objects:
;;		On entry : 0/0
;;		On exit  : 0/0
;;		Unchanged: 0/0
;; Data sizes:     COMMON   BANK0   BANK1   BANK3   BANK2
;;      Params:         0       0       0       0       0
;;      Locals:         1       0       0       0       0
;;      Temps:          0       0       0       0       0
;;      Totals:         1       0       0       0       0
;;Total ram usage:        1 bytes
;; Hardware stack levels used:    1
;; Hardware stack levels required when called:    1
;; This function calls:
;;		_delay
;; This function is called by:
;;		_lcd_display
;; This function uses a non-reentrant model
;;
psect	text93
	file	"E:\Embedded_Program\LCD_Display_Code\welcome\welcome_code.c"
	line	22
	global	__size_of_lcd_data
	__size_of_lcd_data	equ	__end_of_lcd_data-_lcd_data
	
_lcd_data:	
	opt	stack 6
; Regs used in _lcd_data: [wreg+status,2+status,0+pclath+cstack]
;lcd_data@data stored from wreg
	movwf	(lcd_data@data)
	line	23
	
l1758:	
;welcome_code.c: 23: PORTD = data;
	movf	(lcd_data@data),w
	bcf	status, 5	;RP0=0, select bank0
	bcf	status, 6	;RP1=0, select bank0
	movwf	(8)	;volatile
	line	24
	
l1760:	
;welcome_code.c: 24: RC0=1;
	bsf	(56/8),(56)&7
	line	25
	
l1762:	
;welcome_code.c: 25: RC1=0;
	bcf	(57/8),(57)&7
	line	26
	
l1764:	
;welcome_code.c: 26: RC2=1;
	bsf	(58/8),(58)&7
	line	27
	
l1766:	
;welcome_code.c: 27: delay(100);
	movlw	low(064h)
	movwf	(?_delay)
	movlw	high(064h)
	movwf	((?_delay))+1
	fcall	_delay
	line	28
	
l1768:	
;welcome_code.c: 28: RC2=0;
	bcf	status, 5	;RP0=0, select bank0
	bcf	status, 6	;RP1=0, select bank0
	bcf	(58/8),(58)&7
	line	29
	
l568:	
	return
	opt stack 0
GLOBAL	__end_of_lcd_data
	__end_of_lcd_data:
;; =============== function _lcd_data ends ============

	signat	_lcd_data,4216
	global	_lcd_cmd
psect	text94,local,class=CODE,delta=2
global __ptext94
__ptext94:

;; *************** function _lcd_cmd *****************
;; Defined at:
;;		line 12 in file "E:\Embedded_Program\LCD_Display_Code\welcome\welcome_code.c"
;; Parameters:    Size  Location     Type
;;  cmd             1    wreg     unsigned char 
;; Auto vars:     Size  Location     Type
;;  cmd             1    2[COMMON] unsigned char 
;; Return value:  Size  Location     Type
;;		None               void
;; Registers used:
;;		wreg, status,2, status,0, pclath, cstack
;; Tracked objects:
;;		On entry : 0/0
;;		On exit  : 0/0
;;		Unchanged: 0/0
;; Data sizes:     COMMON   BANK0   BANK1   BANK3   BANK2
;;      Params:         0       0       0       0       0
;;      Locals:         1       0       0       0       0
;;      Temps:          0       0       0       0       0
;;      Totals:         1       0       0       0       0
;;Total ram usage:        1 bytes
;; Hardware stack levels used:    1
;; Hardware stack levels required when called:    1
;; This function calls:
;;		_delay
;; This function is called by:
;;		_lcd_init
;;		_main
;; This function uses a non-reentrant model
;;
psect	text94
	file	"E:\Embedded_Program\LCD_Display_Code\welcome\welcome_code.c"
	line	12
	global	__size_of_lcd_cmd
	__size_of_lcd_cmd	equ	__end_of_lcd_cmd-_lcd_cmd
	
_lcd_cmd:	
	opt	stack 7
; Regs used in _lcd_cmd: [wreg+status,2+status,0+pclath+cstack]
;lcd_cmd@cmd stored from wreg
	movwf	(lcd_cmd@cmd)
	line	13
	
l1746:	
;welcome_code.c: 13: PORTD = cmd;
	movf	(lcd_cmd@cmd),w
	bcf	status, 5	;RP0=0, select bank0
	bcf	status, 6	;RP1=0, select bank0
	movwf	(8)	;volatile
	line	14
	
l1748:	
;welcome_code.c: 14: RC0=0;
	bcf	(56/8),(56)&7
	line	15
	
l1750:	
;welcome_code.c: 15: RC1=0;
	bcf	(57/8),(57)&7
	line	16
	
l1752:	
;welcome_code.c: 16: RC2=1;
	bsf	(58/8),(58)&7
	line	17
	
l1754:	
;welcome_code.c: 17: delay(100);
	movlw	low(064h)
	movwf	(?_delay)
	movlw	high(064h)
	movwf	((?_delay))+1
	fcall	_delay
	line	18
	
l1756:	
;welcome_code.c: 18: RC2=0;
	bcf	status, 5	;RP0=0, select bank0
	bcf	status, 6	;RP1=0, select bank0
	bcf	(58/8),(58)&7
	line	19
	
l565:	
	return
	opt stack 0
GLOBAL	__end_of_lcd_cmd
	__end_of_lcd_cmd:
;; =============== function _lcd_cmd ends ============

	signat	_lcd_cmd,4216
	global	_delay
psect	text95,local,class=CODE,delta=2
global __ptext95
__ptext95:

;; *************** function _delay *****************
;; Defined at:
;;		line 7 in file "E:\Embedded_Program\LCD_Display_Code\welcome\welcome_code.c"
;; Parameters:    Size  Location     Type
;;  x               2    0[COMMON] unsigned int 
;; Auto vars:     Size  Location     Type
;;		None
;; Return value:  Size  Location     Type
;;		None               void
;; Registers used:
;;		wreg
;; Tracked objects:
;;		On entry : 0/0
;;		On exit  : 0/0
;;		Unchanged: 0/0
;; Data sizes:     COMMON   BANK0   BANK1   BANK3   BANK2
;;      Params:         2       0       0       0       0
;;      Locals:         0       0       0       0       0
;;      Temps:          0       0       0       0       0
;;      Totals:         2       0       0       0       0
;;Total ram usage:        2 bytes
;; Hardware stack levels used:    1
;; This function calls:
;;		Nothing
;; This function is called by:
;;		_lcd_cmd
;;		_lcd_data
;;		_main
;; This function uses a non-reentrant model
;;
psect	text95
	file	"E:\Embedded_Program\LCD_Display_Code\welcome\welcome_code.c"
	line	7
	global	__size_of_delay
	__size_of_delay	equ	__end_of_delay-_delay
	
_delay:	
	opt	stack 5
; Regs used in _delay: [wreg]
	line	8
	
l956:	
;welcome_code.c: 8: while(x--);
	goto	l559
	
l560:	
	
l559:	
	
l958:	
	movlw	low(01h)
	subwf	(delay@x),f
	movlw	high(01h)
	skipc
	decf	(delay@x+1),f
	subwf	(delay@x+1),f
	movlw	high(0FFFFh)
	xorwf	((delay@x+1)),w
	skipz
	goto	u15
	movlw	low(0FFFFh)
	xorwf	((delay@x)),w
u15:

	skipz
	goto	u11
	goto	u10
u11:
	goto	l560
u10:
	
l561:	
	line	9
	
l562:	
	return
	opt stack 0
GLOBAL	__end_of_delay
	__end_of_delay:
;; =============== function _delay ends ============

	signat	_delay,4216
psect	text96,local,class=CODE,delta=2
global __ptext96
__ptext96:
	global	btemp
	btemp set 07Eh

	DABS	1,126,2	;btemp
	global	wtemp0
	wtemp0 set btemp
	end
