opt subtitle "HI-TECH Software Omniscient Code Generator (Lite mode) build 6446"

opt pagewidth 120

	opt lm

	processor	16F877A
clrc	macro
	bcf	3,0
	endm
clrz	macro
	bcf	3,2
	endm
setc	macro
	bsf	3,0
	endm
setz	macro
	bsf	3,2
	endm
skipc	macro
	btfss	3,0
	endm
skipz	macro
	btfss	3,2
	endm
skipnc	macro
	btfsc	3,0
	endm
skipnz	macro
	btfsc	3,2
	endm
indf	equ	0
indf0	equ	0
pc	equ	2
pcl	equ	2
status	equ	3
fsr	equ	4
fsr0	equ	4
c	equ	1
z	equ	0
pclath	equ	10
	FNCALL	_main,_delay
	FNROOT	_main
	global	_PORTB
psect	maintext,global,class=CODE,delta=2
global __pmaintext
__pmaintext:
_PORTB	set	6
	global	_PORTC
_PORTC	set	7
	global	_PORTD
_PORTD	set	8
	global	_TRISB
_TRISB	set	134
	global	_TRISC
_TRISC	set	135
	global	_TRISD
_TRISD	set	136
	file	"BPORT CPORT DPORT.as"
	line	#
psect cinit,class=CODE,delta=2
global start_initialization
start_initialization:

psect cinit,class=CODE,delta=2
global end_of_initialization

;End of C runtime variable initialization code

end_of_initialization:
clrf status
ljmp _main	;jump to C main() function
psect	cstackCOMMON,class=COMMON,space=1
global __pcstackCOMMON
__pcstackCOMMON:
	global	?_delay
?_delay:	; 0 bytes @ 0x0
	global	?_main
?_main:	; 2 bytes @ 0x0
	global	delay@x
delay@x:	; 2 bytes @ 0x0
	ds	2
	global	??_delay
??_delay:	; 0 bytes @ 0x2
	global	??_main
??_main:	; 0 bytes @ 0x2
;;Data sizes: Strings 0, constant 0, data 0, bss 0, persistent 0 stack 0
;;Auto spaces:   Size  Autos    Used
;; COMMON          14      2       2
;; BANK0           80      0       0
;; BANK1           80      0       0
;; BANK3           96      0       0
;; BANK2           96      0       0

;;
;; Pointer list with targets:



;;
;; Critical Paths under _main in COMMON
;;
;;   _main->_delay
;;
;; Critical Paths under _main in BANK0
;;
;;   None.
;;
;; Critical Paths under _main in BANK1
;;
;;   None.
;;
;; Critical Paths under _main in BANK3
;;
;;   None.
;;
;; Critical Paths under _main in BANK2
;;
;;   None.

;;
;;Main: autosize = 0, tempsize = 0, incstack = 0, save=0
;;

;;
;;Call Graph Tables:
;;
;; ---------------------------------------------------------------------------------
;; (Depth) Function   	        Calls       Base Space   Used Autos Params    Refs
;; ---------------------------------------------------------------------------------
;; (0) _main                                                 0     0      0      15
;;                              _delay
;; ---------------------------------------------------------------------------------
;; (1) _delay                                                2     0      2      15
;;                                              0 COMMON     2     0      2
;; ---------------------------------------------------------------------------------
;; Estimated maximum stack depth 1
;; ---------------------------------------------------------------------------------

;; Call Graph Graphs:

;; _main (ROOT)
;;   _delay
;;

;; Address spaces:

;;Name               Size   Autos  Total    Cost      Usage
;;BITCOMMON            E      0       0       0        0.0%
;;EEDATA             100      0       0       0        0.0%
;;NULL                 0      0       0       0        0.0%
;;CODE                 0      0       0       0        0.0%
;;COMMON               E      2       2       1       14.3%
;;BITSFR0              0      0       0       1        0.0%
;;SFR0                 0      0       0       1        0.0%
;;BITSFR1              0      0       0       2        0.0%
;;SFR1                 0      0       0       2        0.0%
;;STACK                0      0       1       2        0.0%
;;ABS                  0      0       0       3        0.0%
;;BITBANK0            50      0       0       4        0.0%
;;BITSFR3              0      0       0       4        0.0%
;;SFR3                 0      0       0       4        0.0%
;;BANK0               50      0       0       5        0.0%
;;BITSFR2              0      0       0       5        0.0%
;;SFR2                 0      0       0       5        0.0%
;;BITBANK1            50      0       0       6        0.0%
;;BANK1               50      0       0       7        0.0%
;;BITBANK3            60      0       0       8        0.0%
;;BANK3               60      0       0       9        0.0%
;;BITBANK2            60      0       0      10        0.0%
;;BANK2               60      0       0      11        0.0%
;;DATA                 0      0       0      12        0.0%

	global	_main
psect	maintext

;; *************** function _main *****************
;; Defined at:
;;		line 7 in file "C:\Users\TECH\Desktop\madhu pic folder\led\BPORT CPORT DPORT\BPORT CPORT DPORT.C"
;; Parameters:    Size  Location     Type
;;		None
;; Auto vars:     Size  Location     Type
;;		None
;; Return value:  Size  Location     Type
;;                  2  564[COMMON] int 
;; Registers used:
;;		wreg, status,2, status,0, pclath, cstack
;; Tracked objects:
;;		On entry : 17F/0
;;		On exit  : 0/0
;;		Unchanged: 0/0
;; Data sizes:     COMMON   BANK0   BANK1   BANK3   BANK2
;;      Params:         0       0       0       0       0
;;      Locals:         0       0       0       0       0
;;      Temps:          0       0       0       0       0
;;      Totals:         0       0       0       0       0
;;Total ram usage:        0 bytes
;; Hardware stack levels required when called:    1
;; This function calls:
;;		_delay
;; This function is called by:
;;		Startup code after reset
;; This function uses a non-reentrant model
;;
psect	maintext
	file	"C:\Users\TECH\Desktop\madhu pic folder\led\BPORT CPORT DPORT\BPORT CPORT DPORT.C"
	line	7
	global	__size_of_main
	__size_of_main	equ	__end_of_main-_main
	
_main:	
	opt	stack 8
; Regs used in _main: [wreg+status,2+status,0+pclath+cstack]
	line	8
	
l1727:	
;BPORT CPORT DPORT.C: 8: TRISB=0X00;
	bsf	status, 5	;RP0=1, select bank1
	bcf	status, 6	;RP1=0, select bank1
	clrf	(134)^080h	;volatile
	line	9
;BPORT CPORT DPORT.C: 9: PORTB=0X00;
	bcf	status, 5	;RP0=0, select bank0
	bcf	status, 6	;RP1=0, select bank0
	clrf	(6)	;volatile
	line	10
;BPORT CPORT DPORT.C: 10: TRISC=0X00;
	bsf	status, 5	;RP0=1, select bank1
	bcf	status, 6	;RP1=0, select bank1
	clrf	(135)^080h	;volatile
	line	11
;BPORT CPORT DPORT.C: 11: PORTC=0X00;
	bcf	status, 5	;RP0=0, select bank0
	bcf	status, 6	;RP1=0, select bank0
	clrf	(7)	;volatile
	line	12
;BPORT CPORT DPORT.C: 12: TRISD=0X00;
	bsf	status, 5	;RP0=1, select bank1
	bcf	status, 6	;RP1=0, select bank1
	clrf	(136)^080h	;volatile
	line	13
;BPORT CPORT DPORT.C: 13: PORTD=0X00;
	bcf	status, 5	;RP0=0, select bank0
	bcf	status, 6	;RP1=0, select bank0
	clrf	(8)	;volatile
	line	14
;BPORT CPORT DPORT.C: 14: while(1)
	
l565:	
	line	16
	
l1729:	
;BPORT CPORT DPORT.C: 15: {
;BPORT CPORT DPORT.C: 16: PORTB=0X01;
	movlw	(01h)
	movwf	(6)	;volatile
	line	17
	
l1731:	
;BPORT CPORT DPORT.C: 17: delay(50000);
	movlw	low(0C350h)
	movwf	(?_delay)
	movlw	high(0C350h)
	movwf	((?_delay))+1
	fcall	_delay
	line	18
	
l1733:	
;BPORT CPORT DPORT.C: 18: PORTB=0X02;
	movlw	(02h)
	bcf	status, 5	;RP0=0, select bank0
	bcf	status, 6	;RP1=0, select bank0
	movwf	(6)	;volatile
	line	19
	
l1735:	
;BPORT CPORT DPORT.C: 19: delay(50000);
	movlw	low(0C350h)
	movwf	(?_delay)
	movlw	high(0C350h)
	movwf	((?_delay))+1
	fcall	_delay
	line	20
	
l1737:	
;BPORT CPORT DPORT.C: 20: PORTB=0X04;
	movlw	(04h)
	bcf	status, 5	;RP0=0, select bank0
	bcf	status, 6	;RP1=0, select bank0
	movwf	(6)	;volatile
	line	21
	
l1739:	
;BPORT CPORT DPORT.C: 21: delay(50000);
	movlw	low(0C350h)
	movwf	(?_delay)
	movlw	high(0C350h)
	movwf	((?_delay))+1
	fcall	_delay
	line	22
	
l1741:	
;BPORT CPORT DPORT.C: 22: PORTB=0X00;
	bcf	status, 5	;RP0=0, select bank0
	bcf	status, 6	;RP1=0, select bank0
	clrf	(6)	;volatile
	line	23
	
l1743:	
;BPORT CPORT DPORT.C: 23: PORTC=0X01;
	movlw	(01h)
	movwf	(7)	;volatile
	line	24
;BPORT CPORT DPORT.C: 24: delay(50000);
	movlw	low(0C350h)
	movwf	(?_delay)
	movlw	high(0C350h)
	movwf	((?_delay))+1
	fcall	_delay
	line	25
	
l1745:	
;BPORT CPORT DPORT.C: 25: PORTC=0X02;
	movlw	(02h)
	bcf	status, 5	;RP0=0, select bank0
	bcf	status, 6	;RP1=0, select bank0
	movwf	(7)	;volatile
	line	26
	
l1747:	
;BPORT CPORT DPORT.C: 26: delay(50000);
	movlw	low(0C350h)
	movwf	(?_delay)
	movlw	high(0C350h)
	movwf	((?_delay))+1
	fcall	_delay
	line	27
	
l1749:	
;BPORT CPORT DPORT.C: 27: PORTC=0X00;
	bcf	status, 5	;RP0=0, select bank0
	bcf	status, 6	;RP1=0, select bank0
	clrf	(7)	;volatile
	line	29
	
l1751:	
;BPORT CPORT DPORT.C: 29: PORTD=0X01;
	movlw	(01h)
	movwf	(8)	;volatile
	line	30
	
l1753:	
;BPORT CPORT DPORT.C: 30: delay(50000);
	movlw	low(0C350h)
	movwf	(?_delay)
	movlw	high(0C350h)
	movwf	((?_delay))+1
	fcall	_delay
	line	31
	
l1755:	
;BPORT CPORT DPORT.C: 31: PORTD=0X02;
	movlw	(02h)
	bcf	status, 5	;RP0=0, select bank0
	bcf	status, 6	;RP1=0, select bank0
	movwf	(8)	;volatile
	line	32
	
l1757:	
;BPORT CPORT DPORT.C: 32: delay(50000);
	movlw	low(0C350h)
	movwf	(?_delay)
	movlw	high(0C350h)
	movwf	((?_delay))+1
	fcall	_delay
	line	33
	
l1759:	
;BPORT CPORT DPORT.C: 33: PORTD=0X04;
	movlw	(04h)
	bcf	status, 5	;RP0=0, select bank0
	bcf	status, 6	;RP1=0, select bank0
	movwf	(8)	;volatile
	line	34
	
l1761:	
;BPORT CPORT DPORT.C: 34: delay(50000);
	movlw	low(0C350h)
	movwf	(?_delay)
	movlw	high(0C350h)
	movwf	((?_delay))+1
	fcall	_delay
	line	35
	
l1763:	
;BPORT CPORT DPORT.C: 35: PORTD=0X00;
	bcf	status, 5	;RP0=0, select bank0
	bcf	status, 6	;RP1=0, select bank0
	clrf	(8)	;volatile
	line	36
	
l1765:	
;BPORT CPORT DPORT.C: 36: PORTD=0X04;
	movlw	(04h)
	movwf	(8)	;volatile
	line	37
	
l1767:	
;BPORT CPORT DPORT.C: 37: delay(50000);
	movlw	low(0C350h)
	movwf	(?_delay)
	movlw	high(0C350h)
	movwf	((?_delay))+1
	fcall	_delay
	line	38
;BPORT CPORT DPORT.C: 38: PORTD=0X02;
	movlw	(02h)
	bcf	status, 5	;RP0=0, select bank0
	bcf	status, 6	;RP1=0, select bank0
	movwf	(8)	;volatile
	line	39
	
l1769:	
;BPORT CPORT DPORT.C: 39: delay(50000);
	movlw	low(0C350h)
	movwf	(?_delay)
	movlw	high(0C350h)
	movwf	((?_delay))+1
	fcall	_delay
	line	40
	
l1771:	
;BPORT CPORT DPORT.C: 40: PORTD=0X01;
	movlw	(01h)
	bcf	status, 5	;RP0=0, select bank0
	bcf	status, 6	;RP1=0, select bank0
	movwf	(8)	;volatile
	line	41
;BPORT CPORT DPORT.C: 41: delay(50000);
	movlw	low(0C350h)
	movwf	(?_delay)
	movlw	high(0C350h)
	movwf	((?_delay))+1
	fcall	_delay
	line	42
	
l1773:	
;BPORT CPORT DPORT.C: 42: PORTD=0X00;
	bcf	status, 5	;RP0=0, select bank0
	bcf	status, 6	;RP1=0, select bank0
	clrf	(8)	;volatile
	line	43
	
l1775:	
;BPORT CPORT DPORT.C: 43: PORTC=0X02;
	movlw	(02h)
	movwf	(7)	;volatile
	line	44
	
l1777:	
;BPORT CPORT DPORT.C: 44: delay(50000);
	movlw	low(0C350h)
	movwf	(?_delay)
	movlw	high(0C350h)
	movwf	((?_delay))+1
	fcall	_delay
	line	45
	
l1779:	
;BPORT CPORT DPORT.C: 45: PORTC=0X01;
	movlw	(01h)
	bcf	status, 5	;RP0=0, select bank0
	bcf	status, 6	;RP1=0, select bank0
	movwf	(7)	;volatile
	line	46
	
l1781:	
;BPORT CPORT DPORT.C: 46: delay(50000);
	movlw	low(0C350h)
	movwf	(?_delay)
	movlw	high(0C350h)
	movwf	((?_delay))+1
	fcall	_delay
	line	47
	
l1783:	
;BPORT CPORT DPORT.C: 47: PORTC=0X00;
	bcf	status, 5	;RP0=0, select bank0
	bcf	status, 6	;RP1=0, select bank0
	clrf	(7)	;volatile
	line	48
	
l1785:	
;BPORT CPORT DPORT.C: 48: PORTB=0X04;
	movlw	(04h)
	movwf	(6)	;volatile
	line	49
	
l1787:	
;BPORT CPORT DPORT.C: 49: delay(50000);
	movlw	low(0C350h)
	movwf	(?_delay)
	movlw	high(0C350h)
	movwf	((?_delay))+1
	fcall	_delay
	line	50
;BPORT CPORT DPORT.C: 50: PORTB=0X02;
	movlw	(02h)
	bcf	status, 5	;RP0=0, select bank0
	bcf	status, 6	;RP1=0, select bank0
	movwf	(6)	;volatile
	line	51
	
l1789:	
;BPORT CPORT DPORT.C: 51: delay(50000);
	movlw	low(0C350h)
	movwf	(?_delay)
	movlw	high(0C350h)
	movwf	((?_delay))+1
	fcall	_delay
	line	52
	
l1791:	
;BPORT CPORT DPORT.C: 52: PORTB=0X01;
	movlw	(01h)
	bcf	status, 5	;RP0=0, select bank0
	bcf	status, 6	;RP1=0, select bank0
	movwf	(6)	;volatile
	line	53
;BPORT CPORT DPORT.C: 53: delay(50000);
	movlw	low(0C350h)
	movwf	(?_delay)
	movlw	high(0C350h)
	movwf	((?_delay))+1
	fcall	_delay
	line	54
	
l1793:	
;BPORT CPORT DPORT.C: 54: PORTB=0X00;
	bcf	status, 5	;RP0=0, select bank0
	bcf	status, 6	;RP1=0, select bank0
	clrf	(6)	;volatile
	line	55
	
l566:	
	line	14
	goto	l565
	
l567:	
	line	56
	
l568:	
	global	start
	ljmp	start
	opt stack 0
GLOBAL	__end_of_main
	__end_of_main:
;; =============== function _main ends ============

	signat	_main,90
	global	_delay
psect	text55,local,class=CODE,delta=2
global __ptext55
__ptext55:

;; *************** function _delay *****************
;; Defined at:
;;		line 3 in file "C:\Users\TECH\Desktop\madhu pic folder\led\BPORT CPORT DPORT\BPORT CPORT DPORT.C"
;; Parameters:    Size  Location     Type
;;  x               2    0[COMMON] unsigned int 
;; Auto vars:     Size  Location     Type
;;		None
;; Return value:  Size  Location     Type
;;		None               void
;; Registers used:
;;		wreg
;; Tracked objects:
;;		On entry : 0/0
;;		On exit  : 0/0
;;		Unchanged: 0/0
;; Data sizes:     COMMON   BANK0   BANK1   BANK3   BANK2
;;      Params:         2       0       0       0       0
;;      Locals:         0       0       0       0       0
;;      Temps:          0       0       0       0       0
;;      Totals:         2       0       0       0       0
;;Total ram usage:        2 bytes
;; Hardware stack levels used:    1
;; This function calls:
;;		Nothing
;; This function is called by:
;;		_main
;; This function uses a non-reentrant model
;;
psect	text55
	file	"C:\Users\TECH\Desktop\madhu pic folder\led\BPORT CPORT DPORT\BPORT CPORT DPORT.C"
	line	3
	global	__size_of_delay
	__size_of_delay	equ	__end_of_delay-_delay
	
_delay:	
	opt	stack 7
; Regs used in _delay: [wreg]
	line	4
	
l937:	
;BPORT CPORT DPORT.C: 4: while(x--);
	goto	l559
	
l560:	
	
l559:	
	
l939:	
	movlw	low(01h)
	subwf	(delay@x),f
	movlw	high(01h)
	skipc
	decf	(delay@x+1),f
	subwf	(delay@x+1),f
	movlw	high(0FFFFh)
	xorwf	((delay@x+1)),w
	skipz
	goto	u15
	movlw	low(0FFFFh)
	xorwf	((delay@x)),w
u15:

	skipz
	goto	u11
	goto	u10
u11:
	goto	l560
u10:
	
l561:	
	line	5
	
l562:	
	return
	opt stack 0
GLOBAL	__end_of_delay
	__end_of_delay:
;; =============== function _delay ends ============

	signat	_delay,4216
psect	text56,local,class=CODE,delta=2
global __ptext56
__ptext56:
	global	btemp
	btemp set 07Eh

	DABS	1,126,2	;btemp
	global	wtemp0
	wtemp0 set btemp
	end
