

HI-TECH Software PIC LITE Macro Assembler V9.71a build 6446 
                                                                                               Tue Feb 03 12:34:19 2026

HI-TECH Software Omniscient Code Generator (Lite mode) build 6446
     1  0000                     opt subtitle "HI-TECH Software Omniscient Code Generator (Lite mode) build 6446"
     2                           
     3                           opt pagewidth 120
     4                           
     5                           	opt lm
     6                           
     7                           	processor	16F877A
     8                           clrc	macro
     9                           	bcf	3,0
    10  0000                     	endm
    11                           clrz	macro
    12                           	bcf	3,2
    13  0000                     	endm
    14                           setc	macro
    15                           	bsf	3,0
    16  0000                     	endm
    17                           setz	macro
    18                           	bsf	3,2
    19  0000                     	endm
    20                           skipc	macro
    21                           	btfss	3,0
    22  0000                     	endm
    23                           skipz	macro
    24                           	btfss	3,2
    25  0000                     	endm
    26                           skipnc	macro
    27                           	btfsc	3,0
    28  0000                     	endm
    29                           skipnz	macro
    30                           	btfsc	3,2
    31  0000                     	endm
    32  0000                     indf	equ	0
    33  0000                     indf0	equ	0
    34  0002                     pc	equ	2
    35  0002                     pcl	equ	2
    36  0003                     status	equ	3
    37  0004                     fsr	equ	4
    38  0004                     fsr0	equ	4
    39  0001                     c	equ	1
    40  0000                     z	equ	0
    41  000A                     pclath	equ	10
    42                           	FNCALL	_main,_lcd_init
    43                           	FNCALL	_main,_delay
    44                           	FNCALL	_main,_lcd_command
    45                           	FNCALL	_main,_lcd_display
    46                           	FNCALL	_lcd_display,_lcd_data
    47                           	FNCALL	_lcd_init,_lcd_command
    48                           	FNCALL	_lcd_data,_delay
    49                           	FNCALL	_lcd_command,_delay
    50                           	FNROOT	_main
    51                           	global	_PORTB
    52                           psect	text90,local,class=CODE,delta=2
    53                           global __ptext90
    54  0000                     __ptext90:
    55  0006                     _PORTB	set	6
    56                           	global	_PORTC
    57  0007                     _PORTC	set	7
    58                           	global	_PORTD
    59  0008                     _PORTD	set	8
    60                           	global	_RB0
    61  0030                     _RB0	set	48
    62                           	global	_RB1
    63  0031                     _RB1	set	49
    64                           	global	_RB2
    65  0032                     _RB2	set	50
    66                           	global	_RB3
    67  0033                     _RB3	set	51
    68                           	global	_RC0
    69  0038                     _RC0	set	56
    70                           	global	_RC1
    71  0039                     _RC1	set	57
    72                           	global	_RC2
    73  003A                     _RC2	set	58
    74                           	global	_TRISB
    75  0086                     _TRISB	set	134
    76                           	global	_TRISC
    77  0087                     _TRISC	set	135
    78                           	global	_TRISD
    79  0088                     _TRISD	set	136
    80                           psect	strings,class=STRING,delta=2
    81                           global __pstrings
    82  0003                     __pstrings:
    83                           ;	global	stringdir,stringtab,__stringbase
    84  0003                     stringtab:
    85                           ;	String table - string pointers are 1 byte each
    86  0003                     stringcode:stringdir:
      + 0003                     stringdir:	
    87  0003  3000               movlw high(stringdir)
    88  0004  008A               movwf pclath
    89  0005  0804               movf fsr,w
    90  0006  0A84               incf fsr
    91  0007  0782               	addwf pc
    92  0008                     __stringbase:
    93  0008  3400               	retlw	0
    94                           psect	strings
    95                           	
    96  0009                     STR_3:	
    97  0009  346C               	retlw	108	;'l'
    98  000A  3465               	retlw	101	;'e'
    99  000B  3464               	retlw	100	;'d'
   100  000C  3420               	retlw	32	;' '
   101  000D  3431               	retlw	49	;'1'
   102  000E  3420               	retlw	32	;' '
   103  000F  3469               	retlw	105	;'i'
   104  0010  3473               	retlw	115	;'s'
   105  0011  3420               	retlw	32	;' '
   106  0012  346F               	retlw	111	;'o'
   107  0013  3466               	retlw	102	;'f'
   108  0014  3466               	retlw	102	;'f'
   109  0015  3400               	retlw	0
   110                           psect	strings
   111                           	
   112  0016                     STR_2:	
   113  0016  346C               	retlw	108	;'l'
   114  0017  3465               	retlw	101	;'e'
   115  0018  3464               	retlw	100	;'d'
   116  0019  3420               	retlw	32	;' '
   117  001A  3432               	retlw	50	;'2'
   118  001B  3420               	retlw	32	;' '
   119  001C  3469               	retlw	105	;'i'
   120  001D  3473               	retlw	115	;'s'
   121  001E  3420               	retlw	32	;' '
   122  001F  346F               	retlw	111	;'o'
   123  0020  3466               	retlw	102	;'f'
   124  0021  3466               	retlw	102	;'f'
   125  0022  3400               	retlw	0
   126                           psect	strings
   127                           	
   128  0023                     STR_1:	
   129  0023  346C               	retlw	108	;'l'
   130  0024  3465               	retlw	101	;'e'
   131  0025  3464               	retlw	100	;'d'
   132  0026  3420               	retlw	32	;' '
   133  0027  3431               	retlw	49	;'1'
   134  0028  3420               	retlw	32	;' '
   135  0029  3469               	retlw	105	;'i'
   136  002A  3473               	retlw	115	;'s'
   137  002B  3420               	retlw	32	;' '
   138  002C  346F               	retlw	111	;'o'
   139  002D  346E               	retlw	110	;'n'
   140  002E  3400               	retlw	0
   141                           psect	strings
   142                           	
   143  002F                     STR_4:	
   144  002F  346C               	retlw	108	;'l'
   145  0030  3465               	retlw	101	;'e'
   146  0031  3464               	retlw	100	;'d'
   147  0032  3420               	retlw	32	;' '
   148  0033  3432               	retlw	50	;'2'
   149  0034  3420               	retlw	32	;' '
   150  0035  3469               	retlw	105	;'i'
   151  0036  3473               	retlw	115	;'s'
   152  0037  3420               	retlw	32	;' '
   153  0038  346F               	retlw	111	;'o'
   154  0039  346E               	retlw	110	;'n'
   155  003A  3400               	retlw	0
   156                           psect	strings
   157  002F                     STR_6	equ	STR_4+0
   158  0023                     STR_5	equ	STR_1+0
   159  0016                     STR_8	equ	STR_2+0
   160  0009                     STR_7	equ	STR_3+0
   161                           	file	"lcd(swt+led).as"
   162                           	line	#
   163                           psect cinit,class=CODE,delta=2
   164                           global start_initialization
   165  069E                     start_initialization:
   166                           
   167                           psect cinit,class=CODE,delta=2
   168                           global end_of_initialization
   169                           
   170                           ;End of C runtime variable initialization code
   171                           
   172  069E                     end_of_initialization:
   173  069E  0183               clrf status
   174  069F  120A  118A  2F1E   ljmp _main	;jump to C main() function
   175                           psect	cstackCOMMON,class=COMMON,space=1
   176                           global __pcstackCOMMON
   177  0070                     __pcstackCOMMON:
   178                           	global	?_delay
   179  0070                     ?_delay:	; 0 bytes @ 0x0
   180                           	global	?_lcd_command
   181  0070                     ?_lcd_command:	; 0 bytes @ 0x0
   182                           	global	?_lcd_init
   183  0070                     ?_lcd_init:	; 0 bytes @ 0x0
   184                           	global	?_lcd_data
   185  0070                     ?_lcd_data:	; 0 bytes @ 0x0
   186                           	global	?_lcd_display
   187  0070                     ?_lcd_display:	; 0 bytes @ 0x0
   188                           	global	?_main
   189  0070                     ?_main:	; 0 bytes @ 0x0
   190                           	global	delay@x
   191  0070                     delay@x:	; 2 bytes @ 0x0
   192  0070                     	ds	2
   193                           	global	??_delay
   194  0072                     ??_delay:	; 0 bytes @ 0x2
   195                           	global	??_lcd_command
   196  0072                     ??_lcd_command:	; 0 bytes @ 0x2
   197                           	global	??_lcd_data
   198  0072                     ??_lcd_data:	; 0 bytes @ 0x2
   199                           	global	lcd_command@com
   200  0072                     lcd_command@com:	; 1 bytes @ 0x2
   201                           	global	lcd_data@data
   202  0072                     lcd_data@data:	; 1 bytes @ 0x2
   203  0072                     	ds	1
   204                           	global	??_lcd_init
   205  0073                     ??_lcd_init:	; 0 bytes @ 0x3
   206                           	global	??_lcd_display
   207  0073                     ??_lcd_display:	; 0 bytes @ 0x3
   208                           	global	lcd_display@i
   209  0073                     lcd_display@i:	; 2 bytes @ 0x3
   210  0073                     	ds	2
   211                           	global	lcd_display@m
   212  0075                     lcd_display@m:	; 1 bytes @ 0x5
   213  0075                     	ds	1
   214                           	global	??_main
   215  0076                     ??_main:	; 0 bytes @ 0x6
   216 ;;Data sizes: Strings 50, constant 0, data 0, bss 0, persistent 0 stack 0
   217 ;;Auto spaces:   Size  Autos    Used
   218 ;; COMMON          14      6       6
   219 ;; BANK0           80      0       0
   220 ;; BANK1           80      0       0
   221 ;; BANK3           96      0       0
   222 ;; BANK2           96      0       0
   223                           
   224 ;;
   225 ;; Pointer list with targets:
   226                           
   227 ;; lcd_display@m	PTR unsigned char  size(1) Largest target is 13
   228 ;;		 -> STR_8(CODE[13]), STR_7(CODE[13]), STR_6(CODE[12]), STR_5(CODE[12]), 
   229 ;;		 -> STR_4(CODE[12]), STR_3(CODE[13]), STR_2(CODE[13]), STR_1(CODE[12]), 
   230 ;;
   231                           
   232                           
   233 ;;
   234 ;; Critical Paths under _main in COMMON
   235 ;;
   236 ;;   _main->_lcd_display
   237 ;;   _lcd_display->_lcd_data
   238 ;;   _lcd_init->_lcd_command
   239 ;;   _lcd_data->_delay
   240 ;;   _lcd_command->_delay
   241 ;;
   242 ;; Critical Paths under _main in BANK0
   243 ;;
   244 ;;   None.
   245 ;;
   246 ;; Critical Paths under _main in BANK1
   247 ;;
   248 ;;   None.
   249 ;;
   250 ;; Critical Paths under _main in BANK3
   251 ;;
   252 ;;   None.
   253 ;;
   254 ;; Critical Paths under _main in BANK2
   255 ;;
   256 ;;   None.
   257                           
   258 ;;
   259 ;;Main: autosize = 0, tempsize = 0, incstack = 0, save=0
   260 ;;
   261                           
   262 ;;
   263 ;;Call Graph Tables:
   264 ;;
   265 ;; ---------------------------------------------------------------------------------
   266 ;; (Depth) Function   	        Calls       Base Space   Used Autos Params    Refs
   267 ;; ---------------------------------------------------------------------------------
   268 ;; (0) _main                                                 0     0      0     165
   269 ;;                           _lcd_init
   270 ;;                              _delay
   271 ;;                        _lcd_command
   272 ;;                        _lcd_display
   273 ;; ---------------------------------------------------------------------------------
   274 ;; (1) _lcd_display                                          3     3      0      90
   275 ;;                                              3 COMMON     3     3      0
   276 ;;                           _lcd_data
   277 ;; ---------------------------------------------------------------------------------
   278 ;; (1) _lcd_init                                             0     0      0      30
   279 ;;                        _lcd_command
   280 ;; ---------------------------------------------------------------------------------
   281 ;; (2) _lcd_data                                             1     1      0      30
   282 ;;                                              2 COMMON     1     1      0
   283 ;;                              _delay
   284 ;; ---------------------------------------------------------------------------------
   285 ;; (1) _lcd_command                                          1     1      0      30
   286 ;;                                              2 COMMON     1     1      0
   287 ;;                              _delay
   288 ;; ---------------------------------------------------------------------------------
   289 ;; (3) _delay                                                2     0      2      15
   290 ;;                                              0 COMMON     2     0      2
   291 ;; ---------------------------------------------------------------------------------
   292 ;; Estimated maximum stack depth 3
   293 ;; ---------------------------------------------------------------------------------
   294                           
   295 ;; Call Graph Graphs:
   296                           
   297 ;; _main (ROOT)
   298 ;;   _lcd_init
   299 ;;     _lcd_command
   300 ;;       _delay
   301 ;;   _delay
   302 ;;   _lcd_command
   303 ;;     _delay
   304 ;;   _lcd_display
   305 ;;     _lcd_data
   306 ;;       _delay
   307 ;;
   308                           
   309 ;; Address spaces:
   310                           
   311 ;;Name               Size   Autos  Total    Cost      Usage
   312 ;;BITCOMMON            E      0       0       0        0.0%
   313 ;;EEDATA             100      0       0       0        0.0%
   314 ;;NULL                 0      0       0       0        0.0%
   315 ;;CODE                 0      0       0       0        0.0%
   316 ;;COMMON               E      6       6       1       42.9%
   317 ;;BITSFR0              0      0       0       1        0.0%
   318 ;;SFR0                 0      0       0       1        0.0%
   319 ;;BITSFR1              0      0       0       2        0.0%
   320 ;;SFR1                 0      0       0       2        0.0%
   321 ;;STACK                0      0       3       2        0.0%
   322 ;;ABS                  0      0       0       3        0.0%
   323 ;;BITBANK0            50      0       0       4        0.0%
   324 ;;BITSFR3              0      0       0       4        0.0%
   325 ;;SFR3                 0      0       0       4        0.0%
   326 ;;BANK0               50      0       0       5        0.0%
   327 ;;BITSFR2              0      0       0       5        0.0%
   328 ;;SFR2                 0      0       0       5        0.0%
   329 ;;BITBANK1            50      0       0       6        0.0%
   330 ;;BANK1               50      0       0       7        0.0%
   331 ;;BITBANK3            60      0       0       8        0.0%
   332 ;;BANK3               60      0       0       9        0.0%
   333 ;;BITBANK2            60      0       0      10        0.0%
   334 ;;BANK2               60      0       0      11        0.0%
   335 ;;DATA                 0      0       0      12        0.0%
   336                           
   337                           	global	_main
   338                           psect	maintext,global,class=CODE,delta=2
   339                           global __pmaintext
   340  071E                     __pmaintext:
   341                           
   342 ;; *************** function _main *****************
   343 ;; Defined at:
   344 ;;		line 46 in file "E:\Embedded_Program\pic task\pic task\lcd dispaly\lcd swt+led\lcd(swt+led).c"
   345 ;; Parameters:    Size  Location     Type
   346 ;;		None
   347 ;; Auto vars:     Size  Location     Type
   348 ;;		None
   349 ;; Return value:  Size  Location     Type
   350 ;;		None               void
   351 ;; Registers used:
   352 ;;		wreg, fsr0l, fsr0h, status,2, status,0, pclath, cstack
   353 ;; Tracked objects:
   354 ;;		On entry : 17F/0
   355 ;;		On exit  : 0/0
   356 ;;		Unchanged: 0/0
   357 ;; Data sizes:     COMMON   BANK0   BANK1   BANK3   BANK2
   358 ;;      Params:         0       0       0       0       0
   359 ;;      Locals:         0       0       0       0       0
   360 ;;      Temps:          0       0       0       0       0
   361 ;;      Totals:         0       0       0       0       0
   362 ;;Total ram usage:        0 bytes
   363 ;; Hardware stack levels required when called:    3
   364 ;; This function calls:
   365 ;;		_lcd_init
   366 ;;		_delay
   367 ;;		_lcd_command
   368 ;;		_lcd_display
   369 ;; This function is called by:
   370 ;;		Startup code after reset
   371 ;; This function uses a non-reentrant model
   372 ;;
   373                           psect	maintext
   374                           	file	"E:\Embedded_Program\pic task\pic task\lcd dispaly\lcd swt+led\lcd(swt+led).c"
   375                           	line	46
   376                           	global	__size_of_main
   377  00E2                     	__size_of_main	equ	__end_of_main-_main
   378                           	
   379  071E                     _main:	
   380                           	opt	stack 8
   381                           ; Regs used in _main: [wreg-fsr0h+status,2+status,0+pclath+cstack]
   382                           	line	47
   383                           	
   384  071E                     l1786:	
   385                           ;lcd(swt+led).c: 47: TRISD=0x00;
   386  071E  1683               	bsf	status, 5	;RP0=1, select bank1
   387  071F  1303               	bcf	status, 6	;RP1=0, select bank1
   388  0720  0188               	clrf	(136)^080h	;volatile
   389                           	line	48
   390                           ;lcd(swt+led).c: 48: PORTD=0x00;
   391  0721  1283               	bcf	status, 5	;RP0=0, select bank0
   392  0722  1303               	bcf	status, 6	;RP1=0, select bank0
   393  0723  0188               	clrf	(8)	;volatile
   394                           	line	50
   395                           ;lcd(swt+led).c: 50: TRISC=0x00;
   396  0724  1683               	bsf	status, 5	;RP0=1, select bank1
   397  0725  1303               	bcf	status, 6	;RP1=0, select bank1
   398  0726  0187               	clrf	(135)^080h	;volatile
   399                           	line	51
   400                           ;lcd(swt+led).c: 51: PORTC=0x00;
   401  0727  1283               	bcf	status, 5	;RP0=0, select bank0
   402  0728  1303               	bcf	status, 6	;RP1=0, select bank0
   403  0729  0187               	clrf	(7)	;volatile
   404                           	line	53
   405                           	
   406  072A                     l1788:	
   407                           ;lcd(swt+led).c: 53: TRISB=0X05;
   408  072A  3005               	movlw	(05h)
   409  072B  1683               	bsf	status, 5	;RP0=1, select bank1
   410  072C  1303               	bcf	status, 6	;RP1=0, select bank1
   411  072D  0086               	movwf	(134)^080h	;volatile
   412                           	line	54
   413                           	
   414  072E                     l1790:	
   415                           ;lcd(swt+led).c: 54: PORTB=0X00;
   416  072E  1283               	bcf	status, 5	;RP0=0, select bank0
   417  072F  1303               	bcf	status, 6	;RP1=0, select bank0
   418  0730  0186               	clrf	(6)	;volatile
   419                           	line	56
   420                           	
   421  0731                     l1792:	
   422                           ;lcd(swt+led).c: 56: lcd_init();
   423  0731  120A  118A  26DE   	fcall	_lcd_init
              120A  118A         
   424                           	line	57
   425                           	
   426  0736                     l1794:	
   427                           ;lcd(swt+led).c: 57: delay(100);
   428  0736  3064               	movlw	low(064h)
   429  0737  00F0               	movwf	(?_delay)
   430  0738  3000               	movlw	high(064h)
   431  0739  00F1               	movwf	((?_delay))+1
   432  073A  120A  118A  26A2   	fcall	_delay
              120A  118A         
   433                           	line	59
   434                           ;lcd(swt+led).c: 59: while(1)
   435                           	
   436  073F                     l580:	
   437                           	line	61
   438                           	
   439  073F                     l1796:	
   440                           ;lcd(swt+led).c: 60: {
   441                           ;lcd(swt+led).c: 61: if(RB0==1)
   442  073F  1283               	bcf	status, 5	;RP0=0, select bank0
   443  0740  1303               	bcf	status, 6	;RP1=0, select bank0
   444  0741  1C06               	btfss	(48/8),(48)&7
   445  0742  2F44               	goto	u2161
   446  0743  2F45               	goto	u2160
   447  0744                     u2161:
   448  0744  2F6E               	goto	l581
   449  0745                     u2160:
   450                           	line	63
   451                           	
   452  0745                     l1798:	
   453                           ;lcd(swt+led).c: 62: {
   454                           ;lcd(swt+led).c: 63: RB1=1;
   455  0745  1486               	bsf	(49/8),(49)&7
   456                           	line	64
   457                           	
   458  0746                     l1800:	
   459                           ;lcd(swt+led).c: 64: lcd_command(0X01);
   460  0746  3001               	movlw	(01h)
   461  0747  120A  118A  26B4   	fcall	_lcd_command
              120A  118A         
   462                           	line	65
   463                           ;lcd(swt+led).c: 65: lcd_command(0X80);
   464  074C  3080               	movlw	(080h)
   465  074D  120A  118A  26B4   	fcall	_lcd_command
              120A  118A         
   466                           	line	66
   467                           	
   468  0752                     l1802:	
   469                           ;lcd(swt+led).c: 66: lcd_display("led 1 is on");
   470  0752  301B               	movlw	((STR_1-__stringbase))&0ffh
   471  0753  120A  118A  26F7   	fcall	_lcd_display
              120A  118A         
   472                           	line	67
   473                           	
   474  0758                     l1804:	
   475                           ;lcd(swt+led).c: 67: lcd_command(0XC0);
   476  0758  30C0               	movlw	(0C0h)
   477  0759  120A  118A  26B4   	fcall	_lcd_command
              120A  118A         
   478                           	line	68
   479                           ;lcd(swt+led).c: 68: lcd_display("led 2 is off");
   480  075E  300E               	movlw	((STR_2-__stringbase))&0ffh
   481  075F  120A  118A  26F7   	fcall	_lcd_display
              120A  118A         
   482                           	line	69
   483                           	
   484  0764                     l1806:	
   485                           ;lcd(swt+led).c: 69: delay(50000);
   486  0764  3050               	movlw	low(0C350h)
   487  0765  00F0               	movwf	(?_delay)
   488  0766  30C3               	movlw	high(0C350h)
   489  0767  00F1               	movwf	((?_delay))+1
   490  0768  120A  118A  26A2   	fcall	_delay
              120A  118A         
   491                           	line	70
   492                           ;lcd(swt+led).c: 70: }
   493  076D  2FFC               	goto	l582
   494                           	line	72
   495                           	
   496  076E                     l581:	
   497                           ;lcd(swt+led).c: 72: else if(RB2==1)
   498  076E  1283               	bcf	status, 5	;RP0=0, select bank0
   499  076F  1303               	bcf	status, 6	;RP1=0, select bank0
   500  0770  1D06               	btfss	(50/8),(50)&7
   501  0771  2F73               	goto	u2171
   502  0772  2F74               	goto	u2170
   503  0773                     u2171:
   504  0773  2F9D               	goto	l583
   505  0774                     u2170:
   506                           	line	74
   507                           	
   508  0774                     l1808:	
   509                           ;lcd(swt+led).c: 73: {
   510                           ;lcd(swt+led).c: 74: RB3=1;
   511  0774  1586               	bsf	(51/8),(51)&7
   512                           	line	75
   513                           	
   514  0775                     l1810:	
   515                           ;lcd(swt+led).c: 75: lcd_command(0X01);
   516  0775  3001               	movlw	(01h)
   517  0776  120A  118A  26B4   	fcall	_lcd_command
              120A  118A         
   518                           	line	76
   519                           ;lcd(swt+led).c: 76: lcd_command(0X80);
   520  077B  3080               	movlw	(080h)
   521  077C  120A  118A  26B4   	fcall	_lcd_command
              120A  118A         
   522                           	line	77
   523                           	
   524  0781                     l1812:	
   525                           ;lcd(swt+led).c: 77: lcd_display("led 1 is off");
   526  0781  3001               	movlw	((STR_3-__stringbase))&0ffh
   527  0782  120A  118A  26F7   	fcall	_lcd_display
              120A  118A         
   528                           	line	78
   529                           	
   530  0787                     l1814:	
   531                           ;lcd(swt+led).c: 78: lcd_command(0XC0);
   532  0787  30C0               	movlw	(0C0h)
   533  0788  120A  118A  26B4   	fcall	_lcd_command
              120A  118A         
   534                           	line	79
   535                           ;lcd(swt+led).c: 79: lcd_display("led 2 is on");
   536  078D  3027               	movlw	((STR_4-__stringbase))&0ffh
   537  078E  120A  118A  26F7   	fcall	_lcd_display
              120A  118A         
   538                           	line	80
   539                           	
   540  0793                     l1816:	
   541                           ;lcd(swt+led).c: 80: delay(50000);
   542  0793  3050               	movlw	low(0C350h)
   543  0794  00F0               	movwf	(?_delay)
   544  0795  30C3               	movlw	high(0C350h)
   545  0796  00F1               	movwf	((?_delay))+1
   546  0797  120A  118A  26A2   	fcall	_delay
              120A  118A         
   547                           	line	81
   548                           ;lcd(swt+led).c: 81: }
   549  079C  2FFC               	goto	l584
   550                           	line	83
   551                           	
   552  079D                     l583:	
   553                           ;lcd(swt+led).c: 83: else if((RB0==1)&&(RB2==1))
   554  079D  1283               	bcf	status, 5	;RP0=0, select bank0
   555  079E  1303               	bcf	status, 6	;RP1=0, select bank0
   556  079F  1C06               	btfss	(48/8),(48)&7
   557  07A0  2FA2               	goto	u2181
   558  07A1  2FA3               	goto	u2180
   559  07A2                     u2181:
   560  07A2  2FD1               	goto	l585
   561  07A3                     u2180:
   562                           	
   563  07A3                     l1818:	
   564  07A3  1D06               	btfss	(50/8),(50)&7
   565  07A4  2FA6               	goto	u2191
   566  07A5  2FA7               	goto	u2190
   567  07A6                     u2191:
   568  07A6  2FD1               	goto	l585
   569  07A7                     u2190:
   570                           	line	85
   571                           	
   572  07A7                     l1820:	
   573                           ;lcd(swt+led).c: 84: {
   574                           ;lcd(swt+led).c: 85: RB1=1;
   575  07A7  1486               	bsf	(49/8),(49)&7
   576                           	line	86
   577                           ;lcd(swt+led).c: 86: RB3=1;
   578  07A8  1586               	bsf	(51/8),(51)&7
   579                           	line	87
   580                           	
   581  07A9                     l1822:	
   582                           ;lcd(swt+led).c: 87: lcd_command(0X01);
   583  07A9  3001               	movlw	(01h)
   584  07AA  120A  118A  26B4   	fcall	_lcd_command
              120A  118A         
   585                           	line	88
   586                           ;lcd(swt+led).c: 88: lcd_command(0X80);
   587  07AF  3080               	movlw	(080h)
   588  07B0  120A  118A  26B4   	fcall	_lcd_command
              120A  118A         
   589                           	line	89
   590                           	
   591  07B5                     l1824:	
   592                           ;lcd(swt+led).c: 89: lcd_display("led 1 is on");
   593  07B5  301B               	movlw	((STR_5-__stringbase))&0ffh
   594  07B6  120A  118A  26F7   	fcall	_lcd_display
              120A  118A         
   595                           	line	90
   596                           	
   597  07BB                     l1826:	
   598                           ;lcd(swt+led).c: 90: lcd_command(0XC0);
   599  07BB  30C0               	movlw	(0C0h)
   600  07BC  120A  118A  26B4   	fcall	_lcd_command
              120A  118A         
   601                           	line	91
   602                           ;lcd(swt+led).c: 91: lcd_display("led 2 is on");
   603  07C1  3027               	movlw	((STR_6-__stringbase))&0ffh
   604  07C2  120A  118A  26F7   	fcall	_lcd_display
              120A  118A         
   605                           	line	92
   606                           	
   607  07C7                     l1828:	
   608                           ;lcd(swt+led).c: 92: delay(50000);
   609  07C7  3050               	movlw	low(0C350h)
   610  07C8  00F0               	movwf	(?_delay)
   611  07C9  30C3               	movlw	high(0C350h)
   612  07CA  00F1               	movwf	((?_delay))+1
   613  07CB  120A  118A  26A2   	fcall	_delay
              120A  118A         
   614                           	line	93
   615                           ;lcd(swt+led).c: 93: }
   616  07D0  2FFC               	goto	l586
   617                           	line	94
   618                           	
   619  07D1                     l585:	
   620                           	line	96
   621                           ;lcd(swt+led).c: 94: else
   622                           ;lcd(swt+led).c: 95: {
   623                           ;lcd(swt+led).c: 96: RB1=0;
   624  07D1  1283               	bcf	status, 5	;RP0=0, select bank0
   625  07D2  1303               	bcf	status, 6	;RP1=0, select bank0
   626  07D3  1086               	bcf	(49/8),(49)&7
   627                           	line	97
   628                           ;lcd(swt+led).c: 97: RB3=0;
   629  07D4  1186               	bcf	(51/8),(51)&7
   630                           	line	98
   631                           	
   632  07D5                     l1830:	
   633                           ;lcd(swt+led).c: 98: lcd_command(0X01);
   634  07D5  3001               	movlw	(01h)
   635  07D6  120A  118A  26B4   	fcall	_lcd_command
              120A  118A         
   636                           	line	99
   637                           ;lcd(swt+led).c: 99: lcd_command(0X80);
   638  07DB  3080               	movlw	(080h)
   639  07DC  120A  118A  26B4   	fcall	_lcd_command
              120A  118A         
   640                           	line	100
   641                           	
   642  07E1                     l1832:	
   643                           ;lcd(swt+led).c: 100: lcd_display("led 1 is off");
   644  07E1  3001               	movlw	((STR_7-__stringbase))&0ffh
   645  07E2  120A  118A  26F7   	fcall	_lcd_display
              120A  118A         
   646                           	line	101
   647                           	
   648  07E7                     l1834:	
   649                           ;lcd(swt+led).c: 101: lcd_command(0XC0);
   650  07E7  30C0               	movlw	(0C0h)
   651  07E8  120A  118A  26B4   	fcall	_lcd_command
              120A  118A         
   652                           	line	102
   653                           ;lcd(swt+led).c: 102: lcd_display("led 2 is off");
   654  07ED  300E               	movlw	((STR_8-__stringbase))&0ffh
   655  07EE  120A  118A  26F7   	fcall	_lcd_display
              120A  118A         
   656                           	line	103
   657                           	
   658  07F3                     l1836:	
   659                           ;lcd(swt+led).c: 103: delay(50000);
   660  07F3  3050               	movlw	low(0C350h)
   661  07F4  00F0               	movwf	(?_delay)
   662  07F5  30C3               	movlw	high(0C350h)
   663  07F6  00F1               	movwf	((?_delay))+1
   664  07F7  120A  118A  26A2   	fcall	_delay
              120A  118A         
   665                           	line	104
   666                           	
   667  07FC                     l586:	
   668                           	
   669  07FC                     l584:	
   670                           	
   671  07FC                     l582:	
   672                           	line	105
   673                           	
   674  07FC                     l587:	
   675                           	line	59
   676  07FC  2F3F               	goto	l580
   677                           	
   678  07FD                     l588:	
   679                           	line	106
   680                           	
   681  07FD                     l589:	
   682                           	global	start
   683  07FD  120A  118A  2800   	ljmp	start
   684                           	opt stack 0
   685                           GLOBAL	__end_of_main
   686  0800                     	__end_of_main:
   687 ;; =============== function _main ends ============
   688                           
   689                           	signat	_main,88
   690                           	global	_lcd_display
   691                           psect	text91,local,class=CODE,delta=2
   692                           global __ptext91
   693  06F7                     __ptext91:
   694                           
   695 ;; *************** function _lcd_display *****************
   696 ;; Defined at:
   697 ;;		line 39 in file "E:\Embedded_Program\pic task\pic task\lcd dispaly\lcd swt+led\lcd(swt+led).c"
   698 ;; Parameters:    Size  Location     Type
   699 ;;  m               1    wreg     PTR unsigned char 
   700 ;;		 -> STR_8(13), STR_7(13), STR_6(12), STR_5(12), 
   701 ;;		 -> STR_4(12), STR_3(13), STR_2(13), STR_1(12), 
   702 ;; Auto vars:     Size  Location     Type
   703 ;;  m               1    5[COMMON] PTR unsigned char 
   704 ;;		 -> STR_8(13), STR_7(13), STR_6(12), STR_5(12), 
   705 ;;		 -> STR_4(12), STR_3(13), STR_2(13), STR_1(12), 
   706 ;;  i               2    3[COMMON] int 
   707 ;; Return value:  Size  Location     Type
   708 ;;		None               void
   709 ;; Registers used:
   710 ;;		wreg, fsr0l, fsr0h, status,2, status,0, pclath, cstack
   711 ;; Tracked objects:
   712 ;;		On entry : 0/0
   713 ;;		On exit  : 0/0
   714 ;;		Unchanged: 0/0
   715 ;; Data sizes:     COMMON   BANK0   BANK1   BANK3   BANK2
   716 ;;      Params:         0       0       0       0       0
   717 ;;      Locals:         3       0       0       0       0
   718 ;;      Temps:          0       0       0       0       0
   719 ;;      Totals:         3       0       0       0       0
   720 ;;Total ram usage:        3 bytes
   721 ;; Hardware stack levels used:    1
   722 ;; Hardware stack levels required when called:    2
   723 ;; This function calls:
   724 ;;		_lcd_data
   725 ;; This function is called by:
   726 ;;		_main
   727 ;; This function uses a non-reentrant model
   728 ;;
   729                           psect	text91
   730                           	file	"E:\Embedded_Program\pic task\pic task\lcd dispaly\lcd swt+led\lcd(swt+led).c"
   731                           	line	39
   732                           	global	__size_of_lcd_display
   733  0027                     	__size_of_lcd_display	equ	__end_of_lcd_display-_lcd_display
   734                           	
   735  06F7                     _lcd_display:	
   736                           	opt	stack 7
   737                           ; Regs used in _lcd_display: [wreg-fsr0h+status,2+status,0+pclath+cstack]
   738                           ;lcd_display@m stored from wreg
   739  06F7  00F5               	movwf	(lcd_display@m)
   740                           	line	40
   741                           	
   742  06F8                     l1778:	
   743                           ;lcd(swt+led).c: 40: for(int i=0;m[i]!=0;i++)
   744  06F8  3000               	movlw	low(0)
   745  06F9  00F3               	movwf	(lcd_display@i)
   746  06FA  3000               	movlw	high(0)
   747  06FB  00F4               	movwf	((lcd_display@i))+1
   748  06FC  2F10               	goto	l574
   749                           	line	41
   750                           	
   751  06FD                     l575:	
   752                           	line	42
   753                           	
   754  06FD                     l1780:	
   755                           ;lcd(swt+led).c: 41: {
   756                           ;lcd(swt+led).c: 42: lcd_data(m[i]);
   757  06FD  0873               	movf	(lcd_display@i),w
   758  06FE  0775               	addwf	(lcd_display@m),w
   759  06FF  0084               	movwf	fsr0
   760  0700  120A  118A  2003   	fcall	stringdir
              120A  118A         
   761  0705  120A  118A  26C9   	fcall	_lcd_data
              120A  118A         
   762                           	line	40
   763                           	
   764  070A                     l1782:	
   765  070A  3001               	movlw	low(01h)
   766  070B  07F3               	addwf	(lcd_display@i),f
   767  070C  1803               	skipnc
   768  070D  0AF4               	incf	(lcd_display@i+1),f
   769  070E  3000               	movlw	high(01h)
   770  070F  07F4               	addwf	(lcd_display@i+1),f
   771                           	
   772  0710                     l574:	
   773                           	
   774  0710                     l1784:	
   775  0710  0873               	movf	(lcd_display@i),w
   776  0711  0775               	addwf	(lcd_display@m),w
   777  0712  0084               	movwf	fsr0
   778  0713  120A  118A  2003   	fcall	stringdir
              120A  118A         
   779  0718  3800               	iorlw	0
   780  0719  1D03               	skipz
   781  071A  2F1C               	goto	u2151
   782  071B  2F1D               	goto	u2150
   783  071C                     u2151:
   784  071C  2EFD               	goto	l575
   785  071D                     u2150:
   786                           	
   787  071D                     l576:	
   788                           	line	44
   789                           	
   790  071D                     l577:	
   791  071D  0008               	return
   792                           	opt stack 0
   793                           GLOBAL	__end_of_lcd_display
   794  071E                     	__end_of_lcd_display:
   795 ;; =============== function _lcd_display ends ============
   796                           
   797                           	signat	_lcd_display,4216
   798                           	global	_lcd_init
   799                           psect	text92,local,class=CODE,delta=2
   800                           global __ptext92
   801  06DE                     __ptext92:
   802                           
   803 ;; *************** function _lcd_init *****************
   804 ;; Defined at:
   805 ;;		line 23 in file "E:\Embedded_Program\pic task\pic task\lcd dispaly\lcd swt+led\lcd(swt+led).c"
   806 ;; Parameters:    Size  Location     Type
   807 ;;		None
   808 ;; Auto vars:     Size  Location     Type
   809 ;;		None
   810 ;; Return value:  Size  Location     Type
   811 ;;		None               void
   812 ;; Registers used:
   813 ;;		wreg, status,2, status,0, pclath, cstack
   814 ;; Tracked objects:
   815 ;;		On entry : 0/0
   816 ;;		On exit  : 0/0
   817 ;;		Unchanged: 0/0
   818 ;; Data sizes:     COMMON   BANK0   BANK1   BANK3   BANK2
   819 ;;      Params:         0       0       0       0       0
   820 ;;      Locals:         0       0       0       0       0
   821 ;;      Temps:          0       0       0       0       0
   822 ;;      Totals:         0       0       0       0       0
   823 ;;Total ram usage:        0 bytes
   824 ;; Hardware stack levels used:    1
   825 ;; Hardware stack levels required when called:    2
   826 ;; This function calls:
   827 ;;		_lcd_command
   828 ;; This function is called by:
   829 ;;		_main
   830 ;; This function uses a non-reentrant model
   831 ;;
   832                           psect	text92
   833                           	file	"E:\Embedded_Program\pic task\pic task\lcd dispaly\lcd swt+led\lcd(swt+led).c"
   834                           	line	23
   835                           	global	__size_of_lcd_init
   836  0019                     	__size_of_lcd_init	equ	__end_of_lcd_init-_lcd_init
   837                           	
   838  06DE                     _lcd_init:	
   839                           	opt	stack 7
   840                           ; Regs used in _lcd_init: [wreg+status,2+status,0+pclath+cstack]
   841                           	line	24
   842                           	
   843  06DE                     l1776:	
   844                           ;lcd(swt+led).c: 24: lcd_command(0x38);
   845  06DE  3038               	movlw	(038h)
   846  06DF  120A  118A  26B4   	fcall	_lcd_command
              120A  118A         
   847                           	line	25
   848                           ;lcd(swt+led).c: 25: lcd_command(0x06);
   849  06E4  3006               	movlw	(06h)
   850  06E5  120A  118A  26B4   	fcall	_lcd_command
              120A  118A         
   851                           	line	26
   852                           ;lcd(swt+led).c: 26: lcd_command(0x0c);
   853  06EA  300C               	movlw	(0Ch)
   854  06EB  120A  118A  26B4   	fcall	_lcd_command
              120A  118A         
   855                           	line	27
   856                           ;lcd(swt+led).c: 27: lcd_command(0x01);
   857  06F0  3001               	movlw	(01h)
   858  06F1  120A  118A  26B4   	fcall	_lcd_command
              120A  118A         
   859                           	line	28
   860                           	
   861  06F6                     l568:	
   862  06F6  0008               	return
   863                           	opt stack 0
   864                           GLOBAL	__end_of_lcd_init
   865  06F7                     	__end_of_lcd_init:
   866 ;; =============== function _lcd_init ends ============
   867                           
   868                           	signat	_lcd_init,88
   869                           	global	_lcd_data
   870                           psect	text93,local,class=CODE,delta=2
   871                           global __ptext93
   872  06C9                     __ptext93:
   873                           
   874 ;; *************** function _lcd_data *****************
   875 ;; Defined at:
   876 ;;		line 30 in file "E:\Embedded_Program\pic task\pic task\lcd dispaly\lcd swt+led\lcd(swt+led).c"
   877 ;; Parameters:    Size  Location     Type
   878 ;;  data            1    wreg     unsigned char 
   879 ;; Auto vars:     Size  Location     Type
   880 ;;  data            1    2[COMMON] unsigned char 
   881 ;; Return value:  Size  Location     Type
   882 ;;		None               void
   883 ;; Registers used:
   884 ;;		wreg, status,2, status,0, pclath, cstack
   885 ;; Tracked objects:
   886 ;;		On entry : 0/0
   887 ;;		On exit  : 0/0
   888 ;;		Unchanged: 0/0
   889 ;; Data sizes:     COMMON   BANK0   BANK1   BANK3   BANK2
   890 ;;      Params:         0       0       0       0       0
   891 ;;      Locals:         1       0       0       0       0
   892 ;;      Temps:          0       0       0       0       0
   893 ;;      Totals:         1       0       0       0       0
   894 ;;Total ram usage:        1 bytes
   895 ;; Hardware stack levels used:    1
   896 ;; Hardware stack levels required when called:    1
   897 ;; This function calls:
   898 ;;		_delay
   899 ;; This function is called by:
   900 ;;		_lcd_display
   901 ;; This function uses a non-reentrant model
   902 ;;
   903                           psect	text93
   904                           	file	"E:\Embedded_Program\pic task\pic task\lcd dispaly\lcd swt+led\lcd(swt+led).c"
   905                           	line	30
   906                           	global	__size_of_lcd_data
   907  0015                     	__size_of_lcd_data	equ	__end_of_lcd_data-_lcd_data
   908                           	
   909  06C9                     _lcd_data:	
   910                           	opt	stack 6
   911                           ; Regs used in _lcd_data: [wreg+status,2+status,0+pclath+cstack]
   912                           ;lcd_data@data stored from wreg
   913  06C9  00F2               	movwf	(lcd_data@data)
   914                           	line	31
   915                           	
   916  06CA                     l1764:	
   917                           ;lcd(swt+led).c: 31: PORTD=data;
   918  06CA  0872               	movf	(lcd_data@data),w
   919  06CB  1283               	bcf	status, 5	;RP0=0, select bank0
   920  06CC  1303               	bcf	status, 6	;RP1=0, select bank0
   921  06CD  0088               	movwf	(8)	;volatile
   922                           	line	32
   923                           	
   924  06CE                     l1766:	
   925                           ;lcd(swt+led).c: 32: RC0=1;
   926  06CE  1407               	bsf	(56/8),(56)&7
   927                           	line	33
   928                           	
   929  06CF                     l1768:	
   930                           ;lcd(swt+led).c: 33: RC1=0;
   931  06CF  1087               	bcf	(57/8),(57)&7
   932                           	line	34
   933                           	
   934  06D0                     l1770:	
   935                           ;lcd(swt+led).c: 34: RC2=1;
   936  06D0  1507               	bsf	(58/8),(58)&7
   937                           	line	35
   938                           	
   939  06D1                     l1772:	
   940                           ;lcd(swt+led).c: 35: delay(100);
   941  06D1  3064               	movlw	low(064h)
   942  06D2  00F0               	movwf	(?_delay)
   943  06D3  3000               	movlw	high(064h)
   944  06D4  00F1               	movwf	((?_delay))+1
   945  06D5  120A  118A  26A2   	fcall	_delay
              120A  118A         
   946                           	line	36
   947                           	
   948  06DA                     l1774:	
   949                           ;lcd(swt+led).c: 36: RC2=0;
   950  06DA  1283               	bcf	status, 5	;RP0=0, select bank0
   951  06DB  1303               	bcf	status, 6	;RP1=0, select bank0
   952  06DC  1107               	bcf	(58/8),(58)&7
   953                           	line	37
   954                           	
   955  06DD                     l571:	
   956  06DD  0008               	return
   957                           	opt stack 0
   958                           GLOBAL	__end_of_lcd_data
   959  06DE                     	__end_of_lcd_data:
   960 ;; =============== function _lcd_data ends ============
   961                           
   962                           	signat	_lcd_data,4216
   963                           	global	_lcd_command
   964                           psect	text94,local,class=CODE,delta=2
   965                           global __ptext94
   966  06B4                     __ptext94:
   967                           
   968 ;; *************** function _lcd_command *****************
   969 ;; Defined at:
   970 ;;		line 14 in file "E:\Embedded_Program\pic task\pic task\lcd dispaly\lcd swt+led\lcd(swt+led).c"
   971 ;; Parameters:    Size  Location     Type
   972 ;;  com             1    wreg     unsigned char 
   973 ;; Auto vars:     Size  Location     Type
   974 ;;  com             1    2[COMMON] unsigned char 
   975 ;; Return value:  Size  Location     Type
   976 ;;		None               void
   977 ;; Registers used:
   978 ;;		wreg, status,2, status,0, pclath, cstack
   979 ;; Tracked objects:
   980 ;;		On entry : 0/0
   981 ;;		On exit  : 0/0
   982 ;;		Unchanged: 0/0
   983 ;; Data sizes:     COMMON   BANK0   BANK1   BANK3   BANK2
   984 ;;      Params:         0       0       0       0       0
   985 ;;      Locals:         1       0       0       0       0
   986 ;;      Temps:          0       0       0       0       0
   987 ;;      Totals:         1       0       0       0       0
   988 ;;Total ram usage:        1 bytes
   989 ;; Hardware stack levels used:    1
   990 ;; Hardware stack levels required when called:    1
   991 ;; This function calls:
   992 ;;		_delay
   993 ;; This function is called by:
   994 ;;		_lcd_init
   995 ;;		_main
   996 ;; This function uses a non-reentrant model
   997 ;;
   998                           psect	text94
   999                           	file	"E:\Embedded_Program\pic task\pic task\lcd dispaly\lcd swt+led\lcd(swt+led).c"
  1000                           	line	14
  1001                           	global	__size_of_lcd_command
  1002  0015                     	__size_of_lcd_command	equ	__end_of_lcd_command-_lcd_command
  1003                           	
  1004  06B4                     _lcd_command:	
  1005                           	opt	stack 7
  1006                           ; Regs used in _lcd_command: [wreg+status,2+status,0+pclath+cstack]
  1007                           ;lcd_command@com stored from wreg
  1008  06B4  00F2               	movwf	(lcd_command@com)
  1009                           	line	15
  1010                           	
  1011  06B5                     l1752:	
  1012                           ;lcd(swt+led).c: 15: PORTD=com;
  1013  06B5  0872               	movf	(lcd_command@com),w
  1014  06B6  1283               	bcf	status, 5	;RP0=0, select bank0
  1015  06B7  1303               	bcf	status, 6	;RP1=0, select bank0
  1016  06B8  0088               	movwf	(8)	;volatile
  1017                           	line	16
  1018                           	
  1019  06B9                     l1754:	
  1020                           ;lcd(swt+led).c: 16: RC0=0;
  1021  06B9  1007               	bcf	(56/8),(56)&7
  1022                           	line	17
  1023                           	
  1024  06BA                     l1756:	
  1025                           ;lcd(swt+led).c: 17: RC1=0;
  1026  06BA  1087               	bcf	(57/8),(57)&7
  1027                           	line	18
  1028                           	
  1029  06BB                     l1758:	
  1030                           ;lcd(swt+led).c: 18: RC2=1;
  1031  06BB  1507               	bsf	(58/8),(58)&7
  1032                           	line	19
  1033                           	
  1034  06BC                     l1760:	
  1035                           ;lcd(swt+led).c: 19: delay(100);
  1036  06BC  3064               	movlw	low(064h)
  1037  06BD  00F0               	movwf	(?_delay)
  1038  06BE  3000               	movlw	high(064h)
  1039  06BF  00F1               	movwf	((?_delay))+1
  1040  06C0  120A  118A  26A2   	fcall	_delay
              120A  118A         
  1041                           	line	20
  1042                           	
  1043  06C5                     l1762:	
  1044                           ;lcd(swt+led).c: 20: RC2=0;
  1045  06C5  1283               	bcf	status, 5	;RP0=0, select bank0
  1046  06C6  1303               	bcf	status, 6	;RP1=0, select bank0
  1047  06C7  1107               	bcf	(58/8),(58)&7
  1048                           	line	21
  1049                           	
  1050  06C8                     l565:	
  1051  06C8  0008               	return
  1052                           	opt stack 0
  1053                           GLOBAL	__end_of_lcd_command
  1054  06C9                     	__end_of_lcd_command:
  1055 ;; =============== function _lcd_command ends ============
  1056                           
  1057                           	signat	_lcd_command,4216
  1058                           	global	_delay
  1059                           psect	text95,local,class=CODE,delta=2
  1060                           global __ptext95
  1061  06A2                     __ptext95:
  1062                           
  1063 ;; *************** function _delay *****************
  1064 ;; Defined at:
  1065 ;;		line 10 in file "E:\Embedded_Program\pic task\pic task\lcd dispaly\lcd swt+led\lcd(swt+led).c"
  1066 ;; Parameters:    Size  Location     Type
  1067 ;;  x               2    0[COMMON] unsigned int 
  1068 ;; Auto vars:     Size  Location     Type
  1069 ;;		None
  1070 ;; Return value:  Size  Location     Type
  1071 ;;		None               void
  1072 ;; Registers used:
  1073 ;;		wreg
  1074 ;; Tracked objects:
  1075 ;;		On entry : 0/0
  1076 ;;		On exit  : 0/0
  1077 ;;		Unchanged: 0/0
  1078 ;; Data sizes:     COMMON   BANK0   BANK1   BANK3   BANK2
  1079 ;;      Params:         2       0       0       0       0
  1080 ;;      Locals:         0       0       0       0       0
  1081 ;;      Temps:          0       0       0       0       0
  1082 ;;      Totals:         2       0       0       0       0
  1083 ;;Total ram usage:        2 bytes
  1084 ;; Hardware stack levels used:    1
  1085 ;; This function calls:
  1086 ;;		Nothing
  1087 ;; This function is called by:
  1088 ;;		_lcd_command
  1089 ;;		_lcd_data
  1090 ;;		_main
  1091 ;; This function uses a non-reentrant model
  1092 ;;
  1093                           psect	text95
  1094                           	file	"E:\Embedded_Program\pic task\pic task\lcd dispaly\lcd swt+led\lcd(swt+led).c"
  1095                           	line	10
  1096                           	global	__size_of_delay
  1097  0012                     	__size_of_delay	equ	__end_of_delay-_delay
  1098                           	
  1099  06A2                     _delay:	
  1100                           	opt	stack 5
  1101                           ; Regs used in _delay: [wreg]
  1102                           	line	11
  1103                           	
  1104  06A2                     l962:	
  1105                           ;lcd(swt+led).c: 11: while(x--);
  1106  06A2  2EA3               	goto	l559
  1107                           	
  1108  06A3                     l560:	
  1109                           	
  1110  06A3                     l559:	
  1111                           	
  1112  06A3                     l964:	
  1113  06A3  3001               	movlw	low(01h)
  1114  06A4  02F0               	subwf	(delay@x),f
  1115  06A5  3000               	movlw	high(01h)
  1116  06A6  1C03               	skipc
  1117  06A7  03F1               	decf	(delay@x+1),f
  1118  06A8  02F1               	subwf	(delay@x+1),f
  1119  06A9  30FF               	movlw	high(0FFFFh)
  1120  06AA  0671               	xorwf	((delay@x+1)),w
  1121  06AB  1D03               	skipz
  1122  06AC  2EAF               	goto	u15
  1123  06AD  30FF               	movlw	low(0FFFFh)
  1124  06AE  0670               	xorwf	((delay@x)),w
  1125  06AF                     u15:
  1126                           
  1127  06AF  1D03               	skipz
  1128  06B0  2EB2               	goto	u11
  1129  06B1  2EB3               	goto	u10
  1130  06B2                     u11:
  1131  06B2  2EA3               	goto	l560
  1132  06B3                     u10:
  1133                           	
  1134  06B3                     l561:	
  1135                           	line	12
  1136                           	
  1137  06B3                     l562:	
  1138  06B3  0008               	return
  1139                           	opt stack 0
  1140                           GLOBAL	__end_of_delay
  1141  06B4                     	__end_of_delay:
  1142 ;; =============== function _delay ends ============
  1143                           
  1144                           	signat	_delay,4216
  1145                           psect	text96,local,class=CODE,delta=2
  1146                           global __ptext96
  1147  0000                     __ptext96:
  1148                           	global	btemp
  1149  007E                     	btemp set 07Eh
  1150                           
  1151                           	DABS	1,126,2	;btemp
  1152                           	global	wtemp0
  1153  007E                     	wtemp0 set btemp


HI-TECH Software PICC Macro Assembler V9.71a build 6446 
Symbol Table                                                                                   Tue Feb 03 12:34:19 2026

                   pc 0002          lcd_data@data 0072                    u10 06B3                    u11 06B2  
                  u15 06AF                    fsr 0004                   l560 06A3                   l561 06B3  
                 l562 06B3                   l571 06DD                   l580 073F                   l565 06C8  
                 l581 076E                   l574 0710                   l582 07FC                   l559 06A3  
                 l575 06FD                   l583 079D                   l568 06F6                   l576 071D  
                 l584 07FC                   l577 071D                   l585 07D1                   l586 07FC  
                 l587 07FC                   l588 07FD                   l589 07FD                   l962 06A2  
                 l964 06A3                   _RB0 0030                   _RB1 0031                   _RC0 0038  
                 _RB2 0032                   _RC1 0039                   _RB3 0033                   _RC2 003A  
                 fsr0 0004          lcd_display@i 0073          lcd_display@m 0075                  l1800 0746  
                l1810 0775                  l1802 0752                  l1820 07A7                  l1812 0781  
                l1804 0758                  l1830 07D5                  l1822 07A9                  l1814 0787  
                l1806 0764                  l1760 06BC                  l1752 06B5                  l1832 07E1  
                l1824 07B5                  l1816 0793                  l1808 0774                  l1762 06C5  
                l1754 06B9                  l1770 06D0                  l1834 07E7                  l1826 07BB  
                l1818 07A3                  l1756 06BA                  l1772 06D1                  l1764 06CA  
                l1780 06FD                  l1836 07F3                  l1828 07C7                  l1758 06BB  
                l1774 06DA                  l1766 06CE                  l1782 070A                  l1790 072E  
                l1768 06CF                  l1776 06DE                  l1784 0710                  l1792 0731  
                l1778 06F8                  l1794 0736                  l1786 071E                  l1796 073F  
                l1788 072A                  l1798 0745                  STR_1 0023                  STR_2 0016  
                STR_3 0009                  STR_4 002F                  STR_5 0023                  STR_6 002F  
                STR_7 0009                  STR_8 0016                  u2150 071D                  u2151 071C  
                u2160 0745                  u2161 0744                  u2170 0774                  u2171 0773  
                u2180 07A3                  u2181 07A2                  u2190 07A7                  u2191 07A6  
                _main 071E                  btemp 007E                  start 0000                 ?_main 0070  
               _PORTB 0006                 _PORTC 0007                 _PORTD 0008                 _TRISB 0086  
               _TRISC 0087                 _TRISD 0088                 _delay 06A2                 pclath 000A  
               status 0003                 wtemp0 007E          __end_of_main 0800                ??_main 0076  
      lcd_command@com 0072                ?_delay 0070      __end_of_lcd_data 06DE      __end_of_lcd_init 06F7  
__size_of_lcd_command 0015  __size_of_lcd_display 0027                delay@x 0070        __pcstackCOMMON 0070  
       __end_of_delay 06B4               ??_delay 0072            __pmaintext 071E             ?_lcd_data 0070  
           ?_lcd_init 0070            ??_lcd_data 0072            ??_lcd_init 0073  end_of_initialization 069E  
       ??_lcd_command 0072         ??_lcd_display 0073   start_initialization 069E   __end_of_lcd_command 06C9  
 __end_of_lcd_display 071E     __size_of_lcd_data 0015     __size_of_lcd_init 0019             __pstrings 0003  
      __size_of_delay 0012           _lcd_command 06B4           _lcd_display 06F7           __stringbase 0008  
            __ptext90 0000              __ptext91 06F7              __ptext92 06DE              __ptext93 06C9  
            __ptext94 06B4              __ptext95 06A2              __ptext96 0000              _lcd_data 06C9  
            _lcd_init 06DE         __size_of_main 00E2             stringcode 0003              stringdir 0003  
            stringtab 0003          ?_lcd_command 0070          ?_lcd_display 0070  
