

HI-TECH Software PIC LITE Macro Assembler V9.71a build 6446 
                                                                                               Fri Nov 25 18:48:21 2022

HI-TECH Software Omniscient Code Generator (Lite mode) build 6446
     1  0000                     opt subtitle "HI-TECH Software Omniscient Code Generator (Lite mode) build 6446"
     2                           
     3                           opt pagewidth 120
     4                           
     5                           	opt lm
     6                           
     7                           	processor	16F877A
     8                           clrc	macro
     9                           	bcf	3,0
    10  0000                     	endm
    11                           clrz	macro
    12                           	bcf	3,2
    13  0000                     	endm
    14                           setc	macro
    15                           	bsf	3,0
    16  0000                     	endm
    17                           setz	macro
    18                           	bsf	3,2
    19  0000                     	endm
    20                           skipc	macro
    21                           	btfss	3,0
    22  0000                     	endm
    23                           skipz	macro
    24                           	btfss	3,2
    25  0000                     	endm
    26                           skipnc	macro
    27                           	btfsc	3,0
    28  0000                     	endm
    29                           skipnz	macro
    30                           	btfsc	3,2
    31  0000                     	endm
    32  0000                     indf	equ	0
    33  0000                     indf0	equ	0
    34  0002                     pc	equ	2
    35  0002                     pcl	equ	2
    36  0003                     status	equ	3
    37  0004                     fsr	equ	4
    38  0004                     fsr0	equ	4
    39  0001                     c	equ	1
    40  0000                     z	equ	0
    41  000A                     pclath	equ	10
    42                           	FNCALL	_main,_lcd_init
    43                           	FNCALL	_main,_lcd_command
    44                           	FNCALL	_main,_lcd_display
    45                           	FNCALL	_main,_delay
    46                           	FNCALL	_main,_DS1307_WRITE
    47                           	FNCALL	_main,_DS1307_READ
    48                           	FNCALL	_DS1307_READ,_lcd_command
    49                           	FNCALL	_DS1307_READ,_bcd_to_ascii
    50                           	FNCALL	_DS1307_READ,_delay
    51                           	FNCALL	_DS1307_READ,_lcd_data
    52                           	FNCALL	_bcd_to_ascii,_lcd_data
    53                           	FNCALL	_bcd_to_ascii,_delay
    54                           	FNCALL	_DS1307_WRITE,_decimal_to_bcd
    55                           	FNCALL	_lcd_display,_lcd_data
    56                           	FNCALL	_lcd_display,_delay
    57                           	FNCALL	_lcd_init,_lcd_command
    58                           	FNCALL	_decimal_to_bcd,___awdiv
    59                           	FNCALL	_decimal_to_bcd,___awmod
    60                           	FNCALL	_decimal_to_bcd,_delay
    61                           	FNCALL	_lcd_data,_delay
    62                           	FNCALL	_lcd_command,_delay
    63                           	FNROOT	_main
    64                           	global	_con1
    65                           	global	_date1
    66                           	global	_day1
    67                           	global	_hr1
    68                           	global	_min1
    69                           	global	_mon1
    70                           	global	_sec1
    71                           	global	_yr1
    72                           	global	_PORTB
    73                           psect	text244,local,class=CODE,delta=2
    74                           global __ptext244
    75  0000                     __ptext244:
    76  0006                     _PORTB	set	6
    77                           	global	_PORTD
    78  0008                     _PORTD	set	8
    79                           	global	_SSPBUF
    80  0013                     _SSPBUF	set	19
    81                           	global	_SSPCON
    82  0014                     _SSPCON	set	20
    83                           	global	_RD0
    84  0040                     _RD0	set	64
    85                           	global	_RD1
    86  0041                     _RD1	set	65
    87                           	global	_RD2
    88  0042                     _RD2	set	66
    89                           	global	_SSPIF
    90  0063                     _SSPIF	set	99
    91                           	global	_SSPCON2
    92  0091                     _SSPCON2	set	145
    93                           	global	_SSPSTAT
    94  0094                     _SSPSTAT	set	148
    95                           	global	_TRISB
    96  0086                     _TRISB	set	134
    97                           	global	_TRISC
    98  0087                     _TRISC	set	135
    99                           	global	_TRISD
   100  0088                     _TRISD	set	136
   101                           	global	_ACKDT
   102  048D                     _ACKDT	set	1165
   103                           	global	_ACKEN
   104  048C                     _ACKEN	set	1164
   105                           	global	_ACKSTAT
   106  048E                     _ACKSTAT	set	1166
   107                           	global	_BF
   108  04A0                     _BF	set	1184
   109                           	global	_PEN
   110  048A                     _PEN	set	1162
   111                           	global	_RCEN
   112  048B                     _RCEN	set	1163
   113                           	global	_RSEN
   114  0489                     _RSEN	set	1161
   115                           	global	_SEN
   116  0488                     _SEN	set	1160
   117                           psect	strings,class=STRING,delta=2
   118                           global __pstrings
   119  0003                     __pstrings:
   120                           ;	global	stringdir,stringtab,__stringbase
   121  0003                     stringtab:
   122                           ;	String table - string pointers are 1 byte each
   123  0003                     stringcode:stringdir:
      + 0003                     stringdir:	
   124  0003  3000               movlw high(stringdir)
   125  0004  008A               movwf pclath
   126  0005  0804               movf fsr,w
   127  0006  0A84               incf fsr
   128  0007  0782               	addwf pc
   129  0008                     __stringbase:
   130  0008  3400               	retlw	0
   131                           psect	strings
   132                           	
   133  0009                     STR_1:	
   134  0009  3443               	retlw	67	;'C'
   135  000A  344C               	retlw	76	;'L'
   136  000B  344F               	retlw	79	;'O'
   137  000C  3443               	retlw	67	;'C'
   138  000D  344B               	retlw	75	;'K'
   139  000E  343A               	retlw	58	;':'
   140  000F  3400               	retlw	0
   141                           psect	strings
   142                           	
   143  0010                     STR_2:	
   144  0010  3444               	retlw	68	;'D'
   145  0011  3441               	retlw	65	;'A'
   146  0012  3454               	retlw	84	;'T'
   147  0013  3445               	retlw	69	;'E'
   148  0014  343A               	retlw	58	;':'
   149  0015  3400               	retlw	0
   150                           psect	strings
   151                           	file	"I2c.as"
   152                           	line	#
   153                           psect cinit,class=CODE,delta=2
   154                           global start_initialization
   155  028F                     start_initialization:
   156                           
   157                           psect	bssBANK0,class=BANK0,space=1
   158                           global __pbssBANK0
   159  002F                     __pbssBANK0:
   160  002F                     _con1:
   161  002F                            ds      1
   162                           
   163  0030                     _date1:
   164  0030                            ds      1
   165                           
   166  0031                     _day1:
   167  0031                            ds      1
   168                           
   169  0032                     _hr1:
   170  0032                            ds      1
   171                           
   172  0033                     _min1:
   173  0033                            ds      1
   174                           
   175  0034                     _mon1:
   176  0034                            ds      1
   177                           
   178  0035                     _sec1:
   179  0035                            ds      1
   180                           
   181  0036                     _yr1:
   182  0036                            ds      1
   183                           
   184                           ; Clear objects allocated to BANK0
   185                           psect cinit,class=CODE,delta=2
   186  028F  01AF               	clrf	((__pbssBANK0)+0)&07Fh
   187  0290  01B0               	clrf	((__pbssBANK0)+1)&07Fh
   188  0291  01B1               	clrf	((__pbssBANK0)+2)&07Fh
   189  0292  01B2               	clrf	((__pbssBANK0)+3)&07Fh
   190  0293  01B3               	clrf	((__pbssBANK0)+4)&07Fh
   191  0294  01B4               	clrf	((__pbssBANK0)+5)&07Fh
   192  0295  01B5               	clrf	((__pbssBANK0)+6)&07Fh
   193  0296  01B6               	clrf	((__pbssBANK0)+7)&07Fh
   194                           psect cinit,class=CODE,delta=2
   195                           global end_of_initialization
   196                           
   197                           ;End of C runtime variable initialization code
   198                           
   199  0297                     end_of_initialization:
   200  0297  0183               clrf status
   201  0298  120A  118A  2CE5   ljmp _main	;jump to C main() function
   202                           psect	cstackCOMMON,class=COMMON,space=1
   203                           global __pcstackCOMMON
   204  0070                     __pcstackCOMMON:
   205                           	global	?_delay
   206  0070                     ?_delay:	; 0 bytes @ 0x0
   207                           	global	?_lcd_init
   208  0070                     ?_lcd_init:	; 0 bytes @ 0x0
   209                           	global	?_lcd_display
   210  0070                     ?_lcd_display:	; 0 bytes @ 0x0
   211                           	global	?_main
   212  0070                     ?_main:	; 0 bytes @ 0x0
   213                           	global	?_bcd_to_ascii
   214  0070                     ?_bcd_to_ascii:	; 0 bytes @ 0x0
   215                           	global	?_decimal_to_bcd
   216  0070                     ?_decimal_to_bcd:	; 1 bytes @ 0x0
   217                           	global	?___awdiv
   218  0070                     ?___awdiv:	; 2 bytes @ 0x0
   219                           	global	?___awmod
   220  0070                     ?___awmod:	; 2 bytes @ 0x0
   221                           	global	delay@x
   222  0070                     delay@x:	; 2 bytes @ 0x0
   223                           	global	___awdiv@divisor
   224  0070                     ___awdiv@divisor:	; 2 bytes @ 0x0
   225                           	global	___awmod@divisor
   226  0070                     ___awmod@divisor:	; 2 bytes @ 0x0
   227  0070                     	ds	2
   228                           	global	??_delay
   229  0072                     ??_delay:	; 0 bytes @ 0x2
   230                           	global	?_lcd_command
   231  0072                     ?_lcd_command:	; 0 bytes @ 0x2
   232                           	global	?_lcd_data
   233  0072                     ?_lcd_data:	; 0 bytes @ 0x2
   234                           	global	lcd_command@COM
   235  0072                     lcd_command@COM:	; 2 bytes @ 0x2
   236                           	global	lcd_data@data
   237  0072                     lcd_data@data:	; 2 bytes @ 0x2
   238                           	global	___awdiv@dividend
   239  0072                     ___awdiv@dividend:	; 2 bytes @ 0x2
   240                           	global	___awmod@dividend
   241  0072                     ___awmod@dividend:	; 2 bytes @ 0x2
   242  0072                     	ds	2
   243                           	global	??_lcd_command
   244  0074                     ??_lcd_command:	; 0 bytes @ 0x4
   245                           	global	??_lcd_data
   246  0074                     ??_lcd_data:	; 0 bytes @ 0x4
   247                           	global	??___awdiv
   248  0074                     ??___awdiv:	; 0 bytes @ 0x4
   249                           	global	??___awmod
   250  0074                     ??___awmod:	; 0 bytes @ 0x4
   251  0074                     	ds	1
   252                           	global	___awdiv@counter
   253  0075                     ___awdiv@counter:	; 1 bytes @ 0x5
   254                           	global	___awmod@counter
   255  0075                     ___awmod@counter:	; 1 bytes @ 0x5
   256  0075                     	ds	1
   257                           	global	lcd_command@temp
   258  0076                     lcd_command@temp:	; 1 bytes @ 0x6
   259                           	global	lcd_data@val1
   260  0076                     lcd_data@val1:	; 1 bytes @ 0x6
   261                           	global	___awdiv@sign
   262  0076                     ___awdiv@sign:	; 1 bytes @ 0x6
   263                           	global	___awmod@sign
   264  0076                     ___awmod@sign:	; 1 bytes @ 0x6
   265  0076                     	ds	1
   266                           	global	??_lcd_init
   267  0077                     ??_lcd_init:	; 0 bytes @ 0x7
   268                           	global	??_lcd_display
   269  0077                     ??_lcd_display:	; 0 bytes @ 0x7
   270                           	global	??_bcd_to_ascii
   271  0077                     ??_bcd_to_ascii:	; 0 bytes @ 0x7
   272                           	global	___awdiv@quotient
   273  0077                     ___awdiv@quotient:	; 2 bytes @ 0x7
   274  0077                     	ds	2
   275                           	global	??_decimal_to_bcd
   276  0079                     ??_decimal_to_bcd:	; 0 bytes @ 0x9
   277                           	global	lcd_display@m
   278  0079                     lcd_display@m:	; 1 bytes @ 0x9
   279                           	global	bcd_to_ascii@value
   280  0079                     bcd_to_ascii@value:	; 1 bytes @ 0x9
   281  0079                     	ds	1
   282                           	global	bcd_to_ascii@bcd
   283  007A                     bcd_to_ascii@bcd:	; 1 bytes @ 0xA
   284                           	global	lcd_display@i
   285  007A                     lcd_display@i:	; 2 bytes @ 0xA
   286  007A                     	ds	1
   287                           	global	?_DS1307_READ
   288  007B                     ?_DS1307_READ:	; 0 bytes @ 0xB
   289                           	global	DS1307_READ@reg_add
   290  007B                     DS1307_READ@reg_add:	; 1 bytes @ 0xB
   291  007B                     	ds	1
   292                           	global	??_DS1307_WRITE
   293  007C                     ??_DS1307_WRITE:	; 0 bytes @ 0xC
   294                           	global	??_DS1307_READ
   295  007C                     ??_DS1307_READ:	; 0 bytes @ 0xC
   296                           	global	DS1307_WRITE@_sec
   297  007C                     DS1307_WRITE@_sec:	; 1 bytes @ 0xC
   298  007C                     	ds	1
   299                           	global	DS1307_READ@slave_add
   300  007D                     DS1307_READ@slave_add:	; 1 bytes @ 0xD
   301  007D                     	ds	1
   302                           psect	cstackBANK0,class=BANK0,space=1
   303                           global __pcstackBANK0
   304  0020                     __pcstackBANK0:
   305                           	global	decimal_to_bcd@msb
   306  0020                     decimal_to_bcd@msb:	; 1 bytes @ 0x0
   307  0020                     	ds	1
   308                           	global	decimal_to_bcd@lsb
   309  0021                     decimal_to_bcd@lsb:	; 1 bytes @ 0x1
   310  0021                     	ds	1
   311                           	global	decimal_to_bcd@hex
   312  0022                     decimal_to_bcd@hex:	; 1 bytes @ 0x2
   313  0022                     	ds	1
   314                           	global	decimal_to_bcd@value
   315  0023                     decimal_to_bcd@value:	; 1 bytes @ 0x3
   316  0023                     	ds	1
   317                           	global	?_DS1307_WRITE
   318  0024                     ?_DS1307_WRITE:	; 0 bytes @ 0x4
   319                           	global	DS1307_WRITE@_min
   320  0024                     DS1307_WRITE@_min:	; 1 bytes @ 0x4
   321  0024                     	ds	1
   322                           	global	DS1307_WRITE@_hr
   323  0025                     DS1307_WRITE@_hr:	; 1 bytes @ 0x5
   324  0025                     	ds	1
   325                           	global	DS1307_WRITE@_day
   326  0026                     DS1307_WRITE@_day:	; 1 bytes @ 0x6
   327  0026                     	ds	1
   328                           	global	DS1307_WRITE@_date
   329  0027                     DS1307_WRITE@_date:	; 1 bytes @ 0x7
   330  0027                     	ds	1
   331                           	global	DS1307_WRITE@_mon
   332  0028                     DS1307_WRITE@_mon:	; 1 bytes @ 0x8
   333  0028                     	ds	1
   334                           	global	DS1307_WRITE@_yr
   335  0029                     DS1307_WRITE@_yr:	; 1 bytes @ 0x9
   336  0029                     	ds	1
   337                           	global	??_main
   338  002A                     ??_main:	; 0 bytes @ 0xA
   339  002A                     	ds	5
   340 ;;Data sizes: Strings 13, constant 0, data 0, bss 8, persistent 0 stack 0
   341 ;;Auto spaces:   Size  Autos    Used
   342 ;; COMMON          14     14      14
   343 ;; BANK0           80     15      23
   344 ;; BANK1           80      0       0
   345 ;; BANK3           96      0       0
   346 ;; BANK2           96      0       0
   347                           
   348 ;;
   349 ;; Pointer list with targets:
   350                           
   351 ;; ?___awmod	int  size(1) Largest target is 0
   352 ;;
   353 ;; ?___awdiv	int  size(1) Largest target is 0
   354 ;;
   355 ;; lcd_display@m	PTR const unsigned char  size(1) Largest target is 7
   356 ;;		 -> STR_2(CODE[6]), STR_1(CODE[7]), 
   357 ;;
   358                           
   359                           
   360 ;;
   361 ;; Critical Paths under _main in COMMON
   362 ;;
   363 ;;   _main->_DS1307_READ
   364 ;;   _DS1307_READ->_bcd_to_ascii
   365 ;;   _bcd_to_ascii->_lcd_data
   366 ;;   _DS1307_WRITE->_decimal_to_bcd
   367 ;;   _lcd_display->_lcd_data
   368 ;;   _lcd_init->_lcd_command
   369 ;;   _decimal_to_bcd->___awdiv
   370 ;;   _lcd_data->_delay
   371 ;;   _lcd_command->_delay
   372 ;;
   373 ;; Critical Paths under _main in BANK0
   374 ;;
   375 ;;   _main->_DS1307_WRITE
   376 ;;   _DS1307_WRITE->_decimal_to_bcd
   377 ;;
   378 ;; Critical Paths under _main in BANK1
   379 ;;
   380 ;;   None.
   381 ;;
   382 ;; Critical Paths under _main in BANK3
   383 ;;
   384 ;;   None.
   385 ;;
   386 ;; Critical Paths under _main in BANK2
   387 ;;
   388 ;;   None.
   389                           
   390 ;;
   391 ;;Main: autosize = 0, tempsize = 5, incstack = 0, save=0
   392 ;;
   393                           
   394 ;;
   395 ;;Call Graph Tables:
   396 ;;
   397 ;; ---------------------------------------------------------------------------------
   398 ;; (Depth) Function   	        Calls       Base Space   Used Autos Params    Refs
   399 ;; ---------------------------------------------------------------------------------
   400 ;; (0) _main                                                 5     5      0    1868
   401 ;;                                             10 BANK0      5     5      0
   402 ;;                           _lcd_init
   403 ;;                        _lcd_command
   404 ;;                        _lcd_display
   405 ;;                              _delay
   406 ;;                       _DS1307_WRITE
   407 ;;                        _DS1307_READ
   408 ;; ---------------------------------------------------------------------------------
   409 ;; (1) _DS1307_READ                                          3     2      1     582
   410 ;;                                             11 COMMON     3     2      1
   411 ;;                        _lcd_command
   412 ;;                       _bcd_to_ascii
   413 ;;                              _delay
   414 ;;                           _lcd_data
   415 ;; ---------------------------------------------------------------------------------
   416 ;; (2) _bcd_to_ascii                                         4     4      0     316
   417 ;;                                              7 COMMON     4     4      0
   418 ;;                           _lcd_data
   419 ;;                              _delay
   420 ;; ---------------------------------------------------------------------------------
   421 ;; (1) _DS1307_WRITE                                         7     1      6     885
   422 ;;                                             12 COMMON     1     1      0
   423 ;;                                              4 BANK0      6     0      6
   424 ;;                     _decimal_to_bcd
   425 ;; ---------------------------------------------------------------------------------
   426 ;; (1) _lcd_display                                          5     5      0     201
   427 ;;                                              7 COMMON     5     5      0
   428 ;;                           _lcd_data
   429 ;;                              _delay
   430 ;; ---------------------------------------------------------------------------------
   431 ;; (1) _lcd_init                                             0     0      0      89
   432 ;;                        _lcd_command
   433 ;; ---------------------------------------------------------------------------------
   434 ;; (2) _decimal_to_bcd                                       7     7      0     731
   435 ;;                                              9 COMMON     3     3      0
   436 ;;                                              0 BANK0      4     4      0
   437 ;;                            ___awdiv
   438 ;;                            ___awmod
   439 ;;                              _delay
   440 ;; ---------------------------------------------------------------------------------
   441 ;; (2) _lcd_data                                             5     3      2      89
   442 ;;                                              2 COMMON     5     3      2
   443 ;;                              _delay
   444 ;; ---------------------------------------------------------------------------------
   445 ;; (2) _lcd_command                                          5     3      2      89
   446 ;;                                              2 COMMON     5     3      2
   447 ;;                              _delay
   448 ;; ---------------------------------------------------------------------------------
   449 ;; (3) ___awmod                                              7     3      4     296
   450 ;;                                              0 COMMON     7     3      4
   451 ;; ---------------------------------------------------------------------------------
   452 ;; (3) ___awdiv                                              9     5      4     300
   453 ;;                                              0 COMMON     9     5      4
   454 ;; ---------------------------------------------------------------------------------
   455 ;; (3) _delay                                                2     0      2      22
   456 ;;                                              0 COMMON     2     0      2
   457 ;; ---------------------------------------------------------------------------------
   458 ;; Estimated maximum stack depth 3
   459 ;; ---------------------------------------------------------------------------------
   460                           
   461 ;; Call Graph Graphs:
   462                           
   463 ;; _main (ROOT)
   464 ;;   _lcd_init
   465 ;;     _lcd_command
   466 ;;       _delay
   467 ;;   _lcd_command
   468 ;;     _delay
   469 ;;   _lcd_display
   470 ;;     _lcd_data
   471 ;;       _delay
   472 ;;     _delay
   473 ;;   _delay
   474 ;;   _DS1307_WRITE
   475 ;;     _decimal_to_bcd
   476 ;;       ___awdiv
   477 ;;       ___awmod
   478 ;;       _delay
   479 ;;   _DS1307_READ
   480 ;;     _lcd_command
   481 ;;       _delay
   482 ;;     _bcd_to_ascii
   483 ;;       _lcd_data
   484 ;;         _delay
   485 ;;       _delay
   486 ;;     _delay
   487 ;;     _lcd_data
   488 ;;       _delay
   489 ;;
   490                           
   491 ;; Address spaces:
   492                           
   493 ;;Name               Size   Autos  Total    Cost      Usage
   494 ;;BITCOMMON            E      0       0       0        0.0%
   495 ;;EEDATA             100      0       0       0        0.0%
   496 ;;NULL                 0      0       0       0        0.0%
   497 ;;CODE                 0      0       0       0        0.0%
   498 ;;COMMON               E      E       E       1      100.0%
   499 ;;BITSFR0              0      0       0       1        0.0%
   500 ;;SFR0                 0      0       0       1        0.0%
   501 ;;BITSFR1              0      0       0       2        0.0%
   502 ;;SFR1                 0      0       0       2        0.0%
   503 ;;STACK                0      0       4       2        0.0%
   504 ;;ABS                  0      0      25       3        0.0%
   505 ;;BITBANK0            50      0       0       4        0.0%
   506 ;;BITSFR3              0      0       0       4        0.0%
   507 ;;SFR3                 0      0       0       4        0.0%
   508 ;;BANK0               50      F      17       5       28.8%
   509 ;;BITSFR2              0      0       0       5        0.0%
   510 ;;SFR2                 0      0       0       5        0.0%
   511 ;;BITBANK1            50      0       0       6        0.0%
   512 ;;BANK1               50      0       0       7        0.0%
   513 ;;BITBANK3            60      0       0       8        0.0%
   514 ;;BANK3               60      0       0       9        0.0%
   515 ;;BITBANK2            60      0       0      10        0.0%
   516 ;;BANK2               60      0       0      11        0.0%
   517 ;;DATA                 0      0      29      12        0.0%
   518                           
   519                           	global	_main
   520                           psect	maintext,global,class=CODE,delta=2
   521                           global __pmaintext
   522  04E5                     __pmaintext:
   523                           
   524 ;; *************** function _main *****************
   525 ;; Defined at:
   526 ;;		line 92 in file "C:\Users\TECH\Desktop\madhu pic folder\I2C\I2c\I2c.c"
   527 ;; Parameters:    Size  Location     Type
   528 ;;		None
   529 ;; Auto vars:     Size  Location     Type
   530 ;;		None
   531 ;; Return value:  Size  Location     Type
   532 ;;		None               void
   533 ;; Registers used:
   534 ;;		wreg, fsr0l, fsr0h, status,2, status,0, pclath, cstack
   535 ;; Tracked objects:
   536 ;;		On entry : 17F/0
   537 ;;		On exit  : 0/0
   538 ;;		Unchanged: 0/0
   539 ;; Data sizes:     COMMON   BANK0   BANK1   BANK3   BANK2
   540 ;;      Params:         0       0       0       0       0
   541 ;;      Locals:         0       0       0       0       0
   542 ;;      Temps:          0       5       0       0       0
   543 ;;      Totals:         0       5       0       0       0
   544 ;;Total ram usage:        5 bytes
   545 ;; Hardware stack levels required when called:    4
   546 ;; This function calls:
   547 ;;		_lcd_init
   548 ;;		_lcd_command
   549 ;;		_lcd_display
   550 ;;		_delay
   551 ;;		_DS1307_WRITE
   552 ;;		_DS1307_READ
   553 ;; This function is called by:
   554 ;;		Startup code after reset
   555 ;; This function uses a non-reentrant model
   556 ;;
   557                           psect	maintext
   558                           	file	"C:\Users\TECH\Desktop\madhu pic folder\I2C\I2c\I2c.c"
   559                           	line	92
   560                           	global	__size_of_main
   561  0086                     	__size_of_main	equ	__end_of_main-_main
   562                           	
   563  04E5                     _main:	
   564                           	opt	stack 8
   565                           ; Regs used in _main: [wreg-fsr0h+status,2+status,0+pclath+cstack]
   566                           	line	93
   567                           	
   568  04E5                     l2415:	
   569                           ;I2c.c: 93: TRISB=0X00;
   570  04E5  1683               	bsf	status, 5	;RP0=1, select bank1
   571  04E6  1303               	bcf	status, 6	;RP1=0, select bank1
   572  04E7  0186               	clrf	(134)^080h	;volatile
   573                           	line	94
   574                           ;I2c.c: 94: PORTB=0X00;
   575  04E8  1283               	bcf	status, 5	;RP0=0, select bank0
   576  04E9  1303               	bcf	status, 6	;RP1=0, select bank0
   577  04EA  0186               	clrf	(6)	;volatile
   578                           	line	95
   579                           ;I2c.c: 95: TRISD=0X00;
   580  04EB  1683               	bsf	status, 5	;RP0=1, select bank1
   581  04EC  1303               	bcf	status, 6	;RP1=0, select bank1
   582  04ED  0188               	clrf	(136)^080h	;volatile
   583                           	line	96
   584                           ;I2c.c: 96: PORTD=0X00;
   585  04EE  1283               	bcf	status, 5	;RP0=0, select bank0
   586  04EF  1303               	bcf	status, 6	;RP1=0, select bank0
   587  04F0  0188               	clrf	(8)	;volatile
   588                           	line	97
   589                           	
   590  04F1                     l2417:	
   591                           ;I2c.c: 97: TRISC=0XFF;
   592  04F1  30FF               	movlw	(0FFh)
   593  04F2  1683               	bsf	status, 5	;RP0=1, select bank1
   594  04F3  1303               	bcf	status, 6	;RP1=0, select bank1
   595  04F4  0087               	movwf	(135)^080h	;volatile
   596                           	line	98
   597                           	
   598  04F5                     l2419:	
   599                           ;I2c.c: 98: SSPSTAT=0XC0;
   600  04F5  30C0               	movlw	(0C0h)
   601  04F6  0094               	movwf	(148)^080h	;volatile
   602                           	line	99
   603                           	
   604  04F7                     l2421:	
   605                           ;I2c.c: 99: SSPCON=0X28;
   606  04F7  3028               	movlw	(028h)
   607  04F8  1283               	bcf	status, 5	;RP0=0, select bank0
   608  04F9  1303               	bcf	status, 6	;RP1=0, select bank0
   609  04FA  0094               	movwf	(20)	;volatile
   610                           	line	100
   611                           	
   612  04FB                     l2423:	
   613                           ;I2c.c: 100: SSPCON2=0X18;
   614  04FB  3018               	movlw	(018h)
   615  04FC  1683               	bsf	status, 5	;RP0=1, select bank1
   616  04FD  1303               	bcf	status, 6	;RP1=0, select bank1
   617  04FE  0091               	movwf	(145)^080h	;volatile
   618                           	line	102
   619                           	
   620  04FF                     l2425:	
   621                           ;I2c.c: 102: lcd_init();
   622  04FF  120A  118A  22AD   	fcall	_lcd_init
              120A  118A         
   623                           	line	103
   624                           	
   625  0504                     l2427:	
   626                           ;I2c.c: 103: lcd_command(0x80);
   627  0504  3080               	movlw	low(080h)
   628  0505  00F2               	movwf	(?_lcd_command)
   629  0506  3000               	movlw	high(080h)
   630  0507  00F3               	movwf	((?_lcd_command))+1
   631  0508  120A  118A  22DB   	fcall	_lcd_command
              120A  118A         
   632                           	line	104
   633                           	
   634  050D                     l2429:	
   635                           ;I2c.c: 104: lcd_display("CLOCK:");
   636  050D  3001               	movlw	((STR_1-__stringbase))&0ffh
   637  050E  120A  118A  2343   	fcall	_lcd_display
              120A  118A         
   638                           	line	105
   639                           	
   640  0513                     l2431:	
   641                           ;I2c.c: 105: delay(1000);
   642  0513  30E8               	movlw	low(03E8h)
   643  0514  00F0               	movwf	(?_delay)
   644  0515  3003               	movlw	high(03E8h)
   645  0516  00F1               	movwf	((?_delay))+1
   646  0517  120A  118A  229B   	fcall	_delay
              120A  118A         
   647                           	line	106
   648                           	
   649  051C                     l2433:	
   650                           ;I2c.c: 106: lcd_command(0xC0);
   651  051C  30C0               	movlw	low(0C0h)
   652  051D  00F2               	movwf	(?_lcd_command)
   653  051E  3000               	movlw	high(0C0h)
   654  051F  00F3               	movwf	((?_lcd_command))+1
   655  0520  120A  118A  22DB   	fcall	_lcd_command
              120A  118A         
   656                           	line	107
   657                           	
   658  0525                     l2435:	
   659                           ;I2c.c: 107: lcd_display("DATE:");
   660  0525  3008               	movlw	((STR_2-__stringbase))&0ffh
   661  0526  120A  118A  2343   	fcall	_lcd_display
              120A  118A         
   662                           	line	109
   663                           	
   664  052B                     l2437:	
   665                           ;I2c.c: 109: DS1307_WRITE(0,11,3,1,22,11,12);
   666  052B  300B               	movlw	(0Bh)
   667  052C  1283               	bcf	status, 5	;RP0=0, select bank0
   668  052D  1303               	bcf	status, 6	;RP1=0, select bank0
   669  052E  00AA               	movwf	(??_main+0)+0
   670  052F  082A               	movf	(??_main+0)+0,w
   671  0530  00A4               	movwf	(?_DS1307_WRITE)
   672  0531  3003               	movlw	(03h)
   673  0532  00AB               	movwf	(??_main+1)+0
   674  0533  082B               	movf	(??_main+1)+0,w
   675  0534  00A5               	movwf	0+(?_DS1307_WRITE)+01h
   676  0535  01A6               	clrf	0+(?_DS1307_WRITE)+02h
   677  0536  1403               	bsf	status,0
   678  0537  0DA6               	rlf	0+(?_DS1307_WRITE)+02h,f
   679  0538  3016               	movlw	(016h)
   680  0539  00AC               	movwf	(??_main+2)+0
   681  053A  082C               	movf	(??_main+2)+0,w
   682  053B  00A7               	movwf	0+(?_DS1307_WRITE)+03h
   683  053C  300B               	movlw	(0Bh)
   684  053D  00AD               	movwf	(??_main+3)+0
   685  053E  082D               	movf	(??_main+3)+0,w
   686  053F  00A8               	movwf	0+(?_DS1307_WRITE)+04h
   687  0540  300C               	movlw	(0Ch)
   688  0541  00AE               	movwf	(??_main+4)+0
   689  0542  082E               	movf	(??_main+4)+0,w
   690  0543  00A9               	movwf	0+(?_DS1307_WRITE)+05h
   691  0544  3000               	movlw	(0)
   692  0545  120A  118A  256B   	fcall	_DS1307_WRITE
              120A  118A         
   693                           	line	110
   694                           	
   695  054A                     l2439:	
   696                           ;I2c.c: 110: delay(1000);
   697  054A  30E8               	movlw	low(03E8h)
   698  054B  00F0               	movwf	(?_delay)
   699  054C  3003               	movlw	high(03E8h)
   700  054D  00F1               	movwf	((?_delay))+1
   701  054E  120A  118A  229B   	fcall	_delay
              120A  118A         
   702                           	line	111
   703                           ;I2c.c: 111: while(1)
   704                           	
   705  0553                     l600:	
   706                           	line	113
   707                           	
   708  0553                     l2441:	
   709                           ;I2c.c: 112: {
   710                           ;I2c.c: 113: DS1307_READ(0xD0,0X00);
   711  0553  1003               	clrc
   712  0554  3000               	movlw	0
   713  0555  1803               	btfsc	status,0
   714  0556  3001               	movlw	1
   715  0557  00FB               	movwf	(?_DS1307_READ)
   716  0558  30D0               	movlw	(0D0h)
   717  0559  120A  118A  2685   	fcall	_DS1307_READ
              120A  118A         
   718                           	line	114
   719                           	
   720  055E                     l2443:	
   721                           ;I2c.c: 114: delay(1000);
   722  055E  30E8               	movlw	low(03E8h)
   723  055F  00F0               	movwf	(?_delay)
   724  0560  3003               	movlw	high(03E8h)
   725  0561  00F1               	movwf	((?_delay))+1
   726  0562  120A  118A  229B   	fcall	_delay
              120A  118A         
   727                           	line	115
   728                           	
   729  0567                     l601:	
   730                           	line	111
   731  0567  2D53               	goto	l600
   732                           	
   733  0568                     l602:	
   734                           	line	116
   735                           	
   736  0568                     l603:	
   737                           	global	start
   738  0568  120A  118A  2800   	ljmp	start
   739                           	opt stack 0
   740                           GLOBAL	__end_of_main
   741  056B                     	__end_of_main:
   742 ;; =============== function _main ends ============
   743                           
   744                           	signat	_main,88
   745                           	global	_DS1307_READ
   746                           psect	text245,local,class=CODE,delta=2
   747                           global __ptext245
   748  0685                     __ptext245:
   749                           
   750 ;; *************** function _DS1307_READ *****************
   751 ;; Defined at:
   752 ;;		line 227 in file "C:\Users\TECH\Desktop\madhu pic folder\I2C\I2c\I2c.c"
   753 ;; Parameters:    Size  Location     Type
   754 ;;  slave_add       1    wreg     unsigned char 
   755 ;;  reg_add         1   11[COMMON] unsigned char 
   756 ;; Auto vars:     Size  Location     Type
   757 ;;  slave_add       1   13[COMMON] unsigned char 
   758 ;; Return value:  Size  Location     Type
   759 ;;		None               void
   760 ;; Registers used:
   761 ;;		wreg, status,2, status,0, pclath, cstack
   762 ;; Tracked objects:
   763 ;;		On entry : 0/0
   764 ;;		On exit  : 0/0
   765 ;;		Unchanged: 0/0
   766 ;; Data sizes:     COMMON   BANK0   BANK1   BANK3   BANK2
   767 ;;      Params:         1       0       0       0       0
   768 ;;      Locals:         1       0       0       0       0
   769 ;;      Temps:          1       0       0       0       0
   770 ;;      Totals:         3       0       0       0       0
   771 ;;Total ram usage:        3 bytes
   772 ;; Hardware stack levels used:    1
   773 ;; Hardware stack levels required when called:    3
   774 ;; This function calls:
   775 ;;		_lcd_command
   776 ;;		_bcd_to_ascii
   777 ;;		_delay
   778 ;;		_lcd_data
   779 ;; This function is called by:
   780 ;;		_main
   781 ;; This function uses a non-reentrant model
   782 ;;
   783                           psect	text245
   784                           	file	"C:\Users\TECH\Desktop\madhu pic folder\I2C\I2c\I2c.c"
   785                           	line	227
   786                           	global	__size_of_DS1307_READ
   787  017B                     	__size_of_DS1307_READ	equ	__end_of_DS1307_READ-_DS1307_READ
   788                           	
   789  0685                     _DS1307_READ:	
   790                           	opt	stack 7
   791                           ; Regs used in _DS1307_READ: [wreg+status,2+status,0+pclath+cstack]
   792                           ;DS1307_READ@slave_add stored from wreg
   793                           	line	229
   794  0685  00FD               	movwf	(DS1307_READ@slave_add)
   795                           	
   796  0686                     l2357:	
   797                           ;I2c.c: 229: SEN=1;
   798  0686  1683               	bsf	status, 5	;RP0=1, select bank1
   799  0687  1303               	bcf	status, 6	;RP1=0, select bank1
   800  0688  1411               	bsf	(1160/8)^080h,(1160)&7
   801                           	line	230
   802                           ;I2c.c: 230: while(SEN==1);
   803  0689  2E8A               	goto	l681
   804                           	
   805  068A                     l682:	
   806                           	
   807  068A                     l681:	
   808  068A  1811               	btfsc	(1160/8)^080h,(1160)&7
   809  068B  2E8D               	goto	u3141
   810  068C  2E8E               	goto	u3140
   811  068D                     u3141:
   812  068D  2E8A               	goto	l682
   813  068E                     u3140:
   814                           	
   815  068E                     l683:	
   816                           	line	231
   817                           ;I2c.c: 231: SSPIF=0;
   818  068E  1283               	bcf	status, 5	;RP0=0, select bank0
   819  068F  1303               	bcf	status, 6	;RP1=0, select bank0
   820  0690  118C               	bcf	(99/8),(99)&7
   821                           	line	234
   822                           	
   823  0691                     l2359:	
   824                           ;I2c.c: 234: SSPBUF=slave_add;
   825  0691  087D               	movf	(DS1307_READ@slave_add),w
   826  0692  0093               	movwf	(19)	;volatile
   827                           	line	235
   828                           ;I2c.c: 235: while(SSPIF==0);
   829  0693  2E94               	goto	l684
   830                           	
   831  0694                     l685:	
   832                           	
   833  0694                     l684:	
   834  0694  1D8C               	btfss	(99/8),(99)&7
   835  0695  2E97               	goto	u3151
   836  0696  2E98               	goto	u3150
   837  0697                     u3151:
   838  0697  2E94               	goto	l685
   839  0698                     u3150:
   840                           	
   841  0698                     l686:	
   842                           	line	236
   843                           ;I2c.c: 236: while(ACKSTAT==1);
   844  0698  2E99               	goto	l687
   845                           	
   846  0699                     l688:	
   847                           	
   848  0699                     l687:	
   849  0699  1683               	bsf	status, 5	;RP0=1, select bank1
   850  069A  1303               	bcf	status, 6	;RP1=0, select bank1
   851  069B  1B11               	btfsc	(1166/8)^080h,(1166)&7
   852  069C  2E9E               	goto	u3161
   853  069D  2E9F               	goto	u3160
   854  069E                     u3161:
   855  069E  2E99               	goto	l688
   856  069F                     u3160:
   857                           	
   858  069F                     l689:	
   859                           	line	237
   860                           ;I2c.c: 237: SSPIF=0;
   861  069F  1283               	bcf	status, 5	;RP0=0, select bank0
   862  06A0  1303               	bcf	status, 6	;RP1=0, select bank0
   863  06A1  118C               	bcf	(99/8),(99)&7
   864                           	line	238
   865                           ;I2c.c: 238: ACKSTAT=0;
   866  06A2  1683               	bsf	status, 5	;RP0=1, select bank1
   867  06A3  1303               	bcf	status, 6	;RP1=0, select bank1
   868  06A4  1311               	bcf	(1166/8)^080h,(1166)&7
   869                           	line	240
   870                           	
   871  06A5                     l2361:	
   872                           ;I2c.c: 240: SSPBUF=reg_add;
   873  06A5  087B               	movf	(DS1307_READ@reg_add),w
   874  06A6  1283               	bcf	status, 5	;RP0=0, select bank0
   875  06A7  1303               	bcf	status, 6	;RP1=0, select bank0
   876  06A8  0093               	movwf	(19)	;volatile
   877                           	line	241
   878                           ;I2c.c: 241: while(SSPIF==0);
   879  06A9  2EAA               	goto	l690
   880                           	
   881  06AA                     l691:	
   882                           	
   883  06AA                     l690:	
   884  06AA  1D8C               	btfss	(99/8),(99)&7
   885  06AB  2EAD               	goto	u3171
   886  06AC  2EAE               	goto	u3170
   887  06AD                     u3171:
   888  06AD  2EAA               	goto	l691
   889  06AE                     u3170:
   890                           	
   891  06AE                     l692:	
   892                           	line	242
   893                           ;I2c.c: 242: while(ACKSTAT==1);
   894  06AE  2EAF               	goto	l693
   895                           	
   896  06AF                     l694:	
   897                           	
   898  06AF                     l693:	
   899  06AF  1683               	bsf	status, 5	;RP0=1, select bank1
   900  06B0  1303               	bcf	status, 6	;RP1=0, select bank1
   901  06B1  1B11               	btfsc	(1166/8)^080h,(1166)&7
   902  06B2  2EB4               	goto	u3181
   903  06B3  2EB5               	goto	u3180
   904  06B4                     u3181:
   905  06B4  2EAF               	goto	l694
   906  06B5                     u3180:
   907                           	
   908  06B5                     l695:	
   909                           	line	243
   910                           ;I2c.c: 243: SSPIF=0;
   911  06B5  1283               	bcf	status, 5	;RP0=0, select bank0
   912  06B6  1303               	bcf	status, 6	;RP1=0, select bank0
   913  06B7  118C               	bcf	(99/8),(99)&7
   914                           	line	244
   915                           ;I2c.c: 244: ACKSTAT=0;
   916  06B8  1683               	bsf	status, 5	;RP0=1, select bank1
   917  06B9  1303               	bcf	status, 6	;RP1=0, select bank1
   918  06BA  1311               	bcf	(1166/8)^080h,(1166)&7
   919                           	line	247
   920                           ;I2c.c: 247: RSEN=1;
   921  06BB  1491               	bsf	(1161/8)^080h,(1161)&7
   922                           	line	248
   923                           ;I2c.c: 248: while(RSEN==1);
   924  06BC  2EBD               	goto	l696
   925                           	
   926  06BD                     l697:	
   927                           	
   928  06BD                     l696:	
   929  06BD  1891               	btfsc	(1161/8)^080h,(1161)&7
   930  06BE  2EC0               	goto	u3191
   931  06BF  2EC1               	goto	u3190
   932  06C0                     u3191:
   933  06C0  2EBD               	goto	l697
   934  06C1                     u3190:
   935                           	
   936  06C1                     l698:	
   937                           	line	249
   938                           ;I2c.c: 249: SSPIF=0;
   939  06C1  1283               	bcf	status, 5	;RP0=0, select bank0
   940  06C2  1303               	bcf	status, 6	;RP1=0, select bank0
   941  06C3  118C               	bcf	(99/8),(99)&7
   942                           	line	251
   943                           	
   944  06C4                     l2363:	
   945                           ;I2c.c: 251: SSPBUF=slave_add+1;
   946  06C4  087D               	movf	(DS1307_READ@slave_add),w
   947  06C5  3E01               	addlw	01h
   948  06C6  0093               	movwf	(19)	;volatile
   949                           	line	252
   950                           ;I2c.c: 252: while(SSPIF==0);
   951  06C7  2EC8               	goto	l699
   952                           	
   953  06C8                     l700:	
   954                           	
   955  06C8                     l699:	
   956  06C8  1D8C               	btfss	(99/8),(99)&7
   957  06C9  2ECB               	goto	u3201
   958  06CA  2ECC               	goto	u3200
   959  06CB                     u3201:
   960  06CB  2EC8               	goto	l700
   961  06CC                     u3200:
   962                           	
   963  06CC                     l701:	
   964                           	line	253
   965                           ;I2c.c: 253: while(ACKSTAT==1);
   966  06CC  2ECD               	goto	l702
   967                           	
   968  06CD                     l703:	
   969                           	
   970  06CD                     l702:	
   971  06CD  1683               	bsf	status, 5	;RP0=1, select bank1
   972  06CE  1303               	bcf	status, 6	;RP1=0, select bank1
   973  06CF  1B11               	btfsc	(1166/8)^080h,(1166)&7
   974  06D0  2ED2               	goto	u3211
   975  06D1  2ED3               	goto	u3210
   976  06D2                     u3211:
   977  06D2  2ECD               	goto	l703
   978  06D3                     u3210:
   979                           	
   980  06D3                     l704:	
   981                           	line	254
   982                           ;I2c.c: 254: SSPIF=0;
   983  06D3  1283               	bcf	status, 5	;RP0=0, select bank0
   984  06D4  1303               	bcf	status, 6	;RP1=0, select bank0
   985  06D5  118C               	bcf	(99/8),(99)&7
   986                           	line	255
   987                           ;I2c.c: 255: ACKSTAT=0;
   988  06D6  1683               	bsf	status, 5	;RP0=1, select bank1
   989  06D7  1303               	bcf	status, 6	;RP1=0, select bank1
   990  06D8  1311               	bcf	(1166/8)^080h,(1166)&7
   991                           	line	258
   992                           ;I2c.c: 258: RCEN=1;
   993  06D9  1591               	bsf	(1163/8)^080h,(1163)&7
   994                           	line	259
   995                           ;I2c.c: 259: while(BF==0);
   996  06DA  2EDB               	goto	l705
   997                           	
   998  06DB                     l706:	
   999                           	
  1000  06DB                     l705:	
  1001  06DB  1C14               	btfss	(1184/8)^080h,(1184)&7
  1002  06DC  2EDE               	goto	u3221
  1003  06DD  2EDF               	goto	u3220
  1004  06DE                     u3221:
  1005  06DE  2EDB               	goto	l706
  1006  06DF                     u3220:
  1007                           	
  1008  06DF                     l707:	
  1009                           	line	260
  1010                           	
  1011  06DF                     l2365:	
  1012                           ;I2c.c: 260: sec1=SSPBUF;
  1013  06DF  1283               	bcf	status, 5	;RP0=0, select bank0
  1014  06E0  1303               	bcf	status, 6	;RP1=0, select bank0
  1015  06E1  0813               	movf	(19),w	;volatile
  1016  06E2  00FC               	movwf	(??_DS1307_READ+0)+0
  1017  06E3  087C               	movf	(??_DS1307_READ+0)+0,w
  1018  06E4  00B5               	movwf	(_sec1)
  1019                           	line	261
  1020                           	
  1021  06E5                     l2367:	
  1022                           ;I2c.c: 261: ACKDT=0;
  1023  06E5  1683               	bsf	status, 5	;RP0=1, select bank1
  1024  06E6  1303               	bcf	status, 6	;RP1=0, select bank1
  1025  06E7  1291               	bcf	(1165/8)^080h,(1165)&7
  1026                           	line	262
  1027                           	
  1028  06E8                     l2369:	
  1029                           ;I2c.c: 262: ACKEN=1;
  1030  06E8  1611               	bsf	(1164/8)^080h,(1164)&7
  1031                           	line	263
  1032                           ;I2c.c: 263: while(ACKEN==1);
  1033  06E9  2EEA               	goto	l708
  1034                           	
  1035  06EA                     l709:	
  1036                           	
  1037  06EA                     l708:	
  1038  06EA  1A11               	btfsc	(1164/8)^080h,(1164)&7
  1039  06EB  2EED               	goto	u3231
  1040  06EC  2EEE               	goto	u3230
  1041  06ED                     u3231:
  1042  06ED  2EEA               	goto	l709
  1043  06EE                     u3230:
  1044                           	
  1045  06EE                     l710:	
  1046                           	line	266
  1047                           ;I2c.c: 266: RCEN=1;
  1048  06EE  1591               	bsf	(1163/8)^080h,(1163)&7
  1049                           	line	267
  1050                           ;I2c.c: 267: while(BF==0);
  1051  06EF  2EF0               	goto	l711
  1052                           	
  1053  06F0                     l712:	
  1054                           	
  1055  06F0                     l711:	
  1056  06F0  1C14               	btfss	(1184/8)^080h,(1184)&7
  1057  06F1  2EF3               	goto	u3241
  1058  06F2  2EF4               	goto	u3240
  1059  06F3                     u3241:
  1060  06F3  2EF0               	goto	l712
  1061  06F4                     u3240:
  1062                           	
  1063  06F4                     l713:	
  1064                           	line	268
  1065                           	
  1066  06F4                     l2371:	
  1067                           ;I2c.c: 268: min1=SSPBUF;
  1068  06F4  1283               	bcf	status, 5	;RP0=0, select bank0
  1069  06F5  1303               	bcf	status, 6	;RP1=0, select bank0
  1070  06F6  0813               	movf	(19),w	;volatile
  1071  06F7  00FC               	movwf	(??_DS1307_READ+0)+0
  1072  06F8  087C               	movf	(??_DS1307_READ+0)+0,w
  1073  06F9  00B3               	movwf	(_min1)
  1074                           	line	269
  1075                           	
  1076  06FA                     l2373:	
  1077                           ;I2c.c: 269: ACKDT=0;
  1078  06FA  1683               	bsf	status, 5	;RP0=1, select bank1
  1079  06FB  1303               	bcf	status, 6	;RP1=0, select bank1
  1080  06FC  1291               	bcf	(1165/8)^080h,(1165)&7
  1081                           	line	270
  1082                           	
  1083  06FD                     l2375:	
  1084                           ;I2c.c: 270: ACKEN=1;
  1085  06FD  1611               	bsf	(1164/8)^080h,(1164)&7
  1086                           	line	271
  1087                           ;I2c.c: 271: while(ACKEN==1);
  1088  06FE  2EFF               	goto	l714
  1089                           	
  1090  06FF                     l715:	
  1091                           	
  1092  06FF                     l714:	
  1093  06FF  1A11               	btfsc	(1164/8)^080h,(1164)&7
  1094  0700  2F02               	goto	u3251
  1095  0701  2F03               	goto	u3250
  1096  0702                     u3251:
  1097  0702  2EFF               	goto	l715
  1098  0703                     u3250:
  1099                           	
  1100  0703                     l716:	
  1101                           	line	273
  1102                           ;I2c.c: 273: RCEN=1;
  1103  0703  1591               	bsf	(1163/8)^080h,(1163)&7
  1104                           	line	274
  1105                           ;I2c.c: 274: while(BF==0);
  1106  0704  2F05               	goto	l717
  1107                           	
  1108  0705                     l718:	
  1109                           	
  1110  0705                     l717:	
  1111  0705  1C14               	btfss	(1184/8)^080h,(1184)&7
  1112  0706  2F08               	goto	u3261
  1113  0707  2F09               	goto	u3260
  1114  0708                     u3261:
  1115  0708  2F05               	goto	l718
  1116  0709                     u3260:
  1117                           	
  1118  0709                     l719:	
  1119                           	line	275
  1120                           	
  1121  0709                     l2377:	
  1122                           ;I2c.c: 275: hr1=SSPBUF;
  1123  0709  1283               	bcf	status, 5	;RP0=0, select bank0
  1124  070A  1303               	bcf	status, 6	;RP1=0, select bank0
  1125  070B  0813               	movf	(19),w	;volatile
  1126  070C  00FC               	movwf	(??_DS1307_READ+0)+0
  1127  070D  087C               	movf	(??_DS1307_READ+0)+0,w
  1128  070E  00B2               	movwf	(_hr1)
  1129                           	line	276
  1130                           	
  1131  070F                     l2379:	
  1132                           ;I2c.c: 276: ACKDT=0;
  1133  070F  1683               	bsf	status, 5	;RP0=1, select bank1
  1134  0710  1303               	bcf	status, 6	;RP1=0, select bank1
  1135  0711  1291               	bcf	(1165/8)^080h,(1165)&7
  1136                           	line	277
  1137                           	
  1138  0712                     l2381:	
  1139                           ;I2c.c: 277: ACKEN=1;
  1140  0712  1611               	bsf	(1164/8)^080h,(1164)&7
  1141                           	line	278
  1142                           ;I2c.c: 278: while(ACKEN==1);
  1143  0713  2F14               	goto	l720
  1144                           	
  1145  0714                     l721:	
  1146                           	
  1147  0714                     l720:	
  1148  0714  1A11               	btfsc	(1164/8)^080h,(1164)&7
  1149  0715  2F17               	goto	u3271
  1150  0716  2F18               	goto	u3270
  1151  0717                     u3271:
  1152  0717  2F14               	goto	l721
  1153  0718                     u3270:
  1154                           	
  1155  0718                     l722:	
  1156                           	line	280
  1157                           ;I2c.c: 280: RCEN=1;
  1158  0718  1591               	bsf	(1163/8)^080h,(1163)&7
  1159                           	line	281
  1160                           ;I2c.c: 281: while(BF==0);
  1161  0719  2F1A               	goto	l723
  1162                           	
  1163  071A                     l724:	
  1164                           	
  1165  071A                     l723:	
  1166  071A  1C14               	btfss	(1184/8)^080h,(1184)&7
  1167  071B  2F1D               	goto	u3281
  1168  071C  2F1E               	goto	u3280
  1169  071D                     u3281:
  1170  071D  2F1A               	goto	l724
  1171  071E                     u3280:
  1172                           	
  1173  071E                     l725:	
  1174                           	line	282
  1175                           	
  1176  071E                     l2383:	
  1177                           ;I2c.c: 282: day1=SSPBUF;
  1178  071E  1283               	bcf	status, 5	;RP0=0, select bank0
  1179  071F  1303               	bcf	status, 6	;RP1=0, select bank0
  1180  0720  0813               	movf	(19),w	;volatile
  1181  0721  00FC               	movwf	(??_DS1307_READ+0)+0
  1182  0722  087C               	movf	(??_DS1307_READ+0)+0,w
  1183  0723  00B1               	movwf	(_day1)
  1184                           	line	283
  1185                           	
  1186  0724                     l2385:	
  1187                           ;I2c.c: 283: ACKDT=0;
  1188  0724  1683               	bsf	status, 5	;RP0=1, select bank1
  1189  0725  1303               	bcf	status, 6	;RP1=0, select bank1
  1190  0726  1291               	bcf	(1165/8)^080h,(1165)&7
  1191                           	line	284
  1192                           	
  1193  0727                     l2387:	
  1194                           ;I2c.c: 284: ACKEN=1;
  1195  0727  1611               	bsf	(1164/8)^080h,(1164)&7
  1196                           	line	285
  1197                           ;I2c.c: 285: while(ACKEN==1);
  1198  0728  2F29               	goto	l726
  1199                           	
  1200  0729                     l727:	
  1201                           	
  1202  0729                     l726:	
  1203  0729  1A11               	btfsc	(1164/8)^080h,(1164)&7
  1204  072A  2F2C               	goto	u3291
  1205  072B  2F2D               	goto	u3290
  1206  072C                     u3291:
  1207  072C  2F29               	goto	l727
  1208  072D                     u3290:
  1209                           	
  1210  072D                     l728:	
  1211                           	line	287
  1212                           ;I2c.c: 287: RCEN=1;
  1213  072D  1591               	bsf	(1163/8)^080h,(1163)&7
  1214                           	line	288
  1215                           ;I2c.c: 288: while(BF==0);
  1216  072E  2F2F               	goto	l729
  1217                           	
  1218  072F                     l730:	
  1219                           	
  1220  072F                     l729:	
  1221  072F  1C14               	btfss	(1184/8)^080h,(1184)&7
  1222  0730  2F32               	goto	u3301
  1223  0731  2F33               	goto	u3300
  1224  0732                     u3301:
  1225  0732  2F2F               	goto	l730
  1226  0733                     u3300:
  1227                           	
  1228  0733                     l731:	
  1229                           	line	289
  1230                           	
  1231  0733                     l2389:	
  1232                           ;I2c.c: 289: date1=SSPBUF;
  1233  0733  1283               	bcf	status, 5	;RP0=0, select bank0
  1234  0734  1303               	bcf	status, 6	;RP1=0, select bank0
  1235  0735  0813               	movf	(19),w	;volatile
  1236  0736  00FC               	movwf	(??_DS1307_READ+0)+0
  1237  0737  087C               	movf	(??_DS1307_READ+0)+0,w
  1238  0738  00B0               	movwf	(_date1)
  1239                           	line	290
  1240                           	
  1241  0739                     l2391:	
  1242                           ;I2c.c: 290: ACKDT=0;
  1243  0739  1683               	bsf	status, 5	;RP0=1, select bank1
  1244  073A  1303               	bcf	status, 6	;RP1=0, select bank1
  1245  073B  1291               	bcf	(1165/8)^080h,(1165)&7
  1246                           	line	291
  1247                           	
  1248  073C                     l2393:	
  1249                           ;I2c.c: 291: ACKEN=1;
  1250  073C  1611               	bsf	(1164/8)^080h,(1164)&7
  1251                           	line	292
  1252                           ;I2c.c: 292: while(ACKEN==1);
  1253  073D  2F3E               	goto	l732
  1254                           	
  1255  073E                     l733:	
  1256                           	
  1257  073E                     l732:	
  1258  073E  1A11               	btfsc	(1164/8)^080h,(1164)&7
  1259  073F  2F41               	goto	u3311
  1260  0740  2F42               	goto	u3310
  1261  0741                     u3311:
  1262  0741  2F3E               	goto	l733
  1263  0742                     u3310:
  1264                           	
  1265  0742                     l734:	
  1266                           	line	294
  1267                           ;I2c.c: 294: RCEN=1;
  1268  0742  1591               	bsf	(1163/8)^080h,(1163)&7
  1269                           	line	295
  1270                           ;I2c.c: 295: while(BF==0);
  1271  0743  2F44               	goto	l735
  1272                           	
  1273  0744                     l736:	
  1274                           	
  1275  0744                     l735:	
  1276  0744  1C14               	btfss	(1184/8)^080h,(1184)&7
  1277  0745  2F47               	goto	u3321
  1278  0746  2F48               	goto	u3320
  1279  0747                     u3321:
  1280  0747  2F44               	goto	l736
  1281  0748                     u3320:
  1282                           	
  1283  0748                     l737:	
  1284                           	line	296
  1285                           	
  1286  0748                     l2395:	
  1287                           ;I2c.c: 296: mon1=SSPBUF;
  1288  0748  1283               	bcf	status, 5	;RP0=0, select bank0
  1289  0749  1303               	bcf	status, 6	;RP1=0, select bank0
  1290  074A  0813               	movf	(19),w	;volatile
  1291  074B  00FC               	movwf	(??_DS1307_READ+0)+0
  1292  074C  087C               	movf	(??_DS1307_READ+0)+0,w
  1293  074D  00B4               	movwf	(_mon1)
  1294                           	line	297
  1295                           	
  1296  074E                     l2397:	
  1297                           ;I2c.c: 297: ACKDT=0;
  1298  074E  1683               	bsf	status, 5	;RP0=1, select bank1
  1299  074F  1303               	bcf	status, 6	;RP1=0, select bank1
  1300  0750  1291               	bcf	(1165/8)^080h,(1165)&7
  1301                           	line	298
  1302                           	
  1303  0751                     l2399:	
  1304                           ;I2c.c: 298: ACKEN=1;
  1305  0751  1611               	bsf	(1164/8)^080h,(1164)&7
  1306                           	line	299
  1307                           ;I2c.c: 299: while(ACKEN==1);
  1308  0752  2F53               	goto	l738
  1309                           	
  1310  0753                     l739:	
  1311                           	
  1312  0753                     l738:	
  1313  0753  1A11               	btfsc	(1164/8)^080h,(1164)&7
  1314  0754  2F56               	goto	u3331
  1315  0755  2F57               	goto	u3330
  1316  0756                     u3331:
  1317  0756  2F53               	goto	l739
  1318  0757                     u3330:
  1319                           	
  1320  0757                     l740:	
  1321                           	line	301
  1322                           ;I2c.c: 301: RCEN=1;
  1323  0757  1591               	bsf	(1163/8)^080h,(1163)&7
  1324                           	line	302
  1325                           ;I2c.c: 302: while(BF==0);
  1326  0758  2F59               	goto	l741
  1327                           	
  1328  0759                     l742:	
  1329                           	
  1330  0759                     l741:	
  1331  0759  1C14               	btfss	(1184/8)^080h,(1184)&7
  1332  075A  2F5C               	goto	u3341
  1333  075B  2F5D               	goto	u3340
  1334  075C                     u3341:
  1335  075C  2F59               	goto	l742
  1336  075D                     u3340:
  1337                           	
  1338  075D                     l743:	
  1339                           	line	303
  1340                           	
  1341  075D                     l2401:	
  1342                           ;I2c.c: 303: yr1=SSPBUF;
  1343  075D  1283               	bcf	status, 5	;RP0=0, select bank0
  1344  075E  1303               	bcf	status, 6	;RP1=0, select bank0
  1345  075F  0813               	movf	(19),w	;volatile
  1346  0760  00FC               	movwf	(??_DS1307_READ+0)+0
  1347  0761  087C               	movf	(??_DS1307_READ+0)+0,w
  1348  0762  00B6               	movwf	(_yr1)
  1349                           	line	304
  1350                           	
  1351  0763                     l2403:	
  1352                           ;I2c.c: 304: ACKDT=0;
  1353  0763  1683               	bsf	status, 5	;RP0=1, select bank1
  1354  0764  1303               	bcf	status, 6	;RP1=0, select bank1
  1355  0765  1291               	bcf	(1165/8)^080h,(1165)&7
  1356                           	line	305
  1357                           	
  1358  0766                     l2405:	
  1359                           ;I2c.c: 305: ACKEN=1;
  1360  0766  1611               	bsf	(1164/8)^080h,(1164)&7
  1361                           	line	306
  1362                           ;I2c.c: 306: while(ACKEN==1);
  1363  0767  2F68               	goto	l744
  1364                           	
  1365  0768                     l745:	
  1366                           	
  1367  0768                     l744:	
  1368  0768  1A11               	btfsc	(1164/8)^080h,(1164)&7
  1369  0769  2F6B               	goto	u3351
  1370  076A  2F6C               	goto	u3350
  1371  076B                     u3351:
  1372  076B  2F68               	goto	l745
  1373  076C                     u3350:
  1374                           	
  1375  076C                     l746:	
  1376                           	line	308
  1377                           ;I2c.c: 308: RCEN=1;
  1378  076C  1591               	bsf	(1163/8)^080h,(1163)&7
  1379                           	line	309
  1380                           ;I2c.c: 309: while(BF==0);
  1381  076D  2F6E               	goto	l747
  1382                           	
  1383  076E                     l748:	
  1384                           	
  1385  076E                     l747:	
  1386  076E  1C14               	btfss	(1184/8)^080h,(1184)&7
  1387  076F  2F71               	goto	u3361
  1388  0770  2F72               	goto	u3360
  1389  0771                     u3361:
  1390  0771  2F6E               	goto	l748
  1391  0772                     u3360:
  1392                           	
  1393  0772                     l749:	
  1394                           	line	310
  1395                           	
  1396  0772                     l2407:	
  1397                           ;I2c.c: 310: con1=SSPBUF;
  1398  0772  1283               	bcf	status, 5	;RP0=0, select bank0
  1399  0773  1303               	bcf	status, 6	;RP1=0, select bank0
  1400  0774  0813               	movf	(19),w	;volatile
  1401  0775  00FC               	movwf	(??_DS1307_READ+0)+0
  1402  0776  087C               	movf	(??_DS1307_READ+0)+0,w
  1403  0777  00AF               	movwf	(_con1)
  1404                           	line	311
  1405                           	
  1406  0778                     l2409:	
  1407                           ;I2c.c: 311: ACKDT=1;
  1408  0778  1683               	bsf	status, 5	;RP0=1, select bank1
  1409  0779  1303               	bcf	status, 6	;RP1=0, select bank1
  1410  077A  1691               	bsf	(1165/8)^080h,(1165)&7
  1411                           	line	312
  1412                           	
  1413  077B                     l2411:	
  1414                           ;I2c.c: 312: ACKEN=1;
  1415  077B  1611               	bsf	(1164/8)^080h,(1164)&7
  1416                           	line	313
  1417                           ;I2c.c: 313: while(ACKEN==1);
  1418  077C  2F7D               	goto	l750
  1419                           	
  1420  077D                     l751:	
  1421                           	
  1422  077D                     l750:	
  1423  077D  1A11               	btfsc	(1164/8)^080h,(1164)&7
  1424  077E  2F80               	goto	u3371
  1425  077F  2F81               	goto	u3370
  1426  0780                     u3371:
  1427  0780  2F7D               	goto	l751
  1428  0781                     u3370:
  1429                           	
  1430  0781                     l752:	
  1431                           	line	315
  1432                           ;I2c.c: 315: PEN=1;
  1433  0781  1511               	bsf	(1162/8)^080h,(1162)&7
  1434                           	line	316
  1435                           ;I2c.c: 316: while(PEN==1);
  1436  0782  2F83               	goto	l753
  1437                           	
  1438  0783                     l754:	
  1439                           	
  1440  0783                     l753:	
  1441  0783  1911               	btfsc	(1162/8)^080h,(1162)&7
  1442  0784  2F86               	goto	u3381
  1443  0785  2F87               	goto	u3380
  1444  0786                     u3381:
  1445  0786  2F83               	goto	l754
  1446  0787                     u3380:
  1447                           	
  1448  0787                     l755:	
  1449                           	line	318
  1450                           	
  1451  0787                     l2413:	
  1452                           ;I2c.c: 318: lcd_command(0x88);
  1453  0787  3088               	movlw	low(088h)
  1454  0788  00F2               	movwf	(?_lcd_command)
  1455  0789  3000               	movlw	high(088h)
  1456  078A  00F3               	movwf	((?_lcd_command))+1
  1457  078B  120A  118A  22DB   	fcall	_lcd_command
              120A  118A         
  1458                           	line	319
  1459                           ;I2c.c: 319: bcd_to_ascii(hr1);
  1460  0790  1283               	bcf	status, 5	;RP0=0, select bank0
  1461  0791  1303               	bcf	status, 6	;RP1=0, select bank0
  1462  0792  0832               	movf	(_hr1),w
  1463  0793  120A  118A  23C1   	fcall	_bcd_to_ascii
              120A  118A         
  1464                           	line	320
  1465                           ;I2c.c: 320: delay(1000);
  1466  0798  30E8               	movlw	low(03E8h)
  1467  0799  00F0               	movwf	(?_delay)
  1468  079A  3003               	movlw	high(03E8h)
  1469  079B  00F1               	movwf	((?_delay))+1
  1470  079C  120A  118A  229B   	fcall	_delay
              120A  118A         
  1471                           	line	321
  1472                           ;I2c.c: 321: lcd_data(':');
  1473  07A1  303A               	movlw	low(03Ah)
  1474  07A2  00F2               	movwf	(?_lcd_data)
  1475  07A3  3000               	movlw	high(03Ah)
  1476  07A4  00F3               	movwf	((?_lcd_data))+1
  1477  07A5  120A  118A  230F   	fcall	_lcd_data
              120A  118A         
  1478                           	line	323
  1479                           ;I2c.c: 323: bcd_to_ascii(min1);
  1480  07AA  1283               	bcf	status, 5	;RP0=0, select bank0
  1481  07AB  1303               	bcf	status, 6	;RP1=0, select bank0
  1482  07AC  0833               	movf	(_min1),w
  1483  07AD  120A  118A  23C1   	fcall	_bcd_to_ascii
              120A  118A         
  1484                           	line	325
  1485                           ;I2c.c: 325: lcd_data(':');
  1486  07B2  303A               	movlw	low(03Ah)
  1487  07B3  00F2               	movwf	(?_lcd_data)
  1488  07B4  3000               	movlw	high(03Ah)
  1489  07B5  00F3               	movwf	((?_lcd_data))+1
  1490  07B6  120A  118A  230F   	fcall	_lcd_data
              120A  118A         
  1491                           	line	327
  1492                           ;I2c.c: 327: bcd_to_ascii(sec1);
  1493  07BB  1283               	bcf	status, 5	;RP0=0, select bank0
  1494  07BC  1303               	bcf	status, 6	;RP1=0, select bank0
  1495  07BD  0835               	movf	(_sec1),w
  1496  07BE  120A  118A  23C1   	fcall	_bcd_to_ascii
              120A  118A         
  1497                           	line	328
  1498                           ;I2c.c: 328: delay(1000);
  1499  07C3  30E8               	movlw	low(03E8h)
  1500  07C4  00F0               	movwf	(?_delay)
  1501  07C5  3003               	movlw	high(03E8h)
  1502  07C6  00F1               	movwf	((?_delay))+1
  1503  07C7  120A  118A  229B   	fcall	_delay
              120A  118A         
  1504                           	line	330
  1505                           ;I2c.c: 330: lcd_command(0xC8);
  1506  07CC  30C8               	movlw	low(0C8h)
  1507  07CD  00F2               	movwf	(?_lcd_command)
  1508  07CE  3000               	movlw	high(0C8h)
  1509  07CF  00F3               	movwf	((?_lcd_command))+1
  1510  07D0  120A  118A  22DB   	fcall	_lcd_command
              120A  118A         
  1511                           	line	331
  1512                           ;I2c.c: 331: bcd_to_ascii(date1);
  1513  07D5  1283               	bcf	status, 5	;RP0=0, select bank0
  1514  07D6  1303               	bcf	status, 6	;RP1=0, select bank0
  1515  07D7  0830               	movf	(_date1),w
  1516  07D8  120A  118A  23C1   	fcall	_bcd_to_ascii
              120A  118A         
  1517                           	line	332
  1518                           ;I2c.c: 332: lcd_data('/');
  1519  07DD  302F               	movlw	low(02Fh)
  1520  07DE  00F2               	movwf	(?_lcd_data)
  1521  07DF  3000               	movlw	high(02Fh)
  1522  07E0  00F3               	movwf	((?_lcd_data))+1
  1523  07E1  120A  118A  230F   	fcall	_lcd_data
              120A  118A         
  1524                           	line	334
  1525                           ;I2c.c: 334: bcd_to_ascii(mon1);
  1526  07E6  1283               	bcf	status, 5	;RP0=0, select bank0
  1527  07E7  1303               	bcf	status, 6	;RP1=0, select bank0
  1528  07E8  0834               	movf	(_mon1),w
  1529  07E9  120A  118A  23C1   	fcall	_bcd_to_ascii
              120A  118A         
  1530                           	line	336
  1531                           ;I2c.c: 336: lcd_data('/');
  1532  07EE  302F               	movlw	low(02Fh)
  1533  07EF  00F2               	movwf	(?_lcd_data)
  1534  07F0  3000               	movlw	high(02Fh)
  1535  07F1  00F3               	movwf	((?_lcd_data))+1
  1536  07F2  120A  118A  230F   	fcall	_lcd_data
              120A  118A         
  1537                           	line	338
  1538                           ;I2c.c: 338: bcd_to_ascii(yr1);
  1539  07F7  1283               	bcf	status, 5	;RP0=0, select bank0
  1540  07F8  1303               	bcf	status, 6	;RP1=0, select bank0
  1541  07F9  0836               	movf	(_yr1),w
  1542  07FA  120A  118A  23C1   	fcall	_bcd_to_ascii
              120A  118A         
  1543                           	line	340
  1544                           	
  1545  07FF                     l756:	
  1546  07FF  0008               	return
  1547                           	opt stack 0
  1548                           GLOBAL	__end_of_DS1307_READ
  1549  0800                     	__end_of_DS1307_READ:
  1550 ;; =============== function _DS1307_READ ends ============
  1551                           
  1552                           	signat	_DS1307_READ,8312
  1553                           	global	_bcd_to_ascii
  1554                           psect	text246,local,class=CODE,delta=2
  1555                           global __ptext246
  1556  03C1                     __ptext246:
  1557                           
  1558 ;; *************** function _bcd_to_ascii *****************
  1559 ;; Defined at:
  1560 ;;		line 119 in file "C:\Users\TECH\Desktop\madhu pic folder\I2C\I2c\I2c.c"
  1561 ;; Parameters:    Size  Location     Type
  1562 ;;  value           1    wreg     unsigned char 
  1563 ;; Auto vars:     Size  Location     Type
  1564 ;;  value           1    9[COMMON] unsigned char 
  1565 ;;  bcd             1   10[COMMON] unsigned char 
  1566 ;; Return value:  Size  Location     Type
  1567 ;;		None               void
  1568 ;; Registers used:
  1569 ;;		wreg, status,2, status,0, pclath, cstack
  1570 ;; Tracked objects:
  1571 ;;		On entry : 0/0
  1572 ;;		On exit  : 0/0
  1573 ;;		Unchanged: 0/0
  1574 ;; Data sizes:     COMMON   BANK0   BANK1   BANK3   BANK2
  1575 ;;      Params:         0       0       0       0       0
  1576 ;;      Locals:         2       0       0       0       0
  1577 ;;      Temps:          2       0       0       0       0
  1578 ;;      Totals:         4       0       0       0       0
  1579 ;;Total ram usage:        4 bytes
  1580 ;; Hardware stack levels used:    1
  1581 ;; Hardware stack levels required when called:    2
  1582 ;; This function calls:
  1583 ;;		_lcd_data
  1584 ;;		_delay
  1585 ;; This function is called by:
  1586 ;;		_DS1307_READ
  1587 ;; This function uses a non-reentrant model
  1588 ;;
  1589                           psect	text246
  1590                           	file	"C:\Users\TECH\Desktop\madhu pic folder\I2C\I2c\I2c.c"
  1591                           	line	119
  1592                           	global	__size_of_bcd_to_ascii
  1593  0054                     	__size_of_bcd_to_ascii	equ	__end_of_bcd_to_ascii-_bcd_to_ascii
  1594                           	
  1595  03C1                     _bcd_to_ascii:	
  1596                           	opt	stack 6
  1597                           ; Regs used in _bcd_to_ascii: [wreg+status,2+status,0+pclath+cstack]
  1598                           ;bcd_to_ascii@value stored from wreg
  1599                           	line	121
  1600  03C1  00F9               	movwf	(bcd_to_ascii@value)
  1601                           	
  1602  03C2                     l2335:	
  1603                           ;I2c.c: 120: unsigned char bcd;
  1604                           ;I2c.c: 121: bcd=value;
  1605  03C2  0879               	movf	(bcd_to_ascii@value),w
  1606  03C3  00F7               	movwf	(??_bcd_to_ascii+0)+0
  1607  03C4  0877               	movf	(??_bcd_to_ascii+0)+0,w
  1608  03C5  00FA               	movwf	(bcd_to_ascii@bcd)
  1609                           	line	122
  1610                           	
  1611  03C6                     l2337:	
  1612                           ;I2c.c: 122: bcd=bcd&0xf0;
  1613  03C6  087A               	movf	(bcd_to_ascii@bcd),w
  1614  03C7  39F0               	andlw	0F0h
  1615  03C8  00F7               	movwf	(??_bcd_to_ascii+0)+0
  1616  03C9  0877               	movf	(??_bcd_to_ascii+0)+0,w
  1617  03CA  00FA               	movwf	(bcd_to_ascii@bcd)
  1618                           	line	123
  1619                           	
  1620  03CB                     l2339:	
  1621                           ;I2c.c: 123: bcd=bcd>>4;
  1622  03CB  087A               	movf	(bcd_to_ascii@bcd),w
  1623  03CC  00F7               	movwf	(??_bcd_to_ascii+0)+0
  1624  03CD  3004               	movlw	04h
  1625  03CE                     u3135:
  1626  03CE  1003               	clrc
  1627  03CF  0CF7               	rrf	(??_bcd_to_ascii+0)+0,f
  1628  03D0  3EFF               	addlw	-1
  1629  03D1  1D03               	skipz
  1630  03D2  2BCE               	goto	u3135
  1631  03D3  0877               	movf	0+(??_bcd_to_ascii+0)+0,w
  1632  03D4  00F8               	movwf	(??_bcd_to_ascii+1)+0
  1633  03D5  0878               	movf	(??_bcd_to_ascii+1)+0,w
  1634  03D6  00FA               	movwf	(bcd_to_ascii@bcd)
  1635                           	line	124
  1636                           	
  1637  03D7                     l2341:	
  1638                           ;I2c.c: 124: bcd=bcd|0x30;
  1639  03D7  087A               	movf	(bcd_to_ascii@bcd),w
  1640  03D8  3830               	iorlw	030h
  1641  03D9  00F7               	movwf	(??_bcd_to_ascii+0)+0
  1642  03DA  0877               	movf	(??_bcd_to_ascii+0)+0,w
  1643  03DB  00FA               	movwf	(bcd_to_ascii@bcd)
  1644                           	line	125
  1645                           	
  1646  03DC                     l2343:	
  1647                           ;I2c.c: 125: lcd_data(bcd);
  1648  03DC  087A               	movf	(bcd_to_ascii@bcd),w
  1649  03DD  00F7               	movwf	(??_bcd_to_ascii+0)+0
  1650  03DE  01F8               	clrf	(??_bcd_to_ascii+0)+0+1
  1651  03DF  0877               	movf	0+(??_bcd_to_ascii+0)+0,w
  1652  03E0  00F2               	movwf	(?_lcd_data)
  1653  03E1  0878               	movf	1+(??_bcd_to_ascii+0)+0,w
  1654  03E2  00F3               	movwf	(?_lcd_data+1)
  1655  03E3  120A  118A  230F   	fcall	_lcd_data
              120A  118A         
  1656                           	line	126
  1657                           	
  1658  03E8                     l2345:	
  1659                           ;I2c.c: 126: delay(50000);
  1660  03E8  3050               	movlw	low(0C350h)
  1661  03E9  00F0               	movwf	(?_delay)
  1662  03EA  30C3               	movlw	high(0C350h)
  1663  03EB  00F1               	movwf	((?_delay))+1
  1664  03EC  120A  118A  229B   	fcall	_delay
              120A  118A         
  1665                           	line	127
  1666                           	
  1667  03F1                     l2347:	
  1668                           ;I2c.c: 127: bcd=value;
  1669  03F1  0879               	movf	(bcd_to_ascii@value),w
  1670  03F2  00F7               	movwf	(??_bcd_to_ascii+0)+0
  1671  03F3  0877               	movf	(??_bcd_to_ascii+0)+0,w
  1672  03F4  00FA               	movwf	(bcd_to_ascii@bcd)
  1673                           	line	128
  1674                           	
  1675  03F5                     l2349:	
  1676                           ;I2c.c: 128: bcd=bcd&0x0f;
  1677  03F5  087A               	movf	(bcd_to_ascii@bcd),w
  1678  03F6  390F               	andlw	0Fh
  1679  03F7  00F7               	movwf	(??_bcd_to_ascii+0)+0
  1680  03F8  0877               	movf	(??_bcd_to_ascii+0)+0,w
  1681  03F9  00FA               	movwf	(bcd_to_ascii@bcd)
  1682                           	line	129
  1683                           	
  1684  03FA                     l2351:	
  1685                           ;I2c.c: 129: bcd=bcd|0x30;
  1686  03FA  087A               	movf	(bcd_to_ascii@bcd),w
  1687  03FB  3830               	iorlw	030h
  1688  03FC  00F7               	movwf	(??_bcd_to_ascii+0)+0
  1689  03FD  0877               	movf	(??_bcd_to_ascii+0)+0,w
  1690  03FE  00FA               	movwf	(bcd_to_ascii@bcd)
  1691                           	line	130
  1692                           	
  1693  03FF                     l2353:	
  1694                           ;I2c.c: 130: lcd_data(bcd);
  1695  03FF  087A               	movf	(bcd_to_ascii@bcd),w
  1696  0400  00F7               	movwf	(??_bcd_to_ascii+0)+0
  1697  0401  01F8               	clrf	(??_bcd_to_ascii+0)+0+1
  1698  0402  0877               	movf	0+(??_bcd_to_ascii+0)+0,w
  1699  0403  00F2               	movwf	(?_lcd_data)
  1700  0404  0878               	movf	1+(??_bcd_to_ascii+0)+0,w
  1701  0405  00F3               	movwf	(?_lcd_data+1)
  1702  0406  120A  118A  230F   	fcall	_lcd_data
              120A  118A         
  1703                           	line	131
  1704                           	
  1705  040B                     l2355:	
  1706                           ;I2c.c: 131: delay(1000);
  1707  040B  30E8               	movlw	low(03E8h)
  1708  040C  00F0               	movwf	(?_delay)
  1709  040D  3003               	movlw	high(03E8h)
  1710  040E  00F1               	movwf	((?_delay))+1
  1711  040F  120A  118A  229B   	fcall	_delay
              120A  118A         
  1712                           	line	132
  1713                           	
  1714  0414                     l606:	
  1715  0414  0008               	return
  1716                           	opt stack 0
  1717                           GLOBAL	__end_of_bcd_to_ascii
  1718  0415                     	__end_of_bcd_to_ascii:
  1719 ;; =============== function _bcd_to_ascii ends ============
  1720                           
  1721                           	signat	_bcd_to_ascii,4216
  1722                           	global	_DS1307_WRITE
  1723                           psect	text247,local,class=CODE,delta=2
  1724                           global __ptext247
  1725  056B                     __ptext247:
  1726                           
  1727 ;; *************** function _DS1307_WRITE *****************
  1728 ;; Defined at:
  1729 ;;		line 146 in file "C:\Users\TECH\Desktop\madhu pic folder\I2C\I2c\I2c.c"
  1730 ;; Parameters:    Size  Location     Type
  1731 ;;  _sec            1    wreg     unsigned char 
  1732 ;;  _min            1    4[BANK0 ] unsigned char 
  1733 ;;  _hr             1    5[BANK0 ] unsigned char 
  1734 ;;  _day            1    6[BANK0 ] unsigned char 
  1735 ;;  _date           1    7[BANK0 ] unsigned char 
  1736 ;;  _mon            1    8[BANK0 ] unsigned char 
  1737 ;;  _yr             1    9[BANK0 ] unsigned char 
  1738 ;; Auto vars:     Size  Location     Type
  1739 ;;  _sec            1   12[COMMON] unsigned char 
  1740 ;; Return value:  Size  Location     Type
  1741 ;;		None               void
  1742 ;; Registers used:
  1743 ;;		wreg, status,2, status,0, pclath, cstack
  1744 ;; Tracked objects:
  1745 ;;		On entry : 0/0
  1746 ;;		On exit  : 0/0
  1747 ;;		Unchanged: 0/0
  1748 ;; Data sizes:     COMMON   BANK0   BANK1   BANK3   BANK2
  1749 ;;      Params:         0       6       0       0       0
  1750 ;;      Locals:         1       0       0       0       0
  1751 ;;      Temps:          0       0       0       0       0
  1752 ;;      Totals:         1       6       0       0       0
  1753 ;;Total ram usage:        7 bytes
  1754 ;; Hardware stack levels used:    1
  1755 ;; Hardware stack levels required when called:    2
  1756 ;; This function calls:
  1757 ;;		_decimal_to_bcd
  1758 ;; This function is called by:
  1759 ;;		_main
  1760 ;; This function uses a non-reentrant model
  1761 ;;
  1762                           psect	text247
  1763                           	file	"C:\Users\TECH\Desktop\madhu pic folder\I2C\I2c\I2c.c"
  1764                           	line	146
  1765                           	global	__size_of_DS1307_WRITE
  1766  011A                     	__size_of_DS1307_WRITE	equ	__end_of_DS1307_WRITE-_DS1307_WRITE
  1767                           	
  1768  056B                     _DS1307_WRITE:	
  1769                           	opt	stack 7
  1770                           ; Regs used in _DS1307_WRITE: [wreg+status,2+status,0+pclath+cstack]
  1771                           ;DS1307_WRITE@_sec stored from wreg
  1772                           	line	149
  1773  056B  00FC               	movwf	(DS1307_WRITE@_sec)
  1774                           	
  1775  056C                     l2313:	
  1776                           ;I2c.c: 149: SEN=1;
  1777  056C  1683               	bsf	status, 5	;RP0=1, select bank1
  1778  056D  1303               	bcf	status, 6	;RP1=0, select bank1
  1779  056E  1411               	bsf	(1160/8)^080h,(1160)&7
  1780                           	line	150
  1781                           ;I2c.c: 150: while(SEN==1);
  1782  056F  2D70               	goto	l612
  1783                           	
  1784  0570                     l613:	
  1785                           	
  1786  0570                     l612:	
  1787  0570  1811               	btfsc	(1160/8)^080h,(1160)&7
  1788  0571  2D73               	goto	u2911
  1789  0572  2D74               	goto	u2910
  1790  0573                     u2911:
  1791  0573  2D70               	goto	l613
  1792  0574                     u2910:
  1793                           	
  1794  0574                     l614:	
  1795                           	line	151
  1796                           ;I2c.c: 151: SSPIF=0;
  1797  0574  1283               	bcf	status, 5	;RP0=0, select bank0
  1798  0575  1303               	bcf	status, 6	;RP1=0, select bank0
  1799  0576  118C               	bcf	(99/8),(99)&7
  1800                           	line	154
  1801                           	
  1802  0577                     l2315:	
  1803                           ;I2c.c: 154: SSPBUF=0xD0;
  1804  0577  30D0               	movlw	(0D0h)
  1805  0578  0093               	movwf	(19)	;volatile
  1806                           	line	155
  1807                           ;I2c.c: 155: while(SSPIF==0);
  1808  0579  2D7A               	goto	l615
  1809                           	
  1810  057A                     l616:	
  1811                           	
  1812  057A                     l615:	
  1813  057A  1D8C               	btfss	(99/8),(99)&7
  1814  057B  2D7D               	goto	u2921
  1815  057C  2D7E               	goto	u2920
  1816  057D                     u2921:
  1817  057D  2D7A               	goto	l616
  1818  057E                     u2920:
  1819                           	
  1820  057E                     l617:	
  1821                           	line	156
  1822                           ;I2c.c: 156: while(ACKSTAT==1);
  1823  057E  2D7F               	goto	l618
  1824                           	
  1825  057F                     l619:	
  1826                           	
  1827  057F                     l618:	
  1828  057F  1683               	bsf	status, 5	;RP0=1, select bank1
  1829  0580  1303               	bcf	status, 6	;RP1=0, select bank1
  1830  0581  1B11               	btfsc	(1166/8)^080h,(1166)&7
  1831  0582  2D84               	goto	u2931
  1832  0583  2D85               	goto	u2930
  1833  0584                     u2931:
  1834  0584  2D7F               	goto	l619
  1835  0585                     u2930:
  1836                           	
  1837  0585                     l620:	
  1838                           	line	157
  1839                           ;I2c.c: 157: SSPIF=0;
  1840  0585  1283               	bcf	status, 5	;RP0=0, select bank0
  1841  0586  1303               	bcf	status, 6	;RP1=0, select bank0
  1842  0587  118C               	bcf	(99/8),(99)&7
  1843                           	line	158
  1844                           ;I2c.c: 158: ACKSTAT=0;
  1845  0588  1683               	bsf	status, 5	;RP0=1, select bank1
  1846  0589  1303               	bcf	status, 6	;RP1=0, select bank1
  1847  058A  1311               	bcf	(1166/8)^080h,(1166)&7
  1848                           	line	160
  1849                           	
  1850  058B                     l2317:	
  1851                           ;I2c.c: 160: SSPBUF=0x00;
  1852  058B  1283               	bcf	status, 5	;RP0=0, select bank0
  1853  058C  1303               	bcf	status, 6	;RP1=0, select bank0
  1854  058D  0193               	clrf	(19)	;volatile
  1855                           	line	161
  1856                           ;I2c.c: 161: while(SSPIF==0);
  1857  058E  2D8F               	goto	l621
  1858                           	
  1859  058F                     l622:	
  1860                           	
  1861  058F                     l621:	
  1862  058F  1D8C               	btfss	(99/8),(99)&7
  1863  0590  2D92               	goto	u2941
  1864  0591  2D93               	goto	u2940
  1865  0592                     u2941:
  1866  0592  2D8F               	goto	l622
  1867  0593                     u2940:
  1868                           	
  1869  0593                     l623:	
  1870                           	line	162
  1871                           ;I2c.c: 162: while(ACKSTAT==1);
  1872  0593  2D94               	goto	l624
  1873                           	
  1874  0594                     l625:	
  1875                           	
  1876  0594                     l624:	
  1877  0594  1683               	bsf	status, 5	;RP0=1, select bank1
  1878  0595  1303               	bcf	status, 6	;RP1=0, select bank1
  1879  0596  1B11               	btfsc	(1166/8)^080h,(1166)&7
  1880  0597  2D99               	goto	u2951
  1881  0598  2D9A               	goto	u2950
  1882  0599                     u2951:
  1883  0599  2D94               	goto	l625
  1884  059A                     u2950:
  1885                           	
  1886  059A                     l626:	
  1887                           	line	163
  1888                           ;I2c.c: 163: SSPIF=0;
  1889  059A  1283               	bcf	status, 5	;RP0=0, select bank0
  1890  059B  1303               	bcf	status, 6	;RP1=0, select bank0
  1891  059C  118C               	bcf	(99/8),(99)&7
  1892                           	line	164
  1893                           ;I2c.c: 164: ACKSTAT=0;
  1894  059D  1683               	bsf	status, 5	;RP0=1, select bank1
  1895  059E  1303               	bcf	status, 6	;RP1=0, select bank1
  1896  059F  1311               	bcf	(1166/8)^080h,(1166)&7
  1897                           	line	166
  1898                           	
  1899  05A0                     l2319:	
  1900                           ;I2c.c: 166: SSPBUF=decimal_to_bcd(_sec);
  1901  05A0  087C               	movf	(DS1307_WRITE@_sec),w
  1902  05A1  120A  118A  2379   	fcall	_decimal_to_bcd
              120A  118A         
  1903  05A6  1283               	bcf	status, 5	;RP0=0, select bank0
  1904  05A7  1303               	bcf	status, 6	;RP1=0, select bank0
  1905  05A8  0093               	movwf	(19)	;volatile
  1906                           	line	167
  1907                           ;I2c.c: 167: while(SSPIF==0);
  1908  05A9  2DAA               	goto	l627
  1909                           	
  1910  05AA                     l628:	
  1911                           	
  1912  05AA                     l627:	
  1913  05AA  1D8C               	btfss	(99/8),(99)&7
  1914  05AB  2DAD               	goto	u2961
  1915  05AC  2DAE               	goto	u2960
  1916  05AD                     u2961:
  1917  05AD  2DAA               	goto	l628
  1918  05AE                     u2960:
  1919                           	
  1920  05AE                     l629:	
  1921                           	line	168
  1922                           ;I2c.c: 168: while(ACKSTAT==1);
  1923  05AE  2DAF               	goto	l630
  1924                           	
  1925  05AF                     l631:	
  1926                           	
  1927  05AF                     l630:	
  1928  05AF  1683               	bsf	status, 5	;RP0=1, select bank1
  1929  05B0  1303               	bcf	status, 6	;RP1=0, select bank1
  1930  05B1  1B11               	btfsc	(1166/8)^080h,(1166)&7
  1931  05B2  2DB4               	goto	u2971
  1932  05B3  2DB5               	goto	u2970
  1933  05B4                     u2971:
  1934  05B4  2DAF               	goto	l631
  1935  05B5                     u2970:
  1936                           	
  1937  05B5                     l632:	
  1938                           	line	169
  1939                           ;I2c.c: 169: SSPIF=0;
  1940  05B5  1283               	bcf	status, 5	;RP0=0, select bank0
  1941  05B6  1303               	bcf	status, 6	;RP1=0, select bank0
  1942  05B7  118C               	bcf	(99/8),(99)&7
  1943                           	line	170
  1944                           ;I2c.c: 170: ACKSTAT=0;
  1945  05B8  1683               	bsf	status, 5	;RP0=1, select bank1
  1946  05B9  1303               	bcf	status, 6	;RP1=0, select bank1
  1947  05BA  1311               	bcf	(1166/8)^080h,(1166)&7
  1948                           	line	173
  1949                           	
  1950  05BB                     l2321:	
  1951                           ;I2c.c: 173: SSPBUF=decimal_to_bcd(_min);
  1952  05BB  1283               	bcf	status, 5	;RP0=0, select bank0
  1953  05BC  1303               	bcf	status, 6	;RP1=0, select bank0
  1954  05BD  0824               	movf	(DS1307_WRITE@_min),w
  1955  05BE  120A  118A  2379   	fcall	_decimal_to_bcd
              120A  118A         
  1956  05C3  1283               	bcf	status, 5	;RP0=0, select bank0
  1957  05C4  1303               	bcf	status, 6	;RP1=0, select bank0
  1958  05C5  0093               	movwf	(19)	;volatile
  1959                           	line	174
  1960                           ;I2c.c: 174: while(SSPIF==0);
  1961  05C6  2DC7               	goto	l633
  1962                           	
  1963  05C7                     l634:	
  1964                           	
  1965  05C7                     l633:	
  1966  05C7  1D8C               	btfss	(99/8),(99)&7
  1967  05C8  2DCA               	goto	u2981
  1968  05C9  2DCB               	goto	u2980
  1969  05CA                     u2981:
  1970  05CA  2DC7               	goto	l634
  1971  05CB                     u2980:
  1972                           	
  1973  05CB                     l635:	
  1974                           	line	175
  1975                           ;I2c.c: 175: while(ACKSTAT==1);
  1976  05CB  2DCC               	goto	l636
  1977                           	
  1978  05CC                     l637:	
  1979                           	
  1980  05CC                     l636:	
  1981  05CC  1683               	bsf	status, 5	;RP0=1, select bank1
  1982  05CD  1303               	bcf	status, 6	;RP1=0, select bank1
  1983  05CE  1B11               	btfsc	(1166/8)^080h,(1166)&7
  1984  05CF  2DD1               	goto	u2991
  1985  05D0  2DD2               	goto	u2990
  1986  05D1                     u2991:
  1987  05D1  2DCC               	goto	l637
  1988  05D2                     u2990:
  1989                           	
  1990  05D2                     l638:	
  1991                           	line	176
  1992                           ;I2c.c: 176: SSPIF=0;
  1993  05D2  1283               	bcf	status, 5	;RP0=0, select bank0
  1994  05D3  1303               	bcf	status, 6	;RP1=0, select bank0
  1995  05D4  118C               	bcf	(99/8),(99)&7
  1996                           	line	177
  1997                           ;I2c.c: 177: ACKSTAT=0;
  1998  05D5  1683               	bsf	status, 5	;RP0=1, select bank1
  1999  05D6  1303               	bcf	status, 6	;RP1=0, select bank1
  2000  05D7  1311               	bcf	(1166/8)^080h,(1166)&7
  2001                           	line	180
  2002                           	
  2003  05D8                     l2323:	
  2004                           ;I2c.c: 180: SSPBUF=decimal_to_bcd(_hr);
  2005  05D8  1283               	bcf	status, 5	;RP0=0, select bank0
  2006  05D9  1303               	bcf	status, 6	;RP1=0, select bank0
  2007  05DA  0825               	movf	(DS1307_WRITE@_hr),w
  2008  05DB  120A  118A  2379   	fcall	_decimal_to_bcd
              120A  118A         
  2009  05E0  1283               	bcf	status, 5	;RP0=0, select bank0
  2010  05E1  1303               	bcf	status, 6	;RP1=0, select bank0
  2011  05E2  0093               	movwf	(19)	;volatile
  2012                           	line	181
  2013                           ;I2c.c: 181: while(SSPIF==0);
  2014  05E3  2DE4               	goto	l639
  2015                           	
  2016  05E4                     l640:	
  2017                           	
  2018  05E4                     l639:	
  2019  05E4  1D8C               	btfss	(99/8),(99)&7
  2020  05E5  2DE7               	goto	u3001
  2021  05E6  2DE8               	goto	u3000
  2022  05E7                     u3001:
  2023  05E7  2DE4               	goto	l640
  2024  05E8                     u3000:
  2025                           	
  2026  05E8                     l641:	
  2027                           	line	182
  2028                           ;I2c.c: 182: while(ACKSTAT==1);
  2029  05E8  2DE9               	goto	l642
  2030                           	
  2031  05E9                     l643:	
  2032                           	
  2033  05E9                     l642:	
  2034  05E9  1683               	bsf	status, 5	;RP0=1, select bank1
  2035  05EA  1303               	bcf	status, 6	;RP1=0, select bank1
  2036  05EB  1B11               	btfsc	(1166/8)^080h,(1166)&7
  2037  05EC  2DEE               	goto	u3011
  2038  05ED  2DEF               	goto	u3010
  2039  05EE                     u3011:
  2040  05EE  2DE9               	goto	l643
  2041  05EF                     u3010:
  2042                           	
  2043  05EF                     l644:	
  2044                           	line	183
  2045                           ;I2c.c: 183: SSPIF=0;
  2046  05EF  1283               	bcf	status, 5	;RP0=0, select bank0
  2047  05F0  1303               	bcf	status, 6	;RP1=0, select bank0
  2048  05F1  118C               	bcf	(99/8),(99)&7
  2049                           	line	184
  2050                           ;I2c.c: 184: ACKSTAT=0;
  2051  05F2  1683               	bsf	status, 5	;RP0=1, select bank1
  2052  05F3  1303               	bcf	status, 6	;RP1=0, select bank1
  2053  05F4  1311               	bcf	(1166/8)^080h,(1166)&7
  2054                           	line	186
  2055                           	
  2056  05F5                     l2325:	
  2057                           ;I2c.c: 186: SSPBUF=decimal_to_bcd(_day);
  2058  05F5  1283               	bcf	status, 5	;RP0=0, select bank0
  2059  05F6  1303               	bcf	status, 6	;RP1=0, select bank0
  2060  05F7  0826               	movf	(DS1307_WRITE@_day),w
  2061  05F8  120A  118A  2379   	fcall	_decimal_to_bcd
              120A  118A         
  2062  05FD  1283               	bcf	status, 5	;RP0=0, select bank0
  2063  05FE  1303               	bcf	status, 6	;RP1=0, select bank0
  2064  05FF  0093               	movwf	(19)	;volatile
  2065                           	line	187
  2066                           ;I2c.c: 187: while(SSPIF==0);
  2067  0600  2E01               	goto	l645
  2068                           	
  2069  0601                     l646:	
  2070                           	
  2071  0601                     l645:	
  2072  0601  1D8C               	btfss	(99/8),(99)&7
  2073  0602  2E04               	goto	u3021
  2074  0603  2E05               	goto	u3020
  2075  0604                     u3021:
  2076  0604  2E01               	goto	l646
  2077  0605                     u3020:
  2078                           	
  2079  0605                     l647:	
  2080                           	line	188
  2081                           ;I2c.c: 188: while(ACKSTAT==1);
  2082  0605  2E06               	goto	l648
  2083                           	
  2084  0606                     l649:	
  2085                           	
  2086  0606                     l648:	
  2087  0606  1683               	bsf	status, 5	;RP0=1, select bank1
  2088  0607  1303               	bcf	status, 6	;RP1=0, select bank1
  2089  0608  1B11               	btfsc	(1166/8)^080h,(1166)&7
  2090  0609  2E0B               	goto	u3031
  2091  060A  2E0C               	goto	u3030
  2092  060B                     u3031:
  2093  060B  2E06               	goto	l649
  2094  060C                     u3030:
  2095                           	
  2096  060C                     l650:	
  2097                           	line	189
  2098                           ;I2c.c: 189: SSPIF=0;
  2099  060C  1283               	bcf	status, 5	;RP0=0, select bank0
  2100  060D  1303               	bcf	status, 6	;RP1=0, select bank0
  2101  060E  118C               	bcf	(99/8),(99)&7
  2102                           	line	190
  2103                           ;I2c.c: 190: ACKSTAT=0;
  2104  060F  1683               	bsf	status, 5	;RP0=1, select bank1
  2105  0610  1303               	bcf	status, 6	;RP1=0, select bank1
  2106  0611  1311               	bcf	(1166/8)^080h,(1166)&7
  2107                           	line	193
  2108                           	
  2109  0612                     l2327:	
  2110                           ;I2c.c: 193: SSPBUF=decimal_to_bcd(_date);
  2111  0612  1283               	bcf	status, 5	;RP0=0, select bank0
  2112  0613  1303               	bcf	status, 6	;RP1=0, select bank0
  2113  0614  0827               	movf	(DS1307_WRITE@_date),w
  2114  0615  120A  118A  2379   	fcall	_decimal_to_bcd
              120A  118A         
  2115  061A  1283               	bcf	status, 5	;RP0=0, select bank0
  2116  061B  1303               	bcf	status, 6	;RP1=0, select bank0
  2117  061C  0093               	movwf	(19)	;volatile
  2118                           	line	194
  2119                           ;I2c.c: 194: while(SSPIF==0);
  2120  061D  2E1E               	goto	l651
  2121                           	
  2122  061E                     l652:	
  2123                           	
  2124  061E                     l651:	
  2125  061E  1D8C               	btfss	(99/8),(99)&7
  2126  061F  2E21               	goto	u3041
  2127  0620  2E22               	goto	u3040
  2128  0621                     u3041:
  2129  0621  2E1E               	goto	l652
  2130  0622                     u3040:
  2131                           	
  2132  0622                     l653:	
  2133                           	line	195
  2134                           ;I2c.c: 195: while(ACKSTAT==1);
  2135  0622  2E23               	goto	l654
  2136                           	
  2137  0623                     l655:	
  2138                           	
  2139  0623                     l654:	
  2140  0623  1683               	bsf	status, 5	;RP0=1, select bank1
  2141  0624  1303               	bcf	status, 6	;RP1=0, select bank1
  2142  0625  1B11               	btfsc	(1166/8)^080h,(1166)&7
  2143  0626  2E28               	goto	u3051
  2144  0627  2E29               	goto	u3050
  2145  0628                     u3051:
  2146  0628  2E23               	goto	l655
  2147  0629                     u3050:
  2148                           	
  2149  0629                     l656:	
  2150                           	line	196
  2151                           ;I2c.c: 196: SSPIF=0;
  2152  0629  1283               	bcf	status, 5	;RP0=0, select bank0
  2153  062A  1303               	bcf	status, 6	;RP1=0, select bank0
  2154  062B  118C               	bcf	(99/8),(99)&7
  2155                           	line	197
  2156                           ;I2c.c: 197: ACKSTAT=0;
  2157  062C  1683               	bsf	status, 5	;RP0=1, select bank1
  2158  062D  1303               	bcf	status, 6	;RP1=0, select bank1
  2159  062E  1311               	bcf	(1166/8)^080h,(1166)&7
  2160                           	line	200
  2161                           	
  2162  062F                     l2329:	
  2163                           ;I2c.c: 200: SSPBUF=decimal_to_bcd(_mon);
  2164  062F  1283               	bcf	status, 5	;RP0=0, select bank0
  2165  0630  1303               	bcf	status, 6	;RP1=0, select bank0
  2166  0631  0828               	movf	(DS1307_WRITE@_mon),w
  2167  0632  120A  118A  2379   	fcall	_decimal_to_bcd
              120A  118A         
  2168  0637  1283               	bcf	status, 5	;RP0=0, select bank0
  2169  0638  1303               	bcf	status, 6	;RP1=0, select bank0
  2170  0639  0093               	movwf	(19)	;volatile
  2171                           	line	201
  2172                           ;I2c.c: 201: while(SSPIF==0);
  2173  063A  2E3B               	goto	l657
  2174                           	
  2175  063B                     l658:	
  2176                           	
  2177  063B                     l657:	
  2178  063B  1D8C               	btfss	(99/8),(99)&7
  2179  063C  2E3E               	goto	u3061
  2180  063D  2E3F               	goto	u3060
  2181  063E                     u3061:
  2182  063E  2E3B               	goto	l658
  2183  063F                     u3060:
  2184                           	
  2185  063F                     l659:	
  2186                           	line	202
  2187                           ;I2c.c: 202: while(ACKSTAT==1);
  2188  063F  2E40               	goto	l660
  2189                           	
  2190  0640                     l661:	
  2191                           	
  2192  0640                     l660:	
  2193  0640  1683               	bsf	status, 5	;RP0=1, select bank1
  2194  0641  1303               	bcf	status, 6	;RP1=0, select bank1
  2195  0642  1B11               	btfsc	(1166/8)^080h,(1166)&7
  2196  0643  2E45               	goto	u3071
  2197  0644  2E46               	goto	u3070
  2198  0645                     u3071:
  2199  0645  2E40               	goto	l661
  2200  0646                     u3070:
  2201                           	
  2202  0646                     l662:	
  2203                           	line	203
  2204                           ;I2c.c: 203: SSPIF=0;
  2205  0646  1283               	bcf	status, 5	;RP0=0, select bank0
  2206  0647  1303               	bcf	status, 6	;RP1=0, select bank0
  2207  0648  118C               	bcf	(99/8),(99)&7
  2208                           	line	204
  2209                           ;I2c.c: 204: ACKSTAT=0;
  2210  0649  1683               	bsf	status, 5	;RP0=1, select bank1
  2211  064A  1303               	bcf	status, 6	;RP1=0, select bank1
  2212  064B  1311               	bcf	(1166/8)^080h,(1166)&7
  2213                           	line	207
  2214                           	
  2215  064C                     l2331:	
  2216                           ;I2c.c: 207: SSPBUF=decimal_to_bcd(_yr);
  2217  064C  1283               	bcf	status, 5	;RP0=0, select bank0
  2218  064D  1303               	bcf	status, 6	;RP1=0, select bank0
  2219  064E  0829               	movf	(DS1307_WRITE@_yr),w
  2220  064F  120A  118A  2379   	fcall	_decimal_to_bcd
              120A  118A         
  2221  0654  1283               	bcf	status, 5	;RP0=0, select bank0
  2222  0655  1303               	bcf	status, 6	;RP1=0, select bank0
  2223  0656  0093               	movwf	(19)	;volatile
  2224                           	line	208
  2225                           ;I2c.c: 208: while(SSPIF==0);
  2226  0657  2E58               	goto	l663
  2227                           	
  2228  0658                     l664:	
  2229                           	
  2230  0658                     l663:	
  2231  0658  1D8C               	btfss	(99/8),(99)&7
  2232  0659  2E5B               	goto	u3081
  2233  065A  2E5C               	goto	u3080
  2234  065B                     u3081:
  2235  065B  2E58               	goto	l664
  2236  065C                     u3080:
  2237                           	
  2238  065C                     l665:	
  2239                           	line	209
  2240                           ;I2c.c: 209: while(ACKSTAT==1);
  2241  065C  2E5D               	goto	l666
  2242                           	
  2243  065D                     l667:	
  2244                           	
  2245  065D                     l666:	
  2246  065D  1683               	bsf	status, 5	;RP0=1, select bank1
  2247  065E  1303               	bcf	status, 6	;RP1=0, select bank1
  2248  065F  1B11               	btfsc	(1166/8)^080h,(1166)&7
  2249  0660  2E62               	goto	u3091
  2250  0661  2E63               	goto	u3090
  2251  0662                     u3091:
  2252  0662  2E5D               	goto	l667
  2253  0663                     u3090:
  2254                           	
  2255  0663                     l668:	
  2256                           	line	210
  2257                           ;I2c.c: 210: SSPIF=0;
  2258  0663  1283               	bcf	status, 5	;RP0=0, select bank0
  2259  0664  1303               	bcf	status, 6	;RP1=0, select bank0
  2260  0665  118C               	bcf	(99/8),(99)&7
  2261                           	line	211
  2262                           ;I2c.c: 211: ACKSTAT=0;
  2263  0666  1683               	bsf	status, 5	;RP0=1, select bank1
  2264  0667  1303               	bcf	status, 6	;RP1=0, select bank1
  2265  0668  1311               	bcf	(1166/8)^080h,(1166)&7
  2266                           	line	214
  2267                           	
  2268  0669                     l2333:	
  2269                           ;I2c.c: 214: SSPBUF=0x00;
  2270  0669  1283               	bcf	status, 5	;RP0=0, select bank0
  2271  066A  1303               	bcf	status, 6	;RP1=0, select bank0
  2272  066B  0193               	clrf	(19)	;volatile
  2273                           	line	215
  2274                           ;I2c.c: 215: while(SSPIF==0);
  2275  066C  2E6D               	goto	l669
  2276                           	
  2277  066D                     l670:	
  2278                           	
  2279  066D                     l669:	
  2280  066D  1D8C               	btfss	(99/8),(99)&7
  2281  066E  2E70               	goto	u3101
  2282  066F  2E71               	goto	u3100
  2283  0670                     u3101:
  2284  0670  2E6D               	goto	l670
  2285  0671                     u3100:
  2286                           	
  2287  0671                     l671:	
  2288                           	line	216
  2289                           ;I2c.c: 216: while(ACKSTAT==1);
  2290  0671  2E72               	goto	l672
  2291                           	
  2292  0672                     l673:	
  2293                           	
  2294  0672                     l672:	
  2295  0672  1683               	bsf	status, 5	;RP0=1, select bank1
  2296  0673  1303               	bcf	status, 6	;RP1=0, select bank1
  2297  0674  1B11               	btfsc	(1166/8)^080h,(1166)&7
  2298  0675  2E77               	goto	u3111
  2299  0676  2E78               	goto	u3110
  2300  0677                     u3111:
  2301  0677  2E72               	goto	l673
  2302  0678                     u3110:
  2303                           	
  2304  0678                     l674:	
  2305                           	line	217
  2306                           ;I2c.c: 217: SSPIF=0;
  2307  0678  1283               	bcf	status, 5	;RP0=0, select bank0
  2308  0679  1303               	bcf	status, 6	;RP1=0, select bank0
  2309  067A  118C               	bcf	(99/8),(99)&7
  2310                           	line	218
  2311                           ;I2c.c: 218: ACKSTAT=0;
  2312  067B  1683               	bsf	status, 5	;RP0=1, select bank1
  2313  067C  1303               	bcf	status, 6	;RP1=0, select bank1
  2314  067D  1311               	bcf	(1166/8)^080h,(1166)&7
  2315                           	line	221
  2316                           ;I2c.c: 221: PEN=1;
  2317  067E  1511               	bsf	(1162/8)^080h,(1162)&7
  2318                           	line	222
  2319                           ;I2c.c: 222: while(PEN==1);
  2320  067F  2E80               	goto	l675
  2321                           	
  2322  0680                     l676:	
  2323                           	
  2324  0680                     l675:	
  2325  0680  1911               	btfsc	(1162/8)^080h,(1162)&7
  2326  0681  2E83               	goto	u3121
  2327  0682  2E84               	goto	u3120
  2328  0683                     u3121:
  2329  0683  2E80               	goto	l676
  2330  0684                     u3120:
  2331                           	
  2332  0684                     l677:	
  2333                           	line	224
  2334                           	
  2335  0684                     l678:	
  2336  0684  0008               	return
  2337                           	opt stack 0
  2338                           GLOBAL	__end_of_DS1307_WRITE
  2339  0685                     	__end_of_DS1307_WRITE:
  2340 ;; =============== function _DS1307_WRITE ends ============
  2341                           
  2342                           	signat	_DS1307_WRITE,28792
  2343                           	global	_lcd_display
  2344                           psect	text248,local,class=CODE,delta=2
  2345                           global __ptext248
  2346  0343                     __ptext248:
  2347                           
  2348 ;; *************** function _lcd_display *****************
  2349 ;; Defined at:
  2350 ;;		line 84 in file "C:\Users\TECH\Desktop\madhu pic folder\I2C\I2c\I2c.c"
  2351 ;; Parameters:    Size  Location     Type
  2352 ;;  m               1    wreg     PTR const unsigned char 
  2353 ;;		 -> STR_2(6), STR_1(7), 
  2354 ;; Auto vars:     Size  Location     Type
  2355 ;;  m               1    9[COMMON] PTR const unsigned char 
  2356 ;;		 -> STR_2(6), STR_1(7), 
  2357 ;;  i               2   10[COMMON] int 
  2358 ;; Return value:  Size  Location     Type
  2359 ;;		None               void
  2360 ;; Registers used:
  2361 ;;		wreg, fsr0l, fsr0h, status,2, status,0, pclath, cstack
  2362 ;; Tracked objects:
  2363 ;;		On entry : 0/0
  2364 ;;		On exit  : 0/0
  2365 ;;		Unchanged: 0/0
  2366 ;; Data sizes:     COMMON   BANK0   BANK1   BANK3   BANK2
  2367 ;;      Params:         0       0       0       0       0
  2368 ;;      Locals:         3       0       0       0       0
  2369 ;;      Temps:          2       0       0       0       0
  2370 ;;      Totals:         5       0       0       0       0
  2371 ;;Total ram usage:        5 bytes
  2372 ;; Hardware stack levels used:    1
  2373 ;; Hardware stack levels required when called:    2
  2374 ;; This function calls:
  2375 ;;		_lcd_data
  2376 ;;		_delay
  2377 ;; This function is called by:
  2378 ;;		_main
  2379 ;; This function uses a non-reentrant model
  2380 ;;
  2381                           psect	text248
  2382                           	file	"C:\Users\TECH\Desktop\madhu pic folder\I2C\I2c\I2c.c"
  2383                           	line	84
  2384                           	global	__size_of_lcd_display
  2385  0036                     	__size_of_lcd_display	equ	__end_of_lcd_display-_lcd_display
  2386                           	
  2387  0343                     _lcd_display:	
  2388                           	opt	stack 7
  2389                           ; Regs used in _lcd_display: [wreg-fsr0h+status,2+status,0+pclath+cstack]
  2390                           ;lcd_display@m stored from wreg
  2391  0343  00F9               	movwf	(lcd_display@m)
  2392                           	line	85
  2393                           	
  2394  0344                     l2303:	
  2395                           ;I2c.c: 85: for(int i=0;m[i]!=0;i++)
  2396  0344  3000               	movlw	low(0)
  2397  0345  00FA               	movwf	(lcd_display@i)
  2398  0346  3000               	movlw	high(0)
  2399  0347  00FB               	movwf	((lcd_display@i))+1
  2400  0348  2B6B               	goto	l594
  2401                           	line	86
  2402                           	
  2403  0349                     l595:	
  2404                           	line	87
  2405                           	
  2406  0349                     l2305:	
  2407                           ;I2c.c: 86: {
  2408                           ;I2c.c: 87: lcd_data(m[i]);
  2409  0349  087A               	movf	(lcd_display@i),w
  2410  034A  0779               	addwf	(lcd_display@m),w
  2411  034B  0084               	movwf	fsr0
  2412  034C  120A  118A  2003   	fcall	stringdir
              120A  118A         
  2413  0351  00F7               	movwf	(??_lcd_display+0)+0
  2414  0352  01F8               	clrf	(??_lcd_display+0)+0+1
  2415  0353  0877               	movf	0+(??_lcd_display+0)+0,w
  2416  0354  00F2               	movwf	(?_lcd_data)
  2417  0355  0878               	movf	1+(??_lcd_display+0)+0,w
  2418  0356  00F3               	movwf	(?_lcd_data+1)
  2419  0357  120A  118A  230F   	fcall	_lcd_data
              120A  118A         
  2420                           	line	88
  2421                           	
  2422  035C                     l2307:	
  2423                           ;I2c.c: 88: delay(1000);
  2424  035C  30E8               	movlw	low(03E8h)
  2425  035D  00F0               	movwf	(?_delay)
  2426  035E  3003               	movlw	high(03E8h)
  2427  035F  00F1               	movwf	((?_delay))+1
  2428  0360  120A  118A  229B   	fcall	_delay
              120A  118A         
  2429                           	line	85
  2430                           	
  2431  0365                     l2309:	
  2432  0365  3001               	movlw	low(01h)
  2433  0366  07FA               	addwf	(lcd_display@i),f
  2434  0367  1803               	skipnc
  2435  0368  0AFB               	incf	(lcd_display@i+1),f
  2436  0369  3000               	movlw	high(01h)
  2437  036A  07FB               	addwf	(lcd_display@i+1),f
  2438                           	
  2439  036B                     l594:	
  2440                           	
  2441  036B                     l2311:	
  2442  036B  087A               	movf	(lcd_display@i),w
  2443  036C  0779               	addwf	(lcd_display@m),w
  2444  036D  0084               	movwf	fsr0
  2445  036E  120A  118A  2003   	fcall	stringdir
              120A  118A         
  2446  0373  3800               	iorlw	0
  2447  0374  1D03               	skipz
  2448  0375  2B77               	goto	u2901
  2449  0376  2B78               	goto	u2900
  2450  0377                     u2901:
  2451  0377  2B49               	goto	l595
  2452  0378                     u2900:
  2453                           	
  2454  0378                     l596:	
  2455                           	line	90
  2456                           	
  2457  0378                     l597:	
  2458  0378  0008               	return
  2459                           	opt stack 0
  2460                           GLOBAL	__end_of_lcd_display
  2461  0379                     	__end_of_lcd_display:
  2462 ;; =============== function _lcd_display ends ============
  2463                           
  2464                           	signat	_lcd_display,4216
  2465                           	global	_lcd_init
  2466                           psect	text249,local,class=CODE,delta=2
  2467                           global __ptext249
  2468  02AD                     __ptext249:
  2469                           
  2470 ;; *************** function _lcd_init *****************
  2471 ;; Defined at:
  2472 ;;		line 75 in file "C:\Users\TECH\Desktop\madhu pic folder\I2C\I2c\I2c.c"
  2473 ;; Parameters:    Size  Location     Type
  2474 ;;		None
  2475 ;; Auto vars:     Size  Location     Type
  2476 ;;		None
  2477 ;; Return value:  Size  Location     Type
  2478 ;;		None               void
  2479 ;; Registers used:
  2480 ;;		wreg, status,2, status,0, pclath, cstack
  2481 ;; Tracked objects:
  2482 ;;		On entry : 0/0
  2483 ;;		On exit  : 0/0
  2484 ;;		Unchanged: 0/0
  2485 ;; Data sizes:     COMMON   BANK0   BANK1   BANK3   BANK2
  2486 ;;      Params:         0       0       0       0       0
  2487 ;;      Locals:         0       0       0       0       0
  2488 ;;      Temps:          0       0       0       0       0
  2489 ;;      Totals:         0       0       0       0       0
  2490 ;;Total ram usage:        0 bytes
  2491 ;; Hardware stack levels used:    1
  2492 ;; Hardware stack levels required when called:    2
  2493 ;; This function calls:
  2494 ;;		_lcd_command
  2495 ;; This function is called by:
  2496 ;;		_main
  2497 ;; This function uses a non-reentrant model
  2498 ;;
  2499                           psect	text249
  2500                           	file	"C:\Users\TECH\Desktop\madhu pic folder\I2C\I2c\I2c.c"
  2501                           	line	75
  2502                           	global	__size_of_lcd_init
  2503  002E                     	__size_of_lcd_init	equ	__end_of_lcd_init-_lcd_init
  2504                           	
  2505  02AD                     _lcd_init:	
  2506                           	opt	stack 7
  2507                           ; Regs used in _lcd_init: [wreg+status,2+status,0+pclath+cstack]
  2508                           	line	76
  2509                           	
  2510  02AD                     l2301:	
  2511                           ;I2c.c: 76: lcd_command(0X02);
  2512  02AD  3002               	movlw	low(02h)
  2513  02AE  00F2               	movwf	(?_lcd_command)
  2514  02AF  3000               	movlw	high(02h)
  2515  02B0  00F3               	movwf	((?_lcd_command))+1
  2516  02B1  120A  118A  22DB   	fcall	_lcd_command
              120A  118A         
  2517                           	line	77
  2518                           ;I2c.c: 77: lcd_command(0x2c);
  2519  02B6  302C               	movlw	low(02Ch)
  2520  02B7  00F2               	movwf	(?_lcd_command)
  2521  02B8  3000               	movlw	high(02Ch)
  2522  02B9  00F3               	movwf	((?_lcd_command))+1
  2523  02BA  120A  118A  22DB   	fcall	_lcd_command
              120A  118A         
  2524                           	line	78
  2525                           ;I2c.c: 78: lcd_command(0X06);
  2526  02BF  3006               	movlw	low(06h)
  2527  02C0  00F2               	movwf	(?_lcd_command)
  2528  02C1  3000               	movlw	high(06h)
  2529  02C2  00F3               	movwf	((?_lcd_command))+1
  2530  02C3  120A  118A  22DB   	fcall	_lcd_command
              120A  118A         
  2531                           	line	79
  2532                           ;I2c.c: 79: lcd_command(0X0c);
  2533  02C8  300C               	movlw	low(0Ch)
  2534  02C9  00F2               	movwf	(?_lcd_command)
  2535  02CA  3000               	movlw	high(0Ch)
  2536  02CB  00F3               	movwf	((?_lcd_command))+1
  2537  02CC  120A  118A  22DB   	fcall	_lcd_command
              120A  118A         
  2538                           	line	80
  2539                           ;I2c.c: 80: lcd_command(0X01);
  2540  02D1  3001               	movlw	low(01h)
  2541  02D2  00F2               	movwf	(?_lcd_command)
  2542  02D3  3000               	movlw	high(01h)
  2543  02D4  00F3               	movwf	((?_lcd_command))+1
  2544  02D5  120A  118A  22DB   	fcall	_lcd_command
              120A  118A         
  2545                           	line	81
  2546                           	
  2547  02DA                     l591:	
  2548  02DA  0008               	return
  2549                           	opt stack 0
  2550                           GLOBAL	__end_of_lcd_init
  2551  02DB                     	__end_of_lcd_init:
  2552 ;; =============== function _lcd_init ends ============
  2553                           
  2554                           	signat	_lcd_init,88
  2555                           	global	_decimal_to_bcd
  2556                           psect	text250,local,class=CODE,delta=2
  2557                           global __ptext250
  2558  0379                     __ptext250:
  2559                           
  2560 ;; *************** function _decimal_to_bcd *****************
  2561 ;; Defined at:
  2562 ;;		line 135 in file "C:\Users\TECH\Desktop\madhu pic folder\I2C\I2c\I2c.c"
  2563 ;; Parameters:    Size  Location     Type
  2564 ;;  value           1    wreg     unsigned char 
  2565 ;; Auto vars:     Size  Location     Type
  2566 ;;  value           1    3[BANK0 ] unsigned char 
  2567 ;;  hex             1    2[BANK0 ] unsigned char 
  2568 ;;  lsb             1    1[BANK0 ] unsigned char 
  2569 ;;  msb             1    0[BANK0 ] unsigned char 
  2570 ;; Return value:  Size  Location     Type
  2571 ;;                  1    wreg      unsigned char 
  2572 ;; Registers used:
  2573 ;;		wreg, status,2, status,0, pclath, cstack
  2574 ;; Tracked objects:
  2575 ;;		On entry : 0/0
  2576 ;;		On exit  : 0/0
  2577 ;;		Unchanged: 0/0
  2578 ;; Data sizes:     COMMON   BANK0   BANK1   BANK3   BANK2
  2579 ;;      Params:         0       0       0       0       0
  2580 ;;      Locals:         0       4       0       0       0
  2581 ;;      Temps:          3       0       0       0       0
  2582 ;;      Totals:         3       4       0       0       0
  2583 ;;Total ram usage:        7 bytes
  2584 ;; Hardware stack levels used:    1
  2585 ;; Hardware stack levels required when called:    1
  2586 ;; This function calls:
  2587 ;;		___awdiv
  2588 ;;		___awmod
  2589 ;;		_delay
  2590 ;; This function is called by:
  2591 ;;		_DS1307_WRITE
  2592 ;; This function uses a non-reentrant model
  2593 ;;
  2594                           psect	text250
  2595                           	file	"C:\Users\TECH\Desktop\madhu pic folder\I2C\I2c\I2c.c"
  2596                           	line	135
  2597                           	global	__size_of_decimal_to_bcd
  2598  0048                     	__size_of_decimal_to_bcd	equ	__end_of_decimal_to_bcd-_decimal_to_bcd
  2599                           	
  2600  0379                     _decimal_to_bcd:	
  2601                           	opt	stack 6
  2602                           ; Regs used in _decimal_to_bcd: [wreg+status,2+status,0+pclath+cstack]
  2603                           ;decimal_to_bcd@value stored from wreg
  2604                           	line	137
  2605  0379  1283               	bcf	status, 5	;RP0=0, select bank0
  2606  037A  1303               	bcf	status, 6	;RP1=0, select bank0
  2607  037B  00A3               	movwf	(decimal_to_bcd@value)
  2608                           	
  2609  037C                     l2291:	
  2610                           ;I2c.c: 136: unsigned char msb,lsb,hex;
  2611                           ;I2c.c: 137: msb=value/10;
  2612  037C  300A               	movlw	low(0Ah)
  2613  037D  00F0               	movwf	(?___awdiv)
  2614  037E  3000               	movlw	high(0Ah)
  2615  037F  00F1               	movwf	((?___awdiv))+1
  2616  0380  0823               	movf	(decimal_to_bcd@value),w
  2617  0381  00F9               	movwf	(??_decimal_to_bcd+0)+0
  2618  0382  01FA               	clrf	(??_decimal_to_bcd+0)+0+1
  2619  0383  0879               	movf	0+(??_decimal_to_bcd+0)+0,w
  2620  0384  00F2               	movwf	0+(?___awdiv)+02h
  2621  0385  087A               	movf	1+(??_decimal_to_bcd+0)+0,w
  2622  0386  00F3               	movwf	1+(?___awdiv)+02h
  2623  0387  120A  118A  2475   	fcall	___awdiv
              120A  118A         
  2624  038C  0870               	movf	(0+(?___awdiv)),w
  2625  038D  00FB               	movwf	(??_decimal_to_bcd+2)+0
  2626  038E  087B               	movf	(??_decimal_to_bcd+2)+0,w
  2627  038F  1283               	bcf	status, 5	;RP0=0, select bank0
  2628  0390  1303               	bcf	status, 6	;RP1=0, select bank0
  2629  0391  00A0               	movwf	(decimal_to_bcd@msb)
  2630                           	line	138
  2631                           ;I2c.c: 138: lsb=value%10;
  2632  0392  300A               	movlw	low(0Ah)
  2633  0393  00F0               	movwf	(?___awmod)
  2634  0394  3000               	movlw	high(0Ah)
  2635  0395  00F1               	movwf	((?___awmod))+1
  2636  0396  0823               	movf	(decimal_to_bcd@value),w
  2637  0397  00F9               	movwf	(??_decimal_to_bcd+0)+0
  2638  0398  01FA               	clrf	(??_decimal_to_bcd+0)+0+1
  2639  0399  0879               	movf	0+(??_decimal_to_bcd+0)+0,w
  2640  039A  00F2               	movwf	0+(?___awmod)+02h
  2641  039B  087A               	movf	1+(??_decimal_to_bcd+0)+0,w
  2642  039C  00F3               	movwf	1+(?___awmod)+02h
  2643  039D  120A  118A  2415   	fcall	___awmod
              120A  118A         
  2644  03A2  0870               	movf	(0+(?___awmod)),w
  2645  03A3  00FB               	movwf	(??_decimal_to_bcd+2)+0
  2646  03A4  087B               	movf	(??_decimal_to_bcd+2)+0,w
  2647  03A5  1283               	bcf	status, 5	;RP0=0, select bank0
  2648  03A6  1303               	bcf	status, 6	;RP1=0, select bank0
  2649  03A7  00A1               	movwf	(decimal_to_bcd@lsb)
  2650                           	line	139
  2651                           	
  2652  03A8                     l2293:	
  2653                           ;I2c.c: 139: hex=((msb<<4)+lsb);
  2654  03A8  0820               	movf	(decimal_to_bcd@msb),w
  2655  03A9  00F9               	movwf	(??_decimal_to_bcd+0)+0
  2656  03AA  3004               	movlw	04h
  2657  03AB                     u2895:
  2658  03AB  1003               	clrc
  2659  03AC  0DF9               	rlf	(??_decimal_to_bcd+0)+0,f
  2660  03AD  3EFF               	addlw	-1
  2661  03AE  1D03               	skipz
  2662  03AF  2BAB               	goto	u2895
  2663  03B0  0821               	movf	(decimal_to_bcd@lsb),w
  2664  03B1  0779               	addwf	0+(??_decimal_to_bcd+0)+0,w
  2665  03B2  00FA               	movwf	(??_decimal_to_bcd+1)+0
  2666  03B3  087A               	movf	(??_decimal_to_bcd+1)+0,w
  2667  03B4  00A2               	movwf	(decimal_to_bcd@hex)
  2668                           	line	140
  2669                           	
  2670  03B5                     l2295:	
  2671                           ;I2c.c: 140: return hex;
  2672  03B5  0822               	movf	(decimal_to_bcd@hex),w
  2673                           	
  2674  03B6                     l2297:	
  2675  03B6  2BC0               	goto	l609
  2676                           	line	141
  2677                           	
  2678  03B7                     l2299:	
  2679                           ;I2c.c: 141: delay(1000);
  2680  03B7  30E8               	movlw	low(03E8h)
  2681  03B8  00F0               	movwf	(?_delay)
  2682  03B9  3003               	movlw	high(03E8h)
  2683  03BA  00F1               	movwf	((?_delay))+1
  2684  03BB  120A  118A  229B   	fcall	_delay
              120A  118A         
  2685                           	line	142
  2686                           	
  2687  03C0                     l609:	
  2688  03C0  0008               	return
  2689                           	opt stack 0
  2690                           GLOBAL	__end_of_decimal_to_bcd
  2691  03C1                     	__end_of_decimal_to_bcd:
  2692 ;; =============== function _decimal_to_bcd ends ============
  2693                           
  2694                           	signat	_decimal_to_bcd,4217
  2695                           	global	_lcd_data
  2696                           psect	text251,local,class=CODE,delta=2
  2697                           global __ptext251
  2698  030F                     __ptext251:
  2699                           
  2700 ;; *************** function _lcd_data *****************
  2701 ;; Defined at:
  2702 ;;		line 50 in file "C:\Users\TECH\Desktop\madhu pic folder\I2C\I2c\I2c.c"
  2703 ;; Parameters:    Size  Location     Type
  2704 ;;  data            2    2[COMMON] unsigned int 
  2705 ;; Auto vars:     Size  Location     Type
  2706 ;;  val1            1    6[COMMON] unsigned char 
  2707 ;; Return value:  Size  Location     Type
  2708 ;;		None               void
  2709 ;; Registers used:
  2710 ;;		wreg, status,2, status,0, pclath, cstack
  2711 ;; Tracked objects:
  2712 ;;		On entry : 0/0
  2713 ;;		On exit  : 0/0
  2714 ;;		Unchanged: 0/0
  2715 ;; Data sizes:     COMMON   BANK0   BANK1   BANK3   BANK2
  2716 ;;      Params:         2       0       0       0       0
  2717 ;;      Locals:         1       0       0       0       0
  2718 ;;      Temps:          2       0       0       0       0
  2719 ;;      Totals:         5       0       0       0       0
  2720 ;;Total ram usage:        5 bytes
  2721 ;; Hardware stack levels used:    1
  2722 ;; Hardware stack levels required when called:    1
  2723 ;; This function calls:
  2724 ;;		_delay
  2725 ;; This function is called by:
  2726 ;;		_lcd_display
  2727 ;;		_bcd_to_ascii
  2728 ;;		_DS1307_READ
  2729 ;; This function uses a non-reentrant model
  2730 ;;
  2731                           psect	text251
  2732                           	file	"C:\Users\TECH\Desktop\madhu pic folder\I2C\I2c\I2c.c"
  2733                           	line	50
  2734                           	global	__size_of_lcd_data
  2735  0034                     	__size_of_lcd_data	equ	__end_of_lcd_data-_lcd_data
  2736                           	
  2737  030F                     _lcd_data:	
  2738                           	opt	stack 6
  2739                           ; Regs used in _lcd_data: [wreg+status,2+status,0+pclath+cstack]
  2740                           	line	52
  2741                           	
  2742  030F                     l2265:	
  2743                           ;I2c.c: 51: unsigned char val1;
  2744                           ;I2c.c: 52: PORTD=data&0xf0;
  2745  030F  0872               	movf	(lcd_data@data),w
  2746  0310  39F0               	andlw	0F0h
  2747  0311  1283               	bcf	status, 5	;RP0=0, select bank0
  2748  0312  1303               	bcf	status, 6	;RP1=0, select bank0
  2749  0313  0088               	movwf	(8)	;volatile
  2750                           	line	53
  2751                           	
  2752  0314                     l2267:	
  2753                           ;I2c.c: 53: RD0=1;
  2754  0314  1408               	bsf	(64/8),(64)&7
  2755                           	line	54
  2756                           	
  2757  0315                     l2269:	
  2758                           ;I2c.c: 54: RD1=0;
  2759  0315  1088               	bcf	(65/8),(65)&7
  2760                           	line	55
  2761                           	
  2762  0316                     l2271:	
  2763                           ;I2c.c: 55: RD2=1;
  2764  0316  1508               	bsf	(66/8),(66)&7
  2765                           	line	56
  2766                           	
  2767  0317                     l2273:	
  2768                           ;I2c.c: 56: delay(1000);
  2769  0317  30E8               	movlw	low(03E8h)
  2770  0318  00F0               	movwf	(?_delay)
  2771  0319  3003               	movlw	high(03E8h)
  2772  031A  00F1               	movwf	((?_delay))+1
  2773  031B  120A  118A  229B   	fcall	_delay
              120A  118A         
  2774                           	line	57
  2775                           	
  2776  0320                     l2275:	
  2777                           ;I2c.c: 57: RD2=0;
  2778  0320  1283               	bcf	status, 5	;RP0=0, select bank0
  2779  0321  1303               	bcf	status, 6	;RP1=0, select bank0
  2780  0322  1108               	bcf	(66/8),(66)&7
  2781                           	line	58
  2782                           	
  2783  0323                     l2277:	
  2784                           ;I2c.c: 58: val1=data<<4;
  2785  0323  0872               	movf	(lcd_data@data),w
  2786  0324  00F4               	movwf	(??_lcd_data+0)+0
  2787  0325  3003               	movlw	(04h)-1
  2788  0326                     u2885:
  2789  0326  1003               	clrc
  2790  0327  0DF4               	rlf	(??_lcd_data+0)+0,f
  2791  0328  3EFF               	addlw	-1
  2792  0329  1D03               	skipz
  2793  032A  2B26               	goto	u2885
  2794  032B  1003               	clrc
  2795  032C  0D74               	rlf	(??_lcd_data+0)+0,w
  2796  032D  00F5               	movwf	(??_lcd_data+1)+0
  2797  032E  0875               	movf	(??_lcd_data+1)+0,w
  2798  032F  00F6               	movwf	(lcd_data@val1)
  2799                           	line	59
  2800                           	
  2801  0330                     l2279:	
  2802                           ;I2c.c: 59: PORTD=val1&0Xf0;
  2803  0330  0876               	movf	(lcd_data@val1),w
  2804  0331  39F0               	andlw	0F0h
  2805  0332  0088               	movwf	(8)	;volatile
  2806                           	line	60
  2807                           	
  2808  0333                     l2281:	
  2809                           ;I2c.c: 60: RD0=1;
  2810  0333  1408               	bsf	(64/8),(64)&7
  2811                           	line	61
  2812                           	
  2813  0334                     l2283:	
  2814                           ;I2c.c: 61: RD1=0;
  2815  0334  1088               	bcf	(65/8),(65)&7
  2816                           	line	62
  2817                           	
  2818  0335                     l2285:	
  2819                           ;I2c.c: 62: RD2=1;
  2820  0335  1508               	bsf	(66/8),(66)&7
  2821                           	line	63
  2822                           	
  2823  0336                     l2287:	
  2824                           ;I2c.c: 63: delay(1000);
  2825  0336  30E8               	movlw	low(03E8h)
  2826  0337  00F0               	movwf	(?_delay)
  2827  0338  3003               	movlw	high(03E8h)
  2828  0339  00F1               	movwf	((?_delay))+1
  2829  033A  120A  118A  229B   	fcall	_delay
              120A  118A         
  2830                           	line	64
  2831                           	
  2832  033F                     l2289:	
  2833                           ;I2c.c: 64: RD2=0;
  2834  033F  1283               	bcf	status, 5	;RP0=0, select bank0
  2835  0340  1303               	bcf	status, 6	;RP1=0, select bank0
  2836  0341  1108               	bcf	(66/8),(66)&7
  2837                           	line	72
  2838                           	
  2839  0342                     l588:	
  2840  0342  0008               	return
  2841                           	opt stack 0
  2842                           GLOBAL	__end_of_lcd_data
  2843  0343                     	__end_of_lcd_data:
  2844 ;; =============== function _lcd_data ends ============
  2845                           
  2846                           	signat	_lcd_data,4216
  2847                           	global	_lcd_command
  2848                           psect	text252,local,class=CODE,delta=2
  2849                           global __ptext252
  2850  02DB                     __ptext252:
  2851                           
  2852 ;; *************** function _lcd_command *****************
  2853 ;; Defined at:
  2854 ;;		line 26 in file "C:\Users\TECH\Desktop\madhu pic folder\I2C\I2c\I2c.c"
  2855 ;; Parameters:    Size  Location     Type
  2856 ;;  COM             2    2[COMMON] unsigned int 
  2857 ;; Auto vars:     Size  Location     Type
  2858 ;;  temp            1    6[COMMON] unsigned char 
  2859 ;; Return value:  Size  Location     Type
  2860 ;;		None               void
  2861 ;; Registers used:
  2862 ;;		wreg, status,2, status,0, pclath, cstack
  2863 ;; Tracked objects:
  2864 ;;		On entry : 0/0
  2865 ;;		On exit  : 0/0
  2866 ;;		Unchanged: 0/0
  2867 ;; Data sizes:     COMMON   BANK0   BANK1   BANK3   BANK2
  2868 ;;      Params:         2       0       0       0       0
  2869 ;;      Locals:         1       0       0       0       0
  2870 ;;      Temps:          2       0       0       0       0
  2871 ;;      Totals:         5       0       0       0       0
  2872 ;;Total ram usage:        5 bytes
  2873 ;; Hardware stack levels used:    1
  2874 ;; Hardware stack levels required when called:    1
  2875 ;; This function calls:
  2876 ;;		_delay
  2877 ;; This function is called by:
  2878 ;;		_lcd_init
  2879 ;;		_main
  2880 ;;		_DS1307_READ
  2881 ;; This function uses a non-reentrant model
  2882 ;;
  2883                           psect	text252
  2884                           	file	"C:\Users\TECH\Desktop\madhu pic folder\I2C\I2c\I2c.c"
  2885                           	line	26
  2886                           	global	__size_of_lcd_command
  2887  0034                     	__size_of_lcd_command	equ	__end_of_lcd_command-_lcd_command
  2888                           	
  2889  02DB                     _lcd_command:	
  2890                           	opt	stack 6
  2891                           ; Regs used in _lcd_command: [wreg+status,2+status,0+pclath+cstack]
  2892                           	line	28
  2893                           	
  2894  02DB                     l2239:	
  2895                           ;I2c.c: 27: unsigned char temp;
  2896                           ;I2c.c: 28: PORTD=COM&0Xf0;
  2897  02DB  0872               	movf	(lcd_command@COM),w
  2898  02DC  39F0               	andlw	0F0h
  2899  02DD  1283               	bcf	status, 5	;RP0=0, select bank0
  2900  02DE  1303               	bcf	status, 6	;RP1=0, select bank0
  2901  02DF  0088               	movwf	(8)	;volatile
  2902                           	line	29
  2903                           	
  2904  02E0                     l2241:	
  2905                           ;I2c.c: 29: RD0=0;
  2906  02E0  1008               	bcf	(64/8),(64)&7
  2907                           	line	30
  2908                           	
  2909  02E1                     l2243:	
  2910                           ;I2c.c: 30: RD1=0;
  2911  02E1  1088               	bcf	(65/8),(65)&7
  2912                           	line	31
  2913                           	
  2914  02E2                     l2245:	
  2915                           ;I2c.c: 31: RD2=1;
  2916  02E2  1508               	bsf	(66/8),(66)&7
  2917                           	line	32
  2918                           	
  2919  02E3                     l2247:	
  2920                           ;I2c.c: 32: delay(200);
  2921  02E3  30C8               	movlw	low(0C8h)
  2922  02E4  00F0               	movwf	(?_delay)
  2923  02E5  3000               	movlw	high(0C8h)
  2924  02E6  00F1               	movwf	((?_delay))+1
  2925  02E7  120A  118A  229B   	fcall	_delay
              120A  118A         
  2926                           	line	33
  2927                           	
  2928  02EC                     l2249:	
  2929                           ;I2c.c: 33: RD2=0;
  2930  02EC  1283               	bcf	status, 5	;RP0=0, select bank0
  2931  02ED  1303               	bcf	status, 6	;RP1=0, select bank0
  2932  02EE  1108               	bcf	(66/8),(66)&7
  2933                           	line	34
  2934                           	
  2935  02EF                     l2251:	
  2936                           ;I2c.c: 34: temp=COM<<4;
  2937  02EF  0872               	movf	(lcd_command@COM),w
  2938  02F0  00F4               	movwf	(??_lcd_command+0)+0
  2939  02F1  3003               	movlw	(04h)-1
  2940  02F2                     u2875:
  2941  02F2  1003               	clrc
  2942  02F3  0DF4               	rlf	(??_lcd_command+0)+0,f
  2943  02F4  3EFF               	addlw	-1
  2944  02F5  1D03               	skipz
  2945  02F6  2AF2               	goto	u2875
  2946  02F7  1003               	clrc
  2947  02F8  0D74               	rlf	(??_lcd_command+0)+0,w
  2948  02F9  00F5               	movwf	(??_lcd_command+1)+0
  2949  02FA  0875               	movf	(??_lcd_command+1)+0,w
  2950  02FB  00F6               	movwf	(lcd_command@temp)
  2951                           	line	35
  2952                           	
  2953  02FC                     l2253:	
  2954                           ;I2c.c: 35: PORTD=temp&0Xf0;
  2955  02FC  0876               	movf	(lcd_command@temp),w
  2956  02FD  39F0               	andlw	0F0h
  2957  02FE  0088               	movwf	(8)	;volatile
  2958                           	line	36
  2959                           	
  2960  02FF                     l2255:	
  2961                           ;I2c.c: 36: RD0=0;
  2962  02FF  1008               	bcf	(64/8),(64)&7
  2963                           	line	37
  2964                           	
  2965  0300                     l2257:	
  2966                           ;I2c.c: 37: RD1=0;
  2967  0300  1088               	bcf	(65/8),(65)&7
  2968                           	line	38
  2969                           	
  2970  0301                     l2259:	
  2971                           ;I2c.c: 38: RD2=1;
  2972  0301  1508               	bsf	(66/8),(66)&7
  2973                           	line	39
  2974                           	
  2975  0302                     l2261:	
  2976                           ;I2c.c: 39: delay(200);
  2977  0302  30C8               	movlw	low(0C8h)
  2978  0303  00F0               	movwf	(?_delay)
  2979  0304  3000               	movlw	high(0C8h)
  2980  0305  00F1               	movwf	((?_delay))+1
  2981  0306  120A  118A  229B   	fcall	_delay
              120A  118A         
  2982                           	line	40
  2983                           	
  2984  030B                     l2263:	
  2985                           ;I2c.c: 40: RD2=0;
  2986  030B  1283               	bcf	status, 5	;RP0=0, select bank0
  2987  030C  1303               	bcf	status, 6	;RP1=0, select bank0
  2988  030D  1108               	bcf	(66/8),(66)&7
  2989                           	line	48
  2990                           	
  2991  030E                     l585:	
  2992  030E  0008               	return
  2993                           	opt stack 0
  2994                           GLOBAL	__end_of_lcd_command
  2995  030F                     	__end_of_lcd_command:
  2996 ;; =============== function _lcd_command ends ============
  2997                           
  2998                           	signat	_lcd_command,4216
  2999                           	global	___awmod
  3000                           psect	text253,local,class=CODE,delta=2
  3001                           global __ptext253
  3002  0415                     __ptext253:
  3003                           
  3004 ;; *************** function ___awmod *****************
  3005 ;; Defined at:
  3006 ;;		line 5 in file "C:\Program Files (x86)\HI-TECH Software\PICC\9.71a\sources\awmod.c"
  3007 ;; Parameters:    Size  Location     Type
  3008 ;;  divisor         2    0[COMMON] int 
  3009 ;;  dividend        2    2[COMMON] int 
  3010 ;; Auto vars:     Size  Location     Type
  3011 ;;  sign            1    6[COMMON] unsigned char 
  3012 ;;  counter         1    5[COMMON] unsigned char 
  3013 ;; Return value:  Size  Location     Type
  3014 ;;                  2    0[COMMON] int 
  3015 ;; Registers used:
  3016 ;;		wreg, status,2, status,0
  3017 ;; Tracked objects:
  3018 ;;		On entry : 0/0
  3019 ;;		On exit  : 0/0
  3020 ;;		Unchanged: 0/0
  3021 ;; Data sizes:     COMMON   BANK0   BANK1   BANK3   BANK2
  3022 ;;      Params:         4       0       0       0       0
  3023 ;;      Locals:         2       0       0       0       0
  3024 ;;      Temps:          1       0       0       0       0
  3025 ;;      Totals:         7       0       0       0       0
  3026 ;;Total ram usage:        7 bytes
  3027 ;; Hardware stack levels used:    1
  3028 ;; This function calls:
  3029 ;;		Nothing
  3030 ;; This function is called by:
  3031 ;;		_decimal_to_bcd
  3032 ;; This function uses a non-reentrant model
  3033 ;;
  3034                           psect	text253
  3035                           	file	"C:\Program Files (x86)\HI-TECH Software\PICC\9.71a\sources\awmod.c"
  3036                           	line	5
  3037                           	global	__size_of___awmod
  3038  0060                     	__size_of___awmod	equ	__end_of___awmod-___awmod
  3039                           	
  3040  0415                     ___awmod:	
  3041                           	opt	stack 5
  3042                           ; Regs used in ___awmod: [wreg+status,2+status,0]
  3043                           	line	8
  3044                           	
  3045  0415                     l2203:	
  3046  0415  1003               	clrc
  3047  0416  3000               	movlw	0
  3048  0417  1803               	btfsc	status,0
  3049  0418  3001               	movlw	1
  3050  0419  00F6               	movwf	(___awmod@sign)
  3051                           	line	9
  3052                           	
  3053  041A                     l2205:	
  3054  041A  1FF3               	btfss	(___awmod@dividend+1),7
  3055  041B  2C1D               	goto	u2781
  3056  041C  2C1E               	goto	u2780
  3057  041D                     u2781:
  3058  041D  2C26               	goto	l973
  3059  041E                     u2780:
  3060                           	line	10
  3061                           	
  3062  041E                     l2207:	
  3063  041E  09F2               	comf	(___awmod@dividend),f
  3064  041F  09F3               	comf	(___awmod@dividend+1),f
  3065  0420  0AF2               	incf	(___awmod@dividend),f
  3066  0421  1903               	skipnz
  3067  0422  0AF3               	incf	(___awmod@dividend+1),f
  3068                           	line	11
  3069  0423  01F6               	clrf	(___awmod@sign)
  3070  0424  1403               	bsf	status,0
  3071  0425  0DF6               	rlf	(___awmod@sign),f
  3072                           	line	12
  3073                           	
  3074  0426                     l973:	
  3075                           	line	13
  3076                           	
  3077  0426                     l2209:	
  3078  0426  1FF1               	btfss	(___awmod@divisor+1),7
  3079  0427  2C29               	goto	u2791
  3080  0428  2C2A               	goto	u2790
  3081  0429                     u2791:
  3082  0429  2C2F               	goto	l974
  3083  042A                     u2790:
  3084                           	line	14
  3085                           	
  3086  042A                     l2211:	
  3087  042A  09F0               	comf	(___awmod@divisor),f
  3088  042B  09F1               	comf	(___awmod@divisor+1),f
  3089  042C  0AF0               	incf	(___awmod@divisor),f
  3090  042D  1903               	skipnz
  3091  042E  0AF1               	incf	(___awmod@divisor+1),f
  3092                           	
  3093  042F                     l974:	
  3094                           	line	15
  3095                           	
  3096  042F                     l2213:	
  3097  042F  0871               	movf	(___awmod@divisor+1),w
  3098  0430  0470               	iorwf	(___awmod@divisor),w
  3099  0431  1903               	skipnz
  3100  0432  2C34               	goto	u2801
  3101  0433  2C35               	goto	u2800
  3102  0434                     u2801:
  3103  0434  2C65               	goto	l975
  3104  0435                     u2800:
  3105                           	line	16
  3106                           	
  3107  0435                     l2215:	
  3108  0435  01F5               	clrf	(___awmod@counter)
  3109  0436  1403               	bsf	status,0
  3110  0437  0DF5               	rlf	(___awmod@counter),f
  3111                           	line	17
  3112  0438  2C44               	goto	l976
  3113                           	
  3114  0439                     l977:	
  3115                           	line	18
  3116                           	
  3117  0439                     l2217:	
  3118  0439  3001               	movlw	01h
  3119                           	
  3120  043A                     u2815:
  3121  043A  1003               	clrc
  3122  043B  0DF0               	rlf	(___awmod@divisor),f
  3123  043C  0DF1               	rlf	(___awmod@divisor+1),f
  3124  043D  3EFF               	addlw	-1
  3125  043E  1D03               	skipz
  3126  043F  2C3A               	goto	u2815
  3127                           	line	19
  3128                           	
  3129  0440                     l2219:	
  3130  0440  3001               	movlw	(01h)
  3131  0441  00F4               	movwf	(??___awmod+0)+0
  3132  0442  0874               	movf	(??___awmod+0)+0,w
  3133  0443  07F5               	addwf	(___awmod@counter),f
  3134                           	line	20
  3135                           	
  3136  0444                     l976:	
  3137                           	line	17
  3138                           	
  3139  0444                     l2221:	
  3140  0444  1FF1               	btfss	(___awmod@divisor+1),(15)&7
  3141  0445  2C47               	goto	u2821
  3142  0446  2C48               	goto	u2820
  3143  0447                     u2821:
  3144  0447  2C39               	goto	l977
  3145  0448                     u2820:
  3146                           	
  3147  0448                     l978:	
  3148                           	line	21
  3149                           	
  3150  0448                     l979:	
  3151                           	line	22
  3152                           	
  3153  0448                     l2223:	
  3154  0448  0871               	movf	(___awmod@divisor+1),w
  3155  0449  0273               	subwf	(___awmod@dividend+1),w
  3156  044A  1D03               	skipz
  3157  044B  2C4E               	goto	u2835
  3158  044C  0870               	movf	(___awmod@divisor),w
  3159  044D  0272               	subwf	(___awmod@dividend),w
  3160  044E                     u2835:
  3161  044E  1C03               	skipc
  3162  044F  2C51               	goto	u2831
  3163  0450  2C52               	goto	u2830
  3164  0451                     u2831:
  3165  0451  2C58               	goto	l980
  3166  0452                     u2830:
  3167                           	line	23
  3168                           	
  3169  0452                     l2225:	
  3170  0452  0870               	movf	(___awmod@divisor),w
  3171  0453  02F2               	subwf	(___awmod@dividend),f
  3172  0454  0871               	movf	(___awmod@divisor+1),w
  3173  0455  1C03               	skipc
  3174  0456  03F3               	decf	(___awmod@dividend+1),f
  3175  0457  02F3               	subwf	(___awmod@dividend+1),f
  3176                           	
  3177  0458                     l980:	
  3178                           	line	24
  3179                           	
  3180  0458                     l2227:	
  3181  0458  3001               	movlw	01h
  3182                           	
  3183  0459                     u2845:
  3184  0459  1003               	clrc
  3185  045A  0CF1               	rrf	(___awmod@divisor+1),f
  3186  045B  0CF0               	rrf	(___awmod@divisor),f
  3187  045C  3EFF               	addlw	-1
  3188  045D  1D03               	skipz
  3189  045E  2C59               	goto	u2845
  3190                           	line	25
  3191                           	
  3192  045F                     l2229:	
  3193  045F  3001               	movlw	low(01h)
  3194  0460  02F5               	subwf	(___awmod@counter),f
  3195  0461  1D03               	btfss	status,2
  3196  0462  2C64               	goto	u2851
  3197  0463  2C65               	goto	u2850
  3198  0464                     u2851:
  3199  0464  2C48               	goto	l979
  3200  0465                     u2850:
  3201                           	
  3202  0465                     l981:	
  3203                           	line	26
  3204                           	
  3205  0465                     l975:	
  3206                           	line	27
  3207                           	
  3208  0465                     l2231:	
  3209  0465  0876               	movf	(___awmod@sign),w
  3210  0466  1D03               	skipz
  3211  0467  2C69               	goto	u2860
  3212  0468  2C6E               	goto	l982
  3213  0469                     u2860:
  3214                           	line	28
  3215                           	
  3216  0469                     l2233:	
  3217  0469  09F2               	comf	(___awmod@dividend),f
  3218  046A  09F3               	comf	(___awmod@dividend+1),f
  3219  046B  0AF2               	incf	(___awmod@dividend),f
  3220  046C  1903               	skipnz
  3221  046D  0AF3               	incf	(___awmod@dividend+1),f
  3222                           	
  3223  046E                     l982:	
  3224                           	line	29
  3225                           	
  3226  046E                     l2235:	
  3227  046E  0873               	movf	(___awmod@dividend+1),w
  3228  046F  01F1               	clrf	(?___awmod+1)
  3229  0470  07F1               	addwf	(?___awmod+1)
  3230  0471  0872               	movf	(___awmod@dividend),w
  3231  0472  01F0               	clrf	(?___awmod)
  3232  0473  07F0               	addwf	(?___awmod)
  3233                           
  3234                           	
  3235  0474                     l2237:	
  3236                           	line	30
  3237                           	
  3238  0474                     l983:	
  3239  0474  0008               	return
  3240                           	opt stack 0
  3241                           GLOBAL	__end_of___awmod
  3242  0475                     	__end_of___awmod:
  3243 ;; =============== function ___awmod ends ============
  3244                           
  3245                           	signat	___awmod,8314
  3246                           	global	___awdiv
  3247                           psect	text254,local,class=CODE,delta=2
  3248                           global __ptext254
  3249  0475                     __ptext254:
  3250                           
  3251 ;; *************** function ___awdiv *****************
  3252 ;; Defined at:
  3253 ;;		line 5 in file "C:\Program Files (x86)\HI-TECH Software\PICC\9.71a\sources\awdiv.c"
  3254 ;; Parameters:    Size  Location     Type
  3255 ;;  divisor         2    0[COMMON] int 
  3256 ;;  dividend        2    2[COMMON] int 
  3257 ;; Auto vars:     Size  Location     Type
  3258 ;;  quotient        2    7[COMMON] int 
  3259 ;;  sign            1    6[COMMON] unsigned char 
  3260 ;;  counter         1    5[COMMON] unsigned char 
  3261 ;; Return value:  Size  Location     Type
  3262 ;;                  2    0[COMMON] int 
  3263 ;; Registers used:
  3264 ;;		wreg, status,2, status,0
  3265 ;; Tracked objects:
  3266 ;;		On entry : 0/0
  3267 ;;		On exit  : 0/0
  3268 ;;		Unchanged: 0/0
  3269 ;; Data sizes:     COMMON   BANK0   BANK1   BANK3   BANK2
  3270 ;;      Params:         4       0       0       0       0
  3271 ;;      Locals:         4       0       0       0       0
  3272 ;;      Temps:          1       0       0       0       0
  3273 ;;      Totals:         9       0       0       0       0
  3274 ;;Total ram usage:        9 bytes
  3275 ;; Hardware stack levels used:    1
  3276 ;; This function calls:
  3277 ;;		Nothing
  3278 ;; This function is called by:
  3279 ;;		_decimal_to_bcd
  3280 ;; This function uses a non-reentrant model
  3281 ;;
  3282                           psect	text254
  3283                           	file	"C:\Program Files (x86)\HI-TECH Software\PICC\9.71a\sources\awdiv.c"
  3284                           	line	5
  3285                           	global	__size_of___awdiv
  3286  0070                     	__size_of___awdiv	equ	__end_of___awdiv-___awdiv
  3287                           	
  3288  0475                     ___awdiv:	
  3289                           	opt	stack 5
  3290                           ; Regs used in ___awdiv: [wreg+status,2+status,0]
  3291                           	line	9
  3292                           	
  3293  0475                     l2165:	
  3294  0475  1003               	clrc
  3295  0476  3000               	movlw	0
  3296  0477  1803               	btfsc	status,0
  3297  0478  3001               	movlw	1
  3298  0479  00F6               	movwf	(___awdiv@sign)
  3299                           	line	10
  3300                           	
  3301  047A                     l2167:	
  3302  047A  1FF1               	btfss	(___awdiv@divisor+1),7
  3303  047B  2C7D               	goto	u2681
  3304  047C  2C7E               	goto	u2680
  3305  047D                     u2681:
  3306  047D  2C86               	goto	l905
  3307  047E                     u2680:
  3308                           	line	11
  3309                           	
  3310  047E                     l2169:	
  3311  047E  09F0               	comf	(___awdiv@divisor),f
  3312  047F  09F1               	comf	(___awdiv@divisor+1),f
  3313  0480  0AF0               	incf	(___awdiv@divisor),f
  3314  0481  1903               	skipnz
  3315  0482  0AF1               	incf	(___awdiv@divisor+1),f
  3316                           	line	12
  3317  0483  01F6               	clrf	(___awdiv@sign)
  3318  0484  1403               	bsf	status,0
  3319  0485  0DF6               	rlf	(___awdiv@sign),f
  3320                           	line	13
  3321                           	
  3322  0486                     l905:	
  3323                           	line	14
  3324                           	
  3325  0486                     l2171:	
  3326  0486  1FF3               	btfss	(___awdiv@dividend+1),7
  3327  0487  2C89               	goto	u2691
  3328  0488  2C8A               	goto	u2690
  3329  0489                     u2691:
  3330  0489  2C93               	goto	l906
  3331  048A                     u2690:
  3332                           	line	15
  3333                           	
  3334  048A                     l2173:	
  3335  048A  09F2               	comf	(___awdiv@dividend),f
  3336  048B  09F3               	comf	(___awdiv@dividend+1),f
  3337  048C  0AF2               	incf	(___awdiv@dividend),f
  3338  048D  1903               	skipnz
  3339  048E  0AF3               	incf	(___awdiv@dividend+1),f
  3340                           	line	16
  3341                           	
  3342  048F                     l2175:	
  3343  048F  3001               	movlw	(01h)
  3344  0490  00F4               	movwf	(??___awdiv+0)+0
  3345  0491  0874               	movf	(??___awdiv+0)+0,w
  3346  0492  06F6               	xorwf	(___awdiv@sign),f
  3347                           	line	17
  3348                           	
  3349  0493                     l906:	
  3350                           	line	18
  3351  0493  3000               	movlw	low(0)
  3352  0494  00F7               	movwf	(___awdiv@quotient)
  3353  0495  3000               	movlw	high(0)
  3354  0496  00F8               	movwf	((___awdiv@quotient))+1
  3355                           	line	19
  3356  0497  0871               	movf	(___awdiv@divisor+1),w
  3357  0498  0470               	iorwf	(___awdiv@divisor),w
  3358  0499  1903               	skipnz
  3359  049A  2C9C               	goto	u2701
  3360  049B  2C9D               	goto	u2700
  3361  049C                     u2701:
  3362  049C  2CD5               	goto	l907
  3363  049D                     u2700:
  3364                           	line	20
  3365                           	
  3366  049D                     l2177:	
  3367  049D  01F5               	clrf	(___awdiv@counter)
  3368  049E  1403               	bsf	status,0
  3369  049F  0DF5               	rlf	(___awdiv@counter),f
  3370                           	line	21
  3371  04A0  2CAC               	goto	l908
  3372                           	
  3373  04A1                     l909:	
  3374                           	line	22
  3375                           	
  3376  04A1                     l2179:	
  3377  04A1  3001               	movlw	01h
  3378                           	
  3379  04A2                     u2715:
  3380  04A2  1003               	clrc
  3381  04A3  0DF0               	rlf	(___awdiv@divisor),f
  3382  04A4  0DF1               	rlf	(___awdiv@divisor+1),f
  3383  04A5  3EFF               	addlw	-1
  3384  04A6  1D03               	skipz
  3385  04A7  2CA2               	goto	u2715
  3386                           	line	23
  3387                           	
  3388  04A8                     l2181:	
  3389  04A8  3001               	movlw	(01h)
  3390  04A9  00F4               	movwf	(??___awdiv+0)+0
  3391  04AA  0874               	movf	(??___awdiv+0)+0,w
  3392  04AB  07F5               	addwf	(___awdiv@counter),f
  3393                           	line	24
  3394                           	
  3395  04AC                     l908:	
  3396                           	line	21
  3397                           	
  3398  04AC                     l2183:	
  3399  04AC  1FF1               	btfss	(___awdiv@divisor+1),(15)&7
  3400  04AD  2CAF               	goto	u2721
  3401  04AE  2CB0               	goto	u2720
  3402  04AF                     u2721:
  3403  04AF  2CA1               	goto	l909
  3404  04B0                     u2720:
  3405                           	
  3406  04B0                     l910:	
  3407                           	line	25
  3408                           	
  3409  04B0                     l911:	
  3410                           	line	26
  3411                           	
  3412  04B0                     l2185:	
  3413  04B0  3001               	movlw	01h
  3414                           	
  3415  04B1                     u2735:
  3416  04B1  1003               	clrc
  3417  04B2  0DF7               	rlf	(___awdiv@quotient),f
  3418  04B3  0DF8               	rlf	(___awdiv@quotient+1),f
  3419  04B4  3EFF               	addlw	-1
  3420  04B5  1D03               	skipz
  3421  04B6  2CB1               	goto	u2735
  3422                           	line	27
  3423  04B7  0871               	movf	(___awdiv@divisor+1),w
  3424  04B8  0273               	subwf	(___awdiv@dividend+1),w
  3425  04B9  1D03               	skipz
  3426  04BA  2CBD               	goto	u2745
  3427  04BB  0870               	movf	(___awdiv@divisor),w
  3428  04BC  0272               	subwf	(___awdiv@dividend),w
  3429  04BD                     u2745:
  3430  04BD  1C03               	skipc
  3431  04BE  2CC0               	goto	u2741
  3432  04BF  2CC1               	goto	u2740
  3433  04C0                     u2741:
  3434  04C0  2CC8               	goto	l912
  3435  04C1                     u2740:
  3436                           	line	28
  3437                           	
  3438  04C1                     l2187:	
  3439  04C1  0870               	movf	(___awdiv@divisor),w
  3440  04C2  02F2               	subwf	(___awdiv@dividend),f
  3441  04C3  0871               	movf	(___awdiv@divisor+1),w
  3442  04C4  1C03               	skipc
  3443  04C5  03F3               	decf	(___awdiv@dividend+1),f
  3444  04C6  02F3               	subwf	(___awdiv@dividend+1),f
  3445                           	line	29
  3446                           	
  3447  04C7                     l2189:	
  3448  04C7  1477               	bsf	(___awdiv@quotient)+(0/8),(0)&7
  3449                           	line	30
  3450                           	
  3451  04C8                     l912:	
  3452                           	line	31
  3453                           	
  3454  04C8                     l2191:	
  3455  04C8  3001               	movlw	01h
  3456                           	
  3457  04C9                     u2755:
  3458  04C9  1003               	clrc
  3459  04CA  0CF1               	rrf	(___awdiv@divisor+1),f
  3460  04CB  0CF0               	rrf	(___awdiv@divisor),f
  3461  04CC  3EFF               	addlw	-1
  3462  04CD  1D03               	skipz
  3463  04CE  2CC9               	goto	u2755
  3464                           	line	32
  3465                           	
  3466  04CF                     l2193:	
  3467  04CF  3001               	movlw	low(01h)
  3468  04D0  02F5               	subwf	(___awdiv@counter),f
  3469  04D1  1D03               	btfss	status,2
  3470  04D2  2CD4               	goto	u2761
  3471  04D3  2CD5               	goto	u2760
  3472  04D4                     u2761:
  3473  04D4  2CB0               	goto	l911
  3474  04D5                     u2760:
  3475                           	
  3476  04D5                     l913:	
  3477                           	line	33
  3478                           	
  3479  04D5                     l907:	
  3480                           	line	34
  3481                           	
  3482  04D5                     l2195:	
  3483  04D5  0876               	movf	(___awdiv@sign),w
  3484  04D6  1D03               	skipz
  3485  04D7  2CD9               	goto	u2770
  3486  04D8  2CDE               	goto	l914
  3487  04D9                     u2770:
  3488                           	line	35
  3489                           	
  3490  04D9                     l2197:	
  3491  04D9  09F7               	comf	(___awdiv@quotient),f
  3492  04DA  09F8               	comf	(___awdiv@quotient+1),f
  3493  04DB  0AF7               	incf	(___awdiv@quotient),f
  3494  04DC  1903               	skipnz
  3495  04DD  0AF8               	incf	(___awdiv@quotient+1),f
  3496                           	
  3497  04DE                     l914:	
  3498                           	line	36
  3499                           	
  3500  04DE                     l2199:	
  3501  04DE  0878               	movf	(___awdiv@quotient+1),w
  3502  04DF  01F1               	clrf	(?___awdiv+1)
  3503  04E0  07F1               	addwf	(?___awdiv+1)
  3504  04E1  0877               	movf	(___awdiv@quotient),w
  3505  04E2  01F0               	clrf	(?___awdiv)
  3506  04E3  07F0               	addwf	(?___awdiv)
  3507                           
  3508                           	
  3509  04E4                     l2201:	
  3510                           	line	37
  3511                           	
  3512  04E4                     l915:	
  3513  04E4  0008               	return
  3514                           	opt stack 0
  3515                           GLOBAL	__end_of___awdiv
  3516  04E5                     	__end_of___awdiv:
  3517 ;; =============== function ___awdiv ends ============
  3518                           
  3519                           	signat	___awdiv,8314
  3520                           	global	_delay
  3521                           psect	text255,local,class=CODE,delta=2
  3522                           global __ptext255
  3523  029B                     __ptext255:
  3524                           
  3525 ;; *************** function _delay *****************
  3526 ;; Defined at:
  3527 ;;		line 22 in file "C:\Users\TECH\Desktop\madhu pic folder\I2C\I2c\I2c.c"
  3528 ;; Parameters:    Size  Location     Type
  3529 ;;  x               2    0[COMMON] unsigned int 
  3530 ;; Auto vars:     Size  Location     Type
  3531 ;;		None
  3532 ;; Return value:  Size  Location     Type
  3533 ;;		None               void
  3534 ;; Registers used:
  3535 ;;		wreg
  3536 ;; Tracked objects:
  3537 ;;		On entry : 0/0
  3538 ;;		On exit  : 0/0
  3539 ;;		Unchanged: 0/0
  3540 ;; Data sizes:     COMMON   BANK0   BANK1   BANK3   BANK2
  3541 ;;      Params:         2       0       0       0       0
  3542 ;;      Locals:         0       0       0       0       0
  3543 ;;      Temps:          0       0       0       0       0
  3544 ;;      Totals:         2       0       0       0       0
  3545 ;;Total ram usage:        2 bytes
  3546 ;; Hardware stack levels used:    1
  3547 ;; This function calls:
  3548 ;;		Nothing
  3549 ;; This function is called by:
  3550 ;;		_lcd_command
  3551 ;;		_lcd_data
  3552 ;;		_lcd_display
  3553 ;;		_main
  3554 ;;		_bcd_to_ascii
  3555 ;;		_decimal_to_bcd
  3556 ;;		_DS1307_READ
  3557 ;; This function uses a non-reentrant model
  3558 ;;
  3559                           psect	text255
  3560                           	file	"C:\Users\TECH\Desktop\madhu pic folder\I2C\I2c\I2c.c"
  3561                           	line	22
  3562                           	global	__size_of_delay
  3563  0012                     	__size_of_delay	equ	__end_of_delay-_delay
  3564                           	
  3565  029B                     _delay:	
  3566                           	opt	stack 5
  3567                           ; Regs used in _delay: [wreg]
  3568                           	line	23
  3569                           	
  3570  029B                     l2161:	
  3571                           ;I2c.c: 23: while(x--);
  3572  029B  2A9C               	goto	l579
  3573                           	
  3574  029C                     l580:	
  3575                           	
  3576  029C                     l579:	
  3577                           	
  3578  029C                     l2163:	
  3579  029C  3001               	movlw	low(01h)
  3580  029D  02F0               	subwf	(delay@x),f
  3581  029E  3000               	movlw	high(01h)
  3582  029F  1C03               	skipc
  3583  02A0  03F1               	decf	(delay@x+1),f
  3584  02A1  02F1               	subwf	(delay@x+1),f
  3585  02A2  30FF               	movlw	high(0FFFFh)
  3586  02A3  0671               	xorwf	((delay@x+1)),w
  3587  02A4  1D03               	skipz
  3588  02A5  2AA8               	goto	u2675
  3589  02A6  30FF               	movlw	low(0FFFFh)
  3590  02A7  0670               	xorwf	((delay@x)),w
  3591  02A8                     u2675:
  3592                           
  3593  02A8  1D03               	skipz
  3594  02A9  2AAB               	goto	u2671
  3595  02AA  2AAC               	goto	u2670
  3596  02AB                     u2671:
  3597  02AB  2A9C               	goto	l580
  3598  02AC                     u2670:
  3599                           	
  3600  02AC                     l581:	
  3601                           	line	24
  3602                           	
  3603  02AC                     l582:	
  3604  02AC  0008               	return
  3605                           	opt stack 0
  3606                           GLOBAL	__end_of_delay
  3607  02AD                     	__end_of_delay:
  3608 ;; =============== function _delay ends ============
  3609                           
  3610                           	signat	_delay,4216
  3611                           psect	text256,local,class=CODE,delta=2
  3612                           global __ptext256
  3613  0000                     __ptext256:
  3614                           	global	btemp
  3615  007E                     	btemp set 07Eh
  3616                           
  3617                           	DABS	1,126,2	;btemp
  3618                           	global	wtemp0
  3619  007E                     	wtemp0 set btemp


HI-TECH Software PICC Macro Assembler V9.71a build 6446 
Symbol Table                                                                                   Fri Nov 25 18:48:21 2022

                      pc 0002             lcd_data@data 0072             lcd_data@val1 0076  
                     _BF 04A0             ___awdiv@sign 0076                       fsr 0004  
         _decimal_to_bcd 0379                      l600 0553                      l601 0567  
                    l602 0568                      l603 0568                      l620 0585  
                    l612 0570                      l700 06C8                      l621 058F  
                    l613 0570                      l701 06CC                      l630 05AF  
                    l622 058F                      l614 0574                      l606 0414  
                    l710 06EE                      l702 06CD                      l631 05AF  
                    l623 0593                      l615 057A                      l711 06F0  
                    l703 06CD                      l640 05E4                      l632 05B5  
                    l624 0594                      l616 057A                      l720 0714  
                    l712 06F0                      l704 06D3                      l609 03C0  
                    l641 05E8                      l633 05C7                      l625 0594  
                    l617 057E                      l721 0714                      l713 06F4  
                    l705 06DB                      l650 060C                      l642 05E9  
                    l634 05C7                      l626 059A                      l618 057F  
                    l730 072F                      l722 0718                      l714 06FF  
                    l706 06DB                      l651 061E                      l643 05E9  
                    l635 05CB                      l627 05AA                      l619 057F  
                    l731 0733                      l723 071A                      l715 06FF  
                    l707 06DF                      l580 029C                      l660 0640  
                    l652 061E                      l644 05EF                      l636 05CC  
                    l628 05AA                      l740 0757                      l732 073E  
                    l724 071A                      l716 0703                      l708 06EA  
                    l581 02AC                      l661 0640                      l653 0622  
                    l645 0601                      l637 05CC                      l629 05AE  
                    l741 0759                      l733 073E                      l725 071E  
                    l717 0705                      l709 06EA                      l582 02AC  
                    l910 04B0                      l670 066D                      l662 0646  
                    l654 0623                      l646 0601                      l638 05D2  
                    l750 077D                      l742 0759                      l734 0742  
                    l726 0729                      l718 0705                      l911 04B0  
                    l591 02DA                      l671 0671                      l663 0658  
                    l655 0623                      l647 0605                      l639 05E4  
                    l751 077D                      l743 075D                      l735 0744  
                    l727 0729                      l719 0709                      l912 04C8  
                    l672 0672                      l664 0658                      l656 0629  
                    l648 0606                      l752 0781                      l744 0768  
                    l736 0744                      l728 072D                      l913 04D5  
                    l905 0486                      l585 030E                      l673 0672  
                    l665 065C                      l657 063B                      l649 0606  
                    l753 0783                      l745 0768                      l737 0748  
                    l729 072F                      l681 068A                      l914 04DE  
                    l906 0493                      l594 036B                      l674 0678  
                    l666 065D                      l658 063B                      l754 0783  
                    l746 076C                      l738 0753                      l690 06AA  
                    l682 068A                      l579 029C                      l915 04E4  
                    l907 04D5                      l595 0349                      l675 0680  
                    l667 065D                      l659 063F                      l755 0787  
                    l747 076E                      l739 0753                      l691 06AA  
                    l683 068E                      l908 04AC                      l588 0342  
                    l596 0378                      l676 0680                      l668 0663  
                    l756 07FF                      l748 076E                      l692 06AE  
                    l684 0694                      l909 04A1                      l597 0378  
                    l677 0684                      l669 066D                      l749 0772  
                    l693 06AF                      l685 0694                      l678 0684  
                    l694 06AF                      l686 0698                      l695 06B5  
                    l687 0699                      l696 06BD                      l688 0699  
                    l697 06BD                      l689 069F                      l698 06C1  
                    l699 06C8                      l980 0458                      l981 0465  
                    l973 0426                      l982 046E                      l974 042F  
                    l983 0474                      l975 0465                      l976 0444  
                    l977 0439                      l978 0448                      l979 0448  
                    _RD0 0040                      _RD1 0041                      _RD2 0042  
                    _PEN 048A                      _SEN 0488             _DS1307_WRITE 056B  
   DS1307_READ@slave_add 007D                      _hr1 0032                      _yr1 0036  
                    fsr0 0004             ___awmod@sign 0076             lcd_display@i 007A  
           lcd_display@m 0079                     l2201 04E4                     l2211 042A  
                   l2203 0415                     l2221 0444                     l2213 042F  
                   l2205 041A                     l2301 02AD                     l2231 0465  
                   l2223 0448                     l2215 0435                     l2207 041E  
                   l2311 036B                     l2303 0344                     l2161 029B  
                   l2233 0469                     l2225 0452                     l2217 0439  
                   l2209 0426                     l2241 02E0                     l2305 0349  
                   l2321 05BB                     l2313 056C                     l2401 075D  
                   l2163 029C                     l2171 0486                     l2235 046E  
                   l2227 0458                     l2219 0440                     l2251 02EF  
                   l2243 02E1                     l2307 035C                     l2331 064C  
                   l2323 05D8                     l2315 0577                     l2411 077B  
                   l2403 0763                     l2181 04A8                     l2173 048A  
                   l2165 0475                     l2237 0474                     l2229 045F  
                   l2261 0302                     l2253 02FC                     l2245 02E2  
                   l2309 0365                     l2333 0669                     l2325 05F5  
                   l2317 058B                     l2341 03D7                     l2413 0787  
                   l2405 0766                     l2421 04F7                     l2191 04C8  
                   l2183 04AC                     l2175 048F                     l2167 047A  
                   l2263 030B                     l2255 02FF                     l2247 02E3  
                   l2239 02DB                     l2271 0316                     l2327 0612  
                   l2319 05A0                     l2351 03FA                     l2343 03DC  
                   l2335 03C2                     l2407 0772                     l2431 0513  
                   l2423 04FB                     l2415 04E5                     l2193 04CF  
                   l2185 04B0                     l2177 049D                     l2169 047E  
                   l2257 0300                     l2249 02EC                     l2281 0333  
                   l2273 0317                     l2265 030F                     l2329 062F  
                   l2353 03FF                     l2345 03E8                     l2337 03C6  
                   l2409 0778                     l2361 06A5                     l2441 0553  
                   l2433 051C                     l2425 04FF                     l2417 04F1  
                   l2195 04D5                     l2187 04C1                     l2179 04A1  
                   l2259 0301                     l2283 0334                     l2275 0320  
                   l2267 0314                     l2291 037C                     l2355 040B  
                   l2347 03F1                     l2339 03CB                     l2371 06F4  
                   l2363 06C4                     l2443 055E                     l2435 0525  
                   l2427 0504                     l2419 04F5                     l2197 04D9  
                   l2189 04C7                     l2285 0335                     l2277 0323  
                   l2269 0315                     l2293 03A8                     l2349 03F5  
                   l2381 0712                     l2373 06FA                     l2365 06DF  
                   l2357 0686                     l2437 052B                     l2429 050D  
                   l2199 04DE                     l2287 0336                     l2279 0330  
                   l2295 03B5                     l2391 0739                     l2383 071E  
                   l2375 06FD                     l2367 06E5                     l2359 0691  
                   l2439 054A                     l2289 033F                     l2297 03B6  
                   l2393 073C                     l2385 0724                     l2377 0709  
                   l2369 06E8                     l2299 03B7                     l2395 0748  
                   l2387 0727                     l2379 070F                     l2397 074E  
                   l2389 0733                     l2399 0751                     STR_1 0009  
                   STR_2 0010                     u3000 05E8                     u3001 05E7  
                   u3010 05EF                     u3011 05EE                     u3100 0671  
                   u3020 0605                     u3101 0670                     u3021 0604  
                   u3110 0678                     u3030 060C                     u3111 0677  
                   u3031 060B                     u3120 0684                     u3040 0622  
                   u3200 06CC                     u3121 0683                     u3041 0621  
                   u3201 06CB                     u3050 0629                     u3210 06D3  
                   u3051 0628                     u3211 06D2                     u3060 063F  
                   u3300 0733                     u3220 06DF                     u3140 068E  
                   u3061 063E                     u3301 0732                     u3221 06DE  
                   u3141 068D                     u3070 0646                     u3310 0742  
                   u3230 06EE                     u3150 0698                     u3071 0645  
                   u3135 03CE                     u3311 0741                     u3231 06ED  
                   u3151 0697                     u3080 065C                     u3320 0748  
                   u3240 06F4                     u3160 069F                     u3081 065B  
                   u3321 0747                     u3241 06F3                     u3161 069E  
                   u3090 0663                     u3330 0757                     u3250 0703  
                   u3170 06AE                     u3091 0662                     u3331 0756  
                   u3251 0702                     u3171 06AD                     u2700 049D  
                   u3340 075D                     u3260 0709                     u3180 06B5  
                   u2701 049C                     u3341 075C                     u3261 0708  
                   u3181 06B4                     u3350 076C                     u3270 0718  
                   u3190 06C1                     u3351 076B                     u3271 0717  
                   u3191 06C0                     u2720 04B0                     u2800 0435  
                   u3360 0772                     u3280 071E                     u2721 04AF  
                   u2801 0434                     u3361 0771                     u3281 071D  
                   u3370 0781                     u3290 072D                     u2715 04A2  
                   u3371 0780                     u3291 072C                     u2740 04C1  
                   u2820 0448                     u2900 0378                     u3380 0787  
                   u2741 04C0                     u2821 0447                     u2901 0377  
                   u3381 0786                     u2670 02AC                     u2830 0452  
                   u2910 0574                     u2671 02AB                     u2735 04B1  
                   u2831 0451                     u2815 043A                     u2911 0573  
                   u2760 04D5                     u2680 047E                     u2920 057E  
                   u2761 04D4                     u2745 04BD                     u2681 047D  
                   u2921 057D                     u2770 04D9                     u2690 048A  
                   u2850 0465                     u2930 0585                     u2675 02A8  
                   u2755 04C9                     u2691 0489                     u2851 0464  
                   u2835 044E                     u2931 0584                     u2860 0469  
                   u2780 041E                     u2940 0593                     u2845 0459  
                   u2781 041D                     u2941 0592                     u2790 042A  
                   u2950 059A                     u2791 0429                     u2951 0599  
                   u2960 05AE                     u2961 05AD                     u2970 05B5  
                   u2875 02F2                     u2971 05B4                     u2980 05CB  
                   _RCEN 048B                     u2885 0326                     u2981 05CA  
                   u2990 05D2                     u2895 03AB                     u2991 05D1  
                   _RSEN 0489                     _day1 0031                     _con1 002F  
                   _min1 0033                     _sec1 0035                     _main 04E5  
                   _mon1 0034                     btemp 007E                     start 0000  
 __end_of_decimal_to_bcd 03C1                    ?_main 0070                    _ACKEN 048C  
                  _ACKDT 048D          __end_of___awdiv 04E5          __end_of___awmod 0475  
        ___awdiv@divisor 0070          ___awdiv@counter 0075    __size_of_bcd_to_ascii 0054  
                  _PORTB 0006                    _PORTD 0008                    _TRISB 0086  
                  _TRISC 0087                    _TRISD 0088                    _SSPIF 0063  
                  _date1 0030                    _delay 029B                    pclath 000A  
                  status 0003                    wtemp0 007E             __end_of_main 056B  
           _bcd_to_ascii 03C1          ?_decimal_to_bcd 0070                   ??_main 002A  
         lcd_command@COM 0072                   ?_delay 0070         ___awdiv@dividend 0072  
                 _SSPCON 0014                   _SSPBUF 0013         __end_of_lcd_data 0343  
       __end_of_lcd_init 02DB     __size_of_lcd_command 0034     __size_of_lcd_display 0036  
              ??___awdiv 0074                ??___awmod 0074                   delay@x 0070  
       ___awdiv@quotient 0077          ___awmod@divisor 0070          ___awmod@counter 0075  
     DS1307_READ@reg_add 007B           __pcstackCOMMON 0070            __end_of_delay 02AD  
                ??_delay 0072            ??_DS1307_READ 007C               __pbssBANK0 002F  
        lcd_command@temp 0076               __pmaintext 04E5          bcd_to_ascii@bcd 007A  
                _ACKSTAT 048E                  _SSPCON2 0091                ?_lcd_data 0072  
              ?_lcd_init 0070                  _SSPSTAT 0094        bcd_to_ascii@value 0079  
    __end_of_DS1307_READ 0800         ??_decimal_to_bcd 0079                  ___awdiv 0475  
                ___awmod 0415         ___awmod@dividend 0072      decimal_to_bcd@value 0023  
             ??_lcd_data 0074               ??_lcd_init 0077     end_of_initialization 0297  
        DS1307_WRITE@_hr 0025          DS1307_WRITE@_yr 0029              _DS1307_READ 0685  
          ??_lcd_command 0074            ??_lcd_display 0077            ?_DS1307_WRITE 0024  
    start_initialization 028F        decimal_to_bcd@hex 0022        decimal_to_bcd@lsb 0021  
      decimal_to_bcd@msb 0020      __end_of_lcd_command 030F      __end_of_lcd_display 0379  
         ??_DS1307_WRITE 007C            __pcstackBANK0 0020        __size_of_lcd_data 0034  
      __size_of_lcd_init 002E            ?_bcd_to_ascii 0070                 ?___awdiv 0070  
              __ptext250 0379                __ptext251 030F                __ptext252 02DB  
              __ptext244 0000                __ptext253 0415                __ptext245 0685  
              __ptext254 0475                __ptext246 03C1                __ptext255 029B  
              __ptext247 056B                __ptext256 0000                __ptext248 0343  
              __ptext249 02AD                 ?___awmod 0070                __pstrings 0003  
         __size_of_delay 0012              _lcd_command 02DB              _lcd_display 0343  
         ??_bcd_to_ascii 0077              __stringbase 0008             ?_DS1307_READ 007B  
   __end_of_DS1307_WRITE 0685         __size_of___awdiv 0070         __size_of___awmod 0060  
__size_of_decimal_to_bcd 0048                 _lcd_data 030F                 _lcd_init 02AD  
          __size_of_main 0086        DS1307_WRITE@_date 0027     __end_of_bcd_to_ascii 0415  
              stringcode 0003         DS1307_WRITE@_day 0026         DS1307_WRITE@_min 0024  
       DS1307_WRITE@_sec 007C         DS1307_WRITE@_mon 0028                 stringdir 0003  
               stringtab 0003    __size_of_DS1307_WRITE 011A     __size_of_DS1307_READ 017B  
           ?_lcd_command 0072             ?_lcd_display 0070  
