opt subtitle "HI-TECH Software Omniscient Code Generator (Lite mode) build 6446"

opt pagewidth 120

	opt lm

	processor	16F877A
clrc	macro
	bcf	3,0
	endm
clrz	macro
	bcf	3,2
	endm
setc	macro
	bsf	3,0
	endm
setz	macro
	bsf	3,2
	endm
skipc	macro
	btfss	3,0
	endm
skipz	macro
	btfss	3,2
	endm
skipnc	macro
	btfsc	3,0
	endm
skipnz	macro
	btfsc	3,2
	endm
indf	equ	0
indf0	equ	0
pc	equ	2
pcl	equ	2
status	equ	3
fsr	equ	4
fsr0	equ	4
c	equ	1
z	equ	0
pclath	equ	10
	FNCALL	_main,_lcd_init
	FNCALL	_main,_delay
	FNCALL	_main,___lwdiv
	FNCALL	_main,___lwmod
	FNCALL	_main,___awdiv
	FNCALL	_main,___awmod
	FNCALL	_main,_lcd_command
	FNCALL	_main,_lcd_data
	FNCALL	_lcd_init,_lcd_command
	FNCALL	_lcd_data,_delay
	FNCALL	_lcd_command,_delay
	FNROOT	_main
	global	_ADCON0
psect	text180,local,class=CODE,delta=2
global __ptext180
__ptext180:
_ADCON0	set	31
	global	_ADRESH
_ADRESH	set	30
	global	_PORTA
_PORTA	set	5
	global	_PORTC
_PORTC	set	7
	global	_PORTD
_PORTD	set	8
	global	_ADON
_ADON	set	248
	global	_CHS0
_CHS0	set	251
	global	_CHS1
_CHS1	set	252
	global	_CHS2
_CHS2	set	253
	global	_RC0
_RC0	set	56
	global	_RC1
_RC1	set	57
	global	_RC2
_RC2	set	58
	global	_ADCON1
_ADCON1	set	159
	global	_ADRESL
_ADRESL	set	158
	global	_TRISA
_TRISA	set	133
	global	_TRISC
_TRISC	set	135
	global	_TRISD
_TRISD	set	136
	file	"2 sensor value.as"
	line	#
psect cinit,class=CODE,delta=2
global start_initialization
start_initialization:

psect cinit,class=CODE,delta=2
global end_of_initialization

;End of C runtime variable initialization code

end_of_initialization:
clrf status
ljmp _main	;jump to C main() function
psect	cstackCOMMON,class=COMMON,space=1
global __pcstackCOMMON
__pcstackCOMMON:
	global	?_delay
?_delay:	; 0 bytes @ 0x0
	global	?_lcd_command
?_lcd_command:	; 0 bytes @ 0x0
	global	?_lcd_init
?_lcd_init:	; 0 bytes @ 0x0
	global	?_lcd_data
?_lcd_data:	; 0 bytes @ 0x0
	global	?_main
?_main:	; 0 bytes @ 0x0
	global	?___lwdiv
?___lwdiv:	; 2 bytes @ 0x0
	global	?___lwmod
?___lwmod:	; 2 bytes @ 0x0
	global	?___awdiv
?___awdiv:	; 2 bytes @ 0x0
	global	?___awmod
?___awmod:	; 2 bytes @ 0x0
	global	delay@x
delay@x:	; 2 bytes @ 0x0
	global	___lwdiv@divisor
___lwdiv@divisor:	; 2 bytes @ 0x0
	global	___lwmod@divisor
___lwmod@divisor:	; 2 bytes @ 0x0
	global	___awdiv@divisor
___awdiv@divisor:	; 2 bytes @ 0x0
	global	___awmod@divisor
___awmod@divisor:	; 2 bytes @ 0x0
	ds	2
	global	??_delay
??_delay:	; 0 bytes @ 0x2
	global	??_lcd_command
??_lcd_command:	; 0 bytes @ 0x2
	global	??_lcd_data
??_lcd_data:	; 0 bytes @ 0x2
	global	lcd_command@com
lcd_command@com:	; 1 bytes @ 0x2
	global	lcd_data@data
lcd_data@data:	; 1 bytes @ 0x2
	global	___lwdiv@dividend
___lwdiv@dividend:	; 2 bytes @ 0x2
	global	___lwmod@dividend
___lwmod@dividend:	; 2 bytes @ 0x2
	global	___awdiv@dividend
___awdiv@dividend:	; 2 bytes @ 0x2
	global	___awmod@dividend
___awmod@dividend:	; 2 bytes @ 0x2
	ds	1
	global	??_lcd_init
??_lcd_init:	; 0 bytes @ 0x3
	ds	1
	global	??___lwdiv
??___lwdiv:	; 0 bytes @ 0x4
	global	??___lwmod
??___lwmod:	; 0 bytes @ 0x4
	global	??___awdiv
??___awdiv:	; 0 bytes @ 0x4
	global	??___awmod
??___awmod:	; 0 bytes @ 0x4
	ds	1
	global	___lwmod@counter
___lwmod@counter:	; 1 bytes @ 0x5
	global	___awdiv@counter
___awdiv@counter:	; 1 bytes @ 0x5
	global	___awmod@counter
___awmod@counter:	; 1 bytes @ 0x5
	global	___lwdiv@quotient
___lwdiv@quotient:	; 2 bytes @ 0x5
	ds	1
	global	___awdiv@sign
___awdiv@sign:	; 1 bytes @ 0x6
	global	___awmod@sign
___awmod@sign:	; 1 bytes @ 0x6
	ds	1
	global	___lwdiv@counter
___lwdiv@counter:	; 1 bytes @ 0x7
	global	___awdiv@quotient
___awdiv@quotient:	; 2 bytes @ 0x7
	ds	2
	global	??_main
??_main:	; 0 bytes @ 0x9
	ds	2
psect	cstackBANK0,class=BANK0,space=1
global __pcstackBANK0
__pcstackBANK0:
	global	main@a
main@a:	; 2 bytes @ 0x0
	ds	2
	global	main@c
main@c:	; 2 bytes @ 0x2
	ds	2
	global	main@e
main@e:	; 2 bytes @ 0x4
	ds	2
	global	main@f
main@f:	; 2 bytes @ 0x6
	ds	2
	global	main@z
main@z:	; 2 bytes @ 0x8
	ds	2
	global	main@x
main@x:	; 2 bytes @ 0xA
	ds	2
	global	main@v
main@v:	; 2 bytes @ 0xC
	ds	2
	global	main@u
main@u:	; 2 bytes @ 0xE
	ds	2
	global	main@b
main@b:	; 2 bytes @ 0x10
	ds	2
	global	main@d
main@d:	; 2 bytes @ 0x12
	ds	2
	global	main@y
main@y:	; 2 bytes @ 0x14
	ds	2
	global	main@w
main@w:	; 2 bytes @ 0x16
	ds	2
	global	main@temp
main@temp:	; 2 bytes @ 0x18
	ds	2
	global	main@temp1
main@temp1:	; 2 bytes @ 0x1A
	ds	2
;;Data sizes: Strings 0, constant 0, data 0, bss 0, persistent 0 stack 0
;;Auto spaces:   Size  Autos    Used
;; COMMON          14     11      11
;; BANK0           80     28      28
;; BANK1           80      0       0
;; BANK3           96      0       0
;; BANK2           96      0       0

;;
;; Pointer list with targets:

;; ?___awmod	int  size(1) Largest target is 0
;;
;; ?___awdiv	int  size(1) Largest target is 0
;;
;; ?___lwmod	unsigned int  size(1) Largest target is 0
;;
;; ?___lwdiv	unsigned int  size(1) Largest target is 0
;;


;;
;; Critical Paths under _main in COMMON
;;
;;   _main->___awdiv
;;   _lcd_init->_lcd_command
;;   _lcd_data->_delay
;;   _lcd_command->_delay
;;
;; Critical Paths under _main in BANK0
;;
;;   None.
;;
;; Critical Paths under _main in BANK1
;;
;;   None.
;;
;; Critical Paths under _main in BANK3
;;
;;   None.
;;
;; Critical Paths under _main in BANK2
;;
;;   None.

;;
;;Main: autosize = 0, tempsize = 2, incstack = 0, save=0
;;

;;
;;Call Graph Tables:
;;
;; ---------------------------------------------------------------------------------
;; (Depth) Function   	        Calls       Base Space   Used Autos Params    Refs
;; ---------------------------------------------------------------------------------
;; (0) _main                                                30    30      0    1615
;;                                              9 COMMON     2     2      0
;;                                              0 BANK0     28    28      0
;;                           _lcd_init
;;                              _delay
;;                            ___lwdiv
;;                            ___lwmod
;;                            ___awdiv
;;                            ___awmod
;;                        _lcd_command
;;                           _lcd_data
;; ---------------------------------------------------------------------------------
;; (1) _lcd_init                                             0     0      0      44
;;                        _lcd_command
;; ---------------------------------------------------------------------------------
;; (1) _lcd_data                                             1     1      0      44
;;                                              2 COMMON     1     1      0
;;                              _delay
;; ---------------------------------------------------------------------------------
;; (1) _lcd_command                                          1     1      0      44
;;                                              2 COMMON     1     1      0
;;                              _delay
;; ---------------------------------------------------------------------------------
;; (1) ___awmod                                              7     3      4     296
;;                                              0 COMMON     7     3      4
;; ---------------------------------------------------------------------------------
;; (1) ___awdiv                                              9     5      4     300
;;                                              0 COMMON     9     5      4
;; ---------------------------------------------------------------------------------
;; (1) ___lwmod                                              6     2      4     159
;;                                              0 COMMON     6     2      4
;; ---------------------------------------------------------------------------------
;; (1) ___lwdiv                                              8     4      4     162
;;                                              0 COMMON     8     4      4
;; ---------------------------------------------------------------------------------
;; (2) _delay                                                2     0      2      22
;;                                              0 COMMON     2     0      2
;; ---------------------------------------------------------------------------------
;; Estimated maximum stack depth 2
;; ---------------------------------------------------------------------------------

;; Call Graph Graphs:

;; _main (ROOT)
;;   _lcd_init
;;     _lcd_command
;;       _delay
;;   _delay
;;   ___lwdiv
;;   ___lwmod
;;   ___awdiv
;;   ___awmod
;;   _lcd_command
;;     _delay
;;   _lcd_data
;;     _delay
;;

;; Address spaces:

;;Name               Size   Autos  Total    Cost      Usage
;;BITCOMMON            E      0       0       0        0.0%
;;EEDATA             100      0       0       0        0.0%
;;NULL                 0      0       0       0        0.0%
;;CODE                 0      0       0       0        0.0%
;;COMMON               E      B       B       1       78.6%
;;BITSFR0              0      0       0       1        0.0%
;;SFR0                 0      0       0       1        0.0%
;;BITSFR1              0      0       0       2        0.0%
;;SFR1                 0      0       0       2        0.0%
;;STACK                0      0       3       2        0.0%
;;ABS                  0      0       0       3        0.0%
;;BITBANK0            50      0       0       4        0.0%
;;BITSFR3              0      0       0       4        0.0%
;;SFR3                 0      0       0       4        0.0%
;;BANK0               50     1C      1C       5       35.0%
;;BITSFR2              0      0       0       5        0.0%
;;SFR2                 0      0       0       5        0.0%
;;BITBANK1            50      0       0       6        0.0%
;;BANK1               50      0       0       7        0.0%
;;BITBANK3            60      0       0       8        0.0%
;;BANK3               60      0       0       9        0.0%
;;BITBANK2            60      0       0      10        0.0%
;;BANK2               60      0       0      11        0.0%
;;DATA                 0      0       0      12        0.0%

	global	_main
psect	maintext,global,class=CODE,delta=2
global __pmaintext
__pmaintext:

;; *************** function _main *****************
;; Defined at:
;;		line 45 in file "C:\Users\ELCOT\Desktop\adc timer\ADC\ADC task\2 sensor with lcd value\2 sensor value.c"
;; Parameters:    Size  Location     Type
;;		None
;; Auto vars:     Size  Location     Type
;;  temp1           2   26[BANK0 ] unsigned int 
;;  temp            2   24[BANK0 ] unsigned int 
;;  w               2   22[BANK0 ] int 
;;  y               2   20[BANK0 ] int 
;;  d               2   18[BANK0 ] int 
;;  b               2   16[BANK0 ] int 
;;  u               2   14[BANK0 ] int 
;;  v               2   12[BANK0 ] int 
;;  x               2   10[BANK0 ] int 
;;  z               2    8[BANK0 ] int 
;;  f               2    6[BANK0 ] int 
;;  e               2    4[BANK0 ] int 
;;  c               2    2[BANK0 ] int 
;;  a               2    0[BANK0 ] int 
;; Return value:  Size  Location     Type
;;		None               void
;; Registers used:
;;		wreg, status,2, status,0, btemp+0, pclath, cstack
;; Tracked objects:
;;		On entry : 17F/0
;;		On exit  : 0/0
;;		Unchanged: 0/0
;; Data sizes:     COMMON   BANK0   BANK1   BANK3   BANK2
;;      Params:         0       0       0       0       0
;;      Locals:         0      28       0       0       0
;;      Temps:          2       0       0       0       0
;;      Totals:         2      28       0       0       0
;;Total ram usage:       30 bytes
;; Hardware stack levels required when called:    3
;; This function calls:
;;		_lcd_init
;;		_delay
;;		___lwdiv
;;		___lwmod
;;		___awdiv
;;		___awmod
;;		_lcd_command
;;		_lcd_data
;; This function is called by:
;;		Startup code after reset
;; This function uses a non-reentrant model
;;
psect	maintext
	file	"C:\Users\ELCOT\Desktop\adc timer\ADC\ADC task\2 sensor with lcd value\2 sensor value.c"
	line	45
	global	__size_of_main
	__size_of_main	equ	__end_of_main-_main
	
_main:	
	opt	stack 8
; Regs used in _main: [wreg+status,2-btemp+0+pclath+cstack]
	line	48
	
l2236:	
;2 sensor value.c: 46: int a,b,c,d,e,f,z,y,x,w,v,u;
;2 sensor value.c: 47: unsigned int temp,temp1;
;2 sensor value.c: 48: ADCON1=0X80;
	movlw	(080h)
	bsf	status, 5	;RP0=1, select bank1
	bcf	status, 6	;RP1=0, select bank1
	movwf	(159)^080h	;volatile
	line	49
;2 sensor value.c: 49: ADCON0=0X40;
	movlw	(040h)
	bcf	status, 5	;RP0=0, select bank0
	bcf	status, 6	;RP1=0, select bank0
	movwf	(31)	;volatile
	line	51
	
l2238:	
;2 sensor value.c: 51: TRISC=0X00;
	bsf	status, 5	;RP0=1, select bank1
	bcf	status, 6	;RP1=0, select bank1
	clrf	(135)^080h	;volatile
	line	52
	
l2240:	
;2 sensor value.c: 52: PORTC=0X00;
	bcf	status, 5	;RP0=0, select bank0
	bcf	status, 6	;RP1=0, select bank0
	clrf	(7)	;volatile
	line	54
	
l2242:	
;2 sensor value.c: 54: TRISD=0X00;
	bsf	status, 5	;RP0=1, select bank1
	bcf	status, 6	;RP1=0, select bank1
	clrf	(136)^080h	;volatile
	line	55
	
l2244:	
;2 sensor value.c: 55: PORTD=0X00;
	bcf	status, 5	;RP0=0, select bank0
	bcf	status, 6	;RP1=0, select bank0
	clrf	(8)	;volatile
	line	58
;2 sensor value.c: 58: TRISA=0X03;
	movlw	(03h)
	bsf	status, 5	;RP0=1, select bank1
	bcf	status, 6	;RP1=0, select bank1
	movwf	(133)^080h	;volatile
	line	59
	
l2246:	
;2 sensor value.c: 59: PORTA=0X00;
	bcf	status, 5	;RP0=0, select bank0
	bcf	status, 6	;RP1=0, select bank0
	clrf	(5)	;volatile
	line	61
	
l2248:	
;2 sensor value.c: 61: lcd_init();
	fcall	_lcd_init
	line	62
	
l2250:	
;2 sensor value.c: 62: delay(100);
	movlw	low(064h)
	movwf	(?_delay)
	movlw	high(064h)
	movwf	((?_delay))+1
	fcall	_delay
	line	67
;2 sensor value.c: 67: while(1)
	
l580:	
	line	69
	
l2252:	
;2 sensor value.c: 68: {
;2 sensor value.c: 69: CHS2=0;
	bcf	status, 5	;RP0=0, select bank0
	bcf	status, 6	;RP1=0, select bank0
	bcf	(253/8),(253)&7
	line	70
	
l2254:	
;2 sensor value.c: 70: CHS1=0;
	bcf	(252/8),(252)&7
	line	71
	
l2256:	
;2 sensor value.c: 71: CHS0=0;
	bcf	(251/8),(251)&7
	line	72
	
l2258:	
;2 sensor value.c: 72: ADON=1;
	bsf	(248/8),(248)&7
	line	73
	
l2260:	
;2 sensor value.c: 73: delay(600);
	movlw	low(0258h)
	movwf	(?_delay)
	movlw	high(0258h)
	movwf	((?_delay))+1
	fcall	_delay
	line	74
	
l2262:	
;2 sensor value.c: 74: ADCON0=(ADCON0|0X04);
	bcf	status, 5	;RP0=0, select bank0
	bcf	status, 6	;RP1=0, select bank0
	movf	(31),w	;volatile
	iorlw	04h
	movwf	(31)	;volatile
	line	75
;2 sensor value.c: 75: delay(600);
	movlw	low(0258h)
	movwf	(?_delay)
	movlw	high(0258h)
	movwf	((?_delay))+1
	fcall	_delay
	line	76
	
l2264:	
;2 sensor value.c: 76: temp=ADRESH<<8;
	bcf	status, 5	;RP0=0, select bank0
	bcf	status, 6	;RP1=0, select bank0
	movf	(30),w	;volatile
	movwf	(??_main+0)+0
	clrf	(??_main+0)+0+1
	movlw	08h
	movwf	btemp+0
u2525:
	clrc
	rlf	(??_main+0)+0,f
	rlf	(??_main+0)+1,f
	decfsz	btemp+0,f
	goto	u2525
	movf	0+(??_main+0)+0,w
	movwf	(main@temp)
	movf	1+(??_main+0)+0,w
	movwf	(main@temp+1)
	line	77
	
l2266:	
;2 sensor value.c: 77: delay(600);
	movlw	low(0258h)
	movwf	(?_delay)
	movlw	high(0258h)
	movwf	((?_delay))+1
	fcall	_delay
	line	78
	
l2268:	
;2 sensor value.c: 78: temp=temp+ADRESL;
	bsf	status, 5	;RP0=1, select bank1
	bcf	status, 6	;RP1=0, select bank1
	movf	(158)^080h,w	;volatile
	bcf	status, 5	;RP0=0, select bank0
	bcf	status, 6	;RP1=0, select bank0
	addwf	(main@temp),w
	movwf	(main@temp)
	movf	(main@temp+1),w
	skipnc
	incf	(main@temp+1),w
	movwf	((main@temp))+1
	line	80
	
l2270:	
;2 sensor value.c: 80: PORTD=temp;
	movf	(main@temp),w
	movwf	(8)	;volatile
	line	81
	
l2272:	
;2 sensor value.c: 81: a=temp/1000;
	movlw	low(03E8h)
	movwf	(?___lwdiv)
	movlw	high(03E8h)
	movwf	((?___lwdiv))+1
	movf	(main@temp+1),w
	clrf	1+(?___lwdiv)+02h
	addwf	1+(?___lwdiv)+02h
	movf	(main@temp),w
	clrf	0+(?___lwdiv)+02h
	addwf	0+(?___lwdiv)+02h

	fcall	___lwdiv
	movf	(1+(?___lwdiv)),w
	bcf	status, 5	;RP0=0, select bank0
	bcf	status, 6	;RP1=0, select bank0
	clrf	(main@a+1)
	addwf	(main@a+1)
	movf	(0+(?___lwdiv)),w
	clrf	(main@a)
	addwf	(main@a)

	line	82
	
l2274:	
;2 sensor value.c: 82: b=temp%1000;
	movlw	low(03E8h)
	movwf	(?___lwmod)
	movlw	high(03E8h)
	movwf	((?___lwmod))+1
	movf	(main@temp+1),w
	clrf	1+(?___lwmod)+02h
	addwf	1+(?___lwmod)+02h
	movf	(main@temp),w
	clrf	0+(?___lwmod)+02h
	addwf	0+(?___lwmod)+02h

	fcall	___lwmod
	movf	(1+(?___lwmod)),w
	bcf	status, 5	;RP0=0, select bank0
	bcf	status, 6	;RP1=0, select bank0
	clrf	(main@b+1)
	addwf	(main@b+1)
	movf	(0+(?___lwmod)),w
	clrf	(main@b)
	addwf	(main@b)

	line	83
	
l2276:	
;2 sensor value.c: 83: c=b/100;
	movlw	low(064h)
	movwf	(?___awdiv)
	movlw	high(064h)
	movwf	((?___awdiv))+1
	movf	(main@b+1),w
	clrf	1+(?___awdiv)+02h
	addwf	1+(?___awdiv)+02h
	movf	(main@b),w
	clrf	0+(?___awdiv)+02h
	addwf	0+(?___awdiv)+02h

	fcall	___awdiv
	movf	(1+(?___awdiv)),w
	bcf	status, 5	;RP0=0, select bank0
	bcf	status, 6	;RP1=0, select bank0
	clrf	(main@c+1)
	addwf	(main@c+1)
	movf	(0+(?___awdiv)),w
	clrf	(main@c)
	addwf	(main@c)

	line	84
	
l2278:	
;2 sensor value.c: 84: d=b%100;
	movlw	low(064h)
	movwf	(?___awmod)
	movlw	high(064h)
	movwf	((?___awmod))+1
	movf	(main@b+1),w
	clrf	1+(?___awmod)+02h
	addwf	1+(?___awmod)+02h
	movf	(main@b),w
	clrf	0+(?___awmod)+02h
	addwf	0+(?___awmod)+02h

	fcall	___awmod
	movf	(1+(?___awmod)),w
	bcf	status, 5	;RP0=0, select bank0
	bcf	status, 6	;RP1=0, select bank0
	clrf	(main@d+1)
	addwf	(main@d+1)
	movf	(0+(?___awmod)),w
	clrf	(main@d)
	addwf	(main@d)

	line	85
	
l2280:	
;2 sensor value.c: 85: e=d/10;
	movlw	low(0Ah)
	movwf	(?___awdiv)
	movlw	high(0Ah)
	movwf	((?___awdiv))+1
	movf	(main@d+1),w
	clrf	1+(?___awdiv)+02h
	addwf	1+(?___awdiv)+02h
	movf	(main@d),w
	clrf	0+(?___awdiv)+02h
	addwf	0+(?___awdiv)+02h

	fcall	___awdiv
	movf	(1+(?___awdiv)),w
	bcf	status, 5	;RP0=0, select bank0
	bcf	status, 6	;RP1=0, select bank0
	clrf	(main@e+1)
	addwf	(main@e+1)
	movf	(0+(?___awdiv)),w
	clrf	(main@e)
	addwf	(main@e)

	line	86
	
l2282:	
;2 sensor value.c: 86: f=d%10;
	movlw	low(0Ah)
	movwf	(?___awmod)
	movlw	high(0Ah)
	movwf	((?___awmod))+1
	movf	(main@d+1),w
	clrf	1+(?___awmod)+02h
	addwf	1+(?___awmod)+02h
	movf	(main@d),w
	clrf	0+(?___awmod)+02h
	addwf	0+(?___awmod)+02h

	fcall	___awmod
	movf	(1+(?___awmod)),w
	bcf	status, 5	;RP0=0, select bank0
	bcf	status, 6	;RP1=0, select bank0
	clrf	(main@f+1)
	addwf	(main@f+1)
	movf	(0+(?___awmod)),w
	clrf	(main@f)
	addwf	(main@f)

	line	87
	
l2284:	
;2 sensor value.c: 87: lcd_command(0x80);
	movlw	(080h)
	fcall	_lcd_command
	line	88
	
l2286:	
;2 sensor value.c: 88: delay(600);
	movlw	low(0258h)
	movwf	(?_delay)
	movlw	high(0258h)
	movwf	((?_delay))+1
	fcall	_delay
	line	89
	
l2288:	
;2 sensor value.c: 89: lcd_data(a+0x30);
	bcf	status, 5	;RP0=0, select bank0
	bcf	status, 6	;RP1=0, select bank0
	movf	(main@a),w
	addlw	030h
	fcall	_lcd_data
	line	90
	
l2290:	
;2 sensor value.c: 90: delay(600);
	movlw	low(0258h)
	movwf	(?_delay)
	movlw	high(0258h)
	movwf	((?_delay))+1
	fcall	_delay
	line	91
	
l2292:	
;2 sensor value.c: 91: lcd_data(c+0x30);
	bcf	status, 5	;RP0=0, select bank0
	bcf	status, 6	;RP1=0, select bank0
	movf	(main@c),w
	addlw	030h
	fcall	_lcd_data
	line	92
	
l2294:	
;2 sensor value.c: 92: delay(600);
	movlw	low(0258h)
	movwf	(?_delay)
	movlw	high(0258h)
	movwf	((?_delay))+1
	fcall	_delay
	line	93
	
l2296:	
;2 sensor value.c: 93: lcd_data(e+0x30);
	bcf	status, 5	;RP0=0, select bank0
	bcf	status, 6	;RP1=0, select bank0
	movf	(main@e),w
	addlw	030h
	fcall	_lcd_data
	line	94
	
l2298:	
;2 sensor value.c: 94: delay(600);
	movlw	low(0258h)
	movwf	(?_delay)
	movlw	high(0258h)
	movwf	((?_delay))+1
	fcall	_delay
	line	95
	
l2300:	
;2 sensor value.c: 95: lcd_data(f+0x30);
	bcf	status, 5	;RP0=0, select bank0
	bcf	status, 6	;RP1=0, select bank0
	movf	(main@f),w
	addlw	030h
	fcall	_lcd_data
	line	96
	
l2302:	
;2 sensor value.c: 96: delay(600);
	movlw	low(0258h)
	movwf	(?_delay)
	movlw	high(0258h)
	movwf	((?_delay))+1
	fcall	_delay
	line	100
	
l2304:	
;2 sensor value.c: 100: CHS2=0;
	bcf	status, 5	;RP0=0, select bank0
	bcf	status, 6	;RP1=0, select bank0
	bcf	(253/8),(253)&7
	line	101
	
l2306:	
;2 sensor value.c: 101: CHS1=0;
	bcf	(252/8),(252)&7
	line	102
	
l2308:	
;2 sensor value.c: 102: CHS0=1;
	bsf	(251/8),(251)&7
	line	103
	
l2310:	
;2 sensor value.c: 103: ADON=1;
	bsf	(248/8),(248)&7
	line	104
	
l2312:	
;2 sensor value.c: 104: delay(600);
	movlw	low(0258h)
	movwf	(?_delay)
	movlw	high(0258h)
	movwf	((?_delay))+1
	fcall	_delay
	line	105
	
l2314:	
;2 sensor value.c: 105: ADCON0=(ADCON0|0X04);
	bcf	status, 5	;RP0=0, select bank0
	bcf	status, 6	;RP1=0, select bank0
	movf	(31),w	;volatile
	iorlw	04h
	movwf	(31)	;volatile
	line	106
	
l2316:	
;2 sensor value.c: 106: delay(600);
	movlw	low(0258h)
	movwf	(?_delay)
	movlw	high(0258h)
	movwf	((?_delay))+1
	fcall	_delay
	line	107
	
l2318:	
;2 sensor value.c: 107: temp1=ADRESH<<8;
	bcf	status, 5	;RP0=0, select bank0
	bcf	status, 6	;RP1=0, select bank0
	movf	(30),w	;volatile
	movwf	(??_main+0)+0
	clrf	(??_main+0)+0+1
	movlw	08h
	movwf	btemp+0
u2535:
	clrc
	rlf	(??_main+0)+0,f
	rlf	(??_main+0)+1,f
	decfsz	btemp+0,f
	goto	u2535
	movf	0+(??_main+0)+0,w
	movwf	(main@temp1)
	movf	1+(??_main+0)+0,w
	movwf	(main@temp1+1)
	line	108
	
l2320:	
;2 sensor value.c: 108: delay(600);
	movlw	low(0258h)
	movwf	(?_delay)
	movlw	high(0258h)
	movwf	((?_delay))+1
	fcall	_delay
	line	109
	
l2322:	
;2 sensor value.c: 109: temp1=temp1+ADRESL;
	bsf	status, 5	;RP0=1, select bank1
	bcf	status, 6	;RP1=0, select bank1
	movf	(158)^080h,w	;volatile
	bcf	status, 5	;RP0=0, select bank0
	bcf	status, 6	;RP1=0, select bank0
	addwf	(main@temp1),w
	movwf	(main@temp1)
	movf	(main@temp1+1),w
	skipnc
	incf	(main@temp1+1),w
	movwf	((main@temp1))+1
	line	111
	
l2324:	
;2 sensor value.c: 111: PORTD=temp1;
	movf	(main@temp1),w
	movwf	(8)	;volatile
	line	112
	
l2326:	
;2 sensor value.c: 112: z=temp1/1000;
	movlw	low(03E8h)
	movwf	(?___lwdiv)
	movlw	high(03E8h)
	movwf	((?___lwdiv))+1
	movf	(main@temp1+1),w
	clrf	1+(?___lwdiv)+02h
	addwf	1+(?___lwdiv)+02h
	movf	(main@temp1),w
	clrf	0+(?___lwdiv)+02h
	addwf	0+(?___lwdiv)+02h

	fcall	___lwdiv
	movf	(1+(?___lwdiv)),w
	bcf	status, 5	;RP0=0, select bank0
	bcf	status, 6	;RP1=0, select bank0
	clrf	(main@z+1)
	addwf	(main@z+1)
	movf	(0+(?___lwdiv)),w
	clrf	(main@z)
	addwf	(main@z)

	line	113
	
l2328:	
;2 sensor value.c: 113: y=temp1%1000;
	movlw	low(03E8h)
	movwf	(?___lwmod)
	movlw	high(03E8h)
	movwf	((?___lwmod))+1
	movf	(main@temp1+1),w
	clrf	1+(?___lwmod)+02h
	addwf	1+(?___lwmod)+02h
	movf	(main@temp1),w
	clrf	0+(?___lwmod)+02h
	addwf	0+(?___lwmod)+02h

	fcall	___lwmod
	movf	(1+(?___lwmod)),w
	bcf	status, 5	;RP0=0, select bank0
	bcf	status, 6	;RP1=0, select bank0
	clrf	(main@y+1)
	addwf	(main@y+1)
	movf	(0+(?___lwmod)),w
	clrf	(main@y)
	addwf	(main@y)

	line	114
	
l2330:	
;2 sensor value.c: 114: x=y/100;
	movlw	low(064h)
	movwf	(?___awdiv)
	movlw	high(064h)
	movwf	((?___awdiv))+1
	movf	(main@y+1),w
	clrf	1+(?___awdiv)+02h
	addwf	1+(?___awdiv)+02h
	movf	(main@y),w
	clrf	0+(?___awdiv)+02h
	addwf	0+(?___awdiv)+02h

	fcall	___awdiv
	movf	(1+(?___awdiv)),w
	bcf	status, 5	;RP0=0, select bank0
	bcf	status, 6	;RP1=0, select bank0
	clrf	(main@x+1)
	addwf	(main@x+1)
	movf	(0+(?___awdiv)),w
	clrf	(main@x)
	addwf	(main@x)

	line	115
	
l2332:	
;2 sensor value.c: 115: w=y%100;
	movlw	low(064h)
	movwf	(?___awmod)
	movlw	high(064h)
	movwf	((?___awmod))+1
	movf	(main@y+1),w
	clrf	1+(?___awmod)+02h
	addwf	1+(?___awmod)+02h
	movf	(main@y),w
	clrf	0+(?___awmod)+02h
	addwf	0+(?___awmod)+02h

	fcall	___awmod
	movf	(1+(?___awmod)),w
	bcf	status, 5	;RP0=0, select bank0
	bcf	status, 6	;RP1=0, select bank0
	clrf	(main@w+1)
	addwf	(main@w+1)
	movf	(0+(?___awmod)),w
	clrf	(main@w)
	addwf	(main@w)

	line	116
	
l2334:	
;2 sensor value.c: 116: v=w/10;
	movlw	low(0Ah)
	movwf	(?___awdiv)
	movlw	high(0Ah)
	movwf	((?___awdiv))+1
	movf	(main@w+1),w
	clrf	1+(?___awdiv)+02h
	addwf	1+(?___awdiv)+02h
	movf	(main@w),w
	clrf	0+(?___awdiv)+02h
	addwf	0+(?___awdiv)+02h

	fcall	___awdiv
	movf	(1+(?___awdiv)),w
	bcf	status, 5	;RP0=0, select bank0
	bcf	status, 6	;RP1=0, select bank0
	clrf	(main@v+1)
	addwf	(main@v+1)
	movf	(0+(?___awdiv)),w
	clrf	(main@v)
	addwf	(main@v)

	line	117
	
l2336:	
;2 sensor value.c: 117: u=w%10;
	movlw	low(0Ah)
	movwf	(?___awmod)
	movlw	high(0Ah)
	movwf	((?___awmod))+1
	movf	(main@w+1),w
	clrf	1+(?___awmod)+02h
	addwf	1+(?___awmod)+02h
	movf	(main@w),w
	clrf	0+(?___awmod)+02h
	addwf	0+(?___awmod)+02h

	fcall	___awmod
	movf	(1+(?___awmod)),w
	bcf	status, 5	;RP0=0, select bank0
	bcf	status, 6	;RP1=0, select bank0
	clrf	(main@u+1)
	addwf	(main@u+1)
	movf	(0+(?___awmod)),w
	clrf	(main@u)
	addwf	(main@u)

	line	118
	
l2338:	
;2 sensor value.c: 118: lcd_command(0xC0);
	movlw	(0C0h)
	fcall	_lcd_command
	line	119
	
l2340:	
;2 sensor value.c: 119: delay(600);
	movlw	low(0258h)
	movwf	(?_delay)
	movlw	high(0258h)
	movwf	((?_delay))+1
	fcall	_delay
	line	120
	
l2342:	
;2 sensor value.c: 120: lcd_data(z+0x30);
	bcf	status, 5	;RP0=0, select bank0
	bcf	status, 6	;RP1=0, select bank0
	movf	(main@z),w
	addlw	030h
	fcall	_lcd_data
	line	121
	
l2344:	
;2 sensor value.c: 121: delay(600);
	movlw	low(0258h)
	movwf	(?_delay)
	movlw	high(0258h)
	movwf	((?_delay))+1
	fcall	_delay
	line	122
	
l2346:	
;2 sensor value.c: 122: lcd_data(x+0x30);
	bcf	status, 5	;RP0=0, select bank0
	bcf	status, 6	;RP1=0, select bank0
	movf	(main@x),w
	addlw	030h
	fcall	_lcd_data
	line	123
	
l2348:	
;2 sensor value.c: 123: delay(600);
	movlw	low(0258h)
	movwf	(?_delay)
	movlw	high(0258h)
	movwf	((?_delay))+1
	fcall	_delay
	line	124
	
l2350:	
;2 sensor value.c: 124: lcd_data(v+0x30);
	bcf	status, 5	;RP0=0, select bank0
	bcf	status, 6	;RP1=0, select bank0
	movf	(main@v),w
	addlw	030h
	fcall	_lcd_data
	line	125
	
l2352:	
;2 sensor value.c: 125: delay(600);
	movlw	low(0258h)
	movwf	(?_delay)
	movlw	high(0258h)
	movwf	((?_delay))+1
	fcall	_delay
	line	126
	
l2354:	
;2 sensor value.c: 126: lcd_data(u+0x30);
	bcf	status, 5	;RP0=0, select bank0
	bcf	status, 6	;RP1=0, select bank0
	movf	(main@u),w
	addlw	030h
	fcall	_lcd_data
	line	127
	
l2356:	
;2 sensor value.c: 127: delay(600);
	movlw	low(0258h)
	movwf	(?_delay)
	movlw	high(0258h)
	movwf	((?_delay))+1
	fcall	_delay
	line	131
	
l581:	
	line	67
	goto	l580
	
l582:	
	line	132
	
l583:	
	global	start
	ljmp	start
	opt stack 0
GLOBAL	__end_of_main
	__end_of_main:
;; =============== function _main ends ============

	signat	_main,88
	global	_lcd_init
psect	text181,local,class=CODE,delta=2
global __ptext181
__ptext181:

;; *************** function _lcd_init *****************
;; Defined at:
;;		line 20 in file "C:\Users\ELCOT\Desktop\adc timer\ADC\ADC task\2 sensor with lcd value\2 sensor value.c"
;; Parameters:    Size  Location     Type
;;		None
;; Auto vars:     Size  Location     Type
;;		None
;; Return value:  Size  Location     Type
;;		None               void
;; Registers used:
;;		wreg, status,2, status,0, pclath, cstack
;; Tracked objects:
;;		On entry : 0/0
;;		On exit  : 0/0
;;		Unchanged: 0/0
;; Data sizes:     COMMON   BANK0   BANK1   BANK3   BANK2
;;      Params:         0       0       0       0       0
;;      Locals:         0       0       0       0       0
;;      Temps:          0       0       0       0       0
;;      Totals:         0       0       0       0       0
;;Total ram usage:        0 bytes
;; Hardware stack levels used:    1
;; Hardware stack levels required when called:    2
;; This function calls:
;;		_lcd_command
;; This function is called by:
;;		_main
;; This function uses a non-reentrant model
;;
psect	text181
	file	"C:\Users\ELCOT\Desktop\adc timer\ADC\ADC task\2 sensor with lcd value\2 sensor value.c"
	line	20
	global	__size_of_lcd_init
	__size_of_lcd_init	equ	__end_of_lcd_init-_lcd_init
	
_lcd_init:	
	opt	stack 7
; Regs used in _lcd_init: [wreg+status,2+status,0+pclath+cstack]
	line	21
	
l2234:	
;2 sensor value.c: 21: lcd_command(0x38);
	movlw	(038h)
	fcall	_lcd_command
	line	22
;2 sensor value.c: 22: lcd_command(0x06);
	movlw	(06h)
	fcall	_lcd_command
	line	23
;2 sensor value.c: 23: lcd_command(0x0c);
	movlw	(0Ch)
	fcall	_lcd_command
	line	24
;2 sensor value.c: 24: lcd_command(0x01);
	movlw	(01h)
	fcall	_lcd_command
	line	25
	
l568:	
	return
	opt stack 0
GLOBAL	__end_of_lcd_init
	__end_of_lcd_init:
;; =============== function _lcd_init ends ============

	signat	_lcd_init,88
	global	_lcd_data
psect	text182,local,class=CODE,delta=2
global __ptext182
__ptext182:

;; *************** function _lcd_data *****************
;; Defined at:
;;		line 27 in file "C:\Users\ELCOT\Desktop\adc timer\ADC\ADC task\2 sensor with lcd value\2 sensor value.c"
;; Parameters:    Size  Location     Type
;;  data            1    wreg     unsigned char 
;; Auto vars:     Size  Location     Type
;;  data            1    2[COMMON] unsigned char 
;; Return value:  Size  Location     Type
;;		None               void
;; Registers used:
;;		wreg, status,2, status,0, pclath, cstack
;; Tracked objects:
;;		On entry : 0/0
;;		On exit  : 0/0
;;		Unchanged: 0/0
;; Data sizes:     COMMON   BANK0   BANK1   BANK3   BANK2
;;      Params:         0       0       0       0       0
;;      Locals:         1       0       0       0       0
;;      Temps:          0       0       0       0       0
;;      Totals:         1       0       0       0       0
;;Total ram usage:        1 bytes
;; Hardware stack levels used:    1
;; Hardware stack levels required when called:    1
;; This function calls:
;;		_delay
;; This function is called by:
;;		_main
;;		_lcd_display
;; This function uses a non-reentrant model
;;
psect	text182
	file	"C:\Users\ELCOT\Desktop\adc timer\ADC\ADC task\2 sensor with lcd value\2 sensor value.c"
	line	27
	global	__size_of_lcd_data
	__size_of_lcd_data	equ	__end_of_lcd_data-_lcd_data
	
_lcd_data:	
	opt	stack 7
; Regs used in _lcd_data: [wreg+status,2+status,0+pclath+cstack]
;lcd_data@data stored from wreg
	movwf	(lcd_data@data)
	line	28
	
l2222:	
;2 sensor value.c: 28: PORTD=data;
	movf	(lcd_data@data),w
	bcf	status, 5	;RP0=0, select bank0
	bcf	status, 6	;RP1=0, select bank0
	movwf	(8)	;volatile
	line	29
	
l2224:	
;2 sensor value.c: 29: RC0=1;
	bsf	(56/8),(56)&7
	line	30
	
l2226:	
;2 sensor value.c: 30: RC1=0;
	bcf	(57/8),(57)&7
	line	31
	
l2228:	
;2 sensor value.c: 31: RC2=1;
	bsf	(58/8),(58)&7
	line	32
	
l2230:	
;2 sensor value.c: 32: delay(100);
	movlw	low(064h)
	movwf	(?_delay)
	movlw	high(064h)
	movwf	((?_delay))+1
	fcall	_delay
	line	33
	
l2232:	
;2 sensor value.c: 33: RC2=0;
	bcf	status, 5	;RP0=0, select bank0
	bcf	status, 6	;RP1=0, select bank0
	bcf	(58/8),(58)&7
	line	34
	
l571:	
	return
	opt stack 0
GLOBAL	__end_of_lcd_data
	__end_of_lcd_data:
;; =============== function _lcd_data ends ============

	signat	_lcd_data,4216
	global	_lcd_command
psect	text183,local,class=CODE,delta=2
global __ptext183
__ptext183:

;; *************** function _lcd_command *****************
;; Defined at:
;;		line 11 in file "C:\Users\ELCOT\Desktop\adc timer\ADC\ADC task\2 sensor with lcd value\2 sensor value.c"
;; Parameters:    Size  Location     Type
;;  com             1    wreg     unsigned char 
;; Auto vars:     Size  Location     Type
;;  com             1    2[COMMON] unsigned char 
;; Return value:  Size  Location     Type
;;		None               void
;; Registers used:
;;		wreg, status,2, status,0, pclath, cstack
;; Tracked objects:
;;		On entry : 0/0
;;		On exit  : 0/0
;;		Unchanged: 0/0
;; Data sizes:     COMMON   BANK0   BANK1   BANK3   BANK2
;;      Params:         0       0       0       0       0
;;      Locals:         1       0       0       0       0
;;      Temps:          0       0       0       0       0
;;      Totals:         1       0       0       0       0
;;Total ram usage:        1 bytes
;; Hardware stack levels used:    1
;; Hardware stack levels required when called:    1
;; This function calls:
;;		_delay
;; This function is called by:
;;		_lcd_init
;;		_main
;; This function uses a non-reentrant model
;;
psect	text183
	file	"C:\Users\ELCOT\Desktop\adc timer\ADC\ADC task\2 sensor with lcd value\2 sensor value.c"
	line	11
	global	__size_of_lcd_command
	__size_of_lcd_command	equ	__end_of_lcd_command-_lcd_command
	
_lcd_command:	
	opt	stack 7
; Regs used in _lcd_command: [wreg+status,2+status,0+pclath+cstack]
;lcd_command@com stored from wreg
	movwf	(lcd_command@com)
	line	12
	
l2210:	
;2 sensor value.c: 12: PORTD=com;
	movf	(lcd_command@com),w
	bcf	status, 5	;RP0=0, select bank0
	bcf	status, 6	;RP1=0, select bank0
	movwf	(8)	;volatile
	line	13
	
l2212:	
;2 sensor value.c: 13: RC0=0;
	bcf	(56/8),(56)&7
	line	14
	
l2214:	
;2 sensor value.c: 14: RC1=0;
	bcf	(57/8),(57)&7
	line	15
	
l2216:	
;2 sensor value.c: 15: RC2=1;
	bsf	(58/8),(58)&7
	line	16
	
l2218:	
;2 sensor value.c: 16: delay(100);
	movlw	low(064h)
	movwf	(?_delay)
	movlw	high(064h)
	movwf	((?_delay))+1
	fcall	_delay
	line	17
	
l2220:	
;2 sensor value.c: 17: RC2=0;
	bcf	status, 5	;RP0=0, select bank0
	bcf	status, 6	;RP1=0, select bank0
	bcf	(58/8),(58)&7
	line	18
	
l565:	
	return
	opt stack 0
GLOBAL	__end_of_lcd_command
	__end_of_lcd_command:
;; =============== function _lcd_command ends ============

	signat	_lcd_command,4216
	global	___awmod
psect	text184,local,class=CODE,delta=2
global __ptext184
__ptext184:

;; *************** function ___awmod *****************
;; Defined at:
;;		line 5 in file "C:\Program Files (x86)\HI-TECH Software\PICC\9.71a\sources\awmod.c"
;; Parameters:    Size  Location     Type
;;  divisor         2    0[COMMON] int 
;;  dividend        2    2[COMMON] int 
;; Auto vars:     Size  Location     Type
;;  sign            1    6[COMMON] unsigned char 
;;  counter         1    5[COMMON] unsigned char 
;; Return value:  Size  Location     Type
;;                  2    0[COMMON] int 
;; Registers used:
;;		wreg, status,2, status,0
;; Tracked objects:
;;		On entry : 0/0
;;		On exit  : 0/0
;;		Unchanged: 0/0
;; Data sizes:     COMMON   BANK0   BANK1   BANK3   BANK2
;;      Params:         4       0       0       0       0
;;      Locals:         2       0       0       0       0
;;      Temps:          1       0       0       0       0
;;      Totals:         7       0       0       0       0
;;Total ram usage:        7 bytes
;; Hardware stack levels used:    1
;; This function calls:
;;		Nothing
;; This function is called by:
;;		_main
;; This function uses a non-reentrant model
;;
psect	text184
	file	"C:\Program Files (x86)\HI-TECH Software\PICC\9.71a\sources\awmod.c"
	line	5
	global	__size_of___awmod
	__size_of___awmod	equ	__end_of___awmod-___awmod
	
___awmod:	
	opt	stack 7
; Regs used in ___awmod: [wreg+status,2+status,0]
	line	8
	
l2174:	
	clrc
	movlw	0
	btfsc	status,0
	movlw	1
	movwf	(___awmod@sign)
	line	9
	
l2176:	
	btfss	(___awmod@dividend+1),7
	goto	u2431
	goto	u2430
u2431:
	goto	l800
u2430:
	line	10
	
l2178:	
	comf	(___awmod@dividend),f
	comf	(___awmod@dividend+1),f
	incf	(___awmod@dividend),f
	skipnz
	incf	(___awmod@dividend+1),f
	line	11
	clrf	(___awmod@sign)
	bsf	status,0
	rlf	(___awmod@sign),f
	line	12
	
l800:	
	line	13
	
l2180:	
	btfss	(___awmod@divisor+1),7
	goto	u2441
	goto	u2440
u2441:
	goto	l801
u2440:
	line	14
	
l2182:	
	comf	(___awmod@divisor),f
	comf	(___awmod@divisor+1),f
	incf	(___awmod@divisor),f
	skipnz
	incf	(___awmod@divisor+1),f
	
l801:	
	line	15
	
l2184:	
	movf	(___awmod@divisor+1),w
	iorwf	(___awmod@divisor),w
	skipnz
	goto	u2451
	goto	u2450
u2451:
	goto	l802
u2450:
	line	16
	
l2186:	
	clrf	(___awmod@counter)
	bsf	status,0
	rlf	(___awmod@counter),f
	line	17
	goto	l803
	
l804:	
	line	18
	
l2188:	
	movlw	01h
	
u2465:
	clrc
	rlf	(___awmod@divisor),f
	rlf	(___awmod@divisor+1),f
	addlw	-1
	skipz
	goto	u2465
	line	19
	
l2190:	
	movlw	(01h)
	movwf	(??___awmod+0)+0
	movf	(??___awmod+0)+0,w
	addwf	(___awmod@counter),f
	line	20
	
l803:	
	line	17
	
l2192:	
	btfss	(___awmod@divisor+1),(15)&7
	goto	u2471
	goto	u2470
u2471:
	goto	l804
u2470:
	
l805:	
	line	21
	
l806:	
	line	22
	
l2194:	
	movf	(___awmod@divisor+1),w
	subwf	(___awmod@dividend+1),w
	skipz
	goto	u2485
	movf	(___awmod@divisor),w
	subwf	(___awmod@dividend),w
u2485:
	skipc
	goto	u2481
	goto	u2480
u2481:
	goto	l807
u2480:
	line	23
	
l2196:	
	movf	(___awmod@divisor),w
	subwf	(___awmod@dividend),f
	movf	(___awmod@divisor+1),w
	skipc
	decf	(___awmod@dividend+1),f
	subwf	(___awmod@dividend+1),f
	
l807:	
	line	24
	
l2198:	
	movlw	01h
	
u2495:
	clrc
	rrf	(___awmod@divisor+1),f
	rrf	(___awmod@divisor),f
	addlw	-1
	skipz
	goto	u2495
	line	25
	
l2200:	
	movlw	low(01h)
	subwf	(___awmod@counter),f
	btfss	status,2
	goto	u2501
	goto	u2500
u2501:
	goto	l806
u2500:
	
l808:	
	line	26
	
l802:	
	line	27
	
l2202:	
	movf	(___awmod@sign),w
	skipz
	goto	u2510
	goto	l809
u2510:
	line	28
	
l2204:	
	comf	(___awmod@dividend),f
	comf	(___awmod@dividend+1),f
	incf	(___awmod@dividend),f
	skipnz
	incf	(___awmod@dividend+1),f
	
l809:	
	line	29
	
l2206:	
	movf	(___awmod@dividend+1),w
	clrf	(?___awmod+1)
	addwf	(?___awmod+1)
	movf	(___awmod@dividend),w
	clrf	(?___awmod)
	addwf	(?___awmod)

	
l2208:	
	line	30
	
l810:	
	return
	opt stack 0
GLOBAL	__end_of___awmod
	__end_of___awmod:
;; =============== function ___awmod ends ============

	signat	___awmod,8314
	global	___awdiv
psect	text185,local,class=CODE,delta=2
global __ptext185
__ptext185:

;; *************** function ___awdiv *****************
;; Defined at:
;;		line 5 in file "C:\Program Files (x86)\HI-TECH Software\PICC\9.71a\sources\awdiv.c"
;; Parameters:    Size  Location     Type
;;  divisor         2    0[COMMON] int 
;;  dividend        2    2[COMMON] int 
;; Auto vars:     Size  Location     Type
;;  quotient        2    7[COMMON] int 
;;  sign            1    6[COMMON] unsigned char 
;;  counter         1    5[COMMON] unsigned char 
;; Return value:  Size  Location     Type
;;                  2    0[COMMON] int 
;; Registers used:
;;		wreg, status,2, status,0
;; Tracked objects:
;;		On entry : 0/0
;;		On exit  : 0/0
;;		Unchanged: 0/0
;; Data sizes:     COMMON   BANK0   BANK1   BANK3   BANK2
;;      Params:         4       0       0       0       0
;;      Locals:         4       0       0       0       0
;;      Temps:          1       0       0       0       0
;;      Totals:         9       0       0       0       0
;;Total ram usage:        9 bytes
;; Hardware stack levels used:    1
;; This function calls:
;;		Nothing
;; This function is called by:
;;		_main
;; This function uses a non-reentrant model
;;
psect	text185
	file	"C:\Program Files (x86)\HI-TECH Software\PICC\9.71a\sources\awdiv.c"
	line	5
	global	__size_of___awdiv
	__size_of___awdiv	equ	__end_of___awdiv-___awdiv
	
___awdiv:	
	opt	stack 7
; Regs used in ___awdiv: [wreg+status,2+status,0]
	line	9
	
l2136:	
	clrc
	movlw	0
	btfsc	status,0
	movlw	1
	movwf	(___awdiv@sign)
	line	10
	
l2138:	
	btfss	(___awdiv@divisor+1),7
	goto	u2331
	goto	u2330
u2331:
	goto	l732
u2330:
	line	11
	
l2140:	
	comf	(___awdiv@divisor),f
	comf	(___awdiv@divisor+1),f
	incf	(___awdiv@divisor),f
	skipnz
	incf	(___awdiv@divisor+1),f
	line	12
	clrf	(___awdiv@sign)
	bsf	status,0
	rlf	(___awdiv@sign),f
	line	13
	
l732:	
	line	14
	
l2142:	
	btfss	(___awdiv@dividend+1),7
	goto	u2341
	goto	u2340
u2341:
	goto	l733
u2340:
	line	15
	
l2144:	
	comf	(___awdiv@dividend),f
	comf	(___awdiv@dividend+1),f
	incf	(___awdiv@dividend),f
	skipnz
	incf	(___awdiv@dividend+1),f
	line	16
	
l2146:	
	movlw	(01h)
	movwf	(??___awdiv+0)+0
	movf	(??___awdiv+0)+0,w
	xorwf	(___awdiv@sign),f
	line	17
	
l733:	
	line	18
	movlw	low(0)
	movwf	(___awdiv@quotient)
	movlw	high(0)
	movwf	((___awdiv@quotient))+1
	line	19
	movf	(___awdiv@divisor+1),w
	iorwf	(___awdiv@divisor),w
	skipnz
	goto	u2351
	goto	u2350
u2351:
	goto	l734
u2350:
	line	20
	
l2148:	
	clrf	(___awdiv@counter)
	bsf	status,0
	rlf	(___awdiv@counter),f
	line	21
	goto	l735
	
l736:	
	line	22
	
l2150:	
	movlw	01h
	
u2365:
	clrc
	rlf	(___awdiv@divisor),f
	rlf	(___awdiv@divisor+1),f
	addlw	-1
	skipz
	goto	u2365
	line	23
	
l2152:	
	movlw	(01h)
	movwf	(??___awdiv+0)+0
	movf	(??___awdiv+0)+0,w
	addwf	(___awdiv@counter),f
	line	24
	
l735:	
	line	21
	
l2154:	
	btfss	(___awdiv@divisor+1),(15)&7
	goto	u2371
	goto	u2370
u2371:
	goto	l736
u2370:
	
l737:	
	line	25
	
l738:	
	line	26
	
l2156:	
	movlw	01h
	
u2385:
	clrc
	rlf	(___awdiv@quotient),f
	rlf	(___awdiv@quotient+1),f
	addlw	-1
	skipz
	goto	u2385
	line	27
	movf	(___awdiv@divisor+1),w
	subwf	(___awdiv@dividend+1),w
	skipz
	goto	u2395
	movf	(___awdiv@divisor),w
	subwf	(___awdiv@dividend),w
u2395:
	skipc
	goto	u2391
	goto	u2390
u2391:
	goto	l739
u2390:
	line	28
	
l2158:	
	movf	(___awdiv@divisor),w
	subwf	(___awdiv@dividend),f
	movf	(___awdiv@divisor+1),w
	skipc
	decf	(___awdiv@dividend+1),f
	subwf	(___awdiv@dividend+1),f
	line	29
	
l2160:	
	bsf	(___awdiv@quotient)+(0/8),(0)&7
	line	30
	
l739:	
	line	31
	
l2162:	
	movlw	01h
	
u2405:
	clrc
	rrf	(___awdiv@divisor+1),f
	rrf	(___awdiv@divisor),f
	addlw	-1
	skipz
	goto	u2405
	line	32
	
l2164:	
	movlw	low(01h)
	subwf	(___awdiv@counter),f
	btfss	status,2
	goto	u2411
	goto	u2410
u2411:
	goto	l738
u2410:
	
l740:	
	line	33
	
l734:	
	line	34
	
l2166:	
	movf	(___awdiv@sign),w
	skipz
	goto	u2420
	goto	l741
u2420:
	line	35
	
l2168:	
	comf	(___awdiv@quotient),f
	comf	(___awdiv@quotient+1),f
	incf	(___awdiv@quotient),f
	skipnz
	incf	(___awdiv@quotient+1),f
	
l741:	
	line	36
	
l2170:	
	movf	(___awdiv@quotient+1),w
	clrf	(?___awdiv+1)
	addwf	(?___awdiv+1)
	movf	(___awdiv@quotient),w
	clrf	(?___awdiv)
	addwf	(?___awdiv)

	
l2172:	
	line	37
	
l742:	
	return
	opt stack 0
GLOBAL	__end_of___awdiv
	__end_of___awdiv:
;; =============== function ___awdiv ends ============

	signat	___awdiv,8314
	global	___lwmod
psect	text186,local,class=CODE,delta=2
global __ptext186
__ptext186:

;; *************** function ___lwmod *****************
;; Defined at:
;;		line 5 in file "C:\Program Files (x86)\HI-TECH Software\PICC\9.71a\sources\lwmod.c"
;; Parameters:    Size  Location     Type
;;  divisor         2    0[COMMON] unsigned int 
;;  dividend        2    2[COMMON] unsigned int 
;; Auto vars:     Size  Location     Type
;;  counter         1    5[COMMON] unsigned char 
;; Return value:  Size  Location     Type
;;                  2    0[COMMON] unsigned int 
;; Registers used:
;;		wreg, status,2, status,0
;; Tracked objects:
;;		On entry : 0/0
;;		On exit  : 0/0
;;		Unchanged: 0/0
;; Data sizes:     COMMON   BANK0   BANK1   BANK3   BANK2
;;      Params:         4       0       0       0       0
;;      Locals:         1       0       0       0       0
;;      Temps:          1       0       0       0       0
;;      Totals:         6       0       0       0       0
;;Total ram usage:        6 bytes
;; Hardware stack levels used:    1
;; This function calls:
;;		Nothing
;; This function is called by:
;;		_main
;; This function uses a non-reentrant model
;;
psect	text186
	file	"C:\Program Files (x86)\HI-TECH Software\PICC\9.71a\sources\lwmod.c"
	line	5
	global	__size_of___lwmod
	__size_of___lwmod	equ	__end_of___lwmod-___lwmod
	
___lwmod:	
	opt	stack 7
; Regs used in ___lwmod: [wreg+status,2+status,0]
	line	8
	
l2114:	
	movf	(___lwmod@divisor+1),w
	iorwf	(___lwmod@divisor),w
	skipnz
	goto	u2271
	goto	u2270
u2271:
	goto	l608
u2270:
	line	9
	
l2116:	
	clrf	(___lwmod@counter)
	bsf	status,0
	rlf	(___lwmod@counter),f
	line	10
	goto	l609
	
l610:	
	line	11
	
l2118:	
	movlw	01h
	
u2285:
	clrc
	rlf	(___lwmod@divisor),f
	rlf	(___lwmod@divisor+1),f
	addlw	-1
	skipz
	goto	u2285
	line	12
	
l2120:	
	movlw	(01h)
	movwf	(??___lwmod+0)+0
	movf	(??___lwmod+0)+0,w
	addwf	(___lwmod@counter),f
	line	13
	
l609:	
	line	10
	
l2122:	
	btfss	(___lwmod@divisor+1),(15)&7
	goto	u2291
	goto	u2290
u2291:
	goto	l610
u2290:
	
l611:	
	line	14
	
l612:	
	line	15
	
l2124:	
	movf	(___lwmod@divisor+1),w
	subwf	(___lwmod@dividend+1),w
	skipz
	goto	u2305
	movf	(___lwmod@divisor),w
	subwf	(___lwmod@dividend),w
u2305:
	skipc
	goto	u2301
	goto	u2300
u2301:
	goto	l613
u2300:
	line	16
	
l2126:	
	movf	(___lwmod@divisor),w
	subwf	(___lwmod@dividend),f
	movf	(___lwmod@divisor+1),w
	skipc
	decf	(___lwmod@dividend+1),f
	subwf	(___lwmod@dividend+1),f
	
l613:	
	line	17
	
l2128:	
	movlw	01h
	
u2315:
	clrc
	rrf	(___lwmod@divisor+1),f
	rrf	(___lwmod@divisor),f
	addlw	-1
	skipz
	goto	u2315
	line	18
	
l2130:	
	movlw	low(01h)
	subwf	(___lwmod@counter),f
	btfss	status,2
	goto	u2321
	goto	u2320
u2321:
	goto	l612
u2320:
	
l614:	
	line	19
	
l608:	
	line	20
	
l2132:	
	movf	(___lwmod@dividend+1),w
	clrf	(?___lwmod+1)
	addwf	(?___lwmod+1)
	movf	(___lwmod@dividend),w
	clrf	(?___lwmod)
	addwf	(?___lwmod)

	
l2134:	
	line	21
	
l615:	
	return
	opt stack 0
GLOBAL	__end_of___lwmod
	__end_of___lwmod:
;; =============== function ___lwmod ends ============

	signat	___lwmod,8314
	global	___lwdiv
psect	text187,local,class=CODE,delta=2
global __ptext187
__ptext187:

;; *************** function ___lwdiv *****************
;; Defined at:
;;		line 5 in file "C:\Program Files (x86)\HI-TECH Software\PICC\9.71a\sources\lwdiv.c"
;; Parameters:    Size  Location     Type
;;  divisor         2    0[COMMON] unsigned int 
;;  dividend        2    2[COMMON] unsigned int 
;; Auto vars:     Size  Location     Type
;;  quotient        2    5[COMMON] unsigned int 
;;  counter         1    7[COMMON] unsigned char 
;; Return value:  Size  Location     Type
;;                  2    0[COMMON] unsigned int 
;; Registers used:
;;		wreg, status,2, status,0
;; Tracked objects:
;;		On entry : 0/0
;;		On exit  : 0/0
;;		Unchanged: 0/0
;; Data sizes:     COMMON   BANK0   BANK1   BANK3   BANK2
;;      Params:         4       0       0       0       0
;;      Locals:         3       0       0       0       0
;;      Temps:          1       0       0       0       0
;;      Totals:         8       0       0       0       0
;;Total ram usage:        8 bytes
;; Hardware stack levels used:    1
;; This function calls:
;;		Nothing
;; This function is called by:
;;		_main
;; This function uses a non-reentrant model
;;
psect	text187
	file	"C:\Program Files (x86)\HI-TECH Software\PICC\9.71a\sources\lwdiv.c"
	line	5
	global	__size_of___lwdiv
	__size_of___lwdiv	equ	__end_of___lwdiv-___lwdiv
	
___lwdiv:	
	opt	stack 7
; Regs used in ___lwdiv: [wreg+status,2+status,0]
	line	9
	
l2090:	
	movlw	low(0)
	movwf	(___lwdiv@quotient)
	movlw	high(0)
	movwf	((___lwdiv@quotient))+1
	line	10
	movf	(___lwdiv@divisor+1),w
	iorwf	(___lwdiv@divisor),w
	skipnz
	goto	u2201
	goto	u2200
u2201:
	goto	l598
u2200:
	line	11
	
l2092:	
	clrf	(___lwdiv@counter)
	bsf	status,0
	rlf	(___lwdiv@counter),f
	line	12
	goto	l599
	
l600:	
	line	13
	
l2094:	
	movlw	01h
	
u2215:
	clrc
	rlf	(___lwdiv@divisor),f
	rlf	(___lwdiv@divisor+1),f
	addlw	-1
	skipz
	goto	u2215
	line	14
	
l2096:	
	movlw	(01h)
	movwf	(??___lwdiv+0)+0
	movf	(??___lwdiv+0)+0,w
	addwf	(___lwdiv@counter),f
	line	15
	
l599:	
	line	12
	
l2098:	
	btfss	(___lwdiv@divisor+1),(15)&7
	goto	u2221
	goto	u2220
u2221:
	goto	l600
u2220:
	
l601:	
	line	16
	
l602:	
	line	17
	
l2100:	
	movlw	01h
	
u2235:
	clrc
	rlf	(___lwdiv@quotient),f
	rlf	(___lwdiv@quotient+1),f
	addlw	-1
	skipz
	goto	u2235
	line	18
	movf	(___lwdiv@divisor+1),w
	subwf	(___lwdiv@dividend+1),w
	skipz
	goto	u2245
	movf	(___lwdiv@divisor),w
	subwf	(___lwdiv@dividend),w
u2245:
	skipc
	goto	u2241
	goto	u2240
u2241:
	goto	l603
u2240:
	line	19
	
l2102:	
	movf	(___lwdiv@divisor),w
	subwf	(___lwdiv@dividend),f
	movf	(___lwdiv@divisor+1),w
	skipc
	decf	(___lwdiv@dividend+1),f
	subwf	(___lwdiv@dividend+1),f
	line	20
	
l2104:	
	bsf	(___lwdiv@quotient)+(0/8),(0)&7
	line	21
	
l603:	
	line	22
	
l2106:	
	movlw	01h
	
u2255:
	clrc
	rrf	(___lwdiv@divisor+1),f
	rrf	(___lwdiv@divisor),f
	addlw	-1
	skipz
	goto	u2255
	line	23
	
l2108:	
	movlw	low(01h)
	subwf	(___lwdiv@counter),f
	btfss	status,2
	goto	u2261
	goto	u2260
u2261:
	goto	l602
u2260:
	
l604:	
	line	24
	
l598:	
	line	25
	
l2110:	
	movf	(___lwdiv@quotient+1),w
	clrf	(?___lwdiv+1)
	addwf	(?___lwdiv+1)
	movf	(___lwdiv@quotient),w
	clrf	(?___lwdiv)
	addwf	(?___lwdiv)

	
l2112:	
	line	26
	
l605:	
	return
	opt stack 0
GLOBAL	__end_of___lwdiv
	__end_of___lwdiv:
;; =============== function ___lwdiv ends ============

	signat	___lwdiv,8314
	global	_delay
psect	text188,local,class=CODE,delta=2
global __ptext188
__ptext188:

;; *************** function _delay *****************
;; Defined at:
;;		line 7 in file "C:\Users\ELCOT\Desktop\adc timer\ADC\ADC task\2 sensor with lcd value\2 sensor value.c"
;; Parameters:    Size  Location     Type
;;  x               2    0[COMMON] unsigned int 
;; Auto vars:     Size  Location     Type
;;		None
;; Return value:  Size  Location     Type
;;		None               void
;; Registers used:
;;		wreg
;; Tracked objects:
;;		On entry : 0/0
;;		On exit  : 0/0
;;		Unchanged: 0/0
;; Data sizes:     COMMON   BANK0   BANK1   BANK3   BANK2
;;      Params:         2       0       0       0       0
;;      Locals:         0       0       0       0       0
;;      Temps:          0       0       0       0       0
;;      Totals:         2       0       0       0       0
;;Total ram usage:        2 bytes
;; Hardware stack levels used:    1
;; This function calls:
;;		Nothing
;; This function is called by:
;;		_lcd_command
;;		_lcd_data
;;		_main
;; This function uses a non-reentrant model
;;
psect	text188
	file	"C:\Users\ELCOT\Desktop\adc timer\ADC\ADC task\2 sensor with lcd value\2 sensor value.c"
	line	7
	global	__size_of_delay
	__size_of_delay	equ	__end_of_delay-_delay
	
_delay:	
	opt	stack 6
; Regs used in _delay: [wreg]
	line	8
	
l2078:	
;2 sensor value.c: 8: while(x--);
	goto	l559
	
l560:	
	
l559:	
	
l2080:	
	movlw	low(01h)
	subwf	(delay@x),f
	movlw	high(01h)
	skipc
	decf	(delay@x+1),f
	subwf	(delay@x+1),f
	movlw	high(0FFFFh)
	xorwf	((delay@x+1)),w
	skipz
	goto	u2185
	movlw	low(0FFFFh)
	xorwf	((delay@x)),w
u2185:

	skipz
	goto	u2181
	goto	u2180
u2181:
	goto	l560
u2180:
	
l561:	
	line	9
	
l562:	
	return
	opt stack 0
GLOBAL	__end_of_delay
	__end_of_delay:
;; =============== function _delay ends ============

	signat	_delay,4216
psect	text189,local,class=CODE,delta=2
global __ptext189
__ptext189:
	global	btemp
	btemp set 07Eh

	DABS	1,126,2	;btemp
	global	wtemp0
	wtemp0 set btemp
	end
