

HI-TECH Software PIC LITE Macro Assembler V9.71a build 6446 
                                                                                               Fri Sep 16 17:33:09 2022

HI-TECH Software Omniscient Code Generator (Lite mode) build 6446
     1  0000                     opt subtitle "HI-TECH Software Omniscient Code Generator (Lite mode) build 6446"
     2                           
     3                           opt pagewidth 120
     4                           
     5                           	opt lm
     6                           
     7                           	processor	16F877A
     8                           clrc	macro
     9                           	bcf	3,0
    10  0000                     	endm
    11                           clrz	macro
    12                           	bcf	3,2
    13  0000                     	endm
    14                           setc	macro
    15                           	bsf	3,0
    16  0000                     	endm
    17                           setz	macro
    18                           	bsf	3,2
    19  0000                     	endm
    20                           skipc	macro
    21                           	btfss	3,0
    22  0000                     	endm
    23                           skipz	macro
    24                           	btfss	3,2
    25  0000                     	endm
    26                           skipnc	macro
    27                           	btfsc	3,0
    28  0000                     	endm
    29                           skipnz	macro
    30                           	btfsc	3,2
    31  0000                     	endm
    32  0000                     indf	equ	0
    33  0000                     indf0	equ	0
    34  0002                     pc	equ	2
    35  0002                     pcl	equ	2
    36  0003                     status	equ	3
    37  0004                     fsr	equ	4
    38  0004                     fsr0	equ	4
    39  0001                     c	equ	1
    40  0000                     z	equ	0
    41  000A                     pclath	equ	10
    42                           	FNCALL	_main,_delay
    43                           	FNROOT	_main
    44                           	global	_PORTB
    45                           psect	maintext,global,class=CODE,delta=2
    46                           global __pmaintext
    47  07AB                     __pmaintext:
    48  0006                     _PORTB	set	6
    49                           	global	_RB0
    50  0030                     _RB0	set	48
    51                           	global	_RB1
    52  0031                     _RB1	set	49
    53                           	global	_RB2
    54  0032                     _RB2	set	50
    55                           	global	_RB3
    56  0033                     _RB3	set	51
    57                           	global	_RB4
    58  0034                     _RB4	set	52
    59                           	global	_RB5
    60  0035                     _RB5	set	53
    61                           	global	_TRISB
    62  0086                     _TRISB	set	134
    63                           	file	"2switch4led.as"
    64                           	line	#
    65                           psect cinit,class=CODE,delta=2
    66                           global start_initialization
    67  0795                     start_initialization:
    68                           
    69                           psect cinit,class=CODE,delta=2
    70                           global end_of_initialization
    71                           
    72                           ;End of C runtime variable initialization code
    73                           
    74  0795                     end_of_initialization:
    75  0795  0183               clrf status
    76  0796  120A  118A  2FAB   ljmp _main	;jump to C main() function
    77                           psect	cstackCOMMON,class=COMMON,space=1
    78                           global __pcstackCOMMON
    79  0070                     __pcstackCOMMON:
    80                           	global	?_delay
    81  0070                     ?_delay:	; 0 bytes @ 0x0
    82                           	global	?_main
    83  0070                     ?_main:	; 2 bytes @ 0x0
    84                           	global	delay@x
    85  0070                     delay@x:	; 2 bytes @ 0x0
    86  0070                     	ds	2
    87                           	global	??_delay
    88  0072                     ??_delay:	; 0 bytes @ 0x2
    89                           	global	??_main
    90  0072                     ??_main:	; 0 bytes @ 0x2
    91 ;;Data sizes: Strings 0, constant 0, data 0, bss 0, persistent 0 stack 0
    92 ;;Auto spaces:   Size  Autos    Used
    93 ;; COMMON          14      2       2
    94 ;; BANK0           80      0       0
    95 ;; BANK1           80      0       0
    96 ;; BANK3           96      0       0
    97 ;; BANK2           96      0       0
    98                           
    99 ;;
   100 ;; Pointer list with targets:
   101                           
   102                           
   103                           
   104 ;;
   105 ;; Critical Paths under _main in COMMON
   106 ;;
   107 ;;   _main->_delay
   108 ;;
   109 ;; Critical Paths under _main in BANK0
   110 ;;
   111 ;;   None.
   112 ;;
   113 ;; Critical Paths under _main in BANK1
   114 ;;
   115 ;;   None.
   116 ;;
   117 ;; Critical Paths under _main in BANK3
   118 ;;
   119 ;;   None.
   120 ;;
   121 ;; Critical Paths under _main in BANK2
   122 ;;
   123 ;;   None.
   124                           
   125 ;;
   126 ;;Main: autosize = 0, tempsize = 0, incstack = 0, save=0
   127 ;;
   128                           
   129 ;;
   130 ;;Call Graph Tables:
   131 ;;
   132 ;; ---------------------------------------------------------------------------------
   133 ;; (Depth) Function   	        Calls       Base Space   Used Autos Params    Refs
   134 ;; ---------------------------------------------------------------------------------
   135 ;; (0) _main                                                 0     0      0      15
   136 ;;                              _delay
   137 ;; ---------------------------------------------------------------------------------
   138 ;; (1) _delay                                                2     0      2      15
   139 ;;                                              0 COMMON     2     0      2
   140 ;; ---------------------------------------------------------------------------------
   141 ;; Estimated maximum stack depth 1
   142 ;; ---------------------------------------------------------------------------------
   143                           
   144 ;; Call Graph Graphs:
   145                           
   146 ;; _main (ROOT)
   147 ;;   _delay
   148 ;;
   149                           
   150 ;; Address spaces:
   151                           
   152 ;;Name               Size   Autos  Total    Cost      Usage
   153 ;;BITCOMMON            E      0       0       0        0.0%
   154 ;;EEDATA             100      0       0       0        0.0%
   155 ;;NULL                 0      0       0       0        0.0%
   156 ;;CODE                 0      0       0       0        0.0%
   157 ;;COMMON               E      2       2       1       14.3%
   158 ;;BITSFR0              0      0       0       1        0.0%
   159 ;;SFR0                 0      0       0       1        0.0%
   160 ;;BITSFR1              0      0       0       2        0.0%
   161 ;;SFR1                 0      0       0       2        0.0%
   162 ;;STACK                0      0       1       2        0.0%
   163 ;;ABS                  0      0       0       3        0.0%
   164 ;;BITBANK0            50      0       0       4        0.0%
   165 ;;BITSFR3              0      0       0       4        0.0%
   166 ;;SFR3                 0      0       0       4        0.0%
   167 ;;BANK0               50      0       0       5        0.0%
   168 ;;BITSFR2              0      0       0       5        0.0%
   169 ;;SFR2                 0      0       0       5        0.0%
   170 ;;BITBANK1            50      0       0       6        0.0%
   171 ;;BANK1               50      0       0       7        0.0%
   172 ;;BITBANK3            60      0       0       8        0.0%
   173 ;;BANK3               60      0       0       9        0.0%
   174 ;;BITBANK2            60      0       0      10        0.0%
   175 ;;BANK2               60      0       0      11        0.0%
   176 ;;DATA                 0      0       0      12        0.0%
   177                           
   178                           	global	_main
   179                           psect	maintext
   180                           
   181 ;; *************** function _main *****************
   182 ;; Defined at:
   183 ;;		line 13 in file "C:\Users\TECH\Desktop\madhu pic folder\SWITCH\4..2switch4led\2switch4led.c"
   184 ;; Parameters:    Size  Location     Type
   185 ;;		None
   186 ;; Auto vars:     Size  Location     Type
   187 ;;		None
   188 ;; Return value:  Size  Location     Type
   189 ;;                  2  564[COMMON] int 
   190 ;; Registers used:
   191 ;;		wreg, status,2, status,0, pclath, cstack
   192 ;; Tracked objects:
   193 ;;		On entry : 17F/0
   194 ;;		On exit  : 0/0
   195 ;;		Unchanged: 0/0
   196 ;; Data sizes:     COMMON   BANK0   BANK1   BANK3   BANK2
   197 ;;      Params:         0       0       0       0       0
   198 ;;      Locals:         0       0       0       0       0
   199 ;;      Temps:          0       0       0       0       0
   200 ;;      Totals:         0       0       0       0       0
   201 ;;Total ram usage:        0 bytes
   202 ;; Hardware stack levels required when called:    1
   203 ;; This function calls:
   204 ;;		_delay
   205 ;; This function is called by:
   206 ;;		Startup code after reset
   207 ;; This function uses a non-reentrant model
   208 ;;
   209                           psect	maintext
   210                           	file	"C:\Users\TECH\Desktop\madhu pic folder\SWITCH\4..2switch4led\2switch4led.c"
   211                           	line	13
   212                           	global	__size_of_main
   213  0055                     	__size_of_main	equ	__end_of_main-_main
   214                           	
   215  07AB                     _main:	
   216                           	opt	stack 8
   217                           ; Regs used in _main: [wreg+status,2+status,0+pclath+cstack]
   218                           	line	14
   219                           	
   220  07AB                     l1737:	
   221                           ;2switch4led.c: 14: TRISB=0X05;
   222  07AB  3005               	movlw	(05h)
   223  07AC  1683               	bsf	status, 5	;RP0=1, select bank1
   224  07AD  1303               	bcf	status, 6	;RP1=0, select bank1
   225  07AE  0086               	movwf	(134)^080h	;volatile
   226                           	line	15
   227                           	
   228  07AF                     l1739:	
   229                           ;2switch4led.c: 15: PORTB=0X00;
   230  07AF  1283               	bcf	status, 5	;RP0=0, select bank0
   231  07B0  1303               	bcf	status, 6	;RP1=0, select bank0
   232  07B1  0186               	clrf	(6)	;volatile
   233                           	line	16
   234                           ;2switch4led.c: 16: while(1)
   235                           	
   236  07B2                     l565:	
   237                           	line	18
   238                           	
   239  07B2                     l1741:	
   240                           ;2switch4led.c: 17: {
   241                           ;2switch4led.c: 18: if((RB0==1)&&(RB2==0))
   242  07B2  1C06               	btfss	(48/8),(48)&7
   243  07B3  2FB5               	goto	u2151
   244  07B4  2FB6               	goto	u2150
   245  07B5                     u2151:
   246  07B5  2FBC               	goto	l566
   247  07B6                     u2150:
   248                           	
   249  07B6                     l1743:	
   250  07B6  1906               	btfsc	(50/8),(50)&7
   251  07B7  2FB9               	goto	u2161
   252  07B8  2FBA               	goto	u2160
   253  07B9                     u2161:
   254  07B9  2FBC               	goto	l566
   255  07BA                     u2160:
   256                           	line	20
   257                           	
   258  07BA                     l1745:	
   259                           ;2switch4led.c: 19: {
   260                           ;2switch4led.c: 20: RB1=1;
   261  07BA  1486               	bsf	(49/8),(49)&7
   262                           	line	21
   263                           ;2switch4led.c: 21: }
   264  07BB  2FBD               	goto	l567
   265                           	line	22
   266                           	
   267  07BC                     l566:	
   268                           	line	24
   269                           ;2switch4led.c: 22: else
   270                           ;2switch4led.c: 23: {
   271                           ;2switch4led.c: 24: RB1=0;
   272  07BC  1086               	bcf	(49/8),(49)&7
   273                           	line	25
   274                           	
   275  07BD                     l567:	
   276                           	line	26
   277                           ;2switch4led.c: 25: }
   278                           ;2switch4led.c: 26: if((RB2==1)&&(RB0==0))
   279  07BD  1D06               	btfss	(50/8),(50)&7
   280  07BE  2FC0               	goto	u2171
   281  07BF  2FC1               	goto	u2170
   282  07C0                     u2171:
   283  07C0  2FC7               	goto	l568
   284  07C1                     u2170:
   285                           	
   286  07C1                     l1747:	
   287  07C1  1806               	btfsc	(48/8),(48)&7
   288  07C2  2FC4               	goto	u2181
   289  07C3  2FC5               	goto	u2180
   290  07C4                     u2181:
   291  07C4  2FC7               	goto	l568
   292  07C5                     u2180:
   293                           	line	28
   294                           	
   295  07C5                     l1749:	
   296                           ;2switch4led.c: 27: {
   297                           ;2switch4led.c: 28: RB3=1;
   298  07C5  1586               	bsf	(51/8),(51)&7
   299                           	line	29
   300                           ;2switch4led.c: 29: }
   301  07C6  2FC8               	goto	l569
   302                           	line	30
   303                           	
   304  07C7                     l568:	
   305                           	line	32
   306                           ;2switch4led.c: 30: else
   307                           ;2switch4led.c: 31: {
   308                           ;2switch4led.c: 32: RB3=0;
   309  07C7  1186               	bcf	(51/8),(51)&7
   310                           	line	33
   311                           	
   312  07C8                     l569:	
   313                           	line	34
   314                           ;2switch4led.c: 33: }
   315                           ;2switch4led.c: 34: if((RB0==1)&&(RB2==0))
   316  07C8  1C06               	btfss	(48/8),(48)&7
   317  07C9  2FCB               	goto	u2191
   318  07CA  2FCC               	goto	u2190
   319  07CB                     u2191:
   320  07CB  2FE2               	goto	l570
   321  07CC                     u2190:
   322                           	
   323  07CC                     l1751:	
   324  07CC  1906               	btfsc	(50/8),(50)&7
   325  07CD  2FCF               	goto	u2201
   326  07CE  2FD0               	goto	u2200
   327  07CF                     u2201:
   328  07CF  2FE2               	goto	l570
   329  07D0                     u2200:
   330                           	line	36
   331                           	
   332  07D0                     l1753:	
   333                           ;2switch4led.c: 35: {
   334                           ;2switch4led.c: 36: delay(5000);
   335  07D0  3088               	movlw	low(01388h)
   336  07D1  00F0               	movwf	(?_delay)
   337  07D2  3013               	movlw	high(01388h)
   338  07D3  00F1               	movwf	((?_delay))+1
   339  07D4  120A  118A  2799   	fcall	_delay
              120A  118A         
   340                           	line	37
   341                           	
   342  07D9                     l1755:	
   343                           ;2switch4led.c: 37: if(RB2==1)
   344  07D9  1283               	bcf	status, 5	;RP0=0, select bank0
   345  07DA  1303               	bcf	status, 6	;RP1=0, select bank0
   346  07DB  1D06               	btfss	(50/8),(50)&7
   347  07DC  2FDE               	goto	u2211
   348  07DD  2FDF               	goto	u2210
   349  07DE                     u2211:
   350  07DE  2FE1               	goto	l571
   351  07DF                     u2210:
   352                           	line	39
   353                           	
   354  07DF                     l1757:	
   355                           ;2switch4led.c: 38: {
   356                           ;2switch4led.c: 39: RB4=1;
   357  07DF  1606               	bsf	(52/8),(52)&7
   358                           	line	41
   359                           ;2switch4led.c: 41: }
   360  07E0  2FE2               	goto	l572
   361                           	line	42
   362                           	
   363  07E1                     l571:	
   364                           	line	44
   365                           ;2switch4led.c: 42: else
   366                           ;2switch4led.c: 43: {
   367                           ;2switch4led.c: 44: RB4=0;
   368  07E1  1206               	bcf	(52/8),(52)&7
   369                           	line	45
   370                           	
   371  07E2                     l572:	
   372                           	line	46
   373                           	
   374  07E2                     l570:	
   375                           	line	47
   376                           ;2switch4led.c: 45: }
   377                           ;2switch4led.c: 46: }
   378                           ;2switch4led.c: 47: if((RB2==1)&&(RB0==0))
   379  07E2  1D06               	btfss	(50/8),(50)&7
   380  07E3  2FE5               	goto	u2221
   381  07E4  2FE6               	goto	u2220
   382  07E5                     u2221:
   383  07E5  2FFC               	goto	l573
   384  07E6                     u2220:
   385                           	
   386  07E6                     l1759:	
   387  07E6  1806               	btfsc	(48/8),(48)&7
   388  07E7  2FE9               	goto	u2231
   389  07E8  2FEA               	goto	u2230
   390  07E9                     u2231:
   391  07E9  2FFC               	goto	l573
   392  07EA                     u2230:
   393                           	line	49
   394                           	
   395  07EA                     l1761:	
   396                           ;2switch4led.c: 48: {
   397                           ;2switch4led.c: 49: delay(5000);
   398  07EA  3088               	movlw	low(01388h)
   399  07EB  00F0               	movwf	(?_delay)
   400  07EC  3013               	movlw	high(01388h)
   401  07ED  00F1               	movwf	((?_delay))+1
   402  07EE  120A  118A  2799   	fcall	_delay
              120A  118A         
   403                           	line	52
   404                           	
   405  07F3                     l1763:	
   406                           ;2switch4led.c: 52: if(RB0==1)
   407  07F3  1283               	bcf	status, 5	;RP0=0, select bank0
   408  07F4  1303               	bcf	status, 6	;RP1=0, select bank0
   409  07F5  1C06               	btfss	(48/8),(48)&7
   410  07F6  2FF8               	goto	u2241
   411  07F7  2FF9               	goto	u2240
   412  07F8                     u2241:
   413  07F8  2FFB               	goto	l574
   414  07F9                     u2240:
   415                           	line	54
   416                           	
   417  07F9                     l1765:	
   418                           ;2switch4led.c: 53: {
   419                           ;2switch4led.c: 54: RB5=1;
   420  07F9  1686               	bsf	(53/8),(53)&7
   421                           	line	55
   422                           ;2switch4led.c: 55: }
   423  07FA  2FFC               	goto	l575
   424                           	line	57
   425                           	
   426  07FB                     l574:	
   427                           	line	59
   428                           ;2switch4led.c: 57: else
   429                           ;2switch4led.c: 58: {
   430                           ;2switch4led.c: 59: RB5=0;
   431  07FB  1286               	bcf	(53/8),(53)&7
   432                           	line	60
   433                           	
   434  07FC                     l575:	
   435                           	line	61
   436                           	
   437  07FC                     l573:	
   438                           	line	62
   439                           	
   440  07FC                     l576:	
   441                           	line	16
   442  07FC  2FB2               	goto	l565
   443                           	
   444  07FD                     l577:	
   445                           	line	63
   446                           	
   447  07FD                     l578:	
   448                           	global	start
   449  07FD  120A  118A  2800   	ljmp	start
   450                           	opt stack 0
   451                           GLOBAL	__end_of_main
   452  0800                     	__end_of_main:
   453 ;; =============== function _main ends ============
   454                           
   455                           	signat	_main,90
   456                           	global	_delay
   457                           psect	text55,local,class=CODE,delta=2
   458                           global __ptext55
   459  0799                     __ptext55:
   460                           
   461 ;; *************** function _delay *****************
   462 ;; Defined at:
   463 ;;		line 9 in file "C:\Users\TECH\Desktop\madhu pic folder\SWITCH\4..2switch4led\2switch4led.c"
   464 ;; Parameters:    Size  Location     Type
   465 ;;  x               2    0[COMMON] unsigned int 
   466 ;; Auto vars:     Size  Location     Type
   467 ;;		None
   468 ;; Return value:  Size  Location     Type
   469 ;;		None               void
   470 ;; Registers used:
   471 ;;		wreg
   472 ;; Tracked objects:
   473 ;;		On entry : 0/0
   474 ;;		On exit  : 0/0
   475 ;;		Unchanged: 0/0
   476 ;; Data sizes:     COMMON   BANK0   BANK1   BANK3   BANK2
   477 ;;      Params:         2       0       0       0       0
   478 ;;      Locals:         0       0       0       0       0
   479 ;;      Temps:          0       0       0       0       0
   480 ;;      Totals:         2       0       0       0       0
   481 ;;Total ram usage:        2 bytes
   482 ;; Hardware stack levels used:    1
   483 ;; This function calls:
   484 ;;		Nothing
   485 ;; This function is called by:
   486 ;;		_main
   487 ;; This function uses a non-reentrant model
   488 ;;
   489                           psect	text55
   490                           	file	"C:\Users\TECH\Desktop\madhu pic folder\SWITCH\4..2switch4led\2switch4led.c"
   491                           	line	9
   492                           	global	__size_of_delay
   493  0012                     	__size_of_delay	equ	__end_of_delay-_delay
   494                           	
   495  0799                     _delay:	
   496                           	opt	stack 7
   497                           ; Regs used in _delay: [wreg]
   498                           	line	10
   499                           	
   500  0799                     l947:	
   501                           ;2switch4led.c: 10: while(x--);
   502  0799  2F9A               	goto	l559
   503                           	
   504  079A                     l560:	
   505                           	
   506  079A                     l559:	
   507                           	
   508  079A                     l949:	
   509  079A  3001               	movlw	low(01h)
   510  079B  02F0               	subwf	(delay@x),f
   511  079C  3000               	movlw	high(01h)
   512  079D  1C03               	skipc
   513  079E  03F1               	decf	(delay@x+1),f
   514  079F  02F1               	subwf	(delay@x+1),f
   515  07A0  30FF               	movlw	high(0FFFFh)
   516  07A1  0671               	xorwf	((delay@x+1)),w
   517  07A2  1D03               	skipz
   518  07A3  2FA6               	goto	u15
   519  07A4  30FF               	movlw	low(0FFFFh)
   520  07A5  0670               	xorwf	((delay@x)),w
   521  07A6                     u15:
   522                           
   523  07A6  1D03               	skipz
   524  07A7  2FA9               	goto	u11
   525  07A8  2FAA               	goto	u10
   526  07A9                     u11:
   527  07A9  2F9A               	goto	l560
   528  07AA                     u10:
   529                           	
   530  07AA                     l561:	
   531                           	line	11
   532                           	
   533  07AA                     l562:	
   534  07AA  0008               	return
   535                           	opt stack 0
   536                           GLOBAL	__end_of_delay
   537  07AB                     	__end_of_delay:
   538 ;; =============== function _delay ends ============
   539                           
   540                           	signat	_delay,4216
   541                           psect	text56,local,class=CODE,delta=2
   542                           global __ptext56
   543  0000                     __ptext56:
   544                           	global	btemp
   545  007E                     	btemp set 07Eh
   546                           
   547                           	DABS	1,126,2	;btemp
   548                           	global	wtemp0
   549  007E                     	wtemp0 set btemp


HI-TECH Software PICC Macro Assembler V9.71a build 6446 
Symbol Table                                                                                   Fri Sep 16 17:33:09 2022

                  u10 07AA                    u11 07A9                    u15 07A6                   l560 079A  
                 l561 07AA                   l562 07AA                   l570 07E2                   l571 07E1  
                 l572 07E2                   l573 07FC                   l565 07B2                   l574 07FB  
                 l566 07BC                   l559 079A                   l575 07FC                   l567 07BD  
                 l576 07FC                   l568 07C7                   l577 07FD                   l569 07C8  
                 l578 07FD                   l947 0799                   l949 079A                   _RB0 0030  
                 _RB1 0031                   _RB2 0032                   _RB3 0033                   _RB4 0034  
                 _RB5 0035                  l1741 07B2                  l1751 07CC                  l1743 07B6  
                l1761 07EA                  l1753 07D0                  l1745 07BA                  l1737 07AB  
                l1763 07F3                  l1755 07D9                  l1747 07C1                  l1739 07AF  
                l1765 07F9                  l1757 07DF                  l1749 07C5                  l1759 07E6  
                u2200 07D0                  u2201 07CF                  u2210 07DF                  u2211 07DE  
                u2220 07E6                  u2221 07E5                  u2230 07EA                  u2150 07B6  
                u2231 07E9                  u2151 07B5                  u2240 07F9                  u2160 07BA  
                u2241 07F8                  u2161 07B9                  u2170 07C1                  u2171 07C0  
                u2180 07C5                  u2181 07C4                  u2190 07CC                  u2191 07CB  
                _main 07AB                  btemp 007E                  start 0000                 ?_main 0070  
               _PORTB 0006                 _TRISB 0086                 _delay 0799                 status 0003  
               wtemp0 007E          __end_of_main 0800                ??_main 0072                ?_delay 0070  
              delay@x 0070        __pcstackCOMMON 0070         __end_of_delay 07AB               ??_delay 0072  
          __pmaintext 07AB  end_of_initialization 0795   start_initialization 0795        __size_of_delay 0012  
            __ptext55 0799              __ptext56 0000         __size_of_main 0055  
